
build/bootloader_Trinita.elf:     file format elf32-littleriscv

Contents of section .rom_section.init:
 f9007800 97010800 9381017f 138101c2 13850181  ................
 f9007810 93850181 1386c181 63fcc500 83220500  ........c...."..
 f9007820 23a05500 13054500 93854500 e3e8c5fe  #.U...E...E.....
 f9007830 1385c181 93850182 6378b500 23200500  ........cx..# ..
 f9007840 13054500 e36cb5fe ef000001 ef008054  ..E..l.........T
 f9007850 6f000000 67800000                    o...g...        
Contents of section .rom_section.text:
 f9007858 130101ff 23248100 23202101 13840181  ....#$..# !.....
 f9007868 13890181 33098940 23261100 23229100  ....3..@#&..#"..
 f9007878 13592940 630e0900 93040000 83270400  .Y)@c........'..
 f9007888 93841400 13044400 e7800700 e31899fe  ......D.........
 f9007898 13840181 13890181 33098940 13592940  ........3..@.Y)@
 f90078a8 630e0900 93040000 83270400 93841400  c........'......
 f90078b8 13044400 e7800700 e31899fe 8320c100  ..D.......... ..
 f90078c8 03248100 83244100 03290100 13010101  .$...$A..)......
 f90078d8 67800000 b7470f00 93870724 b3d5f502  g....G.....$....
 f90078e8 b7c70000 938787ff 3306f600 83270600  ........3....'..
 f90078f8 3385a502 3305f500 83270600 b307f540  3...3....'.....@
 f9007908 e3dc07fe 67800000 03254500 13150501  ....g....%E.....
 f9007918 13550501 67800000 03254500 13550501  .U..g....%E..U..
 f9007928 67800000 130101ff 23261100 23248100  g.......#&..#$..
 f9007938 23229100 13040500 93840500 13050400  #"..............
 f9007948 eff09ffc e30c05fe 93e40410 23209400  ............# ..
 f9007958 8320c100 03248100 83244100 13010101  . ...$...$A.....
 f9007968 67800000 130101ff 23261100 23248100  g.......#&..#$..
 f9007978 13040500 13050400 eff01ff9 e30c05fe  ................
 f9007988 93070020 2320f400 13050400 eff0dff8  ... # ..........
 f9007998 e30c05fe 03250400 1375f50f 8320c100  .....%...u... ..
 f90079a8 03248100 13010101 67800000 130101ff  .$......g.......
 f90079b8 23261100 23248100 23229100 13040500  #&..#$..#"......
 f90079c8 93840500 13050400 eff01ff4 e30c05fe  ................
 f90079d8 b7170000 93870788 b3e4f400 23209400  ............# ..
 f90079e8 8320c100 03248100 83244100 13010101  . ...$...$A.....
 f90079f8 67800000 130101ff 23261100 23248100  g.......#&..#$..
 f9007a08 23229100 13040500 93840500 13050400  #"..............
 f9007a18 eff09fef e30c05fe b7170000 93870780  ................
 f9007a28 b3e4f400 23209400 8320c100 03248100  ....# ... ...$..
 f9007a38 83244100 13010101 67800000 83a70500  .$A.....g.......
 f9007a48 03a74500 13171700 b3e7e700 03a78500  ..E.............
 f9007a58 13174700 b3e7e700 2324f500 83a7c500  ..G.....#$......
 f9007a68 2320f502 83a70501 2322f502 83a74501  # ......#"....E.
 f9007a78 2324f502 83a78501 2326f502 67800000  #$......#&..g...
 f9007a88 130101ff 23261100 23248100 13040500  ....#&..#$......
 f9007a98 3706b0f8 b7857d01 93850584 13051000  7.....}.........
 f9007aa8 eff05fe3 13050400 eff01fe6 93070010  .._.............
 f9007ab8 e31af5fe 8320c100 03248100 13010101  ..... ...$......
 f9007ac8 67800000 130101ff 23261100 eff01fee  g.......#&......
 f9007ad8 8320c100 13010101 67800000 130101ff  . ......g.......
 f9007ae8 23261100 eff01ff1 8320c100 13010101  #&....... ......
 f9007af8 67800000 130101fd 23261102 23248102  g.......#&..#$..
 f9007b08 13040500 23220100 23240100 23260100  ....#"..#$..#&..
 f9007b18 93072000 2328f100 232af100 232cf100  .. .#(..#*..#,..
 f9007b28 232ef100 93054100 eff05ff1 13050400  #.....A..._.....
 f9007b38 eff01ff5 8320c102 03248102 13010103  ..... ...$......
 f9007b48 67800000 130101ff 23261100 23248100  g.......#&..#$..
 f9007b58 23229100 13040500 93840500 eff09ff9  #"..............
 f9007b68 93850400 13050400 eff05ff7 8320c100  .........._.. ..
 f9007b78 03248100 83244100 13010101 67800000  .$...$A.....g...
 f9007b88 130101ff 23261100 9305b00a eff09fd9  ....#&..........
 f9007b98 8320c100 13010101 67800000 130101ff  . ......g.......
 f9007ba8 23261100 23248100 23229100 13040500  #&..#$..#"......
 f9007bb8 93840500 eff01ff1 13050400 eff05ffc  .............._.
 f9007bc8 93850400 13050400 eff05ff1 13050400  .........._.....
 f9007bd8 eff01feb 8320c100 03248100 83244100  ..... ...$...$A.
 f9007be8 13010101 67800000 130101fe 232e1100  ....g.......#...
 f9007bf8 232c8100 232a9100 23282101 23263101  #,..#*..#(!.#&1.
 f9007c08 13090500 93840500 13040600 93890600  ................
 f9007c18 9305b000 eff01fd1 93d50401 93f5f50f  ................
 f9007c28 13050900 eff01fd0 93d58400 93f5f50f  ................
 f9007c38 13050900 eff01fcf 93f5f40f 13050900  ................
 f9007c48 eff05fce 93050000 13050900 eff09fcd  .._.............
 f9007c58 93040000 63fe3401 13050900 eff09fd0  ....c.4.........
 f9007c68 2300a400 93841400 13041400 6ff09ffe  #...........o...
 f9007c78 8320c101 03248101 83244101 03290101  . ...$...$A..)..
 f9007c88 8329c100 13010102 67800000 130101fe  .)......g.......
 f9007c98 232e1100 232c8100 232a9100 23282101  #...#,..#*..#(!.
 f9007ca8 23263101 23244101 13040500 93840500  #&1.#$A.........
 f9007cb8 13090600 93890600 130a0700 eff09fe0  ................
 f9007cc8 93060a00 13860900 93050900 13050400  ................
 f9007cd8 eff09ff1 93850400 13050400 eff01fe0  ................
 f9007ce8 8320c101 03248101 83244101 03290101  . ...$...$A..)..
 f9007cf8 8329c100 032a8100 13010102 67800000  .)...*......g...
 f9007d08 130101ff 23261100 23248100 93050000  ....#&..#$......
 f9007d18 374501f8 eff01fe3 93050000 374501f8  7E..........7E..
 f9007d28 eff0dfe7 37840000 13070480 b70600f9  ....7...........
 f9007d38 37061000 93050000 374501f8 eff01ff5  7.......7E......
 f9007d48 13070480 b70608f9 37061800 93050000  ........7.......
 f9007d58 374501f8 eff09ff3 0f100000 13000000  7E..............
 f9007d68 13000000 13000000 13000000 13000000  ................
 f9007d78 13000000 b70700f9 e7800700 8320c100  ............. ..
 f9007d88 03248100 13010101 67800000 130101ff  .$......g.......
 f9007d98 23261100 eff0dff6 8320c100 13010101  #&....... ......
 f9007da8 67800000                             g...            
Contents of section .ram_section.data:
 f9087800 00000000 00000000 0000               ..........      
Contents of section .debug_info:
 0000 31140000 04000000 00000401 f1590000  1............Y..
 0010 0c622100 00550c00 00dc7800 f9d00400  .b!..U....x.....
 0020 00000000 00000000 00020106 98070000  ................
 0030 03bc3100 00072b18 3c000000 02010852  ..1...+.<......R
 0040 51000002 02056708 00000202 078a5f00  Q.....g......._.
 0050 00034982 0000074d 185d0000 00020405  ..I....M.]......
 0060 a2860000 034c4400 00074f19 70000000  .....LD...O.p...
 0070 020407d2 18000002 0805a747 00000208  ...........G....
 0080 07876d00 00040405 696e7400 020407b0  ..m.....int.....
 0090 1f000003 be310000 08181330 00000003  .....1.....0....
 00a0 4b820000 082c1351 00000003 4e440000  K....,.Q....ND..
 00b0 08301464 00000005 75333200 091e15ab  .0.d....u32.....
 00c0 00000005 75380009 22159300 00000210  ....u8..".......
 00d0 04840300 0006dd21 00000a65 01178c00  .......!...e....
 00e0 0000032c 7e00000b 2e0e5d00 000003ae  ...,~.....].....
 00f0 5a00000b 740e5d00 0000034b 7400000b  Z...t.]....Kt...
 0100 93178500 00000704 0ba50328 01000008  ...........(....
 0110 29100000 0ba70cd5 00000008 0d1a0000  )...............
 0120 0ba81328 01000000 093c0000 00380100  ...(.....<...8..
 0130 000a8c00 00000300 0b080ba2 095c0100  .............\..
 0140 000c8754 00000ba4 07850000 00000cd8  ...T............
 0150 0200000b a9050601 00000400 033b6600  .............;f.
 0160 000baa03 38010000 0d0403b5 7a00000c  ....8.......z...
 0170 16197000 00000306 3d00000d 0c0d8500  ..p.....=.......
 0180 00000351 1700000c 231b7601 00000e9e  ...Q....#.v.....
 0190 40000018 0c3408e8 0100000c 2e520000  @....4.......R..
 01a0 0c3613e8 01000000 0f5f6b00 0c370785  .6......._k..7..
 01b0 00000004 0ca57300 000c370b 85000000  ......s...7.....
 01c0 080c3e4a 00000c37 14850000 000c0c96  ..>J...7........
 01d0 3300000c 371b8500 0000100f 5f78000c  3...7......._x..
 01e0 380bee01 00001400 10048e01 0000096a  8..............j
 01f0 010000fe 0100000a 8c000000 00000e24  ...............$
 0200 08000024 0c3c0881 0200000c 40080000  ...$.<......@...
 0210 0c3e0985 00000000 0cd08700 000c3f09  .>............?.
 0220 85000000 040c777f 00000c40 09850000  ......w....@....
 0230 00080cb5 5000000c 41098500 00000c0c  ....P...A.......
 0240 4c190000 0c420985 00000010 0c297400  L....B.......)t.
 0250 000c4309 85000000 140c2056 00000c44  ..C....... V...D
 0260 09850000 00180ce1 5600000c 45098500  ........V...E...
 0270 00001c0c d0830000 0c460985 00000020  .........F..... 
 0280 0011ec11 00000801 0c4f08c6 0200000c  .........O......
 0290 aa830000 0c500ac6 02000000 0cd95e00  .....P........^.
 02a0 000c5109 c6020000 80123118 00000c53  ..Q.......1....S
 02b0 0a6a0100 00000112 b7780000 0c560a6a  .j.......x...V.j
 02c0 01000004 01000968 010000d6 0200000a  .......h........
 02d0 8c000000 1f00110f 53000090 010c6208  ........S.....b.
 02e0 19030000 0c2e5200 000c6312 19030000  ......R...c.....
 02f0 000c5077 00000c64 06850000 00040ce1  ..Pw...d........
 0300 2500000c 66091f03 0000080c ec110000  %...f...........
 0310 0c671e81 02000088 001004d6 02000009  .g..............
 0320 2f030000 2f030000 0a8c0000 001f0010  /.../...........
 0330 04350300 00130e87 17000008 0c7a085e  .5...........z.^
 0340 0300000c ea610000 0c7b115e 03000000  .....a...{.^....
 0350 0c390a00 000c7c06 85000000 04001004  .9....|.........
 0360 3c000000 0ec07f00 00680cba 08a70400  <........h......
 0370 000f5f70 000cbb12 5e030000 000f5f72  .._p....^....._r
 0380 000cbc07 85000000 040f5f77 000cbd07  .........._w....
 0390 85000000 080c4b52 00000cbe 09430000  ......KR.....C..
 03a0 000c0c9b 1100000c bf094300 00000e0f  ..........C.....
 03b0 5f626600 0cc01136 03000010 0cdc7600  _bf....6......v.
 03c0 000cc107 85000000 180cd432 00000cc8  ...........2....
 03d0 0a680100 001c0ccf 5a00000c ca1d2b06  .h......Z.....+.
 03e0 0000200c 240f0000 0ccc1d55 06000024  .. .$......U...$
 03f0 0cb35900 000ccf0d 79060000 280cd626  ..Y.....y...(..&
 0400 00000cd0 09930600 002c0f5f 7562000c  .........,._ub..
 0410 d3113603 0000300f 5f757000 0cd4125e  ..6...0._up....^
 0420 03000038 0f5f7572 000cd507 85000000  ...8._ur........
 0430 3c0cff50 00000cd8 11990600 00400c3a  <..P.........@.:
 0440 0800000c d911a906 0000430f 5f6c6200  ..........C._lb.
 0450 0cdc1136 03000044 0c5f6100 000cdf07  ...6...D._a.....
 0460 85000000 4c0cc535 00000ce0 0ae20000  ....L..5........
 0470 00500c39 6800000c e312c504 0000540c  .P.9h.........T.
 0480 dc0a0000 0ce70c82 01000058 0cb25100  ...........X..Q.
 0490 000ce90e 5c010000 5c0c4d4c 00000cea  ....\...\.ML....
 04a0 09850000 00640014 fa000000 c5040000  .....d..........
 04b0 15c50400 00156801 00001519 06000015  ......h.........
 04c0 85000000 001004d0 04000016 c5040000  ................
 04d0 17682200 0028040c 65020819 06000018  .h"..(..e.......
 04e0 1d4f0000 0c670207 85000000 0018460a  .O...g........F.
 04f0 00000c6c 020b0507 00000418 171e0000  ...l............
 0500 0c6c0214 05070000 08186051 00000c6c  .l........`Q...l
 0510 021e0507 00000c18 29240000 0c6e0208  ........)$...n..
 0520 85000000 10185744 00000c6f 02080509  ......WD...o....
 0530 00001418 bd210000 0c720207 85000000  .....!...r......
 0540 3018ad7a 00000c73 02161a09 00003418  0..z...s......4.
 0550 1c3b0000 0c750207 85000000 38188d41  .;...u......8..A
 0560 00000c77 020a2b09 00003c18 577c0000  ...w..+...<.W|..
 0570 0c7a0213 e8010000 4018e714 00000c7b  .z......@......{
 0580 02078500 00004418 4e3a0000 0c7c0213  ......D.N:...|..
 0590 e8010000 48186e49 00000c7d 02143109  ....H.nI...}..1.
 05a0 00004c18 1a060000 0c800207 85000000  ..L.............
 05b0 5018f635 00000c81 02091906 00005418  P..5..........T.
 05c0 e0500000 0ca40207 e0080000 58190f53  .P..........X..S
 05d0 00000ca8 02131903 00004801 19af4100  ..........H...A.
 05e0 000ca902 12d60200 004c0119 81340000  .........L...4..
 05f0 0cad020c 42090000 dc021969 8300000c  ....B......i....
 0600 b20210c6 060000e0 02194003 00000cb4  ..........@.....
 0610 020a4e09 0000ec02 0010041f 06000002  ..N.............
 0620 01089f07 0000161f 06000010 04a70400  ................
 0630 0014fa00 00004f06 000015c5 04000015  ......O.........
 0640 68010000 154f0600 00158500 00000010  h....O..........
 0650 04260600 00100431 06000014 ee000000  .&.....1........
 0660 79060000 15c50400 00156801 000015ee  y.........h.....
 0670 00000015 85000000 0010045b 06000014  ...........[....
 0680 85000000 93060000 15c50400 00156801  ..............h.
 0690 00000010 047f0600 00093c00 0000a906  ..........<.....
 06a0 00000a8c 00000002 00093c00 0000b906  ..........<.....
 06b0 00000a8c 00000000 00066865 00000c24  ..........he...$
 06c0 011a6403 00001a38 4a00000c 0c280108  ..d....8J....(..
 06d0 ff060000 182e5200 000c2a01 11ff0600  ......R...*.....
 06e0 000018ca 4500000c 2b010785 00000004  ....E...+.......
 06f0 183a3600 000c2c01 0b050700 00080010  .:6...,.........
 0700 04c60600 001004b9 0600001a 395f0000  ............9_..
 0710 0e0c4401 08440700 00181759 00000c45  ..D..D.....Y...E
 0720 01124407 00000018 0b0d0000 0c460112  ..D..........F..
 0730 44070000 06180e7f 00000c47 01124a00  D..........G..J.
 0740 00000c00 094a0000 00540700 000a8c00  .....J...T......
 0750 00000200 1bd00c85 02076908 000018d8  ..........i.....
 0760 1b00000c 8702188c 00000000 18db1300  ................
 0770 000c8802 12190600 000418f6 0500000c  ................
 0780 89021069 08000008 18151700 000c8a02  ...i............
 0790 17fe0100 00241831 4700000c 8b020f85  .....$.1G.......
 07a0 00000048 18295200 000c8c02 2c7e0000  ...H.)R.....,~..
 07b0 005018a4 6600000c 8d021a0b 07000058  .P..f..........X
 07c0 18b46e00 000c8e02 165c0100 00681899  ..n......\...h..
 07d0 5b00000c 8f02165c 01000070 188a5100  [......\...p..Q.
 07e0 000c9002 165c0100 007818ba 0800000c  .....\...x......
 07f0 91021079 08000080 18743f00 000c9202  ...y.....t?.....
 0800 10890800 008818fe 0c00000c 93020f85  ................
 0810 000000a0 18351400 000c9402 165c0100  .....5.......\..
 0820 00a418a9 2600000c 9502165c 010000ac  ....&......\....
 0830 18738100 000c9602 165c0100 00b4187b  .s.......\.....{
 0840 5000000c 9702165c 010000bc 18290800  P......\.....)..
 0850 000c9802 165c0100 00c4181b 4f00000c  .....\......O...
 0860 99020885 000000cc 00091f06 00007908  ..............y.
 0870 00000a8c 00000019 00091f06 00008908  ................
 0880 00000a8c 00000007 00091f06 00009908  ................
 0890 00000a8c 00000017 001bf00c 9e0207c0  ................
 08a0 08000018 1a790000 0ca1021b c0080000  .....y..........
 08b0 0018b446 00000ca2 0218d008 00007800  ...F..........x.
 08c0 095e0300 00d00800 000a8c00 00001d00  .^..............
 08d0 098c0000 00e00800 000a8c00 00001d00  ................
 08e0 1cf00c83 02030509 00001d68 2200000c  ...........h"...
 08f0 9a020b54 0700001d d3230000 0ca3020b  ...T.....#......
 0900 99080000 00091f06 00001509 00000a8c  ................
 0910 00000018 001e3546 00001004 15090000  ......5F........
 0920 1f2b0900 0015c504 00000010 04200900  .+........... ..
 0930 001004e8 0100001f 42090000 15850000  ........B.......
 0940 00001004 48090000 10043709 000009b9  ....H.....7.....
 0950 0600005e 0900000a 8c000000 020020f4  ...^.......... .
 0960 1000000c 330317c5 04000020 cb730000  ....3...... .s..
 0970 0c34031d cb040000 21ca7200 000e670e  .4......!.r...g.
 0980 19060000 0204045b 7f000002 08048903  .......[........
 0990 00002279 44000005 04850000 000f5f02  .."yD........._.
 09a0 06b20900 00233025 00007f24 7b240000  .....#0%...${$..
 09b0 0000204a 3c00000f 68022392 0900000b  .. J<...h.#.....
 09c0 1c03340d 240a0000 0c043000 0003350d  ..4.$.....0...5.
 09d0 b7000000 000c0f0e 00000336 0db70000  ...........6....
 09e0 00040cfa 6f000003 370db700 0000080c  ....o...7.......
 09f0 a1870000 03380db7 0000000c 0ce75800  .....8........X.
 0a00 0003390d b7000000 100c2a56 0000033a  ..9.......*V...:
 0a10 0db70000 00140caa 46000003 3b0db700  ........F...;...
 0a20 00001800 035b5800 00033c07 bf090000  .....[X...<.....
 0a30 25f41700 00061c06 947d00f9 18000000  %........}......
 0a40 019c500a 000026a0 7d00f950 0a000000  ..P...&.}..P....
 0a50 25615600 00052906 087d00f9 8c000000  %aV...)..}......
 0a60 019c1e0b 0000273d 12000005 3209250b  ......'=....2.%.
 0a70 00008080 80482820 7d00f9f2 0d000092  .....H( }.......
 0a80 0a000029 015a0511 80808540 29015b01  ...).Z.....@).[.
 0a90 3000282c 7d00f926 0d0000ae 0a000029  0.(,}..&.......)
 0aa0 015a0511 80808540 29015b01 30002848  .Z.....@).[.0.(H
 0ab0 7d00f92b 0b0000e0 0a000029 015a0511  }..+.......).Z..
 0ac0 80808540 29015b01 3029015c 03404024  ...@).[.0).\.@@$
 0ad0 29015d04 4c46241f 29015e03 78807000  ).].LF$.).^.x.p.
 0ae0 28607d00 f92b0b00 00130b00 0029015a  (`}..+.......).Z
 0af0 05118080 85402901 5b013029 015c0348  .....@).[.0).\.H
 0b00 40242901 5d051180 80a04829 015e0378  @$).].....H).^.x
 0b10 8070002a 847d00f9 044c4624 1f002b25  .p.*.}...LF$..+%
 0b20 0b00002c 0010041e 0b00002d a9660000  ...,.......-.f..
 0b30 04870111 947c00f9 74000000 019ced0b  .....|..t.......
 0b40 00002e73 70690004 870122b7 00000000  ...spi....".....
 0b50 0000002e 63730004 87012bb7 0000002c  ....cs....+....,
 0b60 0000002f d43f0000 04870133 b7000000  .../.?.....3....
 0b70 58000000 2f223800 00048701 45b70000  X.../"8.....E...
 0b80 00840000 002f3a0a 00000487 0158b700  ...../:......X..
 0b90 0000b000 000028c8 7c00f900 0f0000b0  ......(.|.......
 0ba0 0b000029 015a0278 0029015b 02790000  ...).Z.x.).[.y..
 0bb0 28dc7c00 f9ed0b00 00d60b00 0029015a  (.|..........).Z
 0bc0 02780029 015b0282 0029015c 02830029  .x.).[...).\...)
 0bd0 015d0284 000030e8 7c00f9b2 0e000029  .]....0.|......)
 0be0 015a0278 0029015b 02790000 002dca02  .Z.x.).[.y...-..
 0bf0 00000407 0111f07b 00f9a400 0000019c  .......{........
 0c00 200d0000 2e737069 00040701 23b70000   ....spi....#...
 0c10 00dc0000 002fd43f 00000407 012cb700  ...../.?.....,..
 0c20 00000801 00002f22 38000004 07013eb7  ....../"8.....>.
 0c30 00000034 0100002f 3a0a0000 04070151  ...4.../:......Q
 0c40 b7000000 60010000 3172616d 00040d01  ....`...1ram....
 0c50 12200d00 008c0100 0032587c 00f92000  . .......2X|.. .
 0c60 00009f0c 00003169 64780004 0e0111b7  ......1idx......
 0c70 000000b7 01000033 00000000 34da0200  .......3....4...
 0c80 00040f01 10c30000 00d60100 0030687c  .............0h|
 0c90 00f97e11 00002901 5a028200 00000028  ..~...).Z......(
 0ca0 207c00f9 10120000 b80c0000 29015a02   |..........).Z.
 0cb0 82002901 5b013b00 28307c00 f9101200  ..).[.;.(0|.....
 0cc0 00d40c00 0029015a 02820029 015b0479  .....).Z...).[.y
 0cd0 00402500 28407c00 f9101200 00f00c00  .@%.(@|.........
 0ce0 0029015a 02820029 015b0479 00382500  .).Z...).[.y.8%.
 0cf0 284c7c00 f9101200 000a0d00 0029015a  (L|..........).Z
 0d00 02820029 015b0279 00003058 7c00f910  ...).[.y..0X|...
 0d10 12000029 015a0282 0029015b 01300000  ...).Z...).[.0..
 0d20 10049300 000035e4 01000004 b011a47b  ......5........{
 0d30 00f94c00 0000019c b40d0000 36737069  ..L.........6spi
 0d40 0004b023 b7000000 e9010000 36637300  ...#........6cs.
 0d50 04b02cb7 00000015 02000028 c07b00f9  ..,........(.{..
 0d60 000f0000 750d0000 29015a02 78002901  ....u...).Z.x.).
 0d70 5b027900 0028c87b 00f9b40d 0000890d  [.y..(.{........
 0d80 00002901 5a027800 0028d47b 00f9b20e  ..).Z.x..(.{....
 0d90 0000a30d 00002901 5a027800 29015b02  ......).Z.x.).[.
 0da0 79000030 dc7b00f9 4e0f0000 29015a02  y..0.{..N...).Z.
 0db0 78000000 35f91a00 00049311 887b00f9  x...5........{..
 0dc0 1c000000 019cf20d 00003673 70690004  ..........6spi..
 0dd0 9324b700 00004102 00003098 7b00f910  .$....A...0.{...
 0de0 12000029 015a03f3 015a2901 5b0209ab  ...).Z...Z).[...
 0df0 000035a5 45000004 85114c7b 00f93c00  ..5.E.....L{..<.
 0e00 0000019c 520e0000 36737069 00048523  ....R...6spi...#
 0e10 b7000000 62020000 36637300 04852cb7  ....b...6cs...,.
 0e20 0000008e 02000028 687b00f9 520e0000  .......(h{..R...
 0e30 3b0e0000 29015a02 78000030 747b00f9  ;...).Z.x..0t{..
 0e40 b20e0000 29015a02 78002901 5b027900  ....).Z.x.).[.y.
 0e50 000035e5 5e000004 5111fc7a 00f95000  ..5.^...Q..z..P.
 0e60 0000019c b20e0000 36737069 00045124  ........6spi..Q$
 0e70 b7000000 ba020000 376a5f00 00045214  ........7j_...R.
 0e80 240a0000 02915428 347b00f9 aa0f0000  $.....T(4{......
 0e90 a10e0000 29015a02 78002901 5b029154  ....).Z.x.).[..T
 0ea0 00303c7b 00f94e0f 00002901 5a027800  .0<{..N...).Z.x.
 0eb0 000035d5 5a000004 4811e47a 00f91800  ..5.Z...H..z....
 0ec0 0000019c 000f0000 36737069 00044827  ........6spi..H'
 0ed0 b7000000 e6020000 36637300 044830b7  ........6cs..H0.
 0ee0 00000007 03000030 f07a00f9 a2100000  .......0.z......
 0ef0 29015a03 f3015a29 015b03f3 015b0000  ).Z...Z).[...[..
 0f00 35b06c00 00043e11 cc7a00f9 18000000  5.l...>..z......
 0f10 019c4e0f 00003673 70690004 3e25b700  ..N...6spi..>%..
 0f20 00002803 00003663 7300043e 2eb70000  ..(...6cs..>....
 0f30 00490300 0030d87a 00f91011 00002901  .I...0.z......).
 0f40 5a03f301 5a29015b 03f3015b 00003578  Z...Z).[...[..5x
 0f50 28000003 8211887a 00f94400 0000019c  (......z..D.....
 0f60 aa0f0000 36726567 00038226 b7000000  ....6reg...&....
 0f70 6a030000 28ac7a00 f9081300 00990f00  j...(.z.........
 0f80 0029015a 01312901 5b050c40 787d0129  .).Z.1).[..@x}.)
 0f90 015c0511 8080c045 0030b47a 00f9c312  .\.....E.0.z....
 0fa0 00002901 5a027800 00003543 14000003  ..).Z.x...5C....
 0fb0 7511447a 00f94400 0000019c 9c100000  u.Dz..D.........
 0fc0 38726567 00037525 b7000000 015a393f  8reg..u%.....Z9?
 0fd0 0a000003 75369c10 0000015b 3af41300  ....u6.....[:...
 0fe0 00607a00 f9040000 00037609 03100000  .`z.......v.....
 0ff0 3b0d1400 00960300 003b0114 0000ab03  ;........;......
 1000 0000003a f4130000 687a00f9 04000000  ...:....hz......
 1010 0377092a 1000003b 0d140000 be030000  .w.*...;........
 1020 3b011400 00d30300 00003af4 13000070  ;.........:....p
 1030 7a00f904 00000003 78095110 00003b0d  z.......x.Q...;.
 1040 140000e6 0300003b 01140000 fb030000  .......;........
 1050 003af413 0000787a 00f90400 00000379  .:....xz.......y
 1060 09781000 003b0d14 00000e04 00003b01  .x...;........;.
 1070 14000023 04000000 3cf41300 00807a00  ...#....<.....z.
 1080 f9040000 00037a09 3b0d1400 00360400  ......z.;....6..
 1090 003b0114 00004b04 00000000 1004240a  .;....K.......$.
 10a0 00003540 59000003 7011fc79 00f94800  ..5@Y...p..y..H.
 10b0 0000019c 10110000 36726567 00037022  ........6reg..p"
 10c0 b7000000 5e040000 3d595600 0003702b  ....^...=YV...p+
 10d0 b7000000 8a040000 3af41300 002c7a00  ........:....,z.
 10e0 f9040000 00037209 ff100000 3b0d1400  ......r.....;...
 10f0 00b60400 003b0114 0000c904 00000030  .....;.........0
 1100 1c7a00f9 c3120000 29015a02 78000000  .z......).Z.x...
 1110 35554100 00036b11 b47900f9 48000000  5UA...k..y..H...
 1120 019c7e11 00003672 65670003 6b20b700  ..~...6reg..k ..
 1130 0000dc04 00003d59 56000003 6b29b700  ......=YV...k)..
 1140 00000805 00003af4 130000e4 7900f904  ......:.....y...
 1150 00000003 6d096d11 00003b0d 14000034  ....m.m...;....4
 1160 0500003b 01140000 47050000 0030d479  ...;....G....0.y
 1170 00f9c312 00002901 5a027800 00003ecc  ......).Z.x...>.
 1180 5a000003 4a0fc300 00006c79 00f94800  Z...J.....ly..H.
 1190 0000019c 10120000 36726567 00034a1c  ........6reg..J.
 11a0 b7000000 5a050000 3af41300 00887900  ....Z...:.....y.
 11b0 f9080000 00034c09 cd110000 3b0d1400  ......L.....;...
 11c0 00860500 003f0114 00000002 003a1a14  .....?.......:..
 11d0 00009c79 00f90400 0000034e 10eb1100  ...y.......N....
 11e0 003b2714 0000a705 00000028 847900f9  .;'........(.y..
 11f0 c3120000 ff110000 29015a02 78000030  ........).Z.x..0
 1200 987900f9 7e120000 29015a02 78000000  .y..~...).Z.x...
 1210 35210f00 00034511 2c7900f9 40000000  5!....E.,y..@...
 1220 019c7e12 00003672 65670003 451fb700  ..~...6reg..E...
 1230 0000ba05 00003d3a 68000003 4527c300  ......=:h...E'..
 1240 0000e605 00003af4 13000054 7900f904  ......:....Ty...
 1250 00000003 47096d12 00003b0d 14000007  ....G.m...;.....
 1260 0600003b 01140000 1a060000 00304c79  ...;.........0Ly
 1270 00f9c312 00002901 5a027800 00003ec8  ......).Z.x...>.
 1280 7f000003 4110b700 00002079 00f90c00  ....A..... y....
 1290 0000019c c3120000 36726567 00034125  ........6reg..A%
 12a0 b7000000 2d060000 3c1a1400 00207900  ....-...<.... y.
 12b0 f9040000 00034210 3b271400 004e0600  ......B.;'...N..
 12c0 0000003e b82a0000 033e10b7 00000010  ...>.*...>......
 12d0 7900f910 00000001 9c081300 00367265  y............6re
 12e0 6700033e 28b70000 00630600 003c1a14  g..>(....c...<..
 12f0 00001079 00f90400 0000033f 103b2714  ...y.......?.;'.
 1300 00008406 00000000 35f72f00 00013711  ........5./...7.
 1310 dc7800f9 34000000 019cd613 00003d3f  .x..4.........=?
 1320 55000001 3722b700 00009906 00003668  U...7"........6h
 1330 7a000137 2cb70000 00ba0600 00367265  z..7,........6re
 1340 67000137 34b70000 00db0600 0037d551  g..74........7.Q
 1350 00000138 0db70000 00015b37 e4300000  ...8......[7.0..
 1360 01390db7 00000001 5a3ad613 0000e878  .9......Z:.....x
 1370 00f91000 00000139 15a11300 003be713  .......9.....;..
 1380 0000fd06 00003c1a 140000f4 7800f904  ......<.....x...
 1390 00000001 21053b27 1400001f 07000000  ....!.;'........
 13a0 003cd613 00000079 00f90400 0000013a  .<.....y.......:
 13b0 203be713 00003207 00003c1a 14000000   ;....2...<.....
 13c0 7900f904 00000001 21053b27 14000049  y.......!.;'...I
 13d0 07000000 00004091 27000001 2105b700  ......@.'...!...
 13e0 000003f4 13000041 72656700 012105b7  .......Areg..!..
 13f0 00000000 42e70c00 00022218 031a1400  ....B.....".....
 1400 00433a68 00000222 26b70000 0043673b  .C:h..."&....Cg;
 1410 00000222 30b70000 000044e3 7b000002  ..."0.....D.{...
 1420 1e17b700 00000343 673b0000 021e24b7  .......Cg;....$.
 1430 00000000 00220000 000200ea 03000004  ....."..........
 1440 014a0a00 00007800 f9587800 f9da8b00  .J....x..Xx.....
 1450 00550c00 00ec8b00 000180             .U.........     
Contents of section .debug_abbrev:
 0000 01110125 0e130b03 0e1b0e11 01120610  ...%............
 0010 17994217 00000224 000b0b3e 0b030e00  ..B....$...>....
 0020 00031600 030e3a0b 3b0b390b 49130000  ......:.;.9.I...
 0030 0424000b 0b3e0b03 08000005 16000308  .$...>..........
 0040 3a0b3b0b 390b4913 00000616 00030e3a  :.;.9.I........:
 0050 0b3b0539 0b491300 00071701 0b0b3a0b  .;.9.I........:.
 0060 3b0b390b 01130000 080d0003 0e3a0b3b  ;.9..........:.;
 0070 0b390b49 13000009 01014913 01130000  .9.I......I.....
 0080 0a210049 132f0b00 000b1301 0b0b3a0b  .!.I./........:.
 0090 3b0b390b 01130000 0c0d0003 0e3a0b3b  ;.9..........:.;
 00a0 0b390b49 13380b00 000d0f00 0b0b0000  .9.I.8..........
 00b0 0e130103 0e0b0b3a 0b3b0b39 0b011300  .......:.;.9....
 00c0 000f0d00 03083a0b 3b0b390b 4913380b  ......:.;.9.I.8.
 00d0 0000100f 000b0b49 13000011 1301030e  .......I........
 00e0 0b053a0b 3b0b390b 01130000 120d0003  ..:.;.9.........
 00f0 0e3a0b3b 0b390b49 13380500 00131500  .:.;.9.I.8......
 0100 27190000 14150127 19491301 13000015  '......'.I......
 0110 05004913 00001626 00491300 00171301  ..I....&.I......
 0120 030e0b05 3a0b3b05 390b0113 0000180d  ....:.;.9.......
 0130 00030e3a 0b3b0539 0b491338 0b000019  ...:.;.9.I.8....
 0140 0d00030e 3a0b3b05 390b4913 38050000  ....:.;.9.I.8...
 0150 1a130103 0e0b0b3a 0b3b0539 0b011300  .......:.;.9....
 0160 001b1301 0b0b3a0b 3b05390b 01130000  ......:.;.9.....
 0170 1c17010b 0b3a0b3b 05390b01 1300001d  .....:.;.9......
 0180 0d00030e 3a0b3b05 390b4913 00001e13  ....:.;.9.I.....
 0190 00030e3c 1900001f 15012719 01130000  ...<......'.....
 01a0 20340003 0e3a0b3b 05390b49 133f193c   4...:.;.9.I.?.<
 01b0 19000021 3400030e 3a0b3b0b 390b4913  ...!4...:.;.9.I.
 01c0 3f193c19 00002204 01030e3e 0b0b0b49  ?.<..."....>...I
 01d0 133a0b3b 05390b01 13000023 2800030e  .:.;.9.....#(...
 01e0 1c0d0000 24280003 0e1c0b00 00252e01  ....$(.......%..
 01f0 3f19030e 3a0b3b0b 390b1101 12064018  ?...:.;.9.....@.
 0200 97421901 13000026 89820100 11013113  .B.....&......1.
 0210 00002734 00030e3a 0b3b0b39 0b49131c  ..'4...:.;.9.I..
 0220 0d000028 89820101 11013113 01130000  ...(......1.....
 0230 298a8201 00021891 42180000 2a898201  ).......B...*...
 0240 00110193 42180000 2b150101 1300002c  ....B...+......,
 0250 18000000 2d2e0103 0e3a0b3b 05390b27  ....-....:.;.9.'
 0260 19110112 06401897 42190113 00002e05  .....@..B.......
 0270 0003083a 0b3b0539 0b491302 1700002f  ...:.;.9.I...../
 0280 0500030e 3a0b3b05 390b4913 02170000  ....:.;.9.I.....
 0290 30898201 01110131 13000031 34000308  0......1...14...
 02a0 3a0b3b05 390b4913 02170000 320b0111  :.;.9.I.....2...
 02b0 01120601 13000033 0b015517 00003434  .......3..U...44
 02c0 00030e3a 0b3b0539 0b491302 17000035  ...:.;.9.I.....5
 02d0 2e01030e 3a0b3b0b 390b2719 11011206  ....:.;.9.'.....
 02e0 40189742 19011300 00360500 03083a0b  @..B.....6....:.
 02f0 3b0b390b 49130217 00003734 00030e3a  ;.9.I.....74...:
 0300 0b3b0b39 0b491302 18000038 05000308  .;.9.I.....8....
 0310 3a0b3b0b 390b4913 02180000 39050003  :.;.9.I.....9...
 0320 0e3a0b3b 0b390b49 13021800 003a1d01  .:.;.9.I.....:..
 0330 31131101 1206580b 590b570b 01130000  1.....X.Y.W.....
 0340 3b050031 13021700 003c1d01 31131101  ;..1.....<..1...
 0350 1206580b 590b570b 00003d05 00030e3a  ..X.Y.W...=....:
 0360 0b3b0b39 0b491302 1700003e 2e01030e  .;.9.I.....>....
 0370 3a0b3b0b 390b2719 49131101 12064018  :.;.9.'.I.....@.
 0380 97421901 1300003f 05003113 1c050000  .B.....?..1.....
 0390 402e0103 0e3a0b3b 0b390b27 19491320  @....:.;.9.'.I. 
 03a0 0b011300 00410500 03083a0b 3b0b390b  .....A....:.;.9.
 03b0 49130000 422e0103 0e3a0b3b 0b390b27  I...B....:.;.9.'
 03c0 19200b01 13000043 0500030e 3a0b3b0b  . .....C....:.;.
 03d0 390b4913 0000442e 01030e3a 0b3b0b39  9.I...D....:.;.9
 03e0 0b271949 13200b00 00000111 00100611  .'.I. ..........
 03f0 01120103 0e1b0e25 0e130500 0000      .......%......  
Contents of section .debug_loc:
 0000 b8030000 eb030000 01005aeb 03000014  ..........Z.....
 0010 04000001 00581404 00002c04 00000400  .....X....,.....
 0020 f3015a9f 00000000 00000000 b8030000  ..Z.............
 0030 eb030000 01005beb 03000018 04000001  ......[.........
 0040 00591804 00002c04 00000400 f3015b9f  .Y....,.......[.
 0050 00000000 00000000 b8030000 eb030000  ................
 0060 01005ceb 0300001c 04000001 00621c04  ..\..........b..
 0070 00002c04 00000400 f3015c9f 00000000  ..,.......\.....
 0080 00000000 b8030000 eb030000 01005deb  ..............].
 0090 03000020 04000001 00632004 00002c04  ... .....c ...,.
 00a0 00000400 f3015d9f 00000000 00000000  ......].........
 00b0 b8030000 eb030000 01005eeb 03000024  ..........^....$
 00c0 04000001 00642404 00002c04 00000400  .....d$...,.....
 00d0 f3015e9f 00000000 00000000 14030000  ..^.............
 00e0 43030000 01005a43 030000ac 03000001  C.....ZC........
 00f0 0062ac03 0000b803 00000400 f3015a9f  .b............Z.
 0100 00000000 00000000 14030000 40030000  ............@...
 0110 01005b40 03000080 03000001 00598003  ..[@.........Y..
 0120 0000b803 00000400 f3015b9f 00000000  ..........[.....
 0130 00000000 14030000 43030000 01005c43  ........C.....\C
 0140 03000080 03000001 00588003 0000b803  .........X......
 0150 00000400 f3015c9f 00000000 00000000  ......\.........
 0160 14030000 43030000 01005d43 030000b0  ....C.....]C....
 0170 03000001 0063b003 0000b803 00000400  .....c..........
 0180 f3015d9f 00000000 00000000 7c030000  ..].........|...
 0190 8c030000 0100588c 03000098 03000003  ......X.........
 01a0 0078019f 98030000 a4030000 01005800  .x............X.
 01b0 00000000 0000007c 03000080 03000002  .......|........
 01c0 00309f80 030000a8 03000001 00590000  .0...........Y..
 01d0 00000000 00008c03 00009c03 00000100  ................
 01e0 5a000000 00000000 00c80200 00e30200  Z...............
 01f0 0001005a e3020000 08030000 01005808  ...Z..........X.
 0200 03000014 03000004 00f3015a 9f000000  ...........Z....
 0210 00000000 00c80200 00e30200 0001005b  ...............[
 0220 e3020000 0c030000 0100590c 03000014  ..........Y.....
 0230 03000004 00f3015b 9f000000 00000000  .......[........
 0240 00ac0200 00bb0200 0001005a bb020000  ...........Z....
 0250 c8020000 0400f301 5a9f0000 00000000  ........Z.......
 0260 00007002 00008b02 00000100 5a8b0200  ..p.........Z...
 0270 00a00200 00010058 a0020000 ac020000  .......X........
 0280 0400f301 5a9f0000 00000000 00007002  ....Z.........p.
 0290 00008b02 00000100 5b8b0200 00a40200  ........[.......
 02a0 00010059 a4020000 ac020000 0400f301  ...Y............
 02b0 5b9f0000 00000000 00002002 00005702  [......... ...W.
 02c0 00000100 5a570200 00680200 00010058  ....ZW...h.....X
 02d0 68020000 70020000 0400f301 5a9f0000  h...p.......Z...
 02e0 00000000 00000802 00001302 00000100  ................
 02f0 5a130200 00200200 000400f3 015a9f00  Z.... .......Z..
 0300 00000000 00000008 02000013 02000001  ................
 0310 005b1302 00002002 00000400 f3015b9f  .[.... .......[.
 0320 00000000 00000000 f0010000 fb010000  ................
 0330 01005afb 01000008 02000004 00f3015a  ..Z............Z
 0340 9f000000 00000000 00f00100 00fb0100  ................
 0350 0001005b fb010000 08020000 0400f301  ...[............
 0360 5b9f0000 00000000 0000ac01 0000cc01  [...............
 0370 00000100 5acc0100 00e80100 00010058  ....Z..........X
 0380 e8010000 f0010000 0400f301 5a9f0000  ............Z...
 0390 00000000 00008401 00008801 00000300  ................
 03a0 7a089f00 00000000 00000084 01000088  z...............
 03b0 01000001 005f0000 00000000 00008c01  ....._..........
 03c0 00009001 00000300 7a209f00 00000000  ........z ......
 03d0 0000008c 01000090 01000001 005f0000  ............._..
 03e0 00000000 00009401 00009801 00000300  ................
 03f0 7a249f00 00000000 00000094 01000098  z$..............
 0400 01000001 005f0000 00000000 00009c01  ....._..........
 0410 0000a001 00000300 7a289f00 00000000  ........z(......
 0420 0000009c 010000a0 01000001 005f0000  ............._..
 0430 00000000 0000a401 0000a801 00000300  ................
 0440 7a2c9f00 00000000 000000a4 010000a8  z,..............
 0450 01000001 005f0000 00000000 00002001  ....._........ .
 0460 00003801 00000100 5a380100 005c0100  ..8.....Z8...\..
 0470 00010058 5c010000 68010000 0400f301  ...X\...h.......
 0480 5a9f0000 00000000 00002001 00003801  Z......... ...8.
 0490 00000100 5b380100 00500100 00010059  ....[8...P.....Y
 04a0 50010000 68010000 0400f301 5b9f0000  P...h.......[...
 04b0 00000000 00005001 00005401 00000100  ......P...T.....
 04c0 58000000 00000000 00500100 00540100  X........P...T..
 04d0 00010059 00000000 00000000 d8000000  ...Y............
 04e0 f0000000 01005af0 00000014 01000001  ......Z.........
 04f0 00581401 00002001 00000400 f3015a9f  .X.... .......Z.
 0500 00000000 00000000 d8000000 f0000000  ................
 0510 01005bf0 00000008 01000001 00590801  ..[..........Y..
 0520 00002001 00000400 f3015b9f 00000000  .. .......[.....
 0530 00000000 08010000 0c010000 01005800  ..............X.
 0540 00000000 00000008 0100000c 01000001  ................
 0550 00590000 00000000 00009000 0000a000  .Y..............
 0560 00000100 5aa00000 00d00000 00010058  ....Z..........X
 0570 d0000000 d8000000 0400f301 5a9f0000  ............Z...
 0580 00000000 0000ac00 0000d000 00000100  ................
 0590 58d00000 00d80000 000400f3 015a9f00  X............Z..
 05a0 00000000 000000c0 000000c4 00000001  ................
 05b0 00580000 00000000 00005000 00006800  .X........P...h.
 05c0 00000100 5a680000 00840000 00010058  ....Zh.........X
 05d0 84000000 90000000 0400f301 5a9f0000  ............Z...
 05e0 00000000 00005000 00006800 00000100  ......P...h.....
 05f0 5b680000 00900000 000400f3 015b9f00  [h...........[..
 0600 00000000 00000078 0000007c 00000001  .......x...|....
 0610 00580000 00000000 00007800 00007c00  .X........x...|.
 0620 00000100 59000000 00000000 00440000  ....Y........D..
 0630 00480000 0001005a 48000000 50000000  .H.....ZH...P...
 0640 0400f301 5a9f0000 00000000 00004400  ....Z.........D.
 0650 00004800 00000300 7a049f00 00000000  ..H.....z.......
 0660 00000034 00000038 00000001 005a3800  ...4...8.....Z8.
 0670 00004400 00000400 f3015a9f 00000000  ..D.......Z.....
 0680 00000000 34000000 38000000 03007a04  ....4...8.....z.
 0690 9f000000 00000000 00000000 00200000  ............. ..
 06a0 0001005a 20000000 34000000 0400f301  ...Z ...4.......
 06b0 5a9f0000 00000000 00000000 00000c00  Z...............
 06c0 00000100 5b0c0000 00340000 000400f3  ....[....4......
 06d0 015b9f00 00000000 00000000 00000018  .[..............
 06e0 00000001 005c1800 00003400 00000500  .....\....4.....
 06f0 7c88807d 9f000000 00000000 000c0000  |..}............
 0700 00180000 0001005c 18000000 1c000000  .......\........
 0710 05007c88 807d9f00 00000000 00000018  ..|..}..........
 0720 0000001c 00000001 005c0000 00000000  .........\......
 0730 00002400 00002800 00000500 7c88807d  ..$...(.....|..}
 0740 9f000000 00000000 00240000 00280000  .........$...(..
 0750 0001005c 00000000 00000000           ...\........    
Contents of section .debug_aranges:
 0000 1c000000 02000000 00000400 00000000  ................
 0010 dc7800f9 d0040000 00000000 00000000  .x..............
 0020 1c000000 02003514 00000400 00000000  ......5.........
 0030 007800f9 58000000 00000000 00000000  .x..X...........
Contents of section .debug_ranges:
 0000 84030000 90030000 94030000 9c030000  ................
 0010 00000000 00000000                    ........        
Contents of section .debug_macro:
 0000 04000200 00000007 f1010000 03000603  ................
 0010 1809031a 10050ad1 0e000003 0c070506  ................
 0020 44550000 03081105 16182400 00031c12  DU........$.....
 0030 07510900 00040773 09000004 07010a00  .Q.....s........
 0040 0004030d 1307520a 00000403 0e080755  ......R........U
 0050 0b000004 07bf0b00 0004079e 0d000004  ................
 0060 03191403 2c150762 0e000004 032d1603  ....,..b.....-..
 0070 1b02031b 150407ec 0f000004 07fc0f00  ................
 0080 0004032e 01071810 00000403 31170529  ............1..)
 0090 4d860000 032d1803 1b19072e 10000004  M....-..........
 00a0 07e61100 00040530 6c550000 0407fc11  .......0lU......
 00b0 000003a4 011a032a 1b07ae12 00000403  .......*........
 00c0 2b0e0508 346a0000 030a1c07 06130000  +...4j..........
 00d0 04030b1d 0508564b 0000030a 1e071f13  ......VK........
 00e0 00000403 0b1f0502 df460000 03041c04  .........F......
 00f0 07711300 000407a5 13000004 07d91300  .q..............
 0100 0003100a 07ef1300 00040312 0c050b5d  ...............]
 0110 4f000003 0d1d0403 0e0a07fd 14000004  O...............
 0120 030f0b07 8a150000 03180a07 a0150000  ................
 0130 04031b20 05065c78 00000407 e3150000  ... ..\x........
 0140 04071716 00000322 0d072716 00000407  ......."..'.....
 0150 79160000 04031321 052be420 0000032f  y......!.+. .../
 0160 0a0407fb 17000004 03142205 022e2400  .........."...$.
 0170 00040316 2307341b 00000407 4a1b0000  ....#.4.....J...
 0180 04032d0f 05038462 00000307 1c040773  ..-....b.......s
 0190 1b000004 032e2407 1c1d0000 03110a07  ......$.........
 01a0 321d0000 04031425 05049a05 00000403  2......%........
 01b0 1826051e 1e6a0000 0403af01 27050df8  .&...j......'...
 01c0 7d000004 04040403 1a05031c 04031b03  }...............
 01d0 07671d00 0004031c 2807e91d 00000407  .g......(.......
 01e0 171e0000 04031d29 0407271e 00000404  .......)..'.....
 01f0 00040000 0500d550 00000500 831e0000  .......P........
 0200 05000708 00000500 dd1f0000 0500b959  ...............Y
 0210 00000500 7a3a0000 05006568 00000500  ....z:....eh....
 0220 471d0000 0500817a 00000500 38710000  G......z....8q..
 0230 05004f21 00000500 275c0000 0500b53f  ..O!....'\.....?
 0240 00000500 60860000 0500f904 00000500  ....`...........
 0250 44400000 0500ad60 00000500 507b0000  D@.....`....P{..
 0260 0500231f 00000500 df050000 0500a123  ..#............#
 0270 00000500 3b730000 0500c819 00000500  ....;s..........
 0280 dc780000 0500566d 00000500 4e4f0000  .x....Vm....NO..
 0290 05002727 00000500 69770000 05003e0e  ..''....iw....>.
 02a0 00000500 0c070000 05001c4b 00000500  ...........K....
 02b0 05510000 0500d716 00000500 26070000  .Q..........&...
 02c0 05002e5e 00000500 434b0000 0500a74b  ...^....CK.....K
 02d0 00000500 4d690000 0500f917 00000500  ....Mi..........
 02e0 7a5f0000 0500c218 00000500 147d0000  z_...........}..
 02f0 05008a07 00000500 58080000 05009386  ........X.......
 0300 00000500 98470000 05004351 00000500  .....G....CQ....
 0310 853a0000 0500b479 00000500 776d0000  .:.....y....wm..
 0320 05007386 00000500 ef7e0000 05007b5b  ..s......~....{[
 0330 00000500 45100000 0500b813 00000500  ....E...........
 0340 415f0000 0500a068 00000500 283e0000  A_.....h....(>..
 0350 0500a015 00000500 f45e0000 05000d40  .........^.....@
 0360 00000500 4d0a0000 0500f83b 00000500  ....M......;....
 0370 f27c0000 05009b1f 00000500 22260000  .|.........."&..
 0380 05002441 00000500 926c0000 0500c937  ..$A.....l.....7
 0390 00000500 562c0000 0500192b 00000500  ....V,.....+....
 03a0 b94f0000 0500d85d 00000500 3f890000  .O.....]....?...
 03b0 0500cc81 00000500 8c560000 0500e625  .........V.....%
 03c0 00000500 45300000 0500435e 00000500  ....E0....C^....
 03d0 1c7e0000 05004503 00000500 4b810000  .~....E.....K...
 03e0 0500a710 00000500 17520000 0500e774  .........R.....t
 03f0 00000500 33420000 0500b345 00000500  ....3B.....E....
 0400 44830000 05008647 00000500 b2830000  D......G........
 0410 0500c27d 00000500 01040000 0500c48b  ...}............
 0420 00000500 8a880000 0500a916 00000500  ................
 0430 ea060000 0500ff71 00000500 c6310000  .......q.....1..
 0440 05000576 00000500 ac390000 05005474  ...v.....9....Tt
 0450 00000500 bb3c0000 0500ed40 00000500  .....<.....@....
 0460 41290000 05005689 00000500 003b0000  A)....V......;..
 0470 05001536 00000500 19370000 0500a557  ...6.....7.....W
 0480 00000500 ae7e0000 05003f50 00000500  .....~....?P....
 0490 8e830000 0500b433 00000500 444a0000  .......3....DJ..
 04a0 05002a0e 00000500 dc190000 0500273d  ..*...........'=
 04b0 00000500 dc1c0000 05001039 00000500  ...........9....
 04c0 32320000 05004908 00000500 fb1d0000  22....I.........
 04d0 05009e6f 00000500 30380000 0500b02c  ...o....08.....,
 04e0 00000500 b85b0000 0500113e 00000500  .....[.....>....
 04f0 de770000 0500cc4f 00000500 c4600000  .w.....O.....`..
 0500 0500d510 00000500 31210000 05006f78  ........1!....ox
 0510 00000500 89140000 0500750d 00000500  ..........u.....
 0520 c90f0000 0500a111 00000500 2c190000  ............,...
 0530 0500fd5b 00000500 03120000 05007746  ...[..........wF
 0540 00000500 f0610000 0500a550 00000500  .....a.....P....
 0550 533a0000 05006c4f 00000500 463b0000  S:....lO....F;..
 0560 0500f033 00000500 06450000 0500e13f  ...3.....E.....?
 0570 00000500 0d4f0000 0500d64c 00000500  .....O.....L....
 0580 171b0000 05005519 00000500 6b200000  ......U.....k ..
 0590 05009d1b 00000500 824f0000 05005e7e  .........O....^~
 05a0 00000500 69290000 0500ec54 00000500  ....i).....T....
 05b0 75070000 0500a621 00000500 2f1d0000  u......!..../...
 05c0 0500b088 00000500 1a6d0000 0500cf58  .........m.....X
 05d0 00000500 d0860000 0500923f 00000500  ...........?....
 05e0 03060000 05008e73 00000500 dc320000  .......s.....2..
 05f0 05007067 00000500 5e590000 05002487  ..pg....^Y....$.
 0600 00000500 4c2a0000 0500db71 00000500  ....L*.....q....
 0610 406a0000 0500af55 00000500 89870000  @j.....U........
 0620 05000280 00000500 c8680000 05002f23  .........h..../#
 0630 00000500 141a0000 05004609 00000500  ..........F.....
 0640 ca3a0000 05004047 00000500 b87c0000  .:....@G.....|..
 0650 0500e581 00000500 3a180000 0500b65a  ........:......Z
 0660 00000500 cc300000 05008045 00000500  .....0.....E....
 0670 c33d0000 0500a359 00000500 200c0000  .=.....Y.... ...
 0680 05005a54 00000500 de170000 0500470b  ..ZT..........G.
 0690 00000500 d5070000 05001058 00000500  ...........X....
 06a0 ee0a0000 05000d20 00000500 241c0000  ....... ....$...
 06b0 0500fb77 00000500 16450000 05006830  ...w.....E....h0
 06c0 00000500 d97f0000 0500337e 00000500  ..........3~....
 06d0 ae6f0000 05002b0d 00000500 bd460000  .o....+......F..
 06e0 05000a1f 00000500 81040000 0500ac5c  ...............\
 06f0 00000500 a6400000 05009e6d 00000500  .....@.....m....
 0700 515c0000 0500f64e 00000500 866a0000  Q\.....N.....j..
 0710 0500ed4c 00000500 62750000 05009357  ...L....bu.....W
 0720 00000500 ec150000 0500e100 00000500  ................
 0730 702b0000 05008a50 00000500 d0610000  p+.....P.....a..
 0740 05007579 00000500 8a240000 0500ef4f  ..uy.....$.....O
 0750 00000500 636b0000 0500697a 00000500  ....ck....iz....
 0760 e35b0000 0500b10e 00000500 1f830000  .[..............
 0770 0500d85f 00000500 ad520000 05003841  ..._.....R....8A
 0780 00000500 b1370000 05000631 00000500  .....7.....1....
 0790 b1140000 0500b84e 00000500 e75a0000  .......N.....Z..
 07a0 0500a369 00000500 aa1e0000 05004478  ...i..........Dx
 07b0 00000500 1e130000 0500f114 00000500  ................
 07c0 8f3e0000 05003d05 00000500 390c0000  .>....=.....9...
 07d0 0500e23a 00000500 e7700000 05008c10  ...:.....p......
 07e0 00000500 ed070000 0500fb08 00000500  ................
 07f0 b2670000 05004f05 00000500 89580000  .g....O......X..
 0800 05006f17 00000500 8e320000 05007857  ..o......2....xW
 0810 00000500 2a550000 0500d627 00000500  ....*U.....'....
 0820 273b0000 0500d406 00000500 ea300000  ';...........0..
 0830 0500f20f 00000500 25040000 0500065d  ........%......]
 0840 00000500 4b320000 05004107 00000500  ....K2....A.....
 0850 66730000 0500c61a 00000500 447e0000  fs..........D~..
 0860 05008b34 00000500 34520000 05007415  ...4....4R....t.
 0870 00000500 cc200000 0500580e 00000500  ..... ....X.....
 0880 92200000 0500ff00 00000500 d56c0000  . ...........l..
 0890 0500c06c 00000500 fe350000 0500751c  ...l.....5....u.
 08a0 00000500 9a010000 05003317 00000500  ..........3.....
 08b0 de520000 0500b93e 00000500 5d1d0000  .R.....>....]...
 08c0 05006101 00000500 4d2d0000 05006b69  ..a.....M-....ki
 08d0 00000500 06440000 05008b46 00000500  .....D.....F....
 08e0 d32f0000 05007a11 00000500 1e3a0000  ./....z......:..
 08f0 05000125 00000500 24480000 05003c77  ...%....$H....<w
 0900 00000500 c86f0000 0500b600 00000500  .....o..........
 0910 69740000 05008e19 00000500 1d050000  it..............
 0920 05006861 00000500 1a010000 05005f46  ..ha.........._F
 0930 00000500 29300000 0500aa05 00000500  ....)0..........
 0940 a20f0000 05006919 00000500 b3310000  ......i......1..
 0950 00040000 05042c7d 00000506 87780000  ......,}.....x..
 0960 0507ec1a 00000508 874c0000 0509945c  .........L.....\
 0970 00000004 00000521 92120000 05281d76  .......!.....(.v
 0980 00000683 012c7a00 00058401 9a3d0000  .....,z......=..
 0990 068801a8 3a000005 8901a87c 0000068a  ....:......|....
 09a0 017a8800 00058b01 215f0000 069e015a  .z......!_.....Z
 09b0 36000005 9f01b94a 000005f7 01fc5200  6......J......R.
 09c0 0005fd01 51480000 05850274 5e000005  ....QH.....t^...
 09d0 8a029f54 00000595 02b01a00 00059902  ...T............
 09e0 865a0000 059f025a 06000005 af028d00  .Z.....Z........
 09f0 000005bf 023c7500 0005ca02 88400000  .....<u......@..
 0a00 00040000 050fe64a 0000051a e2600000  .......J.....`..
 0a10 0521ad73 0000052f 3a3a0000 053d5429  .!.s.../::...=T)
 0a20 00000553 1c470000 056d5a17 0000058c  ...S.G...mZ.....
 0a30 01e55000 0005a601 42150000 05bc0193  ..P.....B.......
 0a40 35000005 ce01d849 000006f4 01a85a00  5......I......Z.
 0a50 00000400 00050ad3 7b000005 10ca4a00  ........{.....J.
 0a60 00062b52 56000006 2cab6e00 00062d9f  ..+RV...,.n...-.
 0a70 07000006 2e886900 00022f69 6e740006  ......i.../int..
 0a80 30998700 00063190 05000006 32e90900  0.....1.....2...
 0a90 000533ca 3f000005 34c83f00 000535d2  ..3.?...4.?...5.
 0aa0 6b000005 36c78300 000537e2 40000005  k...6.....7.@...
 0ab0 38e46400 0005396f 3b000005 3a418200  8.d...9o;...:A..
 0ac0 000543a1 37000005 4adc8000 0005523a  ..C.7...J.....R:
 0ad0 09000005 5de34f00 00056821 79000005  ....].O...h!y...
 0ae0 716d1100 000578f8 74000005 81018e1a  qm....x.t.......
 0af0 00000588 01fb7500 00059301 a73f0000  ......u......?..
 0b00 05970189 2b000005 a201c57e 000005ad  ....+......~....
 0b10 015f1100 0005b601 c5550000 06b80152  ._.......U.....R
 0b20 56000006 b901ab6e 000006ba 019f0700  V......n........
 0b30 0006bb01 88690000 02bc0169 6e740006  .....i.....int..
 0b40 bd01e909 000006c2 01998700 0006c301  ................
 0b50 90050000 00040000 050acc0e 00000515  ................
 0b60 1e7b0000 0519e51b 0000051b 3b3a0000  .{..........;:..
 0b70 05211e33 00000525 296d0000 05275529  .!.3...%)m...'U)
 0b80 0000052d 75400000 0531ed03 00000533  ...-u@...1.....3
 0b90 1d470000 05392265 0000053d 86180000  .G...9"e...=....
 0ba0 053f5b17 00000544 6c2d0000 05490c5f  .?[....Dl-...I._
 0bb0 0000054e fc120000 05539961 00000004  ...N.....S.a....
 0bc0 00000517 e6500000 051d4315 00000523  .....P....C....#
 0bd0 94350000 0529d949 00000535 68510000  .5...).I...5hQ..
 0be0 053fc24b 00000549 5c0d0000 0553e722  .?.K...I\....S."
 0bf0 00000580 01f08700 00058101 5e700000  ............^p..
 0c00 058201c0 17000005 9801710e 00000599  ..........q.....
 0c10 01a60a00 00059a01 b2810000 05a201c4  ................
 0c20 03000005 a3016810 000005a4 013f6800  ......h......?h.
 0c30 0005ae01 b4540000 05af0111 0d000005  .....T..........
 0c40 b0010848 000005b8 01614800 0005b901  ...H.....aH.....
 0c50 59090000 05ba0188 2c000005 c4014037  Y.......,.....@7
 0c60 000005c5 01e82a00 0005c601 57450000  ......*.....WE..
 0c70 05d40144 2e000005 d501e62d 000005d6  ...D.......-....
 0c80 01016b00 0005e601 c8700000 05e70155  ..k......p.....U
 0c90 4c000005 e8011d72 000005f6 01c11100  L......r........
 0ca0 0005f701 dc0e0000 05f8015d 5d000005  ...........]]...
 0cb0 8602914e 00000587 02462200 00058802  ...N.....F".....
 0cc0 534e0000 05960269 36000005 9702b809  SN.....i6.......
 0cd0 00000598 029f6a00 0005a602 38130000  ......j.....8...
 0ce0 05a702ac 87000005 a802da6b 000005b6  ...........k....
 0cf0 02ec1600 0005b702 5f7c0000 05b802f9  ........_|......
 0d00 45000005 c602cc2a 000005c7 02071c00  E......*........
 0d10 0005cf02 6f220000 05d70242 06000005  ....o".....B....
 0d20 dd02a832 000005de 02402700 0005e202  ...2.....@'.....
 0d30 290b0000 05e6027e 25000005 eb02c21c  )......~%.......
 0d40 000005f6 02c74300 00058003 d1450000  ......C......E..
 0d50 05850320 00000005 8c03a43b 0000058d  ... .......;....
 0d60 034e7300 00059803 f70d0000 0599036f  .Ns............o
 0d70 7b000005 a4039e00 000005a5 03403600  {............@6.
 0d80 0005b103 ea5f0000 05b20302 68000005  ....._......h...
 0d90 c1032939 000005c2 036a5a00 00000400  ..)9.....jZ.....
 0da0 000525b3 82000005 264b5400 0005277e  ..%.....&KT...'~
 0db0 41000005 28c62d00 000529fa 18000005  A...(.-...).....
 0dc0 2a2e0500 00052b6f 72000005 2c136400  *.....+or...,.d.
 0dd0 00052dc6 50000005 2e8b3d00 00052fd5  ..-.P.....=.../.
 0de0 2d000005 304d5900 000531cb 80000005  -...0MY...1.....
 0df0 32ec7b00 00053360 33000005 346f2e00  2.{...3`3...4o..
 0e00 000535a4 07000005 36cd3500 0005375f  ..5.....6.5...7_
 0e10 37000005 38e85c00 000539d2 82000005  7...8.\...9.....
 0e20 3aa32900 00053b5f 2b000005 3c3c2d00  :.)...;_+...<<-.
 0e30 00053d97 2e000005 3e975a00 00053fa7  ..=.....>.Z...?.
 0e40 5b000005 402e8900 0005410c 05000005  [...@.....A.....
 0e50 42464500 00054332 51000005 449c5200  BFE...C2Q...D.R.
 0e60 00000400 000502a6 2b000005 035f0b00  ........+...._..
 0e70 00050409 32000005 05118800 0005061e  ....2...........
 0e80 22000005 07ef5800 00050836 57000005  ".....X....6W...
 0e90 09255b00 00050a77 66000005 0b3c7a00  .%[....wf....<z.
 0ea0 00050c9d 5f000005 0d946000 00050efd  ...._.....`.....
 0eb0 29000005 0f845e00 000510f1 64000005  ).....^.....d...
 0ec0 11897b00 00051245 1f000005 13020f00  ..{....E........
 0ed0 00051413 7f000005 15f35300 000516a7  ..........S.....
 0ee0 63000005 177f7d00 0005183e 25000005  c.....}....>%...
 0ef0 19e02b00 00051a1c 5d000005 1b397200  ..+.....]....9r.
 0f00 00051c53 14000005 1d8a0200 00051e8e  ...S............
 0f10 62000005 1ffb6200 0005200f 61000005  b.....b... .a...
 0f20 21112900 00052206 34000005 232d3100  !.)...".4...#-1.
 0f30 00052462 3e000005 25d96600 0005262d  ..$b>...%.f...&-
 0f40 1a000005 278e6900 00052828 3c000005  ....'.i...((<...
 0f50 29bc3400 00052af3 31000005 2ba73800  ).4...*.1...+.8.
 0f60 00052ce2 51000005 2d074d00 00052ef7  ..,.Q...-.M.....
 0f70 6d000005 2f038300 00053061 13000005  m.../.....0a....
 0f80 31426100 0005322b 0f000005 33845300  1Ba...2+....3.S.
 0f90 0005345e 6e000005 352b8100 00053664  ..4^n...5+....6d
 0fa0 4a000005 37000000 00053836 28000005  J...7.....86(...
 0fb0 39e57600 00053aee 27000005 3b097400  9.v...:.'...;.t.
 0fc0 00053c77 74000005 3da08b00 00053eec  ..<wt...=.....>.
 0fd0 0b000005 3f572800 0005402a 54000005  ....?W(...@*T...
 0fe0 41bd1f00 000542eb 56000000 04000005  A.....B.V.......
 0ff0 3a433900 00053f46 23000000 04000005  :C9...?F#.......
 1000 1d305000 00051ed4 6e000005 1f5c5e00  .0P.....n....\^.
 1010 00052080 2e000000 04000005 1d192300  .. ...........#.
 1020 00051e8f 0b000005 1f072200 00000400  ..........".....
 1030 00051bb9 10000005 1c457f00 00051dc5  .........E......
 1040 23000005 1fb35300 0005200d 57000005  #.....S... .W...
 1050 21534000 000522cd 33000005 23dd2600  !S@...".3...#.&.
 1060 0005246d 12000005 25b65f00 00052691  ..$m....%._...&.
 1070 65000005 27755400 000528f6 78000005  e...'uT...(.x...
 1080 29001100 00052ae7 41000005 2b558000  ).....*.A...+U..
 1090 00052cea 86000005 2d858200 00052ee5  ..,.....-.......
 10a0 6e000005 2fde3500 00053023 66000005  n.../.5...0#f...
 10b0 31974100 00053248 11000005 33022b00  1.A...2H....3.+.
 10c0 000534dc 65000005 354c7500 000536ac  ..4.e...5Lu...6.
 10d0 18000005 37820100 00053864 32000005  ....7.....8d2...
 10e0 39bc2200 00053a29 03000005 3b617f00  9."...:)....;a..
 10f0 00053ccd 53000005 3dc95600 00053ee0  ..<.S...=.V...>.
 1100 02000005 3ff13800 000540fd 7b000005  ....?.8...@.{...
 1110 415c5200 000542ae 35000005 43981a00  A\R...B.5...C...
 1120 0005446f 4c000005 453e2400 0005461f  ..DoL...E>$...F.
 1130 46000005 47e41800 0005489a 43000005  F...G.....H.C...
 1140 499c8200 00054a8e 0a000005 4b872100  I.....J.....K.!.
 1150 00054c21 5a000005 4d466700 00054e4b  ..L!Z...MFg...NK
 1160 2c000005 4f066700 0005507b 18000005  ,...O.g...P{....
 1170 51b00400 0005527a 47000005 53203100  Q.....RzG...S 1.
 1180 000554f2 71000005 55193c00 000557d1  ..T.q...U.<...W.
 1190 05000005 596a6d00 00055b41 79000005  ....Yjm...[Ay...
 11a0 5df81b00 00055fa5 53000005 617d7300  ]....._.S...a}s.
 11b0 00056300 6c000005 6b081600 000573db  ..c.l...k.....s.
 11c0 3e000005 7a3d2f00 00058201 8a440000  >...z=/......D..
 11d0 058901f2 01000005 9101bf2e 000005dc  ................
 11e0 012c4d00 00000400 00051e8e 17000005  .,M.............
 11f0 210c6200 00052b31 33000000 04000005  !.b...+13.......
 1200 336d2100 00053442 7d000005 356d8700  3m!...4B}...5m..
 1210 00053629 67000005 37f66900 00053a80  ..6)g...7.i...:.
 1220 2d000005 3bb31b00 00053ca2 27000005  -...;.....<.'...
 1230 3d0a4c00 00053e61 2a000005 40368300  =.L...>a*...@6..
 1240 000541a2 7b000005 42b42900 00054339  ..A.{...B.)...C9
 1250 88000005 46763b00 000547f1 37000005  ....Fv;...G.7...
 1260 48ee4200 00054917 53000005 4a710800  H.B...I.S...Jq..
 1270 0005515b 49000005 52104100 00055334  ..Q[I...R.A...S4
 1280 4c000005 54a03c00 00055776 38000005  L...T.<...Wv8...
 1290 58093000 000559f6 60000005 5a117a00  X.0...Y.`...Z.z.
 12a0 00055d50 12000005 5ef97900 00000400  ..]P....^.y.....
 12b0 00051f25 40000005 20f16700 000622ec  ...%@... .g...".
 12c0 80000005 278f5400 00052f9d 25000005  ....'.T.../.%...
 12d0 30967600 0005316d 6f000005 34b86500  0.v...1mo...4.e.
 12e0 000536b6 65000005 696f8800 00056c95  ..6.e...io....l.
 12f0 54000005 6f333000 00057210 13000005  T...o30...r.....
 1300 759d8300 00000400 0005c301 e5620000  u............b..
 1310 05d10398 51000005 d4038230 00000004  ....Q......0....
 1320 00000508 31370000 0512744b 00000515  ....17....tK....
 1330 01870000 0518c852 0000051b 2f450000  .......R..../E..
 1340 05289c1e 00000532 c1160000 0539d322  .(.....2.....9."
 1350 0000053c 69560000 0542244f 00000545  ...<iV...B$O...E
 1360 b3560000 0548ec1d 0000054b 55770000  .V...H.....KUw..
 1370 00040000 05533374 000005e0 01dc0900  .....S3t........
 1380 0006e601 bf3a0000 05ea010c 15000005  .....:..........
 1390 fa018051 000005fe 01525200 00058b02  ...Q.....RR.....
 13a0 ab190000 00040000 051fae01 00000520  ............... 
 13b0 1c2c0000 0521e80f 00000525 77030000  .,...!.....%w...
 13c0 052b4b71 00000545 66580000 0549b715  .+Kq...EfX...I..
 13d0 0000054a c56a0000 00040000 050d972b  ...J.j.........+
 13e0 0000050e e9450000 050f7e3d 00000004  .....E....~=....
 13f0 000005bb 01e01500 0005bc01 e20a0000  ................
 1400 05bd0125 89000005 be018f6f 000005bf  ...%.......o....
 1410 013c3b00 0005c001 715f0000 05c10189  .<;.....q_......
 1420 35000005 c201da64 000005c3 01d66400  5......d......d.
 1430 0005c401 891f0000 05c501b4 23000005  ............#...
 1440 c601851f 000005c7 019a1800 0005c801  ................
 1450 4d6e0000 05c90121 89000005 ca012b6a  Mn.....!......+j
 1460 000005d2 01470d00 0006ee01 4c040000  .....G......L...
 1470 058b0273 45000005 8c02da74 0000058d  ...sE......t....
 1480 02715b00 00058e02 e3420000 058f02e6  .q[......B......
 1490 12000005 9002d446 00000591 02281700  .......F.....(..
 14a0 00059202 24170000 0593027b 32000005  ....$......{2...
 14b0 9402a73e 00000595 024b6600 00059602  ...>.....Kf.....
 14c0 8d0d0000 05970246 66000005 98026d5b  .......Ff.....m[
 14d0 00000599 023b4f00 0006a602 617b0000  .....;O.....a{..
 14e0 06db0211 0c000006 9103a045 00000596  ...........E....
 14f0 03ff0200 00069c03 99450000 00040000  .........E......
 1500 0527694b 00000528 1d250000 052a644b  .'iK...(.%...*dK
 1510 00000589 01a35500 00058a01 302b0000  ......U.....0+..
 1520 058b015a 50000005 8c01f10c 0000058d  ...ZP...........
 1530 01fd4b00 00058e01 f94b0000 058f0130  ..K......K.....0
 1540 40000005 90019f55 00000591 01735200  @......U.....sR.
 1550 0006a101 fe410000 06ee014c 04000006  .....A.....L....
 1560 db02110c 00000691 03a04500 00059603  ..........E.....
 1570 ff020000 069c0399 45000005 a103d93d  ........E......=
 1580 000005a6 03e46900 00000400 0005146b  ......i........k
 1590 3a000005 16972b00 00051764 81000000  :.....+....d....
 15a0 04000006 a101fe41 000006ee 014c0400  .......A.....L..
 15b0 0006db02 110c0000 05e002a0 26000006  ............&...
 15c0 e702d621 00000691 03a04500 00059603  ...!......E.....
 15d0 ff020000 069c0399 45000005 a103d93d  ........E......=
 15e0 00000004 0000067f d3540000 05920170  .........T.....p
 15f0 37000006 9401ab6e 000005b3 01f51900  7......n........
 1600 0005bb01 462b0000 05c001f3 65000005  ....F+......e...
 1610 c501ee3c 00000004 00000511 de730000  ...<.........s..
 1620 0515948b 00000004 00000502 e9880000  ................
 1630 050ed455 0000050f 05770000 05101c68  ...U.....w.....h
 1640 00000511 5a040000 0512b826 00000513  ....Z......&....
 1650 ae640000 05142215 00000515 ba3b0000  .d...."......;..
 1660 05167849 00000517 fd800000 0518307b  ..xI..........0{
 1670 00000519 76680000 00040000 054d2118  ....vh.......M!.
 1680 00000569 46340000 056ff988 000005b7  ...iF4...o......
 1690 01b84100 0005bd02 39480000 05be02f5  ..A.....9H......
 16a0 3f000005 bf02d188 000005c0 029f7800  ?.............x.
 16b0 0005c102 35690000 05c20231 56000005  ....5i.....1V...
 16c0 c3027082 000005cf 02002300 0005d002  ..p.......#.....
 16d0 d9870000 05d1029a 04000005 a005f012  ................
 16e0 000005bc 05356500 0005bf05 6c890000  .....5e.....l...
 16f0 05ef0523 84000005 fd05047b 000005fe  ...#.......{....
 1700 052f1000 0005ff05 0d660000 05800640  ./.......f.....@
 1710 46000005 8106466b 00000582 06555b00  F.....Fk.....U[.
 1720 00058306 60410000 0585060c 2e000005  ....`A..........
 1730 86067316 00000587 06801300 00058806  ..s.............
 1740 82080000 0589068c 1c000005 8a068063  ...............c
 1750 0000058b 06620000 00058c06 78610000  .....b......xa..
 1760 058d06a5 0b000005 8e062760 0000058f  ..........'`....
 1770 064c6300 00059006 e7280000 05910691  .Lc......(......
 1780 80000005 92069236 00000593 069a4c00  .......6......L.
 1790 00059406 9d5e0000 0595069c 49000005  .....^......I...
 17a0 96066226 00000597 06dc4800 00059806  ..b&......H.....
 17b0 bb040000 059906ec 5d000005 9a06854a  ........]......J
 17c0 0000059b 06007100 00059c06 817f0000  ......q.........
 17d0 05a0069f 0d000005 a806be71 000005b0  ...........q....
 17e0 06774e00 0005c006 ed100000 05c306bd  .wN.............
 17f0 73000005 c906bc01 00000004 00000531  s..............1
 1800 81200000 0532f95c 00000533 2f4a0000  . ...2.\...3/J..
 1810 0536301b 00000539 661c0000 053ad37e  .60....9f....:.~
 1820 0000053c b1430000 053d8481 0000053e  ...<.C...=.....>
 1830 621f0000 053fe673 00000542 510d0000  b....?.s...BQ...
 1840 0543c488 00000544 f1460000 054e0b10  .C.....D.F...N..
 1850 00000551 8c550000 0557c16e 0000055e  ...Q.U...W.n...^
 1860 183d0000 055f206e 0000056b cd770000  .=..._ n...k.w..
 1870 056cd679 00000570 01520000 0571d472  .l.y...p.R...q.r
 1880 00000572 60030000 0575b666 00000578  ...r`....u.f...x
 1890 b85d0000 057f5382 00000580 01d00b00  .]....S.........
 18a0 00058101 bf780000 058501fd 46000005  .....x......F...
 18b0 8c011c80 00000590 01552400 00059101  .........U$.....
 18c0 4b200000 0594011d 7c000005 97014a01  K ......|.....J.
 18d0 00000598 019f2a00 00059901 df6f0000  ......*......o..
 18e0 059b0195 7e000005 9c01957a 0000059e  ....~......z....
 18f0 01306300 0005a001 09190000 05b1019e  .0c.............
 1900 0e000005 b201140e 000005b3 01718300  .............q..
 1910 0005b401 e4530000 05b5012c 7f000005  .....S.....,....
 1920 b701f36a 000005b8 01495600 0005b901  ...j.....IV.....
 1930 88520000 05e6010e 28000005 f301cb59  .R......(......Y
 1940 000005f4 01597600 0005f501 8c480000  .....Yv......H..
 1950 05f60189 28000005 f701ab86 000005f8  ....(...........
 1960 017e6e00 0005f901 c4380000 05fc0185  .~n......8......
 1970 5d000005 fd017f09 00000583 02b71d00  ]...............
 1980 0005dc02 aa280000 05ee02d5 3c000005  .....(......<...
 1990 f4023800 000005f5 02653100 0005fc02  ..8......e1.....
 19a0 568b0000 05820367 27000005 88030d0a  V......g'.......
 19b0 00000589 03b14800 00059003 7a700000  ......H.....zp..
 19c0 05910301 75000005 9803ad2b 0000059e  ....u......+....
 19d0 03b47600 0005b203 e43b0000 05d3038d  ..v......;......
 19e0 22000005 d4035453 000005db 03503d00  ".....TS.....P=.
 19f0 0005dc03 162a0000 05df0361 60000005  .....*.....a`...
 1a00 e9038631 000005ea 037e7200 0005f403  ...1.....~r.....
 1a10 22640000 058a04ff 6f000005 8c04b357  "d......o......W
 1a20 0000058e 04f32000 00058f04 7a750000  ...... .....zu..
 1a30 059104c6 2c000005 9b041d59 000005a0  ....,......Y....
 1a40 04710600 0005a504 4a0f0000 05a80423  .q......J......#
 1a50 43000005 ac04421a 000005ae 041f1e00  C.....B.........
 1a60 0005d104 7c760000 05d5043d 6d000005  ....|v.....=m...
 1a70 d9042206 000005dd 04bb5100 0005e104  ..".......Q.....
 1a80 296b0000 05e504db 23000005 e9049774  )k......#......t
 1a90 000005ed 04db8300 0005f404 46120000  ............F...
 1aa0 05f50419 08000005 f604292d 000005f7  ..........)-....
 1ab0 04593f00 0005f804 3a530000 058d05e4  .Y?.....:S......
 1ac0 63000005 8e052d6e 000005a0 052d7900  c.....-n.....-y.
 1ad0 0005a605 837c0000 05a905e8 13000005  .....|..........
 1ae0 ab058677 000005af 05b54700 0005b105  ...w......G.....
 1af0 cc360000 05b5051e 49000005 b8053c35  .6......I.....<5
 1b00 000005ba 05bd7a00 0005be05 e4680000  ......z......h..
 1b10 05c00573 71000005 c2055a3c 000005c6  ...sq.....Z<....
 1b20 05f11c00 0005c905 3e6f0000 05ca0509  ........>o......
 1b30 6f000000 04000005 08578300 00060dbf  o........W......
 1b40 50000005 100f4200 00000400 00053833  P.....B.......83
 1b50 01000005 3c4a7600 00053d08 1b000005  ....<Jv...=.....
 1b60 3fb63a00 000543fb 4a000005 a8016679  ?.:...C.J.....fy
 1b70 00000004 0000050d 344e0000 0513b507  ........4N......
 1b80 00000517 6f650000 051ba42d 0000051f  ....oe.....-....
 1b90 cb140000 05239b33 00000591 01d47d00  .....#.3......}.
 1ba0 00059201 3a5c0000 06a8018e 0e000005  ....:\..........
 1bb0 ab01fa11 000005ac 01168700 0005ad01  ................
 1bc0 1d270000 05ae019c 19000005 af01e76a  .'.............j
 1bd0 000005b2 012b7800 0005b501 11670000  .....+x......g..
 1be0 05b90155 3e000005 bc018f15 000005bf  ...U>...........
 1bf0 01691b00 0005d301 d8340000 05d701a9  .i.......4......
 1c00 6b000005 da012444 000005dd 01282c00  k.....$D.....(,.
 1c10 0005df01 415a0000 05f40145 42000005  ....AZ.....EB...
 1c20 84029003 00000585 02fd7200 00058602  ..........r.....
 1c30 586a0000 058702c9 24000005 8802f349  Xj......$......I
 1c40 00000589 027f1d00 0005cd02 ef1e0000  ................
 1c50 05b40406 27000005 b804e143 000005bf  ....'......C....
 1c60 04127800 0005c104 5e570000 05c204ef  ..x.....^W......
 1c70 1f000005 c3041d12 000005c4 045f5500  ............._U.
 1c80 0005c504 c3250000 05c6048b 4b000005  .....%......K...
 1c90 c704397c 000005c8 04db4b00 0005c904  ..9|......K.....
 1ca0 be0a0000 05ca0457 07000005 cb04ae61  .......W.......a
 1cb0 000005cc 04015600 0005cd04 c60c0000  ......V.........
 1cc0 05d30466 50000005 d404c562 000005d5  ...fP......b....
 1cd0 04c40800 0005d604 aa300000 05d70427  .........0.....'
 1ce0 11000005 d8046f0a 000005d9 04db7500  ......o.......u.
 1cf0 0005da04 dc540000 05db0480 37000005  .....T......7...
 1d00 e5046244 000005e6 043d3c00 0005ea04  ..bD.....=<.....
 1d10 29250000 05eb0473 24000000 04000005  )%.....s$.......
 1d20 08fd6e00 00050f97 2b000005 107e3d00  ..n.....+....~=.
 1d30 00000400 0006a101 fe410000 06ee014c  .........A.....L
 1d40 04000006 db02110c 00000691 03a04500  ..............E.
 1d50 00059603 ff020000 069c0399 45000005  ............E...
 1d60 a103d93d 00000004 0000051d fe060000  ...=............
 1d70 051ec282 0000051f 351f0000 0520ef7f  ........5.... ..
 1d80 00000521 077e0000 0522803f 00000523  ...!.~...".?...#
 1d90 ec720000 0524e708 00000525 51790000  .r...$.....%Qy..
 1da0 0526dd6d 00000527 4e260000 0528a82e  .&.m...'N&...(..
 1db0 00000529 6d1e0000 052af473 0000052b  ...)m....*.s...+
 1dc0 851b0000 052c0260 0000052d 71330000  .....,.`...-q3..
 1dd0 052ee421 0000052f ff250000 0530ac3d  ...!.../.%...0.=
 1de0 00000531 5d150000 00040000 051d4b58  ...1].........KX
 1df0 0000051e d6410000 051f0a65 00000520  .....A.....e... 
 1e00 e3820000 05215766 00000522 21820000  .....!Wf..."!...
 1e10 05235167 00000004 0000051f 98810000  .#Qg............
 1e20 0520c000 00000004 0000051f 10030000  . ..............
 1e30 05203d2b 00000522 a3700000 05235238  . =+...".p...#R8
 1e40 00000524 ee090000 05256c80 00000526  ...$.....%l....&
 1e50 be390000 05270b54 000000             .9...'.T...     
Contents of section .debug_line:
 0000 460a0000 0300a703 00000101 fb0e0d00  F...............
 0010 01010101 00000001 0000012e 2e2f6472  ............./dr
 0020 69766572 002e2e2f 2e2e2f2e 2e2f6273  iver.../../../bs
 0030 702f6566 696e6978 2f456678 53617070  p/efinix/EfxSapp
 0040 68697265 536f632f 61707000 73726300  hireSoc/app.src.
 0050 633a5c65 66696e69 74795c65 66696e69  c:\efinity\efini
 0060 74792d72 69736376 2d696465 2d323032  ty-riscv-ide-202
 0070 332e312e 335c746f 6f6c6368 61696e5c  3.1.3\toolchain\
 0080 72697363 762d6e6f 6e652d65 6d626564  riscv-none-embed
 0090 5c696e63 6c756465 5c6d6163 68696e65  \include\machine
 00a0 00633a5c 6566696e 6974795c 6566696e  .c:\efinity\efin
 00b0 6974792d 72697363 762d6964 652d3230  ity-riscv-ide-20
 00c0 32332e31 2e335c74 6f6f6c63 6861696e  23.1.3\toolchain
 00d0 5c726973 63762d6e 6f6e652d 656d6265  \riscv-none-embe
 00e0 645c696e 636c7564 655c7379 7300633a  d\include\sys.c:
 00f0 5c656669 6e697479 5c656669 6e697479  \efinity\efinity
 0100 2d726973 63762d69 64652d32 3032332e  -riscv-ide-2023.
 0110 312e335c 746f6f6c 63686169 6e5c6c69  1.3\toolchain\li
 0120 625c6763 635c7269 7363762d 6e6f6e65  b\gcc\riscv-none
 0130 2d656d62 65645c38 2e332e30 5c696e63  -embed\8.3.0\inc
 0140 6c756465 00633a5c 6566696e 6974795c  lude.c:\efinity\
 0150 6566696e 6974792d 72697363 762d6964  efinity-riscv-id
 0160 652d3230 32332e31 2e335c74 6f6f6c63  e-2023.1.3\toolc
 0170 6861696e 5c726973 63762d6e 6f6e652d  hain\riscv-none-
 0180 656d6265 645c696e 636c7564 65002e2e  embed\include...
 0190 2f2e2e2f 2e2e2f62 73702f65 66696e69  /../../bsp/efini
 01a0 782f4566 78536170 70686972 65536f63  x/EfxSapphireSoc
 01b0 2f696e63 6c756465 0000636c 696e742e  /include..clint.
 01c0 68000100 00696f2e 68000100 00737069  h....io.h....spi
 01d0 2e680001 00007370 69466c61 73682e68  .h....spiFlash.h
 01e0 00010000 626f6f74 6c6f6164 6572436f  ....bootloaderCo
 01f0 6e666967 2e680002 00006d61 696e2e63  nfig.h....main.c
 0200 00030000 5f646566 61756c74 5f747970  ...._default_typ
 0210 65732e68 00040000 5f737464 696e742e  es.h...._stdint.
 0220 68000500 00747970 652e6800 01000073  h....type.h....s
 0230 74646465 662e6800 0600005f 74797065  tddef.h...._type
 0240 732e6800 05000072 65656e74 2e680005  s.h....reent.h..
 0250 00006c6f 636b2e68 00050000 7374646c  ..lock.h....stdl
 0260 69622e68 00070000 6d617468 2e680007  ib.h....math.h..
 0270 00007374 64696e74 2e680007 00006665  ..stdint.h....fe
 0280 61747572 65732e68 00050000 5f6e6577  atures.h...._new
 0290 6c69625f 76657273 696f6e2e 68000700  lib_version.h...
 02a0 005f696e 74737570 2e680005 00006273  ._intsup.h....bs
 02b0 702e6800 08000073 6f632e68 00080000  p.h....soc.h....
 02c0 75617274 2e680001 00007365 6d69686f  uart.h....semiho
 02d0 7374696e 672e6800 02000076 65787269  sting.h....vexri
 02e0 7363762e 68000100 00726973 63762e68  scv.h....riscv.h
 02f0 00010000 7072696e 742e6800 02000073  ....print.h....s
 0300 74646172 672e6800 06000069 65656566  tdarg.h....ieeef
 0310 702e6800 0400005f 616e7369 2e680007  p.h...._ansi.h..
 0320 00006e65 776c6962 2e680007 0000636f  ..newlib.h....co
 0330 6e666967 2e680005 00005f74 79706573  nfig.h...._types
 0340 2e680004 00006364 6566732e 68000500  .h....cdefs.h...
 0350 00737464 6c69622e 68000400 00616c6c  .stdlib.h....all
 0360 6f63612e 68000700 00737472 696e672e  oca.h....string.
 0370 68000700 005f6c6f 63616c65 2e680005  h...._locale.h..
 0380 00007374 72696e67 732e6800 07000073  ..strings.h....s
 0390 7472696e 672e6800 05000067 70696f2e  tring.h....gpio.
 03a0 68000100 00737461 72742e68 00010000  h....start.h....
 03b0 00053800 0502dc78 00f90336 01050903  ..8....x...6....
 03c0 01090000 01050d06 03000900 00010509  ................
 03d0 06030109 0c000105 05036809 00000104  ..........h.....
 03e0 02050903 7e090c00 01051006 03000900  ....~...........
 03f0 00010401 0531031a 09040001 050d0300  .....1..........
 0400 09040001 05090603 01090400 01053d00  ..............=.
 0410 02040103 00090000 01050500 02040103  ................
 0420 67090000 01040205 09000204 01037e09  g.............~.
 0430 00000105 10000204 01060300 09000001  ................
 0440 0401051e 00020401 031b0904 0001050e  ................
 0450 00020401 03000904 00010505 03010904  ................
 0460 00010403 052c0603 03090400 01050903  .....,..........
 0470 01090000 01040203 60090000 01051006  ........`.......
 0480 03000900 00010403 05050321 09040001  ...........!....
 0490 05290603 01090c00 01050903 01090000  .)..............
 04a0 01040203 5d090000 01051006 03000900  ....]...........
 04b0 00010403 05050324 09040001 052c0603  .......$.....,..
 04c0 02090800 01050903 01091800 01052d00  ..............-.
 04d0 02040103 00090000 01050f00 02040106  ................
 04e0 03000900 0001050e 00020401 03000908  ................
 04f0 00010509 06030109 04000105 18060300  ................
 0500 09000001 04020509 06035c09 04000105  ..........\.....
 0510 24060300 09000001 04030505 03250904  $............%..
 0520 00010520 06030209 14000105 09030109  ... ............
 0530 10000105 2d000204 01030009 00000105  ....-...........
 0540 0f000204 01060300 09000001 050e0002  ................
 0550 04010300 09080001 05090603 01090400  ................
 0560 01040203 57090000 01052406 03000900  ....W.....$.....
 0570 00010403 052a0002 04010603 2a090800  .....*......*...
 0580 01050f00 02040106 03000900 0001050e  ................
 0590 00020401 03000908 00010509 06030109  ................
 05a0 04000104 02035109 00000105 10060300  ......Q.........
 05b0 09000001 04030505 03300904 00010531  .........0.....1
 05c0 06031c09 14000105 09030109 18000105  ................
 05d0 2d000204 01030009 00000105 0f000204  -...............
 05e0 01060300 09000001 050e0002 04010300  ................
 05f0 09080001 05090603 01090400 01040203  ................
 0600 b67f090c 00010524 06030009 00000104  .......$........
 0610 03050503 cb000904 00010533 06030209  ...........3....
 0620 14000105 09030109 18000105 2d000204  ............-...
 0630 01030009 00000105 0f000204 01060300  ................
 0640 09000001 050e0002 04010300 09080001  ................
 0650 05090603 01090400 01040203 b17f090c  ................
 0660 00010524 06030009 00000104 03050503  ...$............
 0670 d0000904 0001053d 06030209 14000105  .......=........
 0680 09030109 00000105 21060300 09000001  ........!.......
 0690 05300300 09040001 05370300 09040001  .0.......7......
 06a0 05270300 09040001 05460300 09040001  .'.......F......
 06b0 054d0300 09040001 05090300 09040001  .M..............
 06c0 04020603 ad7f0904 00010524 06030009  ...........$....
 06d0 00000104 03050906 03d40009 04000104  ................
 06e0 0203ac7f 09040001 05240603 00090000  .........$......
 06f0 01040305 090603d5 00090400 01040203  ................
 0700 ab7f0904 00010524 06030009 00000104  .......$........
 0710 03050906 03d60009 04000104 0203aa7f  ................
 0720 09040001 05240603 00090000 01040305  .....$..........
 0730 090603d7 00090400 01040203 a97f0904  ................
 0740 00010524 06030009 00000104 03050503  ...$............
 0750 d8000904 0001052a 06030709 04000105  .......*........
 0760 06030109 10000105 13030009 14000105  ................
 0770 06030109 00000105 2c000204 01030009  ........,.......
 0780 00000105 0c000204 01060300 09000001  ................
 0790 050b0002 04010300 09080001 05050301  ................
 07a0 09080001 04040531 0603b97f 09100001  .......1........
 07b0 05090301 09080001 05050603 01090400  ................
 07c0 01053306 0308090c 00010509 03010908  ..3.............
 07d0 00010505 06030109 04000105 28060307  ............(...
 07e0 090c0001 05090301 09100001 03010900  ................
 07f0 00010515 06030009 00000105 09060301  ................
 0800 09040001 05150603 00090000 01050906  ................
 0810 03010904 00010515 06030009 00000105  ................
 0820 09060301 09040001 051b0603 00090000  ................
 0830 01050906 03010908 00010518 06030009  ................
 0840 00000105 09060301 09040001 05170603  ................
 0850 00090000 01050906 03010904 0001051a  ................
 0860 06030009 00000105 09060301 09040001  ................
 0870 03010908 00010505 06030109 08000105  ................
 0880 2f060329 09100001 05090301 09180001  /..)............
 0890 03010904 00010505 06030109 0c000105  ................
 08a0 2806030b 09140001 05090301 09080001  (...............
 08b0 05050603 06090800 01052f06 0316090c  ........../.....
 08c0 00010509 03010918 00010301 09040001  ................
 08d0 03010908 00010301 090c0001 05050603  ................
 08e0 01090800 01055606 03d20009 14000105  ......V.........
 08f0 09030109 28000103 01090800 01052506  ....(.........%.
 0900 03000900 00010509 03000904 00010603  ................
 0910 01090c00 01052506 03000900 00010509  ......%.........
 0920 03000904 00010603 01090c00 01030109  ................
 0930 0c000103 01090c00 01030109 00000105  ................
 0940 0d030009 00000105 11060300 09000001  ................
 0950 05090002 04010300 09040001 050d0002  ................
 0960 04030603 01090400 01051800 02040306  ................
 0970 03000900 0001050d 00020403 06030109  ................
 0980 08000105 14000204 03060300 09000001  ................
 0990 05270002 0403037e 09040001 05110002  .'.....~........
 09a0 04030302 09040001 05050302 09080001  ................
 09b0 055d0603 f500091c 00010509 03010930  .].............0
 09c0 00010301 09040001 03010914 00010505  ................
 09d0 06030109 0c000104 05051006 039e7d09  ..............}.
 09e0 20000105 02030209 0c000103 01090c00   ...............
 09f0 01030109 0c000103 01091c00 01030309  ................
 0a00 18000103 01091c00 01030409 00000105  ................
 0a10 01060301 09080001 0406050d 06036509  ..............e.
 0a20 10000105 05030109 08000105 0f030009  ................
 0a30 00000105 05030109 00000105 01060301  ................
 0a40 09040001 090c0000 0101b600 00000300  ................
 0a50 28000000 0101fb0e 0d000101 01010000  (...............
 0a60 00010000 012e2e2f 636f6d6d 6f6e0000  ......./common..
 0a70 73746172 742e5300 01000000 00050200  start.S.........
 0a80 7800f903 0901032a 09080001 03030904  x......*........
 0a90 00010301 09040001 03010904 00010301  ................
 0aa0 09040001 03020904 00010301 09040001  ................
 0ab0 03010904 00010301 09040001 03010904  ................
 0ac0 00010304 09040001 03010904 00010301  ................
 0ad0 09040001 03020904 00010301 09040001  ................
 0ae0 03010904 00010304 09040001 03030904  ................
 0af0 00010302 09040001 03050904 00010904  ................
 0b00 00000101                             ....            
Contents of section .debug_str:
 0000 53595354 454d5f53 50495f30 5f494f5f  SYSTEM_SPI_0_IO_
 0010 4354524c 20307866 38303134 30303000  CTRL 0xf8014000.
 0020 57494e54 5f4d494e 20285f5f 57494e54  WINT_MIN (__WINT
 0030 5f4d494e 5f5f2900 5f5f6d61 6c6c6f63  _MIN__).__malloc
 0040 5f6c696b 65205f5f 61747472 69627574  _like __attribut
 0050 655f5f28 285f5f6d 616c6c6f 635f5f29  e__((__malloc__)
 0060 29005f52 45454e54 5f4d505f 52455355  )._REENT_MP_RESU
 0070 4c545f4b 28707472 29202828 70747229  LT_K(ptr) ((ptr)
 0080 2d3e5f72 6573756c 745f6b29 005f5f53  ->_result_k).__S
 0090 5649445f 56495349 424c4520 3100494e  VID_VISIBLE 1.IN
 00a0 5433325f 43287829 205f5f49 4e543332  T32_C(x) __INT32
 00b0 5f432878 29005f5f 72697363 76203100  _C(x).__riscv 1.
 00c0 4d583235 5f575249 54455f45 4e41424c  MX25_WRITE_ENABL
 00d0 455f4c41 5443485f 42495420 30783032  E_LATCH_BIT 0x02
 00e0 005f5f46 4c543132 385f4d49 4e5f3130  .__FLT128_MIN_10
 00f0 5f455850 5f5f2028 2d343933 3129005f  _EXP__ (-4931)._
 0100 5f444543 3132385f 45505349 4c4f4e5f  _DEC128_EPSILON_
 0110 5f203145 2d333344 4c005f5f 72697363  _ 1E-33DL.__risc
 0120 765f666c 6f61745f 6162695f 736f6674  v_float_abi_soft
 0130 2031005f 5f636f6d 7061725f 666e5f74   1.__compar_fn_t
 0140 5f646566 696e6564 20005f5f 43435f53  _defined .__CC_S
 0150 5550504f 5254535f 494e4c49 4e452031  UPPORTS_INLINE 1
 0160 005f5f47 43435f41 544f4d49 435f5743  .__GCC_ATOMIC_WC
 0170 4841525f 545f4c4f 434b5f46 52454520  HAR_T_LOCK_FREE 
 0180 31004d53 54415455 535f4d50 52562030  1.MSTATUS_MPRV 0
 0190 78303030 32303030 30005f5f 43484152  x00020000.__CHAR
 01a0 5f554e53 49474e45 445f5f20 31005f42  _UNSIGNED__ 1._B
 01b0 4547494e 5f535444 5f432000 5f474c4f  EGIN_STD_C ._GLO
 01c0 42414c5f 41544558 49542028 5f474c4f  BAL_ATEXIT (_GLO
 01d0 42414c5f 5245454e 542d3e5f 61746578  BAL_REENT->_atex
 01e0 69742900 73706946 6c617368 5f77616b  it).spiFlash_wak
 01f0 65006373 725f7265 61645f63 6c656172  e.csr_read_clear
 0200 28637372 2c76616c 2920287b 20756e73  (csr,val) ({ uns
 0210 69676e65 64206c6f 6e67205f 5f76203d  igned long __v =
 0220 2028756e 7369676e 6564206c 6f6e6729   (unsigned long)
 0230 2876616c 293b205f 5f61736d 5f5f205f  (val); __asm__ _
 0240 5f766f6c 6174696c 655f5f20 28226373  _volatile__ ("cs
 0250 72726320 25302c20 22202363 73722022  rrc %0, " #csr "
 0260 2c202531 22203a20 223d7222 20285f5f  , %1" : "=r" (__
 0270 7629203a 2022724b 2220285f 5f762929  v) : "rK" (__v))
 0280 3b205f5f 763b207d 29005359 5354454d  ; __v; }).SYSTEM
 0290 5f554152 545f305f 494f5f50 4152414d  _UART_0_IO_PARAM
 02a0 45544552 5f554152 545f4354 524c5f43  ETER_UART_CTRL_C
 02b0 4f4e4649 475f5258 5f53414d 504c455f  ONFIG_RX_SAMPLE_
 02c0 5045525f 42495420 38007370 69466c61  PER_BIT 8.spiFla
 02d0 73685f66 326d5f00 5f5f7661 6c756500  sh_f2m_.__value.
 02e0 4d535441 5455535f 55584c20 30783030  MSTATUS_UXL 0x00
 02f0 30303030 30333030 30303030 3030004e  00000300000000.N
 0300 554c4c20 2828766f 6964202a 29302900  ULL ((void *)0).
 0310 53504920 53595354 454d5f53 50495f30  SPI SYSTEM_SPI_0
 0320 5f494f5f 4354524c 004d5354 41545553  _IO_CTRL.MSTATUS
 0330 5f54564d 20307830 30313030 30303000  _TVM 0x00100000.
 0340 5f5f7366 005f5f50 54524449 46465f4d  __sf.__PTRDIFF_M
 0350 41585f5f 20307837 66666666 66666600  AX__ 0x7fffffff.
 0360 5f5f474e 55434c49 4b455f5f 5f534543  __GNUCLIKE___SEC
 0370 54494f4e 2031005f 4c4f4e47 5f444f55  TION 1._LONG_DOU
 0380 424c4520 6c6f6e67 20646f75 626c6500  BLE long double.
 0390 69736772 65617465 72285f5f 782c5f5f  isgreater(__x,__
 03a0 79292028 5f5f6275 696c7469 6e5f6973  y) (__builtin_is
 03b0 67726561 74657220 285f5f78 2c205f5f  greater (__x, __
 03c0 79292900 494e545f 4c454153 54385f4d  y)).INT_LEAST8_M
 03d0 494e2028 2d5f5f49 4e545f4c 45415354  IN (-__INT_LEAST
 03e0 385f4d41 585f5f20 2d203129 005f5549  8_MAX__ - 1)._UI
 03f0 4e543332 5f545f44 45434c41 52454420  NT32_T_DECLARED 
 0400 005f5f49 4e544d41 585f4d41 585f5f20  .__INTMAX_MAX__ 
 0410 30783766 66666666 66666666 66666666  0x7fffffffffffff
 0420 66664c4c 005f5f44 45433332 5f535542  ffLL.__DEC32_SUB
 0430 4e4f524d 414c5f4d 494e5f5f 20302e30  NORMAL_MIN__ 0.0
 0440 30303030 31452d39 35444600 5f5f6e65  00001E-95DF.__ne
 0450 65645f73 697a655f 74005f5f 6c6f636b  ed_size_t.__lock
 0460 5f696e69 745f7265 63757273 69766528  _init_recursive(
 0470 6c6f636b 29202828 766f6964 29203029  lock) ((void) 0)
 0480 005f5f46 4c543634 5f444543 494d414c  .__FLT64_DECIMAL
 0490 5f444947 5f5f2031 37005f52 45454e54  _DIG__ 17._REENT
 04a0 5f534947 4e414c5f 53495a45 20323400  _SIGNAL_SIZE 24.
 04b0 504d505f 4c203078 3830005f 5245454e  PMP_L 0x80._REEN
 04c0 545f5743 52544f4d 425f5354 41544528  T_WCRTOMB_STATE(
 04d0 70747229 20282870 7472292d 3e5f6e65  ptr) ((ptr)->_ne
 04e0 772e5f72 65656e74 2e5f7763 72746f6d  w._reent._wcrtom
 04f0 625f7374 61746529 005f5f41 544f4d49  b_state).__ATOMI
 0500 435f434f 4e53554d 45203100 4249545f  C_CONSUME 1.BIT_
 0510 32382028 31203c3c 20323829 005f5f72  28 (1 << 28).__r
 0520 69736376 5f6d756c 64697620 31004249  iscv_muldiv 1.BI
 0530 545f3520 2831203c 3c203529 005f5f46  T_5 (1 << 5).__F
 0540 4c543634 585f4449 475f5f20 3333005f  LT64X_DIG__ 33._
 0550 5f464c54 3634585f 45505349 4c4f4e5f  _FLT64X_EPSILON_
 0560 5f20312e 39323539 32393934 34333837  _ 1.925929944387
 0570 32333538 35333035 35393737 39343235  2358530559779425
 0580 38343932 37333265 2d333446 36347800  8492732e-34F64x.
 0590 5f5f696e 7432305f 5f005f53 59535f5f  __int20__._SYS__
 05a0 4c4f4341 4c455f48 20005359 5354454d  LOCALE_H .SYSTEM
 05b0 5f554152 545f415f 41504220 53595354  _UART_A_APB SYST
 05c0 454d5f55 4152545f 305f494f 5f415042  EM_UART_0_IO_APB
 05d0 00524443 59434c45 20307843 3030005f  .RDCYCLE 0xC00._
 05e0 5f53495a 454f465f 4c4f4e47 5f4c4f4e  _SIZEOF_LONG_LON
 05f0 475f5f20 38005f61 73637469 6d655f62  G__ 8._asctime_b
 0600 7566005f 5f44424c 5f4d4158 5f31305f  uf.__DBL_MAX_10_
 0610 4558505f 5f203330 38005f63 76746c65  EXP__ 308._cvtle
 0620 6e005f5f 52435349 445f534f 55524345  n.__RCSID_SOURCE
 0630 28732920 73747275 6374205f 5f686163  (s) struct __hac
 0640 6b005349 5a455f4d 41582028 5f5f5349  k.SIZE_MAX (__SI
 0650 5a455f4d 41585f5f 29005f5f 504f5349  ZE_MAX__).__POSI
 0660 585f5649 5349424c 45203230 30383039  X_VISIBLE 200809
 0670 005f5f73 74726f6e 675f7265 66657265  .__strong_refere
 0680 6e636528 73796d2c 616c6961 7373796d  nce(sym,aliassym
 0690 29206578 7465726e 205f5f74 7970656f  ) extern __typeo
 06a0 66202873 796d2920 616c6961 7373796d  f (sym) aliassym
 06b0 205f5f61 74747269 62757465 5f5f2028   __attribute__ (
 06c0 285f5f61 6c696173 5f5f2028 2373796d  (__alias__ (#sym
 06d0 29292900 5f5f4445 4333325f 4d494e5f  ))).__DEC32_MIN_
 06e0 5f203145 2d393544 46005f5f 494e544d  _ 1E-95DF.__INTM
 06f0 41585f57 49445448 5f5f2036 34005350  AX_WIDTH__ 64.SP
 0700 495f4441 54412030 78303000 5f5f4f52  I_DATA 0x00.__OR
 0710 4445525f 5044505f 454e4449 414e5f5f  DER_PDP_ENDIAN__
 0720 20333431 32005f5f 53495a45 5f545950   3412.__SIZE_TYP
 0730 455f5f20 756e7369 676e6564 20696e74  E__ unsigned int
 0740 005f5f44 45433634 5f4d4158 5f455850  .__DEC64_MAX_EXP
 0750 5f5f2033 3835004d 5f325f50 4920302e  __ 385.M_2_PI 0.
 0760 36333636 31393737 32333637 35383133  6366197723675813
 0770 34333038 005f5f46 4c545f48 41535f44  4308.__FLT_HAS_D
 0780 454e4f52 4d5f5f20 31005f5f 494e5438  ENORM__ 1.__INT8
 0790 5f545950 455f5f20 7369676e 65642063  _TYPE__ signed c
 07a0 68617200 4249545f 31362028 31203c3c  har.BIT_16 (1 <<
 07b0 20313629 00485547 455f5641 4c20285f   16).HUGE_VAL (_
 07c0 5f627569 6c74696e 5f687567 655f7661  _builtin_huge_va
 07d0 6c282929 005f5f46 4c543332 5f444543  l()).__FLT32_DEC
 07e0 494d414c 5f444947 5f5f2039 005f5f46  IMAL_DIG__ 9.__F
 07f0 4c543634 585f4445 43494d41 4c5f4449  LT64X_DECIMAL_DI
 0800 475f5f20 3336005f 5f535444 435f5554  G__ 36.__STDC_UT
 0810 465f3136 5f5f2031 005f4e75 6c6c6162  F_16__ 1._Nullab
 0820 6c652000 5f5f746d 005f7763 7372746f  le .__tm._wcsrto
 0830 6d62735f 73746174 65005f6e 62756600  mbs_state._nbuf.
 0840 5f5f746d 5f736563 005f5f55 494e5438  __tm_sec.__UINT8
 0850 5f432863 29206300 5f5f494e 5431365f  _C(c) c.__INT16_
 0860 54595045 5f5f2073 686f7274 20696e74  TYPE__ short int
 0870 00425350 5f4c4544 5f4d4153 4b203078  .BSP_LED_MASK 0x
 0880 66005f52 45454e54 5f52414e 4434385f  f._REENT_RAND48_
 0890 4d554c54 28707472 29202828 70747229  MULT(ptr) ((ptr)
 08a0 2d3e5f6e 65772e5f 7265656e 742e5f72  ->_new._reent._r
 08b0 34382e5f 6d756c74 29005f6c 3634615f  48._mult)._l64a_
 08c0 62756600 4d5f5351 52545049 20312e37  buf.M_SQRTPI 1.7
 08d0 37323435 33383530 39303535 31363032  7245385090551602
 08e0 37393239 38310053 50495f53 535f4449  792981.SPI_SS_DI
 08f0 5341424c 45203078 3243005f 5f464c54  SABLE 0x2C.__FLT
 0900 3634585f 4d41585f 5f20312e 31383937  64X_MAX__ 1.1897
 0910 33313439 35333537 32333137 36353038  3149535723176508
 0920 35373539 33323636 32383030 37303265  575932662800702e
 0930 2b343933 32463634 78005f5f 494e5438  +4932F64x.__INT8
 0940 20226868 22005f5f 44454349 4d414c5f   "hh".__DECIMAL_
 0950 4449475f 5f203336 00494e54 5f4c4541  DIG__ 36.INT_LEA
 0960 53543136 5f4d4158 20285f5f 494e545f  ST16_MAX (__INT_
 0970 4c454153 5431365f 4d41585f 5f29005f  LEAST16_MAX__)._
 0980 5f616c6c 6f635f73 697a6532 286e2c78  _alloc_size2(n,x
 0990 29205f5f 61747472 69627574 655f5f28  ) __attribute__(
 09a0 285f5f61 6c6c6f63 5f73697a 655f5f28  (__alloc_size__(
 09b0 6e2c2078 29292900 494e545f 46415354  n, x))).INT_FAST
 09c0 31365f4d 41582028 5f5f494e 545f4641  16_MAX (__INT_FA
 09d0 53543136 5f4d4158 5f5f2900 5f504f49  ST16_MAX__)._POI
 09e0 4e544552 5f494e54 206c6f6e 67005553  NTER_INT long.US
 09f0 45525f53 4f465457 4152455f 53495a45  ER_SOFTWARE_SIZE
 0a00 5f494e53 54203078 37383030 005f5f6e  _INST 0x7800.__n
 0a10 6f6e6e75 6c6c2878 29205f5f 61747472  onnull(x) __attr
 0a20 69627574 655f5f28 285f5f6e 6f6e6e75  ibute__((__nonnu
 0a30 6c6c5f5f 20782929 005f7369 7a650063  ll__ x))._size.c
 0a40 6f6e6669 67005f73 7464696e 005f5f49  onfig._stdin.__I
 0a50 4e545f46 41535436 345f5459 50455f5f  NT_FAST64_TYPE__
 0a60 206c6f6e 67206c6f 6e672069 6e74004d   long long int.M
 0a70 5f535152 54332031 2e373332 30353038  _SQRT3 1.7320508
 0a80 30373536 38383737 31393030 30005353  0756887719000.SS
 0a90 54415455 5333325f 53442030 78383030  TATUS32_SD 0x800
 0aa0 30303030 3000494e 54385f4d 41582028  00000.INT8_MAX (
 0ab0 5f5f494e 54385f4d 41585f5f 29004d5f  __INT8_MAX__).M_
 0ac0 315f5049 20302e33 31383330 39383836  1_PI 0.318309886
 0ad0 31383337 39303637 31353400 5f6c6f63  18379067154._loc
 0ae0 6b005f5f 53495a45 5f545f5f 20005f5f  k.__SIZE_T__ .__
 0af0 464c5433 325f4d49 4e5f5f20 312e3137  FLT32_MIN__ 1.17
 0b00 35343934 33353038 32323238 37353037  5494350822287507
 0b10 39363837 33363533 37323232 32343536  9687365372222456
 0b20 38652d33 38463332 00505452 44494646  8e-38F32.PTRDIFF
 0b30 5f4d4158 20285f5f 50545244 4946465f  _MAX (__PTRDIFF_
 0b40 4d41585f 5f29005f 5f464c54 33325f4d  MAX__).__FLT32_M
 0b50 41585f31 305f4558 505f5f20 33380053  AX_10_EXP__ 38.S
 0b60 59535445 4d5f504c 49435f53 59535445  YSTEM_PLIC_SYSTE
 0b70 4d5f434f 5245535f 305f4558 5445524e  M_CORES_0_EXTERN
 0b80 414c5f49 4e544552 52555054 20300043  AL_INTERRUPT 0.C
 0b90 4c494e54 5f434d50 5f414444 52203078  LINT_CMP_ADDR 0x
 0ba0 34303030 005f5245 454e545f 4d505f46  4000._REENT_MP_F
 0bb0 5245454c 49535428 70747229 20282870  REELIST(ptr) ((p
 0bc0 7472292d 3e5f6672 65656c69 73742900  tr)->_freelist).
 0bd0 5f5f474e 55434c49 4b455f42 55494c54  __GNUCLIKE_BUILT
 0be0 494e5f53 54444152 47203100 53595354  IN_STDARG 1.SYST
 0bf0 454d5f55 5345525f 54494d45 525f305f  EM_USER_TIMER_0_
 0c00 4354524c 5f53495a 45203078 31303030  CTRL_SIZE 0x1000
 0c10 005f5f6e 6565645f 77636861 725f7400  .__need_wchar_t.
 0c20 5f5f464c 5433325f 4d494e5f 4558505f  __FLT32_MIN_EXP_
 0c30 5f20282d 31323529 005f5f46 4c543634  _ (-125).__FLT64
 0c40 585f4d49 4e5f4558 505f5f20 282d3136  X_MIN_EXP__ (-16
 0c50 33383129 00443a5c 5f756e6f 5c323430  381).D:\_uno\240
 0c60 332d4769 74487562 5c746573 742d7265  3-GitHub\test-re
 0c70 706f5c65 78616d70 6c655f74 32305f31  po\example_t20_1
 0c80 7374675f 626f6f74 6c6f6164 65725c65  stg_bootloader\e
 0c90 6d626564 6465645f 73775c73 61705c73  mbedded_sw\sap\s
 0ca0 6f667477 6172655c 7374616e 64616c6f  oftware\standalo
 0cb0 6e655c62 6f6f746c 6f616465 725f5472  ne\bootloader_Tr
 0cc0 696e6974 61004d5f 53515254 315f3220  inita.M_SQRT1_2 
 0cd0 302e3730 37313036 37383131 38363534  0.70710678118654
 0ce0 37353234 34300077 72697465 5f753332  752440.write_u32
 0cf0 005f5f50 54524449 46465f54 20005f67  .__PTRDIFF_T ._g
 0d00 65746461 74655f65 7272005f 6d756c74  etdate_err._mult
 0d10 00494e54 31365f4d 41582028 5f5f494e  .INT16_MAX (__IN
 0d20 5431365f 4d41585f 5f29005f 5f464c54  T16_MAX__).__FLT
 0d30 36345f4d 494e5f31 305f4558 505f5f20  64_MIN_10_EXP__ 
 0d40 282d3330 3729005f 5f73697a 655f7420  (-307).__size_t 
 0d50 005f5f62 6f756e64 65642000 5f5f696e  .__bounded .__in
 0d60 745f6661 73743332 5f745f64 6566696e  t_fast32_t_defin
 0d70 65642031 005f5f49 4e545f46 41535436  ed 1.__INT_FAST6
 0d80 345f5749 4454485f 5f203634 005f5f5f  4_WIDTH__ 64.___
 0d90 696e745f 77636861 725f745f 6820005f  int_wchar_t_h ._
 0da0 5245454e 545f494e 49545f50 54522876  REENT_INIT_PTR(v
 0db0 61722920 7b206d65 6d736574 28287661  ar) { memset((va
 0dc0 72292c20 302c2073 697a656f 66282a28  r), 0, sizeof(*(
 0dd0 76617229 29293b20 5f524545 4e545f49  var))); _REENT_I
 0de0 4e49545f 5054525f 5a45524f 45442876  NIT_PTR_ZEROED(v
 0df0 6172293b 207d0049 4e543136 5f432878  ar); }.INT16_C(x
 0e00 29205f5f 494e5431 365f4328 78290063  ) __INT16_C(x).c
 0e10 70686100 5f5f434f 4e434154 3128782c  pha.__CONCAT1(x,
 0e20 79292078 20232320 79005f5f 494e5433  y) x ## y.__INT3
 0e30 325f4328 63292063 20232320 4c005f5f  2_C(c) c ## L.__
 0e40 4f524445 525f4249 475f454e 4449414e  ORDER_BIG_ENDIAN
 0e50 5f5f2034 33323100 5f5f4445 43313238  __ 4321.__DEC128
 0e60 5f4d494e 5f5f2031 452d3631 3433444c  _MIN__ 1E-6143DL
 0e70 00494e54 385f4d49 4e20282d 5f5f494e  .INT8_MIN (-__IN
 0e80 54385f4d 41585f5f 202d2031 2900464c  T8_MAX__ - 1).FL
 0e90 545f4556 414c5f4d 4554484f 44005f5f  T_EVAL_METHOD.__
 0ea0 50287072 6f746f73 29207072 6f746f73  P(protos) protos
 0eb0 005f5f46 4c543132 385f4841 535f5155  .__FLT128_HAS_QU
 0ec0 4945545f 4e414e5f 5f203100 5f535953  IET_NAN__ 1._SYS
 0ed0 5f5f5354 44494e54 5f482000 494e545f  __STDINT_H .INT_
 0ee0 4c454153 5436345f 4d415820 285f5f49  LEAST64_MAX (__I
 0ef0 4e545f4c 45415354 36345f4d 41585f5f  NT_LEAST64_MAX__
 0f00 29005359 5354454d 5f524953 43565f49  ).SYSTEM_RISCV_I
 0f10 53415f45 58545f5a 4946454e 43452031  SA_EXT_ZIFENCE 1
 0f20 00737069 5f777269 74650053 59535445  .spi_write.SYSTE
 0f30 4d5f434c 494e545f 4354524c 5f53495a  M_CLINT_CTRL_SIZ
 0f40 45203078 31303030 30005f5f 7765616b  E 0x10000.__weak
 0f50 5f726566 6572656e 63652873 796d2c61  _reference(sym,a
 0f60 6c696173 29205f5f 61736d5f 5f28222e  lias) __asm__(".
 0f70 7765616b 20222023 616c6961 73293b20  weak " #alias); 
 0f80 5f5f6173 6d5f5f28 222e6571 75202220  __asm__(".equ " 
 0f90 23616c69 61732022 2c202220 2373796d  #alias ", " #sym
 0fa0 29005359 5354454d 5f475049 4f5f415f  ).SYSTEM_GPIO_A_
 0fb0 41504220 53595354 454d5f47 50494f5f  APB SYSTEM_GPIO_
 0fc0 305f494f 5f415042 005f5f55 494e545f  0_IO_APB.__UINT_
 0fd0 46415354 385f4d41 585f5f20 30786666  FAST8_MAX__ 0xff
 0fe0 66666666 66665500 5f4e4f54 48524f57  ffffffU._NOTHROW
 0ff0 20005f5f 44454333 325f4550 53494c4f   .__DEC32_EPSILO
 1000 4e5f5f20 31452d36 4446005f 5f686173  N__ 1E-6DF.__has
 1010 5f657874 656e7369 6f6e205f 5f686173  _extension __has
 1020 5f666561 74757265 005f5f77 6368005f  _feature.__wch._
 1030 5245454e 545f4348 45434b5f 4d502870  REENT_CHECK_MP(p
 1040 74722920 005f5f49 4e545f4c 45415354  tr) .__INT_LEAST
 1050 36345f54 5950455f 5f206c6f 6e67206c  64_TYPE__ long l
 1060 6f6e6720 696e7400 494e545f 4c454153  ong int.INT_LEAS
 1070 54385f4d 41582028 5f5f494e 545f4c45  T8_MAX (__INT_LE
 1080 41535438 5f4d4158 5f5f2900 5f5f464c  AST8_MAX__).__FL
 1090 54363458 5f4d4158 5f31305f 4558505f  T64X_MAX_10_EXP_
 10a0 5f203439 3332005f 5f534348 41525f57  _ 4932.__SCHAR_W
 10b0 49445448 5f5f2038 00434155 53455f49  IDTH__ 8.CAUSE_I
 10c0 4c4c4547 414c5f49 4e535452 55435449  LLEGAL_INSTRUCTI
 10d0 4f4e2032 005f5f49 4e545f46 41535431  ON 2.__INT_FAST1
 10e0 365f5749 4454485f 5f203332 005f5245  6_WIDTH__ 32._RE
 10f0 454e5420 5f696d70 7572655f 70747200  ENT _impure_ptr.
 1100 4d49455f 4d454945 20283120 3c3c2043  MIE_MEIE (1 << C
 1110 41555345 5f4d4143 48494e45 5f455854  AUSE_MACHINE_EXT
 1120 45524e41 4c29004d 5f4c4e32 48492036  ERNAL).M_LN2HI 6
 1130 2e393331 34373138 30333639 31323338  .931471803691238
 1140 31363439 452d3100 4d535441 5455535f  1649E-1.MSTATUS_
 1150 53505020 30783030 30303031 3030005f  SPP 0x00000100._
 1160 5f4c4541 53543332 20226c22 005f5f49  _LEAST32 "l".__I
 1170 4e543634 20226c6c 22005f5f 4743435f  NT64 "ll".__GCC_
 1180 41544f4d 49435f50 4f494e54 45525f4c  ATOMIC_POINTER_L
 1190 4f434b5f 46524545 2031005f 66696c65  OCK_FREE 1._file
 11a0 005f5f55 494e545f 46415354 31365f4d  .__UINT_FAST16_M
 11b0 41585f5f 20307866 66666666 66666655  AX__ 0xffffffffU
 11c0 00494e54 5f4c4541 53543634 5f4d494e  .INT_LEAST64_MIN
 11d0 20282d5f 5f494e54 5f4c4541 53543634   (-__INT_LEAST64
 11e0 5f4d4158 5f5f202d 20312900 5f6f6e5f  _MAX__ - 1)._on_
 11f0 65786974 5f617267 73004650 5f4e414e  exit_args.FP_NAN
 1200 2030005f 5f494e54 5054525f 4d41585f   0.__INTPTR_MAX_
 1210 5f203078 37666666 66666666 004d5f4c  _ 0x7fffffff.M_L
 1220 4f473130 4520302e 34333432 39343438  OG10E 0.43429448
 1230 31393033 32353138 32373635 00757365  190325182765.use
 1240 724d6169 6e005f4e 6f6e6e75 6c6c2000  rMain._Nonnull .
 1250 454e4142 4c455f42 52494447 455f4655  ENABLE_BRIDGE_FU
 1260 4c4c5f54 4f5f4c49 54452031 004d4944  LL_TO_LITE 1.MID
 1270 454c4547 5f535550 45525649 534f525f  ELEG_SUPERVISOR_
 1280 534f4654 57415245 20283120 3c3c2031  SOFTWARE (1 << 1
 1290 29005f5f 474e5543 5f505245 52455128  ).__GNUC_PREREQ(
 12a0 6d616a2c 6d696e29 2028285f 5f474e55  maj,min) ((__GNU
 12b0 435f5f20 3c3c2031 3629202b 205f5f47  C__ << 16) + __G
 12c0 4e55435f 4d494e4f 525f5f20 3e3d2028  NUC_MINOR__ >= (
 12d0 286d616a 29203c3c 20313629 202b2028  (maj) << 16) + (
 12e0 6d696e29 29005f54 5f574348 41522000  min))._T_WCHAR .
 12f0 5f4e5f4c 49535453 20333000 5f494e54  _N_LISTS 30._INT
 1300 5054525f 545f4445 434c4152 45442000  PTR_T_DECLARED .
 1310 5f56415f 4c495354 5f545f48 20005f5f  _VA_LIST_T_H .__
 1320 464c5433 32585f48 41535f49 4e46494e  FLT32X_HAS_INFIN
 1330 4954595f 5f203100 494e545f 46415354  ITY__ 1.INT_FAST
 1340 33325f4d 494e2028 2d5f5f49 4e545f46  32_MIN (-__INT_F
 1350 41535433 325f4d41 585f5f20 2d203129  AST32_MAX__ - 1)
 1360 00535953 54454d5f 504c4943 5f435452  .SYSTEM_PLIC_CTR
 1370 4c5f5349 5a452030 78343030 30303000  L_SIZE 0x400000.
 1380 5f524545 4e545f52 414e4434 385f5345  _REENT_RAND48_SE
 1390 45442870 74722920 28287074 72292d3e  ED(ptr) ((ptr)->
 13a0 5f6e6577 2e5f7265 656e742e 5f723438  _new._reent._r48
 13b0 2e5f7365 65642900 5f5f5549 4e545f4c  ._seed).__UINT_L
 13c0 45415354 385f5459 50455f5f 20756e73  EAST8_TYPE__ uns
 13d0 69676e65 64206368 6172005f 73747274  igned char._strt
 13e0 6f6b5f6c 61737400 5f5f6c6f 636b735f  ok_last.__locks_
 13f0 6578636c 75736976 65282e2e 2e29205f  exclusive(...) _
 1400 5f6c6f63 6b5f616e 6e6f7461 74652865  _lock_annotate(e
 1410 78636c75 73697665 5f6c6f63 6b5f6675  xclusive_lock_fu
 1420 6e637469 6f6e285f 5f56415f 41524753  nction(__VA_ARGS
 1430 5f5f2929 005f6d62 726c656e 5f737461  __))._mbrlen_sta
 1440 74650073 70695f61 70706c79 436f6e66  te.spi_applyConf
 1450 69670053 59535445 4d5f5541 52545f30  ig.SYSTEM_UART_0
 1460 5f494f5f 50415241 4d455445 525f5541  _IO_PARAMETER_UA
 1470 52545f43 54524c5f 434f4e46 49475f52  RT_CTRL_CONFIG_R
 1480 54535f47 454e2030 005f5f49 4e545f46  TS_GEN 0.__INT_F
 1490 41535436 345f4d41 585f5f20 30783766  AST64_MAX__ 0x7f
 14a0 66666666 66666666 66666666 66664c4c  ffffffffffffffLL
 14b0 005f5f46 4c543332 585f4445 43494d41  .__FLT32X_DECIMA
 14c0 4c5f4449 475f5f20 31370049 4e46494e  L_DIG__ 17.INFIN
 14d0 49545920 285f5f62 75696c74 696e5f69  ITY (__builtin_i
 14e0 6e666628 2929005f 72657375 6c745f6b  nff())._result_k
 14f0 005f5f46 4c543332 585f4841 535f5155  .__FLT32X_HAS_QU
 1500 4945545f 4e414e5f 5f203100 5f5f5241  IET_NAN__ 1.__RA
 1510 4e445f4d 41582030 78376666 66666666  ND_MAX 0x7ffffff
 1520 66005f5f 6c6f636b 5f616371 75697265  f.__lock_acquire
 1530 286c6f63 6b292028 28766f69 64292030  (lock) ((void) 0
 1540 29005f5f 5f696e74 5f6c6561 73743136  ).___int_least16
 1550 5f745f64 6566696e 65642031 00535049  _t_defined 1.SPI
 1560 5f4d4f44 455f4350 48412028 31203c3c  _MODE_CPHA (1 <<
 1570 20312900 5f5f4445 43313238 5f4d494e   1).__DEC128_MIN
 1580 5f455850 5f5f2028 2d363134 3229004d  _EXP__ (-6142).M
 1590 4154485f 45525245 58434550 54203200  ATH_ERREXCEPT 2.
 15a0 5f5f494e 545f4641 5354385f 54595045  __INT_FAST8_TYPE
 15b0 5f5f2069 6e74005f 4e4f494e 4c494e45  __ int._NOINLINE
 15c0 205f5f61 74747269 62757465 5f5f2028   __attribute__ (
 15d0 285f5f6e 6f696e6c 696e655f 5f292900  (__noinline__)).
 15e0 5f5f7369 7a655f74 5f5f2000 5f5f464c  __size_t__ .__FL
 15f0 54313238 5f4d494e 5f455850 5f5f2028  T128_MIN_EXP__ (
 1600 2d313633 38312900 6373725f 72656164  -16381).csr_read
 1610 28637372 2920287b 20726567 69737465  (csr) ({ registe
 1620 7220756e 7369676e 6564206c 6f6e6720  r unsigned long 
 1630 5f5f763b 205f5f61 736d5f5f 205f5f76  __v; __asm__ __v
 1640 6f6c6174 696c655f 5f202822 63737272  olatile__ ("csrr
 1650 2025302c 20222023 63737220 3a20223d   %0, " #csr : "=
 1660 72222028 5f5f7629 293b205f 5f763b20  r" (__v)); __v; 
 1670 7d29005f 5245454e 545f5241 4e445f4e  })._REENT_RAND_N
 1680 45585428 70747229 20282870 7472292d  EXT(ptr) ((ptr)-
 1690 3e5f6e65 772e5f72 65656e74 2e5f7261  >_new._reent._ra
 16a0 6e645f6e 65787429 005f5f55 494e544d  nd_next).__UINTM
 16b0 41585f43 28632920 63202323 20554c4c  AX_C(c) c ## ULL
 16c0 00484156 455f494e 49544649 4e495f41  .HAVE_INITFINI_A
 16d0 52524159 2031005f 5f53495a 454f465f  RRAY 1.__SIZEOF_
 16e0 504f494e 5445525f 5f203400 494e545f  POINTER__ 4.INT_
 16f0 46415354 36345f4d 494e2028 2d5f5f49  FAST64_MIN (-__I
 1700 4e545f46 41535436 345f4d41 585f5f20  NT_FAST64_MAX__ 
 1710 2d203129 005f6c6f 63616c74 696d655f  - 1)._localtime_
 1720 62756600 5f425344 5f574348 41525f54  buf._BSD_WCHAR_T
 1730 5f20005f 5f474343 5f41544f 4d49435f  _ .__GCC_ATOMIC_
 1740 424f4f4c 5f4c4f43 4b5f4652 45452031  BOOL_LOCK_FREE 1
 1750 005f666c 6f636b5f 74005f5f 5f696e74  ._flock_t.___int
 1760 36345f74 5f646566 696e6564 2031005f  64_t_defined 1._
 1770 5f464c54 3634585f 4841535f 44454e4f  _FLT64X_HAS_DENO
 1780 524d5f5f 2031005f 5f736275 66006461  RM__ 1.__sbuf.da
 1790 74615f63 61636865 5f696e76 616c6964  ta_cache_invalid
 17a0 6174655f 616c6c28 29206173 6d28222e  ate_all() asm(".
 17b0 776f7264 28307835 30304629 22293b00  word(0x500F)");.
 17c0 55494e54 5054525f 4d415820 285f5f55  UINTPTR_MAX (__U
 17d0 494e5450 54525f4d 41585f5f 29005f5f  INTPTR_MAX__).__
 17e0 464c5433 325f4d41 585f4558 505f5f20  FLT32_MAX_EXP__ 
 17f0 31323800 6d61696e 005f5f55 494e544d  128.main.__UINTM
 1800 41585f54 5950455f 5f206c6f 6e67206c  AX_TYPE__ long l
 1810 6f6e6720 756e7369 676e6564 20696e74  ong unsigned int
 1820 005f4154 45584954 5f53495a 45203332  ._ATEXIT_SIZE 32
 1830 005f666e 74797065 73005f5f 4c44424c  ._fntypes.__LDBL
 1840 5f44454e 4f524d5f 4d494e5f 5f20362e  _DENORM_MIN__ 6.
 1850 34373531 37353131 39343338 30323531  4751751194380251
 1860 31303932 34343338 39353832 32373634  1092443895822764
 1870 36353565 2d343936 364c0050 4d505f41  655e-4966L.PMP_A
 1880 20307831 38005f55 494e5436 345f545f   0x18._UINT64_T_
 1890 4445434c 41524544 20005f53 495a455f  DECLARED ._SIZE_
 18a0 545f4445 434c4152 45442000 4d535441  T_DECLARED .MSTA
 18b0 5455535f 58532030 78303030 31383030  TUS_XS 0x0001800
 18c0 30005f5f 43484152 33325f54 5950455f  0.__CHAR32_TYPE_
 18d0 5f206c6f 6e672075 6e736967 6e656420  _ long unsigned 
 18e0 696e7400 53535441 5455535f 58532030  int.SSTATUS_XS 0
 18f0 78303030 31383030 30004249 545f3420  x00018000.BIT_4 
 1900 2831203c 3c203429 005f5f43 435f5355  (1 << 4).__CC_SU
 1910 50504f52 54535f44 594e414d 49435f41  PPORTS_DYNAMIC_A
 1920 52524159 5f494e49 54203100 5f5f5549  RRAY_INIT 1.__UI
 1930 4e545f46 41535433 325f4d41 585f5f20  NT_FAST32_MAX__ 
 1940 30786666 66666666 66665500 5f5f746d  0xffffffffU.__tm
 1950 5f6d6f6e 005f5f46 4c545f4d 41585f45  _mon.__FLT_MAX_E
 1960 58505f5f 20313238 00535953 54454d5f  XP__ 128.SYSTEM_
 1970 4932435f 415f4150 42205359 5354454d  I2C_A_APB SYSTEM
 1980 5f493243 5f305f49 4f5f4150 42005f5f  _I2C_0_IO_APB.__
 1990 72697363 765f6469 76203100 46505f53  riscv_div 1.FP_S
 19a0 55424e4f 524d414c 2033005f 52454144  UBNORMAL 3._READ
 19b0 5f575249 54455f42 55465349 5a455f54  _WRITE_BUFSIZE_T
 19c0 59504520 696e7400 5f5f5349 5a454f46  YPE int.__SIZEOF
 19d0 5f444f55 424c455f 5f203800 5f5f494e  _DOUBLE__ 8.__IN
 19e0 545f4c45 41535433 325f5749 4454485f  T_LEAST32_WIDTH_
 19f0 5f203332 005f434c 4f434b5f 545f2075  _ 32._CLOCK_T_ u
 1a00 6e736967 6e656420 6c6f6e67 005f5f77  nsigned long.__w
 1a10 63686200 5f5f4c44 424c5f4d 41585f31  chb.__LDBL_MAX_1
 1a20 305f4558 505f5f20 34393332 00535953  0_EXP__ 4932.SYS
 1a30 54454d5f 434f5245 535f305f 43465520  TEM_CORES_0_CFU 
 1a40 30005f5f 73796d5f 636f6d70 61742873  0.__sym_compat(s
 1a50 796d2c69 6d706c2c 76657269 6429205f  ym,impl,verid) _
 1a60 5f61736d 5f5f2822 2e73796d 76657220  _asm__(".symver 
 1a70 22202369 6d706c20 222c2022 20237379  " #impl ", " #sy
 1a80 6d202240 22202376 65726964 29005f5f  m "@" #verid).__
 1a90 46415354 31362000 53535441 5455535f  FAST16 .SSTATUS_
 1aa0 55504945 20307830 30303030 30313000  UPIE 0x00000010.
 1ab0 5f5f4c41 52474546 494c455f 56495349  __LARGEFILE_VISI
 1ac0 424c4520 30005f5f 44454336 345f4d41  BLE 0.__DEC64_MA
 1ad0 585f5f20 392e3939 39393939 39393939  X__ 9.9999999999
 1ae0 39393939 39453338 34444400 5f5f4e45  99999E384DD.__NE
 1af0 574c4942 5f5f2033 00737069 466c6173  WLIB__ 3.spiFlas
 1b00 685f7761 6b655f00 45584954 5f535543  h_wake_.EXIT_SUC
 1b10 43455353 2030005f 5f464c54 5f4d494e  CESS 0.__FLT_MIN
 1b20 5f31305f 4558505f 5f20282d 33372900  _10_EXP__ (-37).
 1b30 5f5f4153 4d4e414d 4528636e 616d6529  __ASMNAME(cname)
 1b40 205f5f58 53545249 4e472028 5f5f5553   __XSTRING (__US
 1b50 45525f4c 4142454c 5f505245 4649585f  ER_LABEL_PREFIX_
 1b60 5f292063 6e616d65 006d6174 685f6572  _) cname.math_er
 1b70 7268616e 646c696e 67204d41 54485f45  rhandling MATH_E
 1b80 52524e4f 00535049 5f525350 5f56414c  RRNO.SPI_RSP_VAL
 1b90 49442028 31203c3c 20333129 005f5f46  ID (1 << 31).__F
 1ba0 4c545f44 4543494d 414c5f44 49475f5f  LT_DECIMAL_DIG__
 1bb0 20390042 53505f4d 41434849 4e455f54   9.BSP_MACHINE_T
 1bc0 494d4552 5f485a20 53595354 454d5f43  IMER_HZ SYSTEM_C
 1bd0 4c494e54 5f485a00 5f756e75 7365645f  LINT_HZ._unused_
 1be0 72616e64 005f5549 4e54385f 545f4445  rand._UINT8_T_DE
 1bf0 434c4152 45442000 52444359 434c4548  CLARED .RDCYCLEH
 1c00 20307843 38300049 4e544d41 585f4d49   0xC80.INTMAX_MI
 1c10 4e20282d 494e544d 41585f4d 4158202d  N (-INTMAX_MAX -
 1c20 20312900 5f5f464c 5433325f 44454e4f   1).__FLT32_DENO
 1c30 524d5f4d 494e5f5f 20312e34 30313239  RM_MIN__ 1.40129
 1c40 38343634 33323438 31373037 30393233  8464324817070923
 1c50 37323935 38333238 39393136 3133652d  72958328991613e-
 1c60 34354633 32005f5f 7074725f 7420766f  45F32.__ptr_t vo
 1c70 6964202a 005f5f47 4e55435f 53544443  id *.__GNUC_STDC
 1c80 5f494e4c 494e455f 5f203100 5f524545  _INLINE__ 1._REE
 1c90 4e545f52 414e4434 385f4144 44287074  NT_RAND48_ADD(pt
 1ca0 72292028 28707472 292d3e5f 6e65772e  r) ((ptr)->_new.
 1cb0 5f726565 6e742e5f 7234382e 5f616464  _reent._r48._add
 1cc0 29005743 4841525f 4d494e20 285f5f57  ).WCHAR_MIN (__W
 1cd0 43484152 5f4d494e 5f5f2900 5f5f494e  CHAR_MIN__).__IN
 1ce0 5436345f 43286329 20632023 23204c4c  T64_C(c) c ## LL
 1cf0 005f5f6e 6f5f6c6f 636b5f61 6e616c79  .__no_lock_analy
 1d00 73697320 5f5f6c6f 636b5f61 6e6e6f74  sis __lock_annot
 1d10 61746528 6e6f5f74 68726561 645f7361  ate(no_thread_sa
 1d20 66657479 5f616e61 6c797369 7329005f  fety_analysis)._
 1d30 5f464c54 5f484153 5f515549 45545f4e  _FLT_HAS_QUIET_N
 1d40 414e5f5f 2031005f 5f474e55 435f5041  AN__ 1.__GNUC_PA
 1d50 5443484c 4556454c 5f5f2030 005f5f47  TCHLEVEL__ 0.__G
 1d60 43435f41 544f4d49 435f4348 41523332  CC_ATOMIC_CHAR32
 1d70 5f545f4c 4f434b5f 46524545 20310069  _T_LOCK_FREE 1.i
 1d80 73756e6f 72646572 6564285f 5f782c5f  sunordered(__x,_
 1d90 5f792920 285f5f62 75696c74 696e5f69  _y) (__builtin_i
 1da0 73756e6f 72646572 65642028 5f5f782c  sunordered (__x,
 1db0 205f5f79 2929005f 5f616c6c 6f635f61   __y)).__alloc_a
 1dc0 6c69676e 28782920 5f5f6174 74726962  lign(x) __attrib
 1dd0 7574655f 5f28285f 5f616c6c 6f635f61  ute__((__alloc_a
 1de0 6c69676e 5f5f2878 29292900 5f574944  lign__(x)))._WID
 1df0 455f4f52 49454e54 2031005f 5f55494e  E_ORIENT 1.__UIN
 1e00 545f4c45 41535431 365f4d41 585f5f20  T_LEAST16_MAX__ 
 1e10 30786666 6666005f 7374646f 7574005f  0xffff._stdout._
 1e20 5f73796d 5f646566 61756c74 2873796d  _sym_default(sym
 1e30 2c696d70 6c2c7665 72696429 205f5f61  ,impl,verid) __a
 1e40 736d5f5f 28222e73 796d7665 72202220  sm__(".symver " 
 1e50 23696d70 6c20222c 20222023 73796d20  #impl ", " #sym 
 1e60 22404022 20237665 72696429 00535049  "@@" #verid).SPI
 1e70 5f434d44 5f524541 44202831 203c3c20  _CMD_READ (1 << 
 1e80 3929005f 5f535444 435f5645 5253494f  9).__STDC_VERSIO
 1e90 4e5f5f20 32303137 31304c00 5f4d425f  N__ 201710L._MB_
 1ea0 4c454e5f 4d415820 31005f5f 464c5433  LEN_MAX 1.__FLT3
 1eb0 32585f44 454e4f52 4d5f4d49 4e5f5f20  2X_DENORM_MIN__ 
 1ec0 342e3934 30363536 34353834 31323436  4.94065645841246
 1ed0 35343431 37363536 38373932 38363832  5441765687928682
 1ee0 32313337 32652d33 32344633 3278006c  21372e-324F32x.l
 1ef0 6f673228 78292028 6c6f6720 28782920  og2(x) (log (x) 
 1f00 2f205f4d 5f4c4e32 29005f5f 464c5436  / _M_LN2).__FLT6
 1f10 345f4d41 585f3130 5f455850 5f5f2033  4_MAX_10_EXP__ 3
 1f20 3038005f 5f53495a 454f465f 4c4f4e47  08.__SIZEOF_LONG
 1f30 5f5f2034 00535049 5f434f4e 46494720  __ 4.SPI_CONFIG 
 1f40 30783038 00535953 54454d5f 52495343  0x08.SYSTEM_RISC
 1f50 565f4953 415f4558 545f5a49 43535220  V_ISA_EXT_ZICSR 
 1f60 31005f5f 61747472 69627574 655f666f  1.__attribute_fo
 1f70 726d6174 5f737472 666d6f6e 5f5f2861  rmat_strfmon__(a
 1f80 2c622920 005f4253 445f5349 5a455f54  ,b) ._BSD_SIZE_T
 1f90 5f444546 494e4544 5f20005f 5f55494e  _DEFINED_ .__UIN
 1fa0 545f4641 53543332 5f545950 455f5f20  T_FAST32_TYPE__ 
 1fb0 756e7369 676e6564 20696e74 00494f5f  unsigned int.IO_
 1fc0 4150425f 534c4156 455f305f 494e5055  APB_SLAVE_0_INPU
 1fd0 54203078 66383130 30303030 005f5f53  T 0xf8100000.__S
 1fe0 5444435f 5554465f 33325f5f 2031004d  TDC_UTF_32__ 1.M
 1ff0 5f4c4f47 32452031 2e343432 36393530  _LOG2E 1.4426950
 2000 34303838 38393633 34303734 005f5f46  408889634074.__F
 2010 4c543332 5f455053 494c4f4e 5f5f2031  LT32_EPSILON__ 1
 2020 2e313932 30393238 39353530 37383132  .192092895507812
 2030 35303030 30303030 30303030 30303030  5000000000000000
 2040 30303030 652d3746 3332005f 5f474e55  0000e-7F32.__GNU
 2050 434c494b 455f4d41 54485f42 55494c54  CLIKE_MATH_BUILT
 2060 494e5f52 454c4f50 5320005f 5f464c54  IN_RELOPS .__FLT
 2070 5f4d4158 5f31305f 4558505f 5f203338  _MAX_10_EXP__ 38
 2080 005f5f50 4d542861 72677329 20617267  .__PMT(args) arg
 2090 73005f5f 44454331 32385f4d 41585f5f  s.__DEC128_MAX__
 20a0 20392e39 39393939 39393939 39393939   9.9999999999999
 20b0 39393939 39393939 39393939 39393939  9999999999999999
 20c0 39393939 45363134 34444c00 5f5f4445  9999E6144DL.__DE
 20d0 43313238 5f4d4158 5f455850 5f5f2036  C128_MAX_EXP__ 6
 20e0 31343500 5f535953 5f434445 46535f48  145._SYS_CDEFS_H
 20f0 5f20005f 5f666f72 6d61745f 61726728  _ .__format_arg(
 2100 666d7461 72672920 5f5f6174 74726962  fmtarg) __attrib
 2110 7574655f 5f28285f 5f666f72 6d61745f  ute__((__format_
 2120 6172675f 5f202866 6d746172 67292929  arg__ (fmtarg)))
 2130 005f5f49 4e545f46 41535433 325f4d41  .__INT_FAST32_MA
 2140 585f5f20 30783766 66666666 6666005f  X__ 0x7fffffff._
 2150 5f41544f 4d49435f 5345515f 43535420  _ATOMIC_SEQ_CST 
 2160 35007372 632f6d61 696e2e63 00425350  5.src/main.c.BSP
 2170 5f504c49 43205359 5354454d 5f504c49  _PLIC SYSTEM_PLI
 2180 435f4354 524c0053 53544154 55535f55  C_CTRL.SSTATUS_U
 2190 584c2030 78303030 30303030 33303030  XL 0x00000003000
 21a0 30303030 30005f5f 464c545f 4841535f  00000.__FLT_HAS_
 21b0 494e4649 4e495459 5f5f2031 005f756e  INFINITY__ 1._un
 21c0 73706563 69666965 645f6c6f 63616c65  specified_locale
 21d0 5f696e66 6f005f5f 6e656564 5f77696e  _info.__need_win
 21e0 745f7400 5350495f 53544154 55535f43  t_t.SPI_STATUS_C
 21f0 4d445f49 4e545f46 4c414720 3d202831  MD_INT_FLAG = (1
 2200 203c3c20 38290043 4c494e54 5f54494d   << 8).CLINT_TIM
 2210 455f4144 44522030 78424646 38005359  E_ADDR 0xBFF8.SY
 2220 5354454d 5f504c49 435f5359 5354454d  STEM_PLIC_SYSTEM
 2230 5f535049 5f305f49 4f5f494e 54455252  _SPI_0_IO_INTERR
 2240 55505420 3400494e 545f4641 5354385f  UPT 4.INT_FAST8_
 2250 4d415820 285f5f49 4e545f46 41535438  MAX (__INT_FAST8
 2260 5f4d4158 5f5f2900 5f726565 6e740055  _MAX__)._reent.U
 2270 494e544d 41585f4d 41582028 5f5f5549  INTMAX_MAX (__UI
 2280 4e544d41 585f4d41 585f5f29 005f5f70  NTMAX_MAX__).__p
 2290 72656469 63745f74 72756528 65787029  redict_true(exp)
 22a0 205f5f62 75696c74 696e5f65 78706563   __builtin_expec
 22b0 74282865 7870292c 20312900 4d535441  t((exp), 1).MSTA
 22c0 5455535f 4d585220 30783030 30383030  TUS_MXR 0x000800
 22d0 3030005f 48415645 5f4c4f4e 475f444f  00._HAVE_LONG_DO
 22e0 55424c45 2031005f 5f696e74 5f666173  UBLE 1.__int_fas
 22f0 7436345f 745f6465 66696e65 64203100  t64_t_defined 1.
 2300 5f524545 4e545f45 4d455247 454e4359  _REENT_EMERGENCY
 2310 5f53495a 45203235 00434c49 4e545f49  _SIZE 25.CLINT_I
 2320 50495f41 44445220 30783030 3030005f  PI_ADDR 0x0000._
 2330 5f4c4442 4c5f4d41 585f4558 505f5f20  _LDBL_MAX_EXP__ 
 2340 31363338 34007265 61645265 675f7533  16384.readReg_u3
 2350 32286e61 6d652c6f 66667365 74292073  2(name,offset) s
 2360 74617469 6320696e 6c696e65 20753332  tatic inline u32
 2370 206e616d 65287533 32207265 67297b20   name(u32 reg){ 
 2380 72657475 726e2072 6561645f 75333228  return read_u32(
 2390 72656720 2b206f66 66736574 293b207d  reg + offset); }
 23a0 005f5f53 495a454f 465f5348 4f52545f  .__SIZEOF_SHORT_
 23b0 5f203200 5f53495a 455f545f 44454649  _ 2._SIZE_T_DEFI
 23c0 4e454420 00434155 53455f53 43414c4c  NED .CAUSE_SCALL
 23d0 2039005f 756e7573 6564005f 5f444543   9._unused.__DEC
 23e0 4f4e5354 28747970 652c7661 72292028  ONST(type,var) (
 23f0 28747970 6529285f 5f75696e 74707472  (type)(__uintptr
 2400 5f742928 636f6e73 7420766f 6964202a  _t)(const void *
 2410 29287661 72292900 5f535953 5f464541  )(var))._SYS_FEA
 2420 54555245 535f4820 005f696e 63005f4d  TURES_H ._inc._M
 2430 41434853 54444c49 425f485f 20005353  ACHSTDLIB_H_ .SS
 2440 54415455 535f5350 50203078 30303030  TATUS_SPP 0x0000
 2450 30313030 005f5f47 4e55434c 494b455f  0100.__GNUCLIKE_
 2460 4255494c 54494e5f 4e455854 5f415247  BUILTIN_NEXT_ARG
 2470 2031005f 504f5349 585f205f 5f66646c   1._POSIX_ __fdl
 2480 69626d5f 706f7369 78005f5f 464c5431  ibm_posix.__FLT1
 2490 32385f4d 494e5f5f 20332e33 36323130  28_MIN__ 3.36210
 24a0 33313433 31313230 39333530 36323632  3143112093506262
 24b0 36373738 31373332 31373532 3630652d  67781732175260e-
 24c0 34393332 46313238 0069736c 65737365  4932F128.islesse
 24d0 7175616c 285f5f78 2c5f5f79 2920285f  qual(__x,__y) (_
 24e0 5f627569 6c74696e 5f69736c 65737365  _builtin_islesse
 24f0 7175616c 20285f5f 782c205f 5f792929  qual (__x, __y))
 2500 005f5f50 5241474d 415f5245 44454649  .__PRAGMA_REDEFI
 2510 4e455f45 58544e41 4d452031 005f5354  NE_EXTNAME 1._ST
 2520 44444546 5f485f20 005f4945 45455f20  DDEF_H_ ._IEEE_ 
 2530 5f5f6664 6c69626d 5f696565 65005359  __fdlibm_ieee.SY
 2540 5354454d 5f554152 545f305f 494f5f50  STEM_UART_0_IO_P
 2550 4152414d 45544552 5f554152 545f4354  ARAMETER_UART_CT
 2560 524c5f43 4f4e4649 475f5052 455f5341  RL_CONFIG_PRE_SA
 2570 4d504c49 4e475f53 495a4520 31005054  MPLING_SIZE 1.PT
 2580 52444946 465f4d49 4e20282d 50545244  RDIFF_MIN (-PTRD
 2590 4946465f 4d415820 2d203129 0076615f  IFF_MAX - 1).va_
 25a0 73746172 7428762c 6c29205f 5f627569  start(v,l) __bui
 25b0 6c74696e 5f76615f 73746172 7428762c  ltin_va_start(v,
 25c0 6c29004d 5f4c4e31 3020322e 33303235  l).M_LN10 2.3025
 25d0 38353039 32393934 30343536 38343032  8509299404568402
 25e0 005f666e 73005f5f 57434841 525f4d41  ._fns.__WCHAR_MA
 25f0 585f5f20 30783766 66666666 66660053  X__ 0x7fffffff.S
 2600 50495f53 54415455 535f5253 505f494e  PI_STATUS_RSP_IN
 2610 545f464c 4147203d 20283120 3c3c2039  T_FLAG = (1 << 9
 2620 29005f5f 55494e54 5f464153 5436345f  ).__UINT_FAST64_
 2630 54595045 5f5f206c 6f6e6720 6c6f6e67  TYPE__ long long
 2640 20756e73 69676e65 6420696e 74005350   unsigned int.SP
 2650 495f5245 41445f4c 41524745 20307835  I_READ_LARGE 0x5
 2660 38005f52 45454e54 5f4d4252 544f5743  8._REENT_MBRTOWC
 2670 5f535441 54452870 74722920 28287074  _STATE(ptr) ((pt
 2680 72292d3e 5f6e6577 2e5f7265 656e742e  r)->_new._reent.
 2690 5f6d6272 746f7763 5f737461 74652900  _mbrtowc_state).
 26a0 5f57494e 545f5420 005f6d62 72746f77  _WINT_T ._mbrtow
 26b0 635f7374 61746500 5f5f6c6f 636b5f63  c_state.__lock_c
 26c0 6c6f7365 286c6f63 6b292028 28766f69  lose(lock) ((voi
 26d0 64292030 29005f63 6c6f7365 004d4544  d) 0)._close.MED
 26e0 454c4547 5f555345 525f454e 5649524f  ELEG_USER_ENVIRO
 26f0 4e4e454d 454e545f 43414c4c 20283120  NNEMENT_CALL (1 
 2700 3c3c2038 29007369 676e6761 6d20282a  << 8).signgam (*
 2710 5f5f7369 676e6761 6d282929 0046505f  __signgam()).FP_
 2720 5a45524f 2032005f 5f424947 47455354  ZERO 2.__BIGGEST
 2730 5f414c49 474e4d45 4e545f5f 20313600  _ALIGNMENT__ 16.
 2740 5349475f 41544f4d 49435f4d 41582028  SIG_ATOMIC_MAX (
 2750 5f5f5354 44494e54 5f455850 28494e54  __STDINT_EXP(INT
 2760 5f4d4158 2929005f 5f6e6f69 6e6c696e  _MAX)).__noinlin
 2770 65205f5f 61747472 69627574 655f5f20  e __attribute__ 
 2780 28285f5f 6e6f696e 6c696e65 5f5f2929  ((__noinline__))
 2790 00636c69 6e745f67 65745469 6d654c6f  .clint_getTimeLo
 27a0 77006d61 6368696e 6554696d 65725f73  w.machineTimer_s
 27b0 6574436d 7028702c 636d7029 20636c69  etCmp(p,cmp) cli
 27c0 6e745f73 6574436d 7028702c 20636d70  nt_setCmp(p, cmp
 27d0 2c203029 3b005f5f 44454333 325f4d49  , 0);.__DEC32_MI
 27e0 4e5f4558 505f5f20 282d3934 29005359  N_EXP__ (-94).SY
 27f0 5354454d 5f493243 5f315f49 4f5f4354  STEM_I2C_1_IO_CT
 2800 524c5f53 495a4520 30783130 30005f5f  RL_SIZE 0x100.__
 2810 7765616b 5f73796d 626f6c20 5f5f6174  weak_symbol __at
 2820 74726962 7574655f 5f28285f 5f776561  tribute__((__wea
 2830 6b5f5f29 29005359 5354454d 5f535049  k__)).SYSTEM_SPI
 2840 5f305f49 4f5f4354 524c5f53 495a4520  _0_IO_CTRL_SIZE 
 2850 30783130 30300053 59535445 4d5f4750  0x1000.SYSTEM_GP
 2860 494f5f30 5f494f5f 4354524c 20307866  IO_0_IO_CTRL 0xf
 2870 38303136 30303000 7370695f 77616974  8016000.spi_wait
 2880 58666572 42757379 005f5f75 73656420  XferBusy.__used 
 2890 5f5f6174 74726962 7574655f 5f28285f  __attribute__((_
 28a0 5f757365 645f5f29 29005f5f 67656e65  _used__)).__gene
 28b0 72696328 65787072 2c742c79 65732c6e  ric(expr,t,yes,n
 28c0 6f29205f 47656e65 72696328 65787072  o) _Generic(expr
 28d0 2c20743a 20796573 2c206465 6661756c  , t: yes, defaul
 28e0 743a206e 6f29005f 5245454e 545f454d  t: no)._REENT_EM
 28f0 45524745 4e435928 70747229 20282870  ERGENCY(ptr) ((p
 2900 7472292d 3e5f656d 65726765 6e637929  tr)->_emergency)
 2910 00535953 54454d5f 55415254 5f305f49  .SYSTEM_UART_0_I
 2920 4f5f5041 52414d45 5445525f 494e4954  O_PARAMETER_INIT
 2930 5f434f4e 4649475f 53544f50 204f4e45  _CONFIG_STOP ONE
 2940 005f5f55 494e5438 5f4d4158 5f5f2030  .__UINT8_MAX__ 0
 2950 78666600 5f5f5f69 6e743136 5f745f64  xff.___int16_t_d
 2960 6566696e 65642031 005f5f46 4c545f45  efined 1.__FLT_E
 2970 5053494c 4f4e5f5f 20312e31 39323039  PSILON__ 1.19209
 2980 32383935 35303738 31323530 30303030  2895507812500000
 2990 30303030 30303030 30303030 3030652d  00000000000000e-
 29a0 37460042 49545f32 31202831 203c3c20  7F.BIT_21 (1 << 
 29b0 32312900 6273705f 7544656c 61792875  21).bsp_uDelay(u
 29c0 73656329 20636c69 6e745f75 44656c61  sec) clint_uDela
 29d0 79287573 65632c20 53595354 454d5f43  y(usec, SYSTEM_C
 29e0 4c494e54 5f485a2c 20535953 54454d5f  LINT_HZ, SYSTEM_
 29f0 434c494e 545f4354 524c293b 00535953  CLINT_CTRL);.SYS
 2a00 54454d5f 52495343 565f4953 415f4558  TEM_RISCV_ISA_EX
 2a10 545f4120 30005f5f 6578706f 72746564  T_A 0.__exported
 2a20 205f5f61 74747269 62757465 5f5f2828   __attribute__((
 2a30 5f5f7669 73696269 6c697479 5f5f2822  __visibility__("
 2a40 64656661 756c7422 29292900 5f5f4442  default"))).__DB
 2a50 4c5f4841 535f4445 4e4f524d 5f5f2031  L_HAS_DENORM__ 1
 2a60 006d6163 68696e65 54696d65 725f7544  .machineTimer_uD
 2a70 656c6179 28757365 632c687a 2c726567  elay(usec,hz,reg
 2a80 2920636c 696e745f 7544656c 61792875  ) clint_uDelay(u
 2a90 7365632c 20687a2c 20726567 293b005f  sec, hz, reg);._
 2aa0 5f43435f 53555050 4f525453 5f5f5f49  _CC_SUPPORTS___I
 2ab0 4e4c494e 45203100 7370695f 636d6441  NLINE 1.spi_cmdA
 2ac0 7661696c 6162696c 69747900 494e544d  vailability.INTM
 2ad0 41585f4d 41582028 5f5f494e 544d4158  AX_MAX (__INTMAX
 2ae0 5f4d4158 5f5f2900 494e5433 325f4d41  _MAX__).INT32_MA
 2af0 5820285f 5f494e54 33325f4d 41585f5f  X (__INT32_MAX__
 2b00 29004d53 54415455 535f4850 50203078  ).MSTATUS_HPP 0x
 2b10 30303030 30363030 005f5f47 58585f41  00000600.__GXX_A
 2b20 42495f56 45525349 4f4e2031 30313300  BI_VERSION 1013.
 2b30 5f545f50 54524449 46465f20 00535049  _T_PTRDIFF_ .SPI
 2b40 5f435320 30005f54 494d455f 545f205f  _CS 0._TIME_T_ _
 2b50 5f696e74 5f6c6561 73743634 5f740042  _int_least64_t.B
 2b60 49545f32 32202831 203c3c20 32322900  IT_22 (1 << 22).
 2b70 5f5f464c 54313238 5f4d4158 5f455850  __FLT128_MAX_EXP
 2b80 5f5f2031 36333834 005f5f4c 45415354  __ 16384.__LEAST
 2b90 38202268 6822005f 5f6e6565 645f7369  8 "hh".__need_si
 2ba0 7a655f74 2000534f 435f4820 005f5f72  ze_t .SOC_H .__r
 2bb0 65747572 6e735f74 77696365 205f5f61  eturns_twice __a
 2bc0 74747269 62757465 5f5f2828 5f5f7265  ttribute__((__re
 2bd0 7475726e 735f7477 6963655f 5f292900  turns_twice__)).
 2be0 53595354 454d5f55 4152545f 305f494f  SYSTEM_UART_0_IO
 2bf0 5f504152 414d4554 45525f55 4152545f  _PARAMETER_UART_
 2c00 4354524c 5f434f4e 4649475f 53414d50  CTRL_CONFIG_SAMP
 2c10 4c494e47 5f53495a 45203500 5f454e44  LING_SIZE 5._END
 2c20 5f535444 5f432000 69736e61 6e285f5f  _STD_C .isnan(__
 2c30 78292028 5f5f6275 696c7469 6e5f6973  x) (__builtin_is
 2c40 6e616e20 285f5f78 29290050 4d505f57  nan (__x)).PMP_W
 2c50 20307830 32005f5f 6861735f 696e636c   0x02.__has_incl
 2c60 7564655f 6e657874 28535452 29205f5f  ude_next(STR) __
 2c70 6861735f 696e636c 7564655f 6e657874  has_include_next
 2c80 5f5f2853 54522900 55494e54 5f4c4541  __(STR).UINT_LEA
 2c90 53543136 5f4d4158 20285f5f 55494e54  ST16_MAX (__UINT
 2ca0 5f4c4541 53543136 5f4d4158 5f5f2900  _LEAST16_MAX__).
 2cb0 5f5f5549 4e543332 5f432863 29206320  __UINT32_C(c) c 
 2cc0 23232055 4c005f5f 73747266 74696d65  ## UL.__strftime
 2cd0 6c696b65 28666d74 6172672c 66697273  like(fmtarg,firs
 2ce0 74766172 61726729 205f5f61 74747269  tvararg) __attri
 2cf0 62757465 5f5f2828 5f5f666f 726d6174  bute__((__format
 2d00 5f5f2028 5f5f7374 72667469 6d655f5f  __ (__strftime__
 2d10 2c20666d 74617267 2c206669 72737476  , fmtarg, firstv
 2d20 61726172 67292929 005f4e75 6c6c5f75  ararg)))._Null_u
 2d30 6e737065 63696669 65642000 4249545f  nspecified .BIT_
 2d40 32332028 31203c3c 20323329 005f5f47  23 (1 << 23).__G
 2d50 43435f41 544f4d49 435f5348 4f52545f  CC_ATOMIC_SHORT_
 2d60 4c4f434b 5f465245 45203100 5f494e54  LOCK_FREE 1._INT
 2d70 4d41585f 545f4445 434c4152 45442000  MAX_T_DECLARED .
 2d80 4253505f 4d414348 494e455f 54494d45  BSP_MACHINE_TIME
 2d90 52205359 5354454d 5f434c49 4e545f43  R SYSTEM_CLINT_C
 2da0 54524c00 48554745 5f56414c 4c20285f  TRL.HUGE_VALL (_
 2db0 5f627569 6c74696e 5f687567 655f7661  _builtin_huge_va
 2dc0 6c6c2829 29004249 545f3320 2831203c  ll()).BIT_3 (1 <
 2dd0 3c203329 00424954 5f313020 2831203c  < 3).BIT_10 (1 <
 2de0 3c203130 2900494e 545f4c45 41535433  < 10).INT_LEAST3
 2df0 325f4d41 5820285f 5f494e54 5f4c4541  2_MAX (__INT_LEA
 2e00 53543332 5f4d4158 5f5f2900 5f524545  ST32_MAX__)._REE
 2e10 4e545f53 49474e47 414d2870 74722920  NT_SIGNGAM(ptr) 
 2e20 28287074 72292d3e 5f6e6577 2e5f7265  ((ptr)->_new._re
 2e30 656e742e 5f67616d 6d615f73 69676e67  ent._gamma_signg
 2e40 616d2900 494e545f 4c454153 5433325f  am).INT_LEAST32_
 2e50 4d494e20 282d5f5f 494e545f 4c454153  MIN (-__INT_LEAS
 2e60 5433325f 4d41585f 5f202d20 31290042  T32_MAX__ - 1).B
 2e70 49545f31 35202831 203c3c20 31352900  IT_15 (1 << 15).
 2e80 55415254 5f465241 4d455f43 4f4e4649  UART_FRAME_CONFI
 2e90 47203078 30430042 49545f32 34202831  G 0x0C.BIT_24 (1
 2ea0 203c3c20 32342900 5350495f 434d445f   << 24).SPI_CMD_
 2eb0 57524954 45202831 203c3c20 38290063  WRITE (1 << 8).c
 2ec0 73725f63 6c656172 28637372 2c76616c  sr_clear(csr,val
 2ed0 2920287b 20756e73 69676e65 64206c6f  ) ({ unsigned lo
 2ee0 6e67205f 5f76203d 2028756e 7369676e  ng __v = (unsign
 2ef0 6564206c 6f6e6729 2876616c 293b205f  ed long)(val); _
 2f00 5f61736d 5f5f205f 5f766f6c 6174696c  _asm__ __volatil
 2f10 655f5f20 28226373 72632022 20236373  e__ ("csrc " #cs
 2f20 7220222c 20253022 203a203a 2022724b  r ", %0" : : "rK
 2f30 2220285f 5f762929 3b207d29 00637372  " (__v)); }).csr
 2f40 5f726561 645f7365 74286373 722c7661  _read_set(csr,va
 2f50 6c292028 7b20756e 7369676e 6564206c  l) ({ unsigned l
 2f60 6f6e6720 5f5f7620 3d202875 6e736967  ong __v = (unsig
 2f70 6e656420 6c6f6e67 29287661 6c293b20  ned long)(val); 
 2f80 5f5f6173 6d5f5f20 5f5f766f 6c617469  __asm__ __volati
 2f90 6c655f5f 20282263 73727273 2025302c  le__ ("csrrs %0,
 2fa0 20222023 63737220 222c2025 3122203a   " #csr ", %1" :
 2fb0 20223d72 2220285f 5f762920 3a202272   "=r" (__v) : "r
 2fc0 4b222028 5f5f7629 293b205f 5f763b20  K" (__v)); __v; 
 2fd0 7d29005f 5f474343 5f41544f 4d49435f  }).__GCC_ATOMIC_
 2fe0 54455354 5f414e44 5f534554 5f545255  TEST_AND_SET_TRU
 2ff0 4556414c 20310063 6c696e74 5f754465  EVAL 1.clint_uDe
 3000 6c617900 63706f6c 00454e41 424c455f  lay.cpol.ENABLE_
 3010 46505f45 58504f4e 454e5449 414c5f53  FP_EXPONENTIAL_S
 3020 5550504f 52542030 005f5f45 4c465f5f  UPPORT 0.__ELF__
 3030 2031005f 56415f4c 4953545f 44454649   1._VA_LIST_DEFI
 3040 4e454420 005f5f57 43484152 5f4d494e  NED .__WCHAR_MIN
 3050 5f5f2028 2d5f5f57 43484152 5f4d4158  __ (-__WCHAR_MAX
 3060 5f5f202d 20312900 5f5f464c 5433325f  __ - 1).__FLT32_
 3070 4841535f 51554945 545f4e41 4e5f5f20  HAS_QUIET_NAN__ 
 3080 31005f5f 4f42534f 4c455445 5f4d4154  1.__OBSOLETE_MAT
 3090 48205f5f 4f42534f 4c455445 5f4d4154  H __OBSOLETE_MAT
 30a0 485f4445 4641554c 54004d5f 4c4e324c  H_DEFAULT.M_LN2L
 30b0 4f20312e 39303832 31343932 39323730  O 1.908214929270
 30c0 35383737 30303045 2d313000 5f5f4c44  5877000E-10.__LD
 30d0 424c5f48 41535f49 4e46494e 4954595f  BL_HAS_INFINITY_
 30e0 5f203100 6c696d69 74005f5f 44454333  _ 1.limit.__DEC3
 30f0 325f4d41 585f5f20 392e3939 39393939  2_MAX__ 9.999999
 3100 45393644 46005f5f 464c5433 32585f4d  E96DF.__FLT32X_M
 3110 41585f31 305f4558 505f5f20 33303800  AX_10_EXP__ 308.
 3120 504d505f 544f5220 30783038 00535953  PMP_TOR 0x08.SYS
 3130 54454d5f 55415254 5f305f49 4f5f5041  TEM_UART_0_IO_PA
 3140 52414d45 5445525f 4255535f 43414e5f  RAMETER_BUS_CAN_
 3150 57524954 455f4652 414d455f 434f4e46  WRITE_FRAME_CONF
 3160 49472031 005f5f70 75726520 5f5f6174  IG 1.__pure __at
 3170 74726962 7574655f 5f28285f 5f707572  tribute__((__pur
 3180 655f5f29 29005f5f 6f666673 65746f66  e__)).__offsetof
 3190 28747970 652c6669 656c6429 206f6666  (type,field) off
 31a0 7365746f 66287479 70652c20 6669656c  setof(type, fiel
 31b0 64290055 53455f47 50203100 5f5f7569  d).USE_GP 1.__ui
 31c0 6e74385f 74005f5f 5349475f 41544f4d  nt8_t.__SIG_ATOM
 31d0 49435f4d 494e5f5f 20282d5f 5f534947  IC_MIN__ (-__SIG
 31e0 5f41544f 4d49435f 4d41585f 5f202d20  _ATOMIC_MAX__ - 
 31f0 31290053 59535445 4d5f4252 49444745  1).SYSTEM_BRIDGE
 3200 5f424d42 20307830 00535953 54454d5f  _BMB 0x0.SYSTEM_
 3210 504c4943 5f535953 54454d5f 55415254  PLIC_SYSTEM_UART
 3220 5f305f49 4f5f494e 54455252 55505420  _0_IO_INTERRUPT 
 3230 31005f5f 55494e54 5f4c4541 5354385f  1.__UINT_LEAST8_
 3240 4d41585f 5f203078 6666005f 5f444543  MAX__ 0xff.__DEC
 3250 36345f4d 494e5f45 58505f5f 20282d33  64_MIN_EXP__ (-3
 3260 38322900 4d535441 5455535f 53554d20  82).MSTATUS_SUM 
 3270 30783030 30343030 3030005f 57434841  0x00040000._WCHA
 3280 525f545f 44454649 4e45445f 20005f5f  R_T_DEFINED_ .__
 3290 464c5436 34585f48 41535f49 4e46494e  FLT64X_HAS_INFIN
 32a0 4954595f 5f203100 5349475f 41544f4d  ITY__ 1.SIG_ATOM
 32b0 49435f4d 494e2028 2d5f5f53 5444494e  IC_MIN (-__STDIN
 32c0 545f4558 5028494e 545f4d41 5829202d  T_EXP(INT_MAX) -
 32d0 20312900 5f636f6f 6b696500 5f5f4442   1)._cookie.__DB
 32e0 4c5f4d41 585f5f20 2828646f 75626c65  L_MAX__ ((double
 32f0 29312e37 39373639 33313334 38363233  )1.7976931348623
 3300 31353730 38313435 32373432 33373331  1570814527423731
 3310 37303433 3537652b 3330384c 29005f49  704357e+308L)._I
 3320 4e543136 5f545f44 45434c41 52454420  NT16_T_DECLARED 
 3330 00696e73 74727563 74696f6e 5f636163  .instruction_cac
 3340 68655f69 6e76616c 69646174 65282920  he_invalidate() 
 3350 61736d28 2266656e 63652e69 22293b00  asm("fence.i");.
 3360 4249545f 31342028 31203c3c 20313429  BIT_14 (1 << 14)
 3370 00535049 5f535441 5455535f 5253505f  .SPI_STATUS_RSP_
 3380 494e545f 454e4142 4c45203d 20283120  INT_ENABLE = (1 
 3390 3c3c2031 29005f77 6473004e 414e2028  << 1)._wds.NAN (
 33a0 5f5f6275 696c7469 6e5f6e61 6e662822  __builtin_nanf("
 33b0 22292900 5f5f494e 545f4c45 41535431  ")).__INT_LEAST1
 33c0 365f5749 4454485f 5f203136 004d4544  6_WIDTH__ 16.MED
 33d0 454c4547 5f53544f 52455f50 4147455f  ELEG_STORE_PAGE_
 33e0 4641554c 54202831 203c3c20 31352900  FAULT (1 << 15).
 33f0 5f5f4445 435f4556 414c5f4d 4554484f  __DEC_EVAL_METHO
 3400 445f5f20 32005359 5354454d 5f554152  D__ 2.SYSTEM_UAR
 3410 545f305f 494f5f50 4152414d 45544552  T_0_IO_PARAMETER
 3420 5f425553 5f43414e 5f575249 54455f43  _BUS_CAN_WRITE_C
 3430 4c4f434b 5f444956 49444552 5f434f4e  LOCK_DIVIDER_CON
 3440 46494720 31005f41 54455849 545f494e  FIG 1._ATEXIT_IN
 3450 4954207b 5f4e554c 4c2c2030 2c207b5f  IT {_NULL, 0, {_
 3460 4e554c4c 7d2c207b 7b5f4e55 4c4c7d2c  NULL}, {{_NULL},
 3470 207b5f4e 554c4c7d 2c20302c 20307d7d   {_NULL}, 0, 0}}
 3480 005f7369 675f6675 6e63005f 5f444543  ._sig_func.__DEC
 3490 36345f53 55424e4f 524d414c 5f4d494e  64_SUBNORMAL_MIN
 34a0 5f5f2030 2e303030 30303030 30303030  __ 0.00000000000
 34b0 30303031 452d3338 33444400 53595354  0001E-383DD.SYST
 34c0 454d5f43 4f524553 5f305f53 55504552  EM_CORES_0_SUPER
 34d0 5649534f 52203000 6670636c 61737369  VISOR 0.fpclassi
 34e0 6679285f 5f782920 285f5f62 75696c74  fy(__x) (__built
 34f0 696e5f66 70636c61 73736966 79202846  in_fpclassify (F
 3500 505f4e41 4e2c2046 505f494e 46494e49  P_NAN, FP_INFINI
 3510 54452c20 46505f4e 4f524d41 4c2c2046  TE, FP_NORMAL, F
 3520 505f5355 424e4f52 4d414c2c 2046505f  P_SUBNORMAL, FP_
 3530 5a45524f 2c205f5f 78292900 5f5f6173  ZERO, __x)).__as
 3540 73657274 735f6578 636c7573 69766528  serts_exclusive(
 3550 2e2e2e29 205f5f6c 6f636b5f 616e6e6f  ...) __lock_anno
 3560 74617465 28617373 6572745f 6578636c  tate(assert_excl
 3570 75736976 655f6c6f 636b285f 5f56415f  usive_lock(__VA_
 3580 41524753 5f5f2929 005f5f53 495a455f  ARGS__)).__SIZE_
 3590 5420005f 5f5f696e 745f6c65 61737433  T .___int_least3
 35a0 325f745f 64656669 6e656420 31005353  2_t_defined 1.SS
 35b0 54415455 535f5349 45203078 30303030  TATUS_SIE 0x0000
 35c0 30303032 005f6f66 66736574 00424954  0002._offset.BIT
 35d0 5f313720 2831203c 3c203137 29004d53  _17 (1 << 17).MS
 35e0 54415455 535f5350 49452030 78303030  TATUS_SPIE 0x000
 35f0 30303032 30005f63 76746275 66005f5f  00020._cvtbuf.__
 3600 55534552 5f4c4142 454c5f50 52454649  USER_LABEL_PREFI
 3610 585f5f20 005f5f55 494e5436 345f4d41  X__ .__UINT64_MA
 3620 585f5f20 30786666 66666666 66666666  X__ 0xffffffffff
 3630 66666666 6666554c 4c005f69 6f627300  ffffffULL._iobs.
 3640 55494e54 33325f43 28782920 5f5f5549  UINT32_C(x) __UI
 3650 4e543332 5f432878 29005f41 5446494c  NT32_C(x)._ATFIL
 3660 455f534f 55524345 00494e54 5f464153  E_SOURCE.INT_FAS
 3670 5431365f 4d494e20 282d5f5f 494e545f  T16_MIN (-__INT_
 3680 46415354 31365f4d 41585f5f 202d2031  FAST16_MAX__ - 1
 3690 29005f52 45454e54 5f4d424c 454e5f53  )._REENT_MBLEN_S
 36a0 54415445 28707472 29202828 70747229  TATE(ptr) ((ptr)
 36b0 2d3e5f6e 65772e5f 7265656e 742e5f6d  ->_new._reent._m
 36c0 626c656e 5f737461 74652900 5f5f7472  blen_state).__tr
 36d0 796c6f63 6b735f73 68617265 64282e2e  ylocks_shared(..
 36e0 2e29205f 5f6c6f63 6b5f616e 6e6f7461  .) __lock_annota
 36f0 74652873 68617265 645f7472 796c6f63  te(shared_tryloc
 3700 6b5f6675 6e637469 6f6e285f 5f56415f  k_function(__VA_
 3710 41524753 5f5f2929 005f5f49 4e545f4c  ARGS__)).__INT_L
 3720 45415354 385f4d41 585f5f20 30783766  EAST8_MAX__ 0x7f
 3730 005f5f4e 45574c49 425f485f 5f203100  .__NEWLIB_H__ 1.
 3740 494e5433 325f4d49 4e20282d 5f5f494e  INT32_MIN (-__IN
 3750 5433325f 4d41585f 5f202d20 31290042  T32_MAX__ - 1).B
 3760 49545f31 38202831 203c3c20 31382900  IT_18 (1 << 18).
 3770 756e7369 676e6564 20736967 6e656400  unsigned signed.
 3780 4d5f494e 564c4e32 20312e34 34323639  M_INVLN2 1.44269
 3790 35303430 38383839 36333338 37304530  50408889633870E0
 37a0 005f494e 54505452 5f45515f 494e5420  ._INTPTR_EQ_INT 
 37b0 005f5f46 4c543332 585f4d41 585f4558  .__FLT32X_MAX_EX
 37c0 505f5f20 31303234 005f5f68 61735f69  P__ 1024.__has_i
 37d0 6e636c75 64652853 54522920 5f5f6861  nclude(STR) __ha
 37e0 735f696e 636c7564 655f5f28 53545229  s_include__(STR)
 37f0 00636f6e 6669674d 54494d45 434d505f  .configMTIMECMP_
 3800 42415345 5f414444 52455353 20284253  BASE_ADDRESS (BS
 3810 505f434c 494e5420 2b203078 34303030  P_CLINT + 0x4000
 3820 29006d65 6d6f7279 41646472 65737300  ).memoryAddress.
 3830 5f5f5549 4e545f4c 45415354 33325f4d  __UINT_LEAST32_M
 3840 41585f5f 20307866 66666666 66666655  AX__ 0xffffffffU
 3850 4c005553 45525f53 4f465457 4152455f  L.USER_SOFTWARE_
 3860 464c4153 485f494e 53542030 78303031  FLASH_INST 0x001
 3870 30303030 3000454e 41424c45 5f464c4f  00000.ENABLE_FLO
 3880 4154494e 475f504f 494e545f 53555050  ATING_POINT_SUPP
 3890 4f525420 53595354 454d5f43 4f524553  ORT SYSTEM_CORES
 38a0 5f305f46 50550053 59535445 4d5f5241  _0_FPU.SYSTEM_RA
 38b0 4d5f415f 4354524c 20307866 39303030  M_A_CTRL 0xf9000
 38c0 30303000 5f5f7365 6374696f 6e287829  000.__section(x)
 38d0 205f5f61 74747269 62757465 5f5f2828   __attribute__((
 38e0 5f5f7365 6374696f 6e5f5f28 78292929  __section__(x)))
 38f0 004d5354 41545553 5f53584c 20307830  .MSTATUS_SXL 0x0
 3900 30303030 30304330 30303030 30303000  000000C00000000.
 3910 5f5f494e 545f4c45 41535436 345f5749  __INT_LEAST64_WI
 3920 4454485f 5f203634 00494e54 4d41585f  DTH__ 64.INTMAX_
 3930 43287829 205f5f49 4e544d41 585f4328  C(x) __INTMAX_C(
 3940 78290077 72697465 5265675f 75333228  x).writeReg_u32(
 3950 6e616d65 2c6f6666 73657429 20737461  name,offset) sta
 3960 74696320 696e6c69 6e652076 6f696420  tic inline void 
 3970 6e616d65 28753332 20726567 2c207533  name(u32 reg, u3
 3980 32207661 6c756529 7b207772 6974655f  2 value){ write_
 3990 75333228 76616c75 652c2072 6567202b  u32(value, reg +
 39a0 206f6666 73657429 3b207d00 5f5f494e   offset); }.__IN
 39b0 54385f4d 41585f5f 20307837 66005553  T8_MAX__ 0x7f.US
 39c0 45525f53 4f465457 4152455f 464c4153  ER_SOFTWARE_FLAS
 39d0 485f4441 54412030 78303031 30303030  H_DATA 0x0010000
 39e0 30202b20 28205553 45525f53 4f465457  0 + ( USER_SOFTW
 39f0 4152455f 4d454d4f 52595f44 41544120  ARE_MEMORY_DATA 
 3a00 2d205553 45525f53 4f465457 4152455f  - USER_SOFTWARE_
 3a10 4d454d4f 52595f49 4e535420 29005f5f  MEMORY_INST ).__
 3a20 4743435f 48415645 5f445741 5246325f  GCC_HAVE_DWARF2_
 3a30 4346495f 41534d20 31005f5f 5f696e74  CFI_ASM 1.___int
 3a40 385f745f 64656669 6e656420 31005f70  8_t_defined 1._p
 3a50 3573005f 5f474343 5f494543 5f353539  5s.__GCC_IEC_559
 3a60 5f434f4d 504c4558 2030005f 5359535f  _COMPLEX 0._SYS_
 3a70 5f545950 45535f48 20005f5f 474e5543  _TYPES_H .__GNUC
 3a80 5f5f2038 005f5f55 494e5431 365f5459  __ 8.__UINT16_TY
 3a90 50455f5f 2073686f 72742075 6e736967  PE__ short unsig
 3aa0 6e656420 696e7400 5f504f53 49585f53  ned int._POSIX_S
 3ab0 4f555243 45005241 4e445f4d 4158205f  OURCE.RAND_MAX _
 3ac0 5f52414e 445f4d41 58005f5f 4c44424c  _RAND_MAX.__LDBL
 3ad0 5f444543 494d414c 5f444947 5f5f2033  _DECIMAL_DIG__ 3
 3ae0 36005f5f 464c5436 34585f4d 494e5f31  6.__FLT64X_MIN_1
 3af0 305f4558 505f5f20 282d3439 33312900  0_EXP__ (-4931).
 3b00 5f5f5549 4e543332 5f4d4158 5f5f2030  __UINT32_MAX__ 0
 3b10 78666666 66666666 66554c00 5f5f7364  xffffffffUL.__sd
 3b20 6964696e 6974005f 5f444543 33325f4d  idinit.__DEC32_M
 3b30 41585f45 58505f5f 20393700 5f545f53  AX_EXP__ 97._T_S
 3b40 495a455f 20005f5f 464c545f 4556414c  IZE_ .__FLT_EVAL
 3b50 5f4d4554 484f445f 54535f31 38363631  _METHOD_TS_18661
 3b60 5f335f5f 20300061 64647265 73730069  _3__ 0.address.i
 3b70 6e74202b 3200636f 6e666967 4d54494d  nt +2.configMTIM
 3b80 455f4241 53455f41 44445245 53532028  E_BASE_ADDRESS (
 3b90 4253505f 434c494e 54202b20 30784246  BSP_CLINT + 0xBF
 3ba0 46382900 494e5438 5f432878 29205f5f  F8).INT8_C(x) __
 3bb0 494e5438 5f432878 29005f5f 6c6f636b  INT8_C(x).__lock
 3bc0 5f616371 75697265 5f726563 75727369  _acquire_recursi
 3bd0 7665286c 6f636b29 20282876 6f696429  ve(lock) ((void)
 3be0 20302900 5f5f7265 73747269 63742072   0).__restrict r
 3bf0 65737472 69637400 5f5f5549 4e545f46  estrict.__UINT_F
 3c00 41535438 5f545950 455f5f20 756e7369  AST8_TYPE__ unsi
 3c10 676e6564 20696e74 00504d50 5f4e4150  gned int.PMP_NAP
 3c20 4f542030 78313800 53595354 454d5f43  OT 0x18.SYSTEM_C
 3c30 4f524553 5f305f4d 4d552030 005f4c49  ORES_0_MMU 0._LI
 3c40 425f5645 5253494f 4e205f5f 66646c69  B_VERSION __fdli
 3c50 625f7665 7273696f 6e005f5f 72657175  b_version.__requ
 3c60 69726573 5f756e6c 6f636b65 64282e2e  ires_unlocked(..
 3c70 2e29205f 5f6c6f63 6b5f616e 6e6f7461  .) __lock_annota
 3c80 7465286c 6f636b73 5f657863 6c756465  te(locks_exclude
 3c90 64285f5f 56415f41 5247535f 5f292900  d(__VA_ARGS__)).
 3ca0 454e4142 4c455f53 454d4948 4f535449  ENABLE_SEMIHOSTI
 3cb0 4e475f50 52494e54 2030005f 5f494e54  NG_PRINT 0.__INT
 3cc0 33325f4d 41585f5f 20307837 66666666  32_MAX__ 0x7ffff
 3cd0 6666664c 005f5f6d 696e5f73 697a6528  fffL.__min_size(
 3ce0 78292073 74617469 63202878 29005f54  x) static (x)._T
 3cf0 494d4552 5f545f20 756e7369 676e6564  IMER_T_ unsigned
 3d00 206c6f6e 67005f4c 4f434b5f 52454355   long._LOCK_RECU
 3d10 52534956 455f5400 5f5f4245 47494e5f  RSIVE_T.__BEGIN_
 3d20 4445434c 5320005f 5f494e54 5f4c4541  DECLS .__INT_LEA
 3d30 53543634 5f4d4158 5f5f2030 78376666  ST64_MAX__ 0x7ff
 3d40 66666666 66666666 66666666 664c4c00  fffffffffffffLL.
 3d50 5f5f6e75 6c6c5f73 656e7469 6e656c20  __null_sentinel 
 3d60 5f5f6174 74726962 7574655f 5f28285f  __attribute__((_
 3d70 5f73656e 74696e65 6c5f5f29 29005f5f  _sentinel__)).__
 3d80 6e656564 5f4e554c 4c200042 49545f39  need_NULL .BIT_9
 3d90 20283120 3c3c2039 29005f44 45464155   (1 << 9)._DEFAU
 3da0 4c545f53 4f555243 45203100 5350495f  LT_SOURCE 1.SPI_
 3db0 4d4f4445 5f43504f 4c202831 203c3c20  MODE_CPOL (1 << 
 3dc0 3029005f 5f464c54 33325f4d 414e545f  0).__FLT32_MANT_
 3dd0 4449475f 5f203234 006f6666 7365746f  DIG__ 24.offseto
 3de0 66285459 50452c4d 454d4245 5229205f  f(TYPE,MEMBER) _
 3df0 5f627569 6c74696e 5f6f6666 7365746f  _builtin_offseto
 3e00 66202854 5950452c 204d454d 42455229  f (TYPE, MEMBER)
 3e10 005f5f55 494e5436 345f4328 63292063  .__UINT64_C(c) c
 3e20 20232320 554c4c00 5f5f5549 4e545f4c   ## ULL.__UINT_L
 3e30 45415354 36345f54 5950455f 5f206c6f  EAST64_TYPE__ lo
 3e40 6e67206c 6f6e6720 756e7369 676e6564  ng long unsigned
 3e50 20696e74 004d4154 485f4552 524e4f20   int.MATH_ERRNO 
 3e60 31005359 5354454d 5f554152 545f305f  1.SYSTEM_UART_0_
 3e70 494f5f50 4152414d 45544552 5f54585f  IO_PARAMETER_TX_
 3e80 4649464f 5f444550 54482031 3238005f  FIFO_DEPTH 128._
 3e90 5f464c54 3634585f 4d414e54 5f444947  _FLT64X_MANT_DIG
 3ea0 5f5f2031 3133005f 57434841 525f545f  __ 113._WCHAR_T_
 3eb0 44454649 4e454420 005f5f47 43435f41  DEFINED .__GCC_A
 3ec0 544f4d49 435f4348 41523136 5f545f4c  TOMIC_CHAR16_T_L
 3ed0 4f434b5f 46524545 20310063 73725f77  OCK_FREE 1.csr_w
 3ee0 72697465 28637372 2c76616c 2920287b  rite(csr,val) ({
 3ef0 20756e73 69676e65 64206c6f 6e67205f   unsigned long _
 3f00 5f76203d 2028756e 7369676e 6564206c  _v = (unsigned l
 3f10 6f6e6729 2876616c 293b205f 5f61736d  ong)(val); __asm
 3f20 5f5f205f 5f766f6c 6174696c 655f5f20  __ __volatile__ 
 3f30 28226373 72772022 20236373 7220222c  ("csrw " #csr ",
 3f40 20253022 203a203a 2022724b 2220285f   %0" : : "rK" (_
 3f50 5f762929 3b207d29 005f5f4e 554c4c41  _v)); }).__NULLA
 3f60 42494c49 54595f50 5241474d 415f5055  BILITY_PRAGMA_PU
 3f70 53482000 5f736967 6e616c5f 62756600  SH ._signal_buf.
 3f80 5350495f 53535f53 45545550 20307832  SPI_SS_SETUP 0x2
 3f90 34005f5f 44424c5f 4d41585f 4558505f  4.__DBL_MAX_EXP_
 3fa0 5f203130 3234005f 5f464153 54363420  _ 1024.__FAST64 
 3fb0 226c6c22 005f5f41 544f4d49 435f5245  "ll".__ATOMIC_RE
 3fc0 4c454153 45203300 756e7369 676e6564  LEASE 3.unsigned
 3fd0 202b3000 666c6173 68416464 72657373   +0.flashAddress
 3fe0 005f5f46 4c545f4d 414e545f 4449475f  .__FLT_MANT_DIG_
 3ff0 5f203234 005f5241 4e443438 5f534545  _ 24._RAND48_SEE
 4000 445f3120 28307861 62636429 005f5f49  D_1 (0xabcd).__I
 4010 4e545f46 41535433 325f5459 50455f5f  NT_FAST32_TYPE__
 4020 20696e74 005f5354 44415247 5f482000   int._STDARG_H .
 4030 5f5f5f69 6e745f70 74726469 66665f74  ___int_ptrdiff_t
 4040 5f682000 5f5f4f50 54494d49 5a455f5f  _h .__OPTIMIZE__
 4050 2031004d 4544454c 45475f4c 4f41445f   1.MEDELEG_LOAD_
 4060 50414745 5f464155 4c542028 31203c3c  PAGE_FAULT (1 <<
 4070 20313329 005f494e 5433325f 545f4445   13)._INT32_T_DE
 4080 434c4152 45442000 5f5f5353 505f464f  CLARED .__SSP_FO
 4090 52544946 595f4c45 56454c20 30005f42  RTIFY_LEVEL 0._B
 40a0 6967696e 74005f5f 464c5436 345f4d49  igint.__FLT64_MI
 40b0 4e5f5f20 322e3232 35303733 38353835  N__ 2.2250738585
 40c0 30373230 31333833 30393032 33323731  0720138309023271
 40d0 37333332 34303430 36652d33 30384636  733240406e-308F6
 40e0 34005f5f 696e7432 30202b32 005f5f49  4.__int20 +2.__I
 40f0 4e543634 5f4d4158 5f5f2030 78376666  NT64_MAX__ 0x7ff
 4100 66666666 66666666 66666666 664c4c00  fffffffffffffLL.
 4110 454e4142 4c455f42 53505f50 52494e54  ENABLE_BSP_PRINT
 4120 46203100 5f5f494e 54505452 5f545950  F 1.__INTPTR_TYP
 4130 455f5f20 696e7400 5f5f464c 54333258  E__ int.__FLT32X
 4140 5f4d494e 5f31305f 4558505f 5f20282d  _MIN_10_EXP__ (-
 4150 33303729 00737069 5f73656c 65637400  307).spi_select.
 4160 5f524545 4e545f43 4845434b 5f534947  _REENT_CHECK_SIG
 4170 4e414c5f 42554628 70747229 20004249  NAL_BUF(ptr) .BI
 4180 545f3220 2831203c 3c203229 005f5f63  T_2 (1 << 2).__c
 4190 6c65616e 7570004d 53544154 55535f4d  leanup.MSTATUS_M
 41a0 50494520 30783030 30303030 3830005f  PIE 0x00000080._
 41b0 61746578 69743000 5f524545 4e545f53  atexit0._REENT_S
 41c0 4d414c4c 5f434845 434b5f49 4e495428  MALL_CHECK_INIT(
 41d0 70747229 20004750 494f5f4f 55545055  ptr) .GPIO_OUTPU
 41e0 54203078 3034004d 53544154 55535f55  T 0x04.MSTATUS_U
 41f0 49452030 78303030 30303030 31005f5f  IE 0x00000001.__
 4200 6e656564 5f707472 64696666 5f740061  need_ptrdiff_t.a
 4210 6c6c6f63 61287369 7a652920 5f5f6275  lloca(size) __bu
 4220 696c7469 6e5f616c 6c6f6361 2873697a  iltin_alloca(siz
 4230 6529005f 5f4c4f4e 475f5749 4454485f  e).__LONG_WIDTH_
 4240 5f203332 00736967 6e626974 285f5f78  _ 32.signbit(__x
 4250 29202828 73697a65 6f66285f 5f782920  ) ((sizeof(__x) 
 4260 3d3d2073 697a656f 6628666c 6f617429  == sizeof(float)
 4270 29203f20 5f5f6275 696c7469 6e5f7369  ) ? __builtin_si
 4280 676e6269 7466285f 5f782920 3a202873  gnbitf(__x) : (s
 4290 697a656f 66285f5f 7829203d 3d207369  izeof(__x) == si
 42a0 7a656f66 28646f75 626c6529 29203f20  zeof(double)) ? 
 42b0 5f5f6275 696c7469 6e5f7369 676e6269  __builtin_signbi
 42c0 7420285f 5f782920 3a205f5f 6275696c  t (__x) : __buil
 42d0 74696e5f 7369676e 6269746c 285f5f78  tin_signbitl(__x
 42e0 2929005f 545f5743 4841525f 2000636f  ))._T_WCHAR_ .co
 42f0 6e666967 4350555f 434c4f43 4b5f485a  nfigCPU_CLOCK_HZ
 4300 20282028 2075696e 7433325f 74202920   ( ( uint32_t ) 
 4310 28204253 505f434c 494e545f 485a2029  ( BSP_CLINT_HZ )
 4320 2029005f 5f776172 6e5f7265 66657265   ).__warn_refere
 4330 6e636573 2873796d 2c6d7367 29205f5f  nces(sym,msg) __
 4340 61736d5f 5f28222e 73656374 696f6e20  asm__(".section 
 4350 2e676e75 2e776172 6e696e67 2e222023  .gnu.warning." #
 4360 73796d29 3b205f5f 61736d5f 5f28222e  sym); __asm__(".
 4370 61736369 7a205c22 22206d73 6720225c  asciz \"" msg "\
 4380 2222293b 205f5f61 736d5f5f 28222e70  ""); __asm__(".p
 4390 72657669 6f757322 29005353 54415455  revious").SSTATU
 43a0 535f5355 4d203078 30303034 30303030  S_SUM 0x00040000
 43b0 005f5f61 74747269 62757465 5f6d616c  .__attribute_mal
 43c0 6c6f635f 5f200057 43484152 5f4d4158  loc__ .WCHAR_MAX
 43d0 20285f5f 57434841 525f4d41 585f5f29   (__WCHAR_MAX__)
 43e0 005f5f73 69676e67 616d5f72 28707472  .__signgam_r(ptr
 43f0 29205f52 45454e54 5f534947 4e47414d  ) _REENT_SIGNGAM
 4400 28707472 29005f5f 4743435f 41544f4d  (ptr).__GCC_ATOM
 4410 49435f4c 4f4e475f 4c4f434b 5f465245  IC_LONG_LOCK_FRE
 4420 45203100 6973696e 66285f5f 78292028  E 1.isinf(__x) (
 4430 5f5f6275 696c7469 6e5f6973 696e665f  __builtin_isinf_
 4440 7369676e 20285f5f 78292900 5f5f7569  sign (__x)).__ui
 4450 6e743332 5f74005f 656d6572 67656e63  nt32_t._emergenc
 4460 79005f4c 49425f56 45525349 4f4e5f54  y._LIB_VERSION_T
 4470 59504520 656e756d 205f5f66 646c6962  YPE enum __fdlib
 4480 6d5f7665 7273696f 6e006373 725f7365  m_version.csr_se
 4490 74286373 722c7661 6c292028 7b20756e  t(csr,val) ({ un
 44a0 7369676e 6564206c 6f6e6720 5f5f7620  signed long __v 
 44b0 3d202875 6e736967 6e656420 6c6f6e67  = (unsigned long
 44c0 29287661 6c293b20 5f5f6173 6d5f5f20  )(val); __asm__ 
 44d0 5f5f766f 6c617469 6c655f5f 20282263  __volatile__ ("c
 44e0 73727320 22202363 73722022 2c202530  srs " #csr ", %0
 44f0 22203a20 3a202272 4b222028 5f5f7629  " : : "rK" (__v)
 4500 293b207d 29005f5f 464c545f 52414449  ); }).__FLT_RADI
 4510 585f5f20 32005f5f 464c5433 325f4841  X__ 2.__FLT32_HA
 4520 535f494e 46494e49 54595f5f 2031005f  S_INFINITY__ 1._
 4530 57414e54 5f494f5f 4c4f4e47 5f444f55  WANT_IO_LONG_DOU
 4540 424c4520 31004249 545f3239 20283120  BLE 1.BIT_29 (1 
 4550 3c3c2032 39290055 494e5433 325f4d41  << 29).UINT32_MA
 4560 5820285f 5f55494e 5433325f 4d41585f  X (__UINT32_MAX_
 4570 5f29005f 5f776368 61725f74 5f5f2000  _).__wchar_t__ .
 4580 5f5f4c44 424c5f48 41535f51 55494554  __LDBL_HAS_QUIET
 4590 5f4e414e 5f5f2031 005f5f6e 6565645f  _NAN__ 1.__need_
 45a0 4e554c4c 00737069 466c6173 685f696e  NULL.spiFlash_in
 45b0 6974005f 5f4c4f4e 475f4c4f 4e475f57  it.__LONG_LONG_W
 45c0 49445448 5f5f2036 34005f6e 696f6273  IDTH__ 64._niobs
 45d0 0057494e 545f4d41 5820285f 5f57494e  .WINT_MAX (__WIN
 45e0 545f4d41 585f5f29 005f5f6e 6565645f  T_MAX__).__need_
 45f0 77636861 725f7420 0055494e 545f4641  wchar_t .UINT_FA
 4600 53543634 5f4d4158 20285f5f 55494e54  ST64_MAX (__UINT
 4610 5f464153 5436345f 4d41585f 5f290053  _FAST64_MAX__).S
 4620 53544154 55535f46 53203078 30303030  STATUS_FS 0x0000
 4630 36303030 005f5f6c 6f63616c 655f7400  6000.__locale_t.
 4640 5f524545 4e545f43 4845434b 5f415343  _REENT_CHECK_ASC
 4650 54494d45 5f425546 28707472 2920005f  TIME_BUF(ptr) ._
 4660 5f726973 63765f63 6d6f6465 6c5f6d65  _riscv_cmodel_me
 4670 646c6f77 2031005f 5f494e54 5054525f  dlow 1.__INTPTR_
 4680 57494454 485f5f20 3332005f 5f474343  WIDTH__ 32.__GCC
 4690 5f41544f 4d49435f 4c4c4f4e 475f4c4f  _ATOMIC_LLONG_LO
 46a0 434b5f46 52454520 31007373 44697361  CK_FREE 1.ssDisa
 46b0 626c6500 5f6e6d61 6c6c6f63 005f5f46  ble._nmalloc.__F
 46c0 4c543634 5f4d4158 5f455850 5f5f2031  LT64_MAX_EXP__ 1
 46d0 30323400 5f5f5743 4841525f 5420005f  024.__WCHAR_T ._
 46e0 5f535953 5f434f4e 4649475f 485f5f20  _SYS_CONFIG_H__ 
 46f0 005f5f70 74727661 6c756520 005f5f47  .__ptrvalue .__G
 4700 4e55435f 56415f4c 4953545f 434f4d50  NUC_VA_LIST_COMP
 4710 41544942 494c4954 59203100 5f5f5f69  ATIBILITY 1.___i
 4720 6e743332 5f745f64 6566696e 65642031  nt32_t_defined 1
 4730 005f6761 6d6d615f 7369676e 67616d00  ._gamma_signgam.
 4740 5f5f4c44 424c5f4d 41585f5f 20312e31  __LDBL_MAX__ 1.1
 4750 38393733 31343935 33353732 33313736  8973149535723176
 4760 35303835 37353933 32363632 38303037  5085759326628007
 4770 3032652b 34393332 4c00504d 505f5348  02e+4932L.PMP_SH
 4780 49465420 32005f5f 57494e54 5f574944  IFT 2.__WINT_WID
 4790 54485f5f 20333200 5f5f494e 5436345f  TH__ 32.__INT64_
 47a0 54595045 5f5f206c 6f6e6720 6c6f6e67  TYPE__ long long
 47b0 20696e74 005f5f74 72796c6f 636b735f   int.__trylocks_
 47c0 6578636c 75736976 65282e2e 2e29205f  exclusive(...) _
 47d0 5f6c6f63 6b5f616e 6e6f7461 74652865  _lock_annotate(e
 47e0 78636c75 73697665 5f747279 6c6f636b  xclusive_trylock
 47f0 5f66756e 6374696f 6e285f5f 56415f41  _function(__VA_A
 4800 5247535f 5f292900 55494e54 31365f4d  RGS__)).UINT16_M
 4810 41582028 5f5f5549 4e543136 5f4d4158  AX (__UINT16_MAX
 4820 5f5f2900 5f5f5349 5a454f46 5f574348  __).__SIZEOF_WCH
 4830 41525f54 5f5f2034 005f5241 4e443438  AR_T__ 4._RAND48
 4840 5f534545 445f3020 28307833 33306529  _SEED_0 (0x330e)
 4850 005f5f42 53445f56 49534942 4c452031  .__BSD_VISIBLE 1
 4860 00494e54 5f4c4541 53543136 5f4d494e  .INT_LEAST16_MIN
 4870 20282d5f 5f494e54 5f4c4541 53543136   (-__INT_LEAST16
 4880 5f4d4158 5f5f202d 20312900 5f5f756e  _MAX__ - 1).__un
 4890 75736564 205f5f61 74747269 62757465  used __attribute
 48a0 5f5f2828 5f5f756e 75736564 5f5f2929  __((__unused__))
 48b0 005f5f6e 6f6e6e75 6c6c5f61 6c6c205f  .__nonnull_all _
 48c0 5f617474 72696275 74655f5f 28285f5f  _attribute__((__
 48d0 6e6f6e6e 756c6c5f 5f292900 5f524545  nonnull__))._REE
 48e0 4e545f4d 42535254 4f574353 5f535441  NT_MBSRTOWCS_STA
 48f0 54452870 74722920 28287074 72292d3e  TE(ptr) ((ptr)->
 4900 5f6e6577 2e5f7265 656e742e 5f6d6273  _new._reent._mbs
 4910 72746f77 63735f73 74617465 29005f5f  rtowcs_state).__
 4920 756e6c6f 636b7328 2e2e2e29 205f5f6c  unlocks(...) __l
 4930 6f636b5f 616e6e6f 74617465 28756e6c  ock_annotate(unl
 4940 6f636b5f 66756e63 74696f6e 285f5f56  ock_function(__V
 4950 415f4152 47535f5f 29290045 4e41424c  A_ARGS__)).ENABL
 4960 455f4253 505f5052 494e5420 31005f66  E_BSP_PRINT 1._f
 4970 7265656c 69737400 5f5f6c6f 636b5f74  reelist.__lock_t
 4980 72795f61 63717569 7265286c 6f636b29  ry_acquire(lock)
 4990 20282876 6f696429 20302900 5f524545   ((void) 0)._REE
 49a0 4e545f4d 42524c45 4e5f5354 41544528  NT_MBRLEN_STATE(
 49b0 70747229 20282870 7472292d 3e5f6e65  ptr) ((ptr)->_ne
 49c0 772e5f72 65656e74 2e5f6d62 726c656e  w._reent._mbrlen
 49d0 5f737461 74652900 5f5f5f69 6e745f6c  _state).___int_l
 49e0 65617374 36345f74 5f646566 696e6564  east64_t_defined
 49f0 20310069 736c6573 73677265 61746572   1.islessgreater
 4a00 285f5f78 2c5f5f79 2920285f 5f627569  (__x,__y) (__bui
 4a10 6c74696e 5f69736c 65737367 72656174  ltin_islessgreat
 4a20 65722028 5f5f782c 205f5f79 2929005f  er (__x, __y))._
 4a30 5f544852 4f572000 5f676c75 65005f73  _THROW ._glue._s
 4a40 69676e00 5f5f494e 545f4c45 41535433  ign.__INT_LEAST3
 4a50 325f4d41 585f5f20 30783766 66666666  2_MAX__ 0x7fffff
 4a60 66664c00 53595354 454d5f53 50495f31  ffL.SYSTEM_SPI_1
 4a70 5f494f5f 4354524c 5f53495a 45203078  _IO_CTRL_SIZE 0x
 4a80 31303030 005f5245 454e545f 4c363441  1000._REENT_L64A
 4a90 5f425546 28707472 29202828 70747229  _BUF(ptr) ((ptr)
 4aa0 2d3e5f6e 65772e5f 7265656e 742e5f6c  ->_new._reent._l
 4ab0 3634615f 62756629 005f4154 46494c45  64a_buf)._ATFILE
 4ac0 5f534f55 52434520 31005f5f 53544449  _SOURCE 1.__STDI
 4ad0 4e545f45 58502878 29205f5f 20232378  NT_EXP(x) __ ##x
 4ae0 2023235f 5f005f5f 45585028 7829205f   ##__.__EXP(x) _
 4af0 5f202323 78202323 5f5f004d 425f4355  _ ##x ##__.MB_CU
 4b00 525f4d41 58205f5f 6c6f6361 6c655f6d  R_MAX __locale_m
 4b10 625f6375 725f6d61 78282900 5f5f4259  b_cur_max().__BY
 4b20 54455f4f 52444552 5f5f205f 5f4f5244  TE_ORDER__ __ORD
 4b30 45525f4c 4954544c 455f454e 4449414e  ER_LITTLE_ENDIAN
 4b40 5f5f005f 5f574348 41525f54 5950455f  __.__WCHAR_TYPE_
 4b50 5f20696e 74005f41 4e534944 45434c5f  _ int._ANSIDECL_
 4b60 485f2000 5f414e53 495f5354 44444546  H_ ._ANSI_STDDEF
 4b70 5f482000 5f57414e 545f494f 5f433939  _H ._WANT_IO_C99
 4b80 5f464f52 4d415453 2031004d 5f504920  _FORMATS 1.M_PI 
 4b90 332e3134 31353932 36353335 38393739  3.14159265358979
 4ba0 33323338 3436005f 5f57494e 545f5459  323846.__WINT_TY
 4bb0 50455f5f 20756e73 69676e65 6420696e  PE__ unsigned in
 4bc0 74005f5f 696e745f 66617374 31365f74  t.__int_fast16_t
 4bd0 5f646566 696e6564 2031004d 5f50495f  _defined 1.M_PI_
 4be0 3420302e 37383533 39383136 33333937  4 0.785398163397
 4bf0 34343833 30393632 005f4253 445f5054  44830962._BSD_PT
 4c00 52444946 465f545f 20006d61 6368696e  RDIFF_T_ .machin
 4c10 6554696d 65725f67 65745469 6d652870  eTimer_getTime(p
 4c20 2920636c 696e745f 67657454 696d6528  ) clint_getTime(
 4c30 70293b00 454e4142 4c455f42 53505f50  p);.ENABLE_BSP_P
 4c40 52494e54 465f4655 4c4c2030 005f666c  RINTF_FULL 0._fl
 4c50 61677332 00494e54 36345f4d 41582028  ags2.INT64_MAX (
 4c60 5f5f494e 5436345f 4d41585f 5f290053  __INT64_MAX__).S
 4c70 53544154 55535f53 50494520 30783030  STATUS_SPIE 0x00
 4c80 30303030 3230005f 5f4e4557 4c49425f  000020.__NEWLIB_
 4c90 4d494e4f 525f5f20 31005f52 45454e54  MINOR__ 1._REENT
 4ca0 5f4d4254 4f57435f 53544154 45287074  _MBTOWC_STATE(pt
 4cb0 72292028 28707472 292d3e5f 6e65772e  r) ((ptr)->_new.
 4cc0 5f726565 6e742e5f 6d62746f 77635f73  _reent._mbtowc_s
 4cd0 74617465 29005f5f 464c545f 4d494e5f  tate).__FLT_MIN_
 4ce0 4558505f 5f20282d 31323529 005f5f46  EXP__ (-125).__F
 4cf0 4c543634 5f484153 5f515549 45545f4e  LT64_HAS_QUIET_N
 4d00 414e5f5f 20310053 59535445 4d5f424d  AN__ 1.SYSTEM_BM
 4d10 425f5045 52495048 4552414c 5f424d42  B_PERIPHERAL_BMB
 4d20 20307866 38303030 30303000 6f70636f   0xf8000000.opco
 4d30 64655f52 286f7063 6f64652c 66756e63  de_R(opcode,func
 4d40 332c6675 6e63372c 7273312c 72733229  3,func7,rs1,rs2)
 4d50 20287b20 72656769 73746572 20756e73   ({ register uns
 4d60 69676e65 64206c6f 6e67205f 5f763b20  igned long __v; 
 4d70 61736d20 766f6c61 74696c65 2820222e  asm volatile( ".
 4d80 776f7264 20282822 20236f70 636f6465  word ((" #opcode
 4d90 20222920 7c202872 65676e75 6d5f2530   ") | (regnum_%0
 4da0 203c3c20 3729207c 20287265 676e756d   << 7) | (regnum
 4db0 5f253120 3c3c2031 3529207c 20287265  _%1 << 15) | (re
 4dc0 676e756d 5f253220 3c3c2032 3029207c  gnum_%2 << 20) |
 4dd0 20282822 20236675 6e633320 2229203c   ((" #func3 ") <
 4de0 3c203132 29207c20 28282220 2366756e  < 12) | ((" #fun
 4df0 63372022 29203c3c 20323529 293b2220  c7 ") << 25));" 
 4e00 3a205b72 645d2022 3d722220 285f5f76  : [rd] "=r" (__v
 4e10 29203a20 22722220 28727331 292c2022  ) : "r" (rs1), "
 4e20 72222028 72733229 20293b20 5f5f763b  r" (rs2) ); __v;
 4e30 207d2900 5f4d5f4c 4e322030 2e363933   })._M_LN2 0.693
 4e40 31343731 38303535 39393435 33303934  1471805599453094
 4e50 31370055 494e545f 46415354 385f4d41  17.UINT_FAST8_MA
 4e60 5820285f 5f55494e 545f4641 5354385f  X (__UINT_FAST8_
 4e70 4d41585f 5f29005f 5f415454 52494255  MAX__).__ATTRIBU
 4e80 54455f49 4d505552 455f5054 525f5f20  TE_IMPURE_PTR__ 
 4e90 00494e54 5f464153 54385f4d 494e2028  .INT_FAST8_MIN (
 4ea0 2d5f5f49 4e545f46 41535438 5f4d4158  -__INT_FAST8_MAX
 4eb0 5f5f202d 20312900 5f5f464c 54333258  __ - 1).__FLT32X
 4ec0 5f4d4158 5f5f2031 2e373937 36393331  _MAX__ 1.7976931
 4ed0 33343836 32333135 37303831 34353237  3486231570814527
 4ee0 34323337 33313730 34333537 652b3330  423731704357e+30
 4ef0 38463332 78005f5f 464c5436 345f4841  8F32x.__FLT64_HA
 4f00 535f4445 4e4f524d 5f5f2031 005f5f46  S_DENORM__ 1.__F
 4f10 4c545f44 49475f5f 2036005f 685f6572  LT_DIG__ 6._h_er
 4f20 726e6f00 5f465657 52495445 5f494e5f  rno._FVWRITE_IN_
 4f30 53545245 414d494f 2031005f 57434841  STREAMIO 1._WCHA
 4f40 525f545f 4445434c 41524544 20005f5f  R_T_DECLARED .__
 4f50 43484152 5f424954 5f5f2038 005f5359  CHAR_BIT__ 8._SY
 4f60 535f5245 454e545f 485f2000 5f5f464c  S_REENT_H_ .__FL
 4f70 545f4556 414c5f4d 4554484f 445f5f20  T_EVAL_METHOD__ 
 4f80 30005f5f 464c545f 4d41585f 5f20332e  0.__FLT_MAX__ 3.
 4f90 34303238 32333436 36333835 32383835  4028234663852885
 4fa0 39383131 37303431 38333438 34353136  9811704183484516
 4fb0 39323565 2b333846 005f5f53 43484152  925e+38F.__SCHAR
 4fc0 5f4d4158 5f5f2030 78376600 5f5f494e  _MAX__ 0x7f.__IN
 4fd0 545f4641 5354385f 57494454 485f5f20  T_FAST8_WIDTH__ 
 4fe0 3332005f 5f494e54 31362022 6822005f  32.__INT16 "h"._
 4ff0 5f464c54 3132385f 45505349 4c4f4e5f  _FLT128_EPSILON_
 5000 5f20312e 39323539 32393934 34333837  _ 1.925929944387
 5010 32333538 35333035 35393737 39343235  2358530559779425
 5020 38343932 37333265 2d333446 31323800  8492732e-34F128.
 5030 55415254 5f444154 41203078 3030005f  UART_DATA 0x00._
 5040 5f494e54 5f4c4541 53543136 5f4d4158  _INT_LEAST16_MAX
 5050 5f5f2030 78376666 66005f54 5f505452  __ 0x7fff._T_PTR
 5060 44494646 20004d5f 54574f50 4920284d  DIFF .M_TWOPI (M
 5070 5f504920 2a20322e 3029005f 77637274  _PI * 2.0)._wcrt
 5080 6f6d625f 73746174 65005f5f 464c5431  omb_state.__FLT1
 5090 32385f4d 41585f31 305f4558 505f5f20  28_MAX_10_EXP__ 
 50a0 34393332 005f5f47 43435f49 45435f35  4932.__GCC_IEC_5
 50b0 35392030 005f5f74 6d5f6d64 61790061  59 0.__tm_mday.a
 50c0 6c6c6f63 61004249 545f3820 2831203c  lloca.BIT_8 (1 <
 50d0 3c203829 005f5f53 5444435f 5f203100  < 8).__STDC__ 1.
 50e0 5f6e6577 005f5f5f 696e745f 6c656173  _new.___int_leas
 50f0 74385f74 5f646566 696e6564 2031005f  t8_t_defined 1._
 5100 75627566 005f5f46 4c4f4154 5f574f52  ubuf.__FLOAT_WOR
 5110 445f4f52 4445525f 5f205f5f 4f524445  D_ORDER__ __ORDE
 5120 525f4c49 54544c45 5f454e44 49414e5f  R_LITTLE_ENDIAN_
 5130 5f004249 545f3330 20283120 3c3c2033  _.BIT_30 (1 << 3
 5140 3029005f 5f55494e 54385f54 5950455f  0).__UINT8_TYPE_
 5150 5f20756e 7369676e 65642063 68617200  _ unsigned char.
 5160 5f737464 65727200 5f5f696e 745f6661  _stderr.__int_fa
 5170 7374385f 745f6465 66696e65 64203100  st8_t_defined 1.
 5180 5f5f4558 504f5254 20005f77 63746f6d  __EXPORT ._wctom
 5190 625f7374 61746500 5f5f4f42 534f4c45  b_state.__OBSOLE
 51a0 54455f4d 4154485f 44454641 554c5420  TE_MATH_DEFAULT 
 51b0 31005f6d 62737461 7465005f 5f534343  1._mbstate.__SCC
 51c0 53494428 73292073 74727563 74205f5f  SID(s) struct __
 51d0 6861636b 006d5469 6d655065 72557365  hack.mTimePerUse
 51e0 63005359 5354454d 5f52414d 5f415f43  c.SYSTEM_RAM_A_C
 51f0 54524c5f 53495a45 20307831 30303030  TRL_SIZE 0x10000
 5200 005f5f47 4e55434c 494b455f 5f5f5459  .__GNUCLIKE___TY
 5210 50454f46 2031005f 5f534852 545f5749  PEOF 1.__SHRT_WI
 5220 4454485f 5f203136 005f7261 6e645f6e  DTH__ 16._rand_n
 5230 65787400 5f5f4445 43313238 5f4d414e  ext.__DEC128_MAN
 5240 545f4449 475f5f20 3334005f 666c6167  T_DIG__ 34._flag
 5250 73005f5f 494d504f 52542000 53535441  s.__IMPORT .SSTA
 5260 5455535f 55494520 30783030 30303030  TUS_UIE 0x000000
 5270 3031005f 50545244 4946465f 545f4445  01._PTRDIFF_T_DE
 5280 434c4152 45442000 5f5f766f 6c617469  CLARED .__volati
 5290 6c652076 6f6c6174 696c6500 4249545f  le volatile.BIT_
 52a0 33312028 31203c3c 20333129 005f5f46  31 (1 << 31).__F
 52b0 4c543332 585f4d49 4e5f4558 505f5f20  LT32X_MIN_EXP__ 
 52c0 282d3130 32312900 5f57414e 545f5245  (-1021)._WANT_RE
 52d0 47495354 45525f46 494e4920 31005f5f  GISTER_FINI 1.__
 52e0 4743435f 41544f4d 49435f43 4841525f  GCC_ATOMIC_CHAR_
 52f0 4c4f434b 5f465245 45203100 5f5f4154  LOCK_FREE 1.__AT
 5300 46494c45 5f564953 49424c45 2031005f  FILE_VISIBLE 1._
 5310 61746578 69740042 53505f4c 45445f47  atexit.BSP_LED_G
 5320 50494f20 53595354 454d5f47 50494f5f  PIO SYSTEM_GPIO_
 5330 305f494f 5f435452 4c005f5f 4e554c4c  0_IO_CTRL.__NULL
 5340 4142494c 4954595f 50524147 4d415f50  ABILITY_PRAGMA_P
 5350 4f502000 5f5f7072 65646963 745f6661  OP .__predict_fa
 5360 6c736528 65787029 205f5f62 75696c74  lse(exp) __built
 5370 696e5f65 78706563 74282865 7870292c  in_expect((exp),
 5380 20302900 53595354 454d5f55 4152545f   0).SYSTEM_UART_
 5390 305f494f 5f435452 4c203078 66383031  0_IO_CTRL 0xf801
 53a0 30303030 00524454 494d4548 20307843  0000.RDTIMEH 0xC
 53b0 38310043 41555345 5f4d4143 48494e45  81.CAUSE_MACHINE
 53c0 5f455854 45524e41 4c203131 004d5354  _EXTERNAL 11.MST
 53d0 41545553 5f545352 20307830 30343030  ATUS_TSR 0x00400
 53e0 30303000 5f5f5354 52494e47 28782920  000.__STRING(x) 
 53f0 23780053 59535445 4d5f5241 4d5f415f  #x.SYSTEM_RAM_A_
 5400 53495a45 20363535 33360055 5345525f  SIZE 65536.USER_
 5410 534f4654 57415245 5f53495a 455f4441  SOFTWARE_SIZE_DA
 5420 54412030 78373830 30005359 5354454d  TA 0x7800.SYSTEM
 5430 5f475049 4f5f305f 494f5f43 54524c5f  _GPIO_0_IO_CTRL_
 5440 53495a45 20307831 30300042 49545f31  SIZE 0x100.BIT_1
 5450 20283120 3c3c2031 29005f5f 464c5433   (1 << 1).__FLT3
 5460 325f4d49 4e5f3130 5f455850 5f5f2028  2_MIN_10_EXP__ (
 5470 2d333729 004d4950 5f535449 50202831  -37).MIP_STIP (1
 5480 203c3c20 3529005f 5f636f75 6e74005f   << 5).__count._
 5490 5f474e55 435f5641 5f4c4953 5420005f  _GNUC_VA_LIST ._
 54a0 5f49534f 5f435f56 49534942 4c452032  _ISO_C_VISIBLE 2
 54b0 30313100 494e5431 365f4d49 4e20282d  011.INT16_MIN (-
 54c0 5f5f494e 5431365f 4d41585f 5f202d20  __INT16_MAX__ - 
 54d0 3129005f 5f73697a 655f7400 4d5f4c4f  1).__size_t.M_LO
 54e0 47325f45 205f4d5f 4c4e3200 5f5f464c  G2_E _M_LN2.__FL
 54f0 545f4445 4e4f524d 5f4d494e 5f5f2031  T_DENORM_MIN__ 1
 5500 2e343031 32393834 36343332 34383137  .401298464324817
 5510 30373039 32333732 39353833 32383939  0709237295832899
 5520 31363133 652d3435 46005f5f 44454333  1613e-45F.__DEC3
 5530 325f4d41 4e545f44 49475f5f 20370075  2_MANT_DIG__ 7.u
 5540 73656300 5f4d4143 48494e45 5f5f4445  sec._MACHINE__DE
 5550 4641554c 545f5459 5045535f 4820004d  FAULT_TYPES_H .M
 5560 5f4c4e32 205f4d5f 4c4e3200 52495343  _LN2 _M_LN2.RISC
 5570 565f5345 4d49484f 5354494e 475f4341  V_SEMIHOSTING_CA
 5580 4c4c5f4e 554d4245 52203700 5f5f6861  LL_NUMBER 7.__ha
 5590 735f6665 61747572 65287829 2030005f  s_feature(x) 0._
 55a0 4743435f 50545244 4946465f 5420005f  GCC_PTRDIFF_T ._
 55b0 5f4c4442 4c5f4d41 4e545f44 49475f5f  _LDBL_MANT_DIG__
 55c0 20313133 005f5f4c 45415354 36342022   113.__LEAST64 "
 55d0 6c6c2200 5f5f4c4f 434b5f49 4e495428  ll".__LOCK_INIT(
 55e0 636c6173 732c6c6f 636b2920 73746174  class,lock) stat
 55f0 69632069 6e74206c 6f636b20 3d20303b  ic int lock = 0;
 5600 004d5f53 51525432 20312e34 31343231  .M_SQRT2 1.41421
 5610 33353632 33373330 39353034 38383000  356237309504880.
 5620 5f5f746d 5f776461 79007373 486f6c64  __tm_wday.ssHold
 5630 005f5241 4e443438 5f4d554c 545f3220  ._RAND48_MULT_2 
 5640 28307830 30303529 005f5f73 69676e65  (0x0005).__signe
 5650 64207369 676e6564 00736c61 76654964  d signed.slaveId
 5660 00627370 4d61696e 005f4841 56455f43  .bspMain._HAVE_C
 5670 435f494e 48494249 545f4c4f 4f505f54  C_INHIBIT_LOOP_T
 5680 4f5f4c49 4243414c 4c203100 5f5f4c4f  O_LIBCALL 1.__LO
 5690 4e475f4c 4f4e475f 4d41585f 5f203078  NG_LONG_MAX__ 0x
 56a0 37666666 66666666 66666666 66666666  7fffffffffffffff
 56b0 4c4c005f 46534545 4b5f4f50 54494d49  LL._FSEEK_OPTIMI
 56c0 5a415449 4f4e2031 004d5354 41545553  ZATION 1.MSTATUS
 56d0 33325f53 44203078 38303030 30303030  32_SD 0x80000000
 56e0 005f5f74 6d5f7964 61790049 4f5f4150  .__tm_yday.IO_AP
 56f0 425f534c 4156455f 305f494e 5055545f  B_SLAVE_0_INPUT_
 5700 53495a45 20307831 30303030 004d4544  SIZE 0x10000.MED
 5710 454c4547 5f494e53 54525543 54494f4e  ELEG_INSTRUCTION
 5720 5f504147 455f4641 554c5420 2831203c  _PAGE_FAULT (1 <
 5730 3c203132 29005359 5354454d 5f504c49  < 12).SYSTEM_PLI
 5740 435f5359 5354454d 5f493243 5f305f49  C_SYSTEM_I2C_0_I
 5750 4f5f494e 54455252 55505420 38004d5f  O_INTERRUPT 8.M_
 5760 4520322e 37313832 38313832 38343539  E 2.718281828459
 5770 30343532 33353400 5f5f464c 54363458  0452354.__FLT64X
 5780 5f484153 5f515549 45545f4e 414e5f5f  _HAS_QUIET_NAN__
 5790 2031005f 5f464c54 3132385f 4449475f   1.__FLT128_DIG_
 57a0 5f203333 005f5f49 4e54385f 43286329  _ 33.__INT8_C(c)
 57b0 2063005f 5f736361 6e666c69 6b652866   c.__scanflike(f
 57c0 6d746172 672c6669 72737476 61726172  mtarg,firstvarar
 57d0 6729205f 5f617474 72696275 74655f5f  g) __attribute__
 57e0 28285f5f 666f726d 61745f5f 20285f5f  ((__format__ (__
 57f0 7363616e 665f5f2c 20666d74 6172672c  scanf__, fmtarg,
 5800 20666972 73747661 72617267 29292900   firstvararg))).
 5810 5f5f464c 5433325f 4d41585f 5f20332e  __FLT32_MAX__ 3.
 5820 34303238 32333436 36333835 32383835  4028234663852885
 5830 39383131 37303431 38333438 34353136  9811704183484516
 5840 39323565 2b333846 33320047 50494f5f  925e+38F32.GPIO_
 5850 494e5055 54203078 30300053 70695f43  INPUT 0x00.Spi_C
 5860 6f6e6669 67005f45 4c494441 424c455f  onfig._ELIDABLE_
 5870 494e4c49 4e452073 74617469 63205f5f  INLINE static __
 5880 696e6c69 6e655f5f 005f5f46 4c543634  inline__.__FLT64
 5890 585f4445 4e4f524d 5f4d494e 5f5f2036  X_DENORM_MIN__ 6
 58a0 2e343735 31373531 31393433 38303235  .475175119438025
 58b0 31313039 32343433 38393538 32323736  1109244389582276
 58c0 34363535 652d3439 36364636 3478005f  4655e-4966F64x._
 58d0 5f44424c 5f4d494e 5f455850 5f5f2028  _DBL_MIN_EXP__ (
 58e0 2d313032 31290073 73536574 75700053  -1021).ssSetup.S
 58f0 59535445 4d5f504c 49435f53 59535445  YSTEM_PLIC_SYSTE
 5900 4d5f4932 435f315f 494f5f49 4e544552  M_I2C_1_IO_INTER
 5910 52555054 2039005f 73656564 005f5f70  RUPT 9._seed.__p
 5920 72696e74 66306c69 6b652866 6d746172  rintf0like(fmtar
 5930 672c6669 72737476 61726172 67292000  g,firstvararg) .
 5940 7370695f 64697365 6c656374 00424954  spi_diselect.BIT
 5950 5f313120 2831203c 3c203131 29005f5f  _11 (1 << 11).__
 5960 44424c5f 45505349 4c4f4e5f 5f202828  DBL_EPSILON__ ((
 5970 646f7562 6c652932 2e323230 34343630  double)2.2204460
 5980 34393235 30333133 30383038 34373236  4925031308084726
 5990 33333336 31383136 34303632 652d3136  333618164062e-16
 59a0 4c29005f 5f464c54 33325f44 49475f5f  L).__FLT32_DIG__
 59b0 2036005f 7365656b 005f5f53 5444435f   6._seek.__STDC_
 59c0 484f5354 45445f5f 2031005f 5f646561  HOSTED__ 1.__dea
 59d0 6432205f 5f617474 72696275 74655f5f  d2 __attribute__
 59e0 28285f5f 6e6f7265 7475726e 5f5f2929  ((__noreturn__))
 59f0 00474e55 20433137 20382e33 2e30202d  .GNU C17 8.3.0 -
 5a00 6d617263 683d7276 3332696d 202d6d61  march=rv32im -ma
 5a10 62693d69 6c703332 202d6733 202d4f67  bi=ilp32 -g3 -Og
 5a20 00535354 41545553 36345f53 44203078  .SSTATUS64_SD 0x
 5a30 38303030 30303030 30303030 30303030  8000000000000000
 5a40 0069736e 6f726d61 6c285f5f 78292028  .isnormal(__x) (
 5a50 5f5f6275 696c7469 6e5f6973 6e6f726d  __builtin_isnorm
 5a60 616c2028 5f5f7829 29005549 4e544d41  al (__x)).UINTMA
 5a70 585f4328 7829205f 5f55494e 544d4158  X_C(x) __UINTMAX
 5a80 5f432878 29005f5f 4d495343 5f564953  _C(x).__MISC_VIS
 5a90 49424c45 20310042 49545f32 35202831  IBLE 1.BIT_25 (1
 5aa0 203c3c20 32352900 5f5f4558 50005f66   << 25).__EXP._f
 5ab0 706f735f 74005f5f 4c44424c 5f484153  pos_t.__LDBL_HAS
 5ac0 5f44454e 4f524d5f 5f203100 7370695f  _DENORM__ 1.spi_
 5ad0 72656164 00737069 466c6173 685f6469  read.spiFlash_di
 5ae0 73656c65 6374005f 5f464c54 3332585f  select.__FLT32X_
 5af0 4d494e5f 5f20322e 32323530 37333835  MIN__ 2.22507385
 5b00 38353037 32303133 38333039 30323332  8507201383090232
 5b10 37313733 33323430 34303665 2d333038  71733240406e-308
 5b20 46333278 00535953 54454d5f 504c4943  F32x.SYSTEM_PLIC
 5b30 5f535953 54454d5f 55534552 5f54494d  _SYSTEM_USER_TIM
 5b40 45525f30 5f494e54 45525255 5054535f  ER_0_INTERRUPTS_
 5b50 30203139 005f5245 454e545f 43484543  0 19._REENT_CHEC
 5b60 4b5f4d49 53432870 74722920 005f4743  K_MISC(ptr) ._GC
 5b70 435f5743 4841525f 5420005f 5f494e54  C_WCHAR_T .__INT
 5b80 5f4c4541 53543332 5f545950 455f5f20  _LEAST32_TYPE__ 
 5b90 6c6f6e67 20696e74 005f6d62 746f7763  long int._mbtowc
 5ba0 5f737461 74650042 49545f32 36202831  _state.BIT_26 (1
 5bb0 203c3c20 32362900 5f5f5549 4e545f4c   << 26).__UINT_L
 5bc0 45415354 36345f4d 41585f5f 20307866  EAST64_MAX__ 0xf
 5bd0 66666666 66666666 66666666 66666655  fffffffffffffffU
 5be0 4c4c005f 5f464c54 3132385f 4841535f  LL.__FLT128_HAS_
 5bf0 494e4649 4e495459 5f5f2031 005f5f55  INFINITY__ 1.__U
 5c00 494e545f 46415354 36345f4d 41585f5f  INT_FAST64_MAX__
 5c10 20307866 66666666 66666666 66666666   0xfffffffffffff
 5c20 66666655 4c4c005f 5f41544f 4d49435f  fffULL.__ATOMIC_
 5c30 41435155 49524520 32005f5f 544d505f  ACQUIRE 2.__TMP_
 5c40 464c545f 4556414c 5f4d4554 484f4420  FLT_EVAL_METHOD 
 5c50 005f5f46 4c543634 5f44454e 4f524d5f  .__FLT64_DENORM_
 5c60 4d494e5f 5f20342e 39343036 35363435  MIN__ 4.94065645
 5c70 38343132 34363534 34313736 35363837  8412465441765687
 5c80 39323836 38323231 33373265 2d333234  92868221372e-324
 5c90 46363400 5f5f4e45 574c4942 5f504154  F64.__NEWLIB_PAT
 5ca0 43484c45 56454c5f 5f203000 5f5f464c  CHLEVEL__ 0.__FL
 5cb0 5436345f 4d41585f 5f20312e 37393736  T64_MAX__ 1.7976
 5cc0 39333133 34383632 33313537 30383134  9313486231570814
 5cd0 35323734 32333733 31373034 33353765  527423731704357e
 5ce0 2b333038 46363400 4249545f 31392028  +308F64.BIT_19 (
 5cf0 31203c3c 20313929 005f5f44 4f545320  1 << 19).__DOTS 
 5d00 2c202e2e 2e005f5f 44454336 345f4d41  , ....__DEC64_MA
 5d10 4e545f44 49475f5f 20313600 53595354  NT_DIG__ 16.SYST
 5d20 454d5f55 4152545f 305f494f 5f504152  EM_UART_0_IO_PAR
 5d30 414d4554 45525f55 4152545f 4354524c  AMETER_UART_CTRL
 5d40 5f434f4e 4649475f 504f5354 5f53414d  _CONFIG_POST_SAM
 5d50 504c494e 475f5349 5a452032 0055494e  PLING_SIZE 2.UIN
 5d60 545f4c45 41535436 345f4d41 5820285f  T_LEAST64_MAX (_
 5d70 5f55494e 545f4c45 41535436 345f4d41  _UINT_LEAST64_MA
 5d80 585f5f29 005f5f61 6c6c6f63 5f73697a  X__).__alloc_siz
 5d90 65287829 205f5f61 74747269 62757465  e(x) __attribute
 5da0 5f5f2828 5f5f616c 6c6f635f 73697a65  __((__alloc_size
 5db0 5f5f2878 29292900 5f5f474e 55434c49  __(x))).__GNUCLI
 5dc0 4b455f42 55494c54 494e5f43 4f4e5354  KE_BUILTIN_CONST
 5dd0 414e545f 50203100 5f5f5348 52545f4d  ANT_P 1.__SHRT_M
 5de0 41585f5f 20307837 66666600 5f524545  AX__ 0x7fff._REE
 5df0 4e545f57 43535254 4f4d4253 5f535441  NT_WCSRTOMBS_STA
 5e00 54452870 74722920 28287074 72292d3e  TE(ptr) ((ptr)->
 5e10 5f6e6577 2e5f7265 656e742e 5f776373  _new._reent._wcs
 5e20 72746f6d 62735f73 74617465 29005f5f  rtombs_state).__
 5e30 50545244 4946465f 54595045 5f5f2069  PTRDIFF_TYPE__ i
 5e40 6e74005f 5f57494e 545f4d41 585f5f20  nt.__WINT_MAX__ 
 5e50 30786666 66666666 66665500 55415254  0xffffffffU.UART
 5e60 5f434c4f 434b5f44 49564944 45522030  _CLOCK_DIVIDER 0
 5e70 78303800 5f5f474e 555f5649 5349424c  x08.__GNU_VISIBL
 5e80 45203000 53595354 454d5f52 49534356  E 0.SYSTEM_RISCV
 5e90 5f495341 5f455854 5f432030 005f5245  _ISA_EXT_C 0._RE
 5ea0 454e545f 5743544f 4d425f53 54415445  ENT_WCTOMB_STATE
 5eb0 28707472 29202828 70747229 2d3e5f6e  (ptr) ((ptr)->_n
 5ec0 65772e5f 7265656e 742e5f77 63746f6d  ew._reent._wctom
 5ed0 625f7374 61746529 005f6473 6f5f6861  b_state)._dso_ha
 5ee0 6e646c65 00737069 466c6173 685f696e  ndle.spiFlash_in
 5ef0 69745f00 5f5f494e 545f4641 53543136  it_.__INT_FAST16
 5f00 5f545950 455f5f20 696e7400 5f55494e  _TYPE__ int._UIN
 5f10 544d4158 5f545f44 45434c41 52454420  TMAX_T_DECLARED 
 5f20 005f504f 5349585f 435f534f 55524345  ._POSIX_C_SOURCE
 5f30 20323030 3830394c 005f7261 6e643438   200809L._rand48
 5f40 005f5f55 494e545f 4c454153 5431365f  .__UINT_LEAST16_
 5f50 54595045 5f5f2073 686f7274 20756e73  TYPE__ short uns
 5f60 69676e65 6420696e 74007370 69436667  igned int.spiCfg
 5f70 005f545f 53495a45 20005f5f 43484152  ._T_SIZE .__CHAR
 5f80 31365f54 5950455f 5f207368 6f727420  16_TYPE__ short 
 5f90 756e7369 676e6564 20696e74 00535953  unsigned int.SYS
 5fa0 54454d5f 52495343 565f4953 415f5256  TEM_RISCV_ISA_RV
 5fb0 33324920 31004d49 44454c45 475f5355  32I 1.MIDELEG_SU
 5fc0 50455256 49534f52 5f54494d 45522028  PERVISOR_TIMER (
 5fd0 31203c3c 20352900 5f5f464c 54333258  1 << 5).__FLT32X
 5fe0 5f444947 5f5f2031 3500494e 5436345f  _DIG__ 15.INT64_
 5ff0 43287829 205f5f49 4e543634 5f432878  C(x) __INT64_C(x
 6000 29005350 495f5354 41545553 5f434d44  ).SPI_STATUS_CMD
 6010 5f494e54 5f454e41 424c4520 3d202831  _INT_ENABLE = (1
 6020 203c3c20 3029005f 5245454e 545f4153   << 0)._REENT_AS
 6030 4354494d 455f4255 46287074 72292028  CTIME_BUF(ptr) (
 6040 28707472 292d3e5f 6e65772e 5f726565  (ptr)->_new._ree
 6050 6e742e5f 61736374 696d655f 62756629  nt._asctime_buf)
 6060 005f5f68 69646465 6e205f5f 61747472  .__hidden __attr
 6070 69627574 655f5f28 285f5f76 69736962  ibute__((__visib
 6080 696c6974 795f5f28 22686964 64656e22  ility__("hidden"
 6090 29292900 53595354 454d5f52 49534356  ))).SYSTEM_RISCV
 60a0 5f495341 5f455854 5f4d2031 005f5f46  _ISA_EXT_M 1.__F
 60b0 494e4954 455f4d41 54485f4f 4e4c595f  INITE_MATH_ONLY_
 60c0 5f203000 5f5f494e 545f4641 53543136  _ 0.__INT_FAST16
 60d0 5f4d4158 5f5f2030 78376666 66666666  _MAX__ 0x7ffffff
 60e0 66005f5f 68617665 5f6c6f6e 676c6f6e  f.__have_longlon
 60f0 67363420 3100454e 41424c45 5f505452  g64 1.ENABLE_PTR
 6100 44494646 5f535550 504f5254 20300053  DIFF_SUPPORT 0.S
 6110 59535445 4d5f5541 52545f30 5f494f5f  YSTEM_UART_0_IO_
 6120 50415241 4d455445 525f494e 49545f43  PARAMETER_INIT_C
 6130 4f4e4649 475f5041 52495459 204e4f4e  ONFIG_PARITY NON
 6140 45005359 5354454d 5f434c49 4e545f43  E.SYSTEM_CLINT_C
 6150 54524c20 30786638 62303030 3030005f  TRL 0xf8b00000._
 6160 626c6b73 697a6500 5f5f7269 7363765f  blksize.__riscv_
 6170 786c656e 20333200 5f524545 4e545f4d  xlen 32._REENT_M
 6180 505f5035 53287074 72292028 28707472  P_P5S(ptr) ((ptr
 6190 292d3e5f 70357329 005f5549 4e545054  )->_p5s)._UINTPT
 61a0 525f545f 4445434c 41524544 20004d5f  R_T_DECLARED .M_
 61b0 325f5351 52545049 20312e31 32383337  2_SQRTPI 1.12837
 61c0 39313637 30393535 31323537 33393000  916709551257390.
 61d0 5f5f464c 54313238 5f444543 494d414c  __FLT128_DECIMAL
 61e0 5f444947 5f5f2033 36005f62 61736500  _DIG__ 36._base.
 61f0 5f5f5549 4e545054 525f4d41 585f5f20  __UINTPTR_MAX__ 
 6200 30786666 66666666 66665500 64617461  0xffffffffU.data
 6210 5f636163 68655f69 6e76616c 69646174  _cache_invalidat
 6220 655f6164 64726573 73286164 64726573  e_address(addres
 6230 73292028 7b206173 6d20766f 6c617469  s) ({ asm volati
 6240 6c652820 222e776f 72642028 28307835  le( ".word ((0x5
 6250 30304629 207c2028 7265676e 756d5f25  00F) | (regnum_%
 6260 30203c3c 20313529 293b2220 3a203a20  0 << 15));" : : 
 6270 22722220 28616464 72657373 2920293b  "r" (address) );
 6280 207d2900 5f4d4154 485f485f 20005359   })._MATH_H_ .SY
 6290 5354454d 5f554152 545f305f 494f5f50  STEM_UART_0_IO_P
 62a0 4152414d 45544552 5f494e49 545f434f  ARAMETER_INIT_CO
 62b0 4e464947 5f424155 44524154 45203131  NFIG_BAUDRATE 11
 62c0 35323030 004d5f33 50495f34 20322e33  5200.M_3PI_4 2.3
 62d0 35363139 34343930 31393233 34343833  5619449019234483
 62e0 37304530 005f5f49 4545455f 4c495454  70E0.__IEEE_LITT
 62f0 4c455f45 4e444941 4e200053 59535445  LE_ENDIAN .SYSTE
 6300 4d5f5541 52545f30 5f494f5f 50415241  M_UART_0_IO_PARA
 6310 4d455445 525f494e 49545f43 4f4e4649  METER_INIT_CONFI
 6320 475f4441 54415f4c 454e4754 48203700  G_DATA_LENGTH 7.
 6330 5f5f4343 5f535550 504f5254 535f5641  __CC_SUPPORTS_VA
 6340 52414449 435f5858 58203100 5f524545  RADIC_XXX 1._REE
 6350 4e545f54 4d287074 72292028 26287074  NT_TM(ptr) (&(pt
 6360 72292d3e 5f6e6577 2e5f7265 656e742e  r)->_new._reent.
 6370 5f6c6f63 616c7469 6d655f62 75662900  _localtime_buf).
 6380 5f524545 4e545f4d 505f5245 53554c54  _REENT_MP_RESULT
 6390 28707472 29202828 70747229 2d3e5f72  (ptr) ((ptr)->_r
 63a0 6573756c 74290053 59535445 4d5f5541  esult).SYSTEM_UA
 63b0 52545f30 5f494f5f 50415241 4d455445  RT_0_IO_PARAMETE
 63c0 525f5541 52545f43 54524c5f 434f4e46  R_UART_CTRL_CONF
 63d0 49475f44 4154415f 57494454 485f4d41  IG_DATA_WIDTH_MA
 63e0 58203800 5f5f6172 675f7479 70655f74  X 8.__arg_type_t
 63f0 61672861 72675f6b 696e642c 6172675f  ag(arg_kind,arg_
 6400 6964782c 74797065 5f746167 5f696478  idx,type_tag_idx
 6410 29200042 49545f37 20283120 3c3c2037  ) .BIT_7 (1 << 7
 6420 29005f5f 636f6e74 61696e65 726f6628  ).__containerof(
 6430 782c732c 6d292028 7b20636f 6e737420  x,s,m) ({ const 
 6440 766f6c61 74696c65 205f5f74 7970656f  volatile __typeo
 6450 66282828 73202a29 30292d3e 6d29202a  f(((s *)0)->m) *
 6460 5f5f7820 3d202878 293b205f 5f444551  __x = (x); __DEQ
 6470 55414c49 46592873 202a2c20 28636f6e  UALIFY(s *, (con
 6480 73742076 6f6c6174 696c6520 63686172  st volatile char
 6490 202a295f 5f78202d 205f5f6f 66667365   *)__x - __offse
 64a0 746f6628 732c206d 29293b7d 29005f5f  tof(s, m));}).__
 64b0 6c6f636b 5f636c6f 73655f72 65637572  lock_close_recur
 64c0 73697665 286c6f63 6b292028 28766f69  sive(lock) ((voi
 64d0 64292030 29005f42 53445f53 495a455f  d) 0)._BSD_SIZE_
 64e0 545f2000 5f5f696e 7432305f 5f202b32  T_ .__int20__ +2
 64f0 00535953 54454d5f 52495343 565f4953  .SYSTEM_RISCV_IS
 6500 415f4558 545f4620 30004750 494f5f4f  A_EXT_F 0.GPIO_O
 6510 55545055 545f454e 41424c45 20307830  UTPUT_ENABLE 0x0
 6520 38005f49 4e543634 5f545f44 45434c41  8._INT64_T_DECLA
 6530 52454420 005f5245 454e545f 53544449  RED ._REENT_STDI
 6540 4f5f5354 5245414d 28766172 2c696e64  O_STREAM(var,ind
 6550 65782920 26287661 72292d3e 5f5f7366  ex) &(var)->__sf
 6560 5b696e64 65785d00 5f5f4649 4c450048  [index].__FILE.H
 6570 5547455f 56414c46 20285f5f 6275696c  UGE_VALF (__buil
 6580 74696e5f 68756765 5f76616c 66282929  tin_huge_valf())
 6590 004d4944 454c4547 5f535550 45525649  .MIDELEG_SUPERVI
 65a0 534f525f 45585445 524e414c 20283120  SOR_EXTERNAL (1 
 65b0 3c3c2039 29005f5f 76615f63 6f707928  << 9).__va_copy(
 65c0 642c7329 205f5f62 75696c74 696e5f76  d,s) __builtin_v
 65d0 615f636f 70792864 2c732900 4d535441  a_copy(d,s).MSTA
 65e0 5455535f 4d505020 30783030 30303138  TUS_MPP 0x000018
 65f0 3030005f 434c4f43 4b49445f 545f2075  00._CLOCKID_T_ u
 6600 6e736967 6e656420 6c6f6e67 005f5245  nsigned long._RE
 6610 454e545f 43484543 4b5f544d 28707472  ENT_CHECK_TM(ptr
 6620 2920004d 53544154 55535f48 50494520  ) .MSTATUS_HPIE 
 6630 30783030 30303030 3430005f 6d627374  0x00000040._mbst
 6640 6174655f 74005f5f 494e545f 57434841  ate_t.__INT_WCHA
 6650 525f545f 48200047 50494f5f 494e5445  R_T_H .GPIO_INTE
 6660 52525550 545f4641 4c4c5f45 4e41424c  RRUPT_FALL_ENABL
 6670 45203078 32340053 59535445 4d5f504c  E 0x24.SYSTEM_PL
 6680 49435f53 59535445 4d5f4750 494f5f30  IC_SYSTEM_GPIO_0
 6690 5f494f5f 494e5445 52525550 54535f30  _IO_INTERRUPTS_0
 66a0 20313200 5f723438 00737069 466c6173   12._r48.spiFlas
 66b0 685f6632 6d005f5f 474e5543 4c494b45  h_f2m.__GNUCLIKE
 66c0 5f43544f 525f5345 4354494f 4e5f4841  _CTOR_SECTION_HA
 66d0 4e444c49 4e472031 00535953 54454d5f  NDLING 1.SYSTEM_
 66e0 55415254 5f305f49 4f5f5041 52414d45  UART_0_IO_PARAME
 66f0 5445525f 52585f46 49464f5f 44455054  TER_RX_FIFO_DEPT
 6700 48203132 3800504d 505f5820 30783034  H 128.PMP_X 0x04
 6710 0046505f 494c4f47 424e414e 205f5f49  .FP_ILOGBNAN __I
 6720 4e545f4d 41585f5f 00425350 5f434c49  NT_MAX__.BSP_CLI
 6730 4e545f48 5a205359 5354454d 5f434c49  NT_HZ SYSTEM_CLI
 6740 4e545f48 5a00504d 505f5220 30783031  NT_HZ.PMP_R 0x01
 6750 00475049 4f5f494e 54455252 5550545f  .GPIO_INTERRUPT_
 6760 4c4f575f 454e4142 4c452030 78326300  LOW_ENABLE 0x2c.
 6770 5f5f4442 4c5f4d49 4e5f5f20 2828646f  __DBL_MIN__ ((do
 6780 75626c65 29322e32 32353037 33383538  uble)2.225073858
 6790 35303732 30313338 33303930 32333237  5072013830902327
 67a0 31373333 32343034 3036652d 3330384c  1733240406e-308L
 67b0 29005f5f 464c5436 34585f4d 494e5f5f  ).__FLT64X_MIN__
 67c0 20332e33 36323130 33313433 31313230   3.3621031431120
 67d0 39333530 36323632 36373738 31373332  9350626267781732
 67e0 31373532 3630652d 34393332 46363478  175260e-4932F64x
 67f0 005f414e 53495f53 54444152 475f485f  ._ANSI_STDARG_H_
 6800 20005549 4e543634 5f432878 29205f5f   .UINT64_C(x) __
 6810 55494e54 36345f43 28782900 5f5f6c6f  UINT64_C(x).__lo
 6820 636b5f69 6e697428 6c6f636b 29202828  ck_init(lock) ((
 6830 766f6964 29203029 005f6461 74610055  void) 0)._data.U
 6840 494e545f 4c454153 54385f4d 41582028  INT_LEAST8_MAX (
 6850 5f5f5549 4e545f4c 45415354 385f4d41  __UINT_LEAST8_MA
 6860 585f5f29 005f5f47 4e55435f 4d494e4f  X__).__GNUC_MINO
 6870 525f5f20 33005f5f 6c6f636b 5f72656c  R__ 3.__lock_rel
 6880 65617365 5f726563 75727369 7665286c  ease_recursive(l
 6890 6f636b29 20282876 6f696429 20302900  ock) ((void) 0).
 68a0 5f5f5549 4e545f4c 45415354 33325f54  __UINT_LEAST32_T
 68b0 5950455f 5f206c6f 6e672075 6e736967  YPE__ long unsig
 68c0 6e656420 696e7400 5f5f4c44 424c5f4d  ned int.__LDBL_M
 68d0 494e5f31 305f4558 505f5f20 282d3439  IN_10_EXP__ (-49
 68e0 33312900 5f5f7265 71756972 65735f65  31).__requires_e
 68f0 78636c75 73697665 282e2e2e 29205f5f  xclusive(...) __
 6900 6c6f636b 5f616e6e 6f746174 65286578  lock_annotate(ex
 6910 636c7573 6976655f 6c6f636b 735f7265  clusive_locks_re
 6920 71756972 6564285f 5f56415f 41524753  quired(__VA_ARGS
 6930 5f5f2929 005f5241 4e443438 5f4d554c  __))._RAND48_MUL
 6940 545f3120 28307864 65656329 005f5f49  T_1 (0xdeec).__I
 6950 4e544d41 585f5459 50455f5f 206c6f6e  NTMAX_TYPE__ lon
 6960 67206c6f 6e672069 6e74005f 5f474343  g long int.__GCC
 6970 5f41544f 4d49435f 494e545f 4c4f434b  _ATOMIC_INT_LOCK
 6980 5f465245 45203100 73686f72 74005359  _FREE 1.short.SY
 6990 5354454d 5f434f52 45535f30 5f465055  STEM_CORES_0_FPU
 69a0 2030005f 5f464c54 3332585f 45505349   0.__FLT32X_EPSI
 69b0 4c4f4e5f 5f20322e 32323034 34363034  LON__ 2.22044604
 69c0 39323530 33313330 38303834 37323633  9250313080847263
 69d0 33333631 38313634 30363265 2d313646  33618164062e-16F
 69e0 33327800 5f474343 5f4d4158 5f414c49  32x._GCC_MAX_ALI
 69f0 474e5f54 20004253 505f5541 52545f54  GN_T .BSP_UART_T
 6a00 45524d49 4e414c20 53595354 454d5f55  ERMINAL SYSTEM_U
 6a10 4152545f 305f494f 5f435452 4c005f53  ART_0_IO_CTRL._S
 6a20 5452494e 47535f48 5f20005f 53495a45  TRINGS_H_ ._SIZE
 6a30 545f2000 5f535444 4c49425f 485f2000  T_ ._STDLIB_H_ .
 6a40 5f5f4442 4c5f4841 535f5155 4945545f  __DBL_HAS_QUIET_
 6a50 4e414e5f 5f203100 69736c65 7373285f  NAN__ 1.isless(_
 6a60 5f782c5f 5f792920 285f5f62 75696c74  _x,__y) (__built
 6a70 696e5f69 736c6573 7320285f 5f782c20  in_isless (__x, 
 6a80 5f5f7929 29005f5f 464c5436 345f4841  __y)).__FLT64_HA
 6a90 535f494e 46494e49 54595f5f 20310055  S_INFINITY__ 1.U
 6aa0 494e545f 46415354 31365f4d 41582028  INT_FAST16_MAX (
 6ab0 5f5f5549 4e545f46 41535431 365f4d41  __UINT_FAST16_MA
 6ac0 585f5f29 005f4e4f 494e4c49 4e455f53  X__)._NOINLINE_S
 6ad0 54415449 43205f4e 4f494e4c 494e4520  TATIC _NOINLINE 
 6ae0 73746174 69630046 505f4e4f 524d414c  static.FP_NORMAL
 6af0 2034005f 5f636f6e 73742063 6f6e7374   4.__const const
 6b00 0055494e 545f4c45 41535433 325f4d41  .UINT_LEAST32_MA
 6b10 5820285f 5f55494e 545f4c45 41535433  X (__UINT_LEAST3
 6b20 325f4d41 585f5f29 005f5f43 4f505952  2_MAX__).__COPYR
 6b30 49474854 28732920 73747275 6374205f  IGHT(s) struct _
 6b40 5f686163 6b005f52 45454e54 5f434845  _hack._REENT_CHE
 6b50 434b5f45 4d455247 454e4359 28707472  CK_EMERGENCY(ptr
 6b60 2920005f 5f464c54 3132385f 44454e4f  ) .__FLT128_DENO
 6b70 524d5f4d 494e5f5f 20362e34 37353137  RM_MIN__ 6.47517
 6b80 35313139 34333830 32353131 30393234  5119438025110924
 6b90 34333839 35383232 37363436 3535652d  43895822764655e-
 6ba0 34393636 46313238 00697366 696e6974  4966F128.isfinit
 6bb0 65285f5f 78292028 5f5f6275 696c7469  e(__x) (__builti
 6bc0 6e5f6973 66696e69 74652028 5f5f7829  n_isfinite (__x)
 6bd0 29006368 6172202b 30005549 4e545f46  ).char +0.UINT_F
 6be0 41535433 325f4d41 5820285f 5f55494e  AST32_MAX (__UIN
 6bf0 545f4641 53543332 5f4d4158 5f5f2900  T_FAST32_MAX__).
 6c00 6373725f 73776170 28637372 2c76616c  csr_swap(csr,val
 6c10 2920287b 20756e73 69676e65 64206c6f  ) ({ unsigned lo
 6c20 6e67205f 5f76203d 2028756e 7369676e  ng __v = (unsign
 6c30 6564206c 6f6e6729 2876616c 293b205f  ed long)(val); _
 6c40 5f61736d 5f5f205f 5f766f6c 6174696c  _asm__ __volatil
 6c50 655f5f20 28226373 72727720 25302c20  e__ ("csrrw %0, 
 6c60 22202363 73722022 2c202531 22203a20  " #csr ", %1" : 
 6c70 223d7222 20285f5f 7629203a 2022724b  "=r" (__v) : "rK
 6c80 2220285f 5f762929 3b205f5f 763b207d  " (__v)); __v; }
 6c90 29005f5f 55494e54 5054525f 54595045  ).__UINTPTR_TYPE
 6ca0 5f5f2075 6e736967 6e656420 696e7400  __ unsigned int.
 6cb0 73706946 6c617368 5f73656c 65637400  spiFlash_select.
 6cc0 5f5f5245 47495354 45525f50 52454649  __REGISTER_PREFI
 6cd0 585f5f20 005f5f44 45433132 385f5355  X__ .__DEC128_SU
 6ce0 424e4f52 4d414c5f 4d494e5f 5f20302e  BNORMAL_MIN__ 0.
 6cf0 30303030 30303030 30303030 30303030  0000000000000000
 6d00 30303030 30303030 30303030 30303030  0000000000000000
 6d10 31452d36 31343344 4c005f5f 44424c5f  1E-6143DL.__DBL_
 6d20 4449475f 5f203135 005f5549 4e543136  DIG__ 15._UINT16
 6d30 5f545f44 45434c41 52454420 005f5f52  _T_DECLARED .__R
 6d40 43534944 28732920 73747275 6374205f  CSID(s) struct _
 6d50 5f686163 6b005f5f 53495a45 4f465f53  _hack.__SIZEOF_S
 6d60 495a455f 545f5f20 34005244 54494d45  IZE_T__ 4.RDTIME
 6d70 20307843 3031005f 5f55494e 5436345f   0xC01.__UINT64_
 6d80 54595045 5f5f206c 6f6e6720 6c6f6e67  TYPE__ long long
 6d90 20756e73 69676e65 6420696e 74005f5f   unsigned int.__
 6da0 464c5436 345f4550 53494c4f 4e5f5f20  FLT64_EPSILON__ 
 6db0 322e3232 30343436 30343932 35303331  2.22044604925031
 6dc0 33303830 38343732 36333333 36313831  3080847263336181
 6dd0 36343036 32652d31 36463634 00535049  64062e-16F64.SPI
 6de0 5f524541 445f5752 4954455f 4c415247  _READ_WRITE_LARG
 6df0 45203078 35340053 59535445 4d5f424d  E 0x54.SYSTEM_BM
 6e00 425f5045 52495048 4552414c 5f424d42  B_PERIPHERAL_BMB
 6e10 5f53495a 45203078 31303030 30303000  _SIZE 0x1000000.
 6e20 5f5f454e 445f4445 434c5320 005f5f64  __END_DECLS .__d
 6e30 61746174 7970655f 74797065 5f746167  atatype_type_tag
 6e40 286b696e 642c7479 70652920 005f5f5f  (kind,type) .___
 6e50 696e745f 73697a65 5f745f68 20005359  int_size_t_h .SY
 6e60 5354454d 5f554152 545f305f 494f5f43  STEM_UART_0_IO_C
 6e70 54524c5f 53495a45 20307834 30005f5f  TRL_SIZE 0x40.__
 6e80 616c6967 6e656428 7829205f 5f617474  aligned(x) __att
 6e90 72696275 74655f5f 28285f5f 616c6967  ribute__((__alig
 6ea0 6e65645f 5f287829 29290075 6e736967  ned__(x))).unsig
 6eb0 6e656400 5f6d626c 656e5f73 74617465  ned._mblen_state
 6ec0 005f5f68 61735f62 75696c74 696e2878  .__has_builtin(x
 6ed0 29203000 55415254 5f535441 54555320  ) 0.UART_STATUS 
 6ee0 30783034 004d5354 41545553 5f555049  0x04.MSTATUS_UPI
 6ef0 45203078 30303030 30303130 005f5354  E 0x00000010._ST
 6f00 52494e47 5f485f20 005f5f70 745f6775  RING_H_ .__pt_gu
 6f10 61726465 645f6279 28782920 5f5f6c6f  arded_by(x) __lo
 6f20 636b5f61 6e6e6f74 61746528 70745f67  ck_annotate(pt_g
 6f30 75617264 65645f62 79287829 29005f5f  uarded_by(x)).__
 6f40 67756172 6465645f 62792878 29205f5f  guarded_by(x) __
 6f50 6c6f636b 5f616e6e 6f746174 65286775  lock_annotate(gu
 6f60 61726465 645f6279 28782929 0076615f  arded_by(x)).va_
 6f70 61726728 762c6c29 205f5f62 75696c74  arg(v,l) __built
 6f80 696e5f76 615f6172 6728762c 6c29005f  in_va_arg(v,l)._
 6f90 5359535f 53495a45 5f545f48 20005f5f  SYS_SIZE_T_H .__
 6fa0 55494e54 31365f43 28632920 63005f5f  UINT16_C(c) c.__
 6fb0 464c5436 345f4d49 4e5f4558 505f5f20  FLT64_MIN_EXP__ 
 6fc0 282d3130 32312900 5f5f5349 5a454f46  (-1021).__SIZEOF
 6fd0 5f505452 44494646 5f545f5f 2034005f  _PTRDIFF_T__ 4._
 6fe0 5f43435f 53555050 4f525453 5f5f5f49  _CC_SUPPORTS___I
 6ff0 4e4c494e 455f5f20 31006d6f 6465005f  NLINE__ 1.mode._
 7000 5f707269 6e74666c 696b6528 666d7461  _printflike(fmta
 7010 72672c66 69727374 76617261 72672920  rg,firstvararg) 
 7020 5f5f6174 74726962 7574655f 5f28285f  __attribute__((_
 7030 5f666f72 6d61745f 5f20285f 5f707269  _format__ (__pri
 7040 6e74665f 5f2c2066 6d746172 672c2066  ntf__, fmtarg, f
 7050 69727374 76617261 72672929 2900494e  irstvararg))).IN
 7060 54505452 5f4d4158 20285f5f 494e5450  TPTR_MAX (__INTP
 7070 54525f4d 41585f5f 29005f5f 66617374  TR_MAX__).__fast
 7080 63616c6c 205f5f61 74747269 62757465  call __attribute
 7090 5f5f2828 5f5f6661 73746361 6c6c5f5f  __((__fastcall__
 70a0 29290055 5345525f 534f4654 57415245  )).USER_SOFTWARE
 70b0 5f4d454d 4f52595f 494e5354 20307846  _MEMORY_INST 0xF
 70c0 39303030 30303000 494e5436 345f4d49  9000000.INT64_MI
 70d0 4e20282d 5f5f494e 5436345f 4d41585f  N (-__INT64_MAX_
 70e0 5f202d20 3129005f 5f464c54 3634585f  _ - 1).__FLT64X_
 70f0 4d41585f 4558505f 5f203136 33383400  MAX_EXP__ 16384.
 7100 5f524545 4e545f53 49474e41 4c5f4255  _REENT_SIGNAL_BU
 7110 46287074 72292028 28707472 292d3e5f  F(ptr) ((ptr)->_
 7120 6e65772e 5f726565 6e742e5f 7369676e  new._reent._sign
 7130 616c5f62 75662900 5f5f4154 4f4d4943  al_buf).__ATOMIC
 7140 5f52454c 41584544 2030005f 41545452  _RELAXED 0._ATTR
 7150 49425554 45286174 74727329 205f5f61  IBUTE(attrs) __a
 7160 74747269 62757465 5f5f2028 61747472  ttribute__ (attr
 7170 7329005f 5f726571 75697265 735f7368  s).__requires_sh
 7180 61726564 282e2e2e 29205f5f 6c6f636b  ared(...) __lock
 7190 5f616e6e 6f746174 65287368 61726564  _annotate(shared
 71a0 5f6c6f63 6b735f72 65717569 72656428  _locks_required(
 71b0 5f5f5641 5f415247 535f5f29 29005f4b  __VA_ARGS__))._K
 71c0 6d617820 2873697a 656f6620 2873697a  max (sizeof (siz
 71d0 655f7429 203c3c20 3329005f 5f44424c  e_t) << 3).__DBL
 71e0 5f484153 5f494e46 494e4954 595f5f20  _HAS_INFINITY__ 
 71f0 3100504d 505f4e41 34203078 3130005f  1.PMP_NA4 0x10._
 7200 5f534947 5f41544f 4d49435f 4d41585f  _SIG_ATOMIC_MAX_
 7210 5f203078 37666666 66666666 0055494e  _ 0x7fffffff.UIN
 7220 5436345f 4d415820 285f5f55 494e5436  T64_MAX (__UINT6
 7230 345f4d41 585f5f29 00535953 54454d5f  4_MAX__).SYSTEM_
 7240 55415254 5f305f49 4f5f5041 52414d45  UART_0_IO_PARAME
 7250 5445525f 55415254 5f435452 4c5f434f  TER_UART_CTRL_CO
 7260 4e464947 5f435453 5f47454e 20300042  NFIG_CTS_GEN 0.B
 7270 49545f36 20283120 3c3c2036 29005f5f  IT_6 (1 << 6).__
 7280 72616e67 656f6628 74797065 2c737461  rangeof(type,sta
 7290 72742c65 6e642920 285f5f6f 66667365  rt,end) (__offse
 72a0 746f6628 74797065 2c20656e 6429202d  tof(type, end) -
 72b0 205f5f6f 66667365 746f6628 74797065   __offsetof(type
 72c0 2c207374 61727429 29007375 626f7074  , start)).subopt
 72d0 61726700 5f5f474e 55434c49 4b455f5f  arg.__GNUCLIKE__
 72e0 5f4f4646 5345544f 46203100 5350495f  _OFFSETOF 1.SPI_
 72f0 53535f48 4f4c4420 30783238 00697367  SS_HOLD 0x28.isg
 7300 72656174 65726571 75616c28 5f5f782c  reaterequal(__x,
 7310 5f5f7929 20285f5f 6275696c 74696e5f  __y) (__builtin_
 7320 69736772 65617465 72657175 616c2028  isgreaterequal (
 7330 5f5f782c 205f5f79 2929005f 5f53495a  __x, __y)).__SIZ
 7340 454f465f 464c4f41 545f5f20 34005549  EOF_FLOAT__ 4.UI
 7350 4e54385f 43287829 205f5f55 494e5438  NT8_C(x) __UINT8
 7360 5f432878 29005f5f 44454336 345f4d49  _C(x).__DEC64_MI
 7370 4e5f5f20 31452d33 38334444 00524449  N__ 1E-383DD.RDI
 7380 4e535452 45544820 30784338 32005f5f  NSTRETH 0xC82.__
 7390 44424c5f 44454349 4d414c5f 4449475f  DBL_DECIMAL_DIG_
 73a0 5f203137 005f6d61 78776473 005f5f68  _ 17._maxwds.__h
 73b0 6176655f 6c6f6e67 33322031 005f474c  ave_long32 1._GL
 73c0 4f42414c 5f524545 4e54205f 676c6f62  OBAL_REENT _glob
 73d0 616c5f69 6d707572 655f7074 72005f4e  al_impure_ptr._N
 73e0 554c4c20 30005f5f 666c6578 61727220  ULL 0.__flexarr 
 73f0 5b305d00 5350495f 434d445f 53532028  [0].SPI_CMD_SS (
 7400 31203c3c 20313129 00535953 54454d5f  1 << 11).SYSTEM_
 7410 4932435f 305f494f 5f435452 4c203078  I2C_0_IO_CTRL 0x
 7420 66383031 37303030 005f5f74 6d5f7965  f8017000.__tm_ye
 7430 6172005f 52454144 5f575249 54455f52  ar._READ_WRITE_R
 7440 45545552 4e5f5459 5045205f 7373697a  ETURN_TYPE _ssiz
 7450 655f7400 5f5f494e 5431365f 4d41585f  e_t.__INT16_MAX_
 7460 5f203078 37666666 005f5f72 69736376  _ 0x7fff.__riscv
 7470 5f6d756c 20310053 59535445 4d5f4932  _mul 1.SYSTEM_I2
 7480 435f305f 494f5f43 54524c5f 53495a45  C_0_IO_CTRL_SIZE
 7490 20307831 3030005f 5f444556 4f4c4154   0x100.__DEVOLAT
 74a0 494c4528 74797065 2c766172 29202828  ILE(type,var) ((
 74b0 74797065 29285f5f 75696e74 7074725f  type)(__uintptr_
 74c0 74292876 6f6c6174 696c6520 766f6964  t)(volatile void
 74d0 202a2928 76617229 29005f5f 57434841   *)(var)).__WCHA
 74e0 525f545f 5f20005f 5f494e54 5f574944  R_T__ .__INT_WID
 74f0 54485f5f 20333200 5f5f4641 53543820  TH__ 32.__FAST8 
 7500 005f5f72 6573756c 745f7573 655f6368  .__result_use_ch
 7510 65636b20 5f5f6174 74726962 7574655f  eck __attribute_
 7520 5f28285f 5f776172 6e5f756e 75736564  _((__warn_unused
 7530 5f726573 756c745f 5f292900 5f5f5853  _result__)).__XS
 7540 495f5649 5349424c 45203000 4d535441  I_VISIBLE 0.MSTA
 7550 5455535f 46532030 78303030 30363030  TUS_FS 0x0000600
 7560 30005f5f 464c5431 32385f4d 414e545f  0.__FLT128_MANT_
 7570 4449475f 5f203131 33005f5f 73747266  DIG__ 113.__strf
 7580 6d6f6e6c 696b6528 666d7461 72672c66  monlike(fmtarg,f
 7590 69727374 76617261 72672920 5f5f6174  irstvararg) __at
 75a0 74726962 7574655f 5f28285f 5f666f72  tribute__((__for
 75b0 6d61745f 5f20285f 5f737472 666d6f6e  mat__ (__strfmon
 75c0 5f5f2c20 666d7461 72672c20 66697273  __, fmtarg, firs
 75d0 74766172 61726729 2929004d 5f49564c  tvararg))).M_IVL
 75e0 4e313020 302e3433 34323934 34383139  N10 0.4342944819
 75f0 30333235 31383237 3635005f 5f464153  0325182765.__FAS
 7600 54333220 005f5f53 49475f41 544f4d49  T32 .__SIG_ATOMI
 7610 435f5749 4454485f 5f203332 005f5f47  C_WIDTH__ 32.__G
 7620 4e55435f 50524552 45515f5f 286d612c  NUC_PREREQ__(ma,
 7630 6d692920 5f5f474e 55435f50 52455245  mi) __GNUC_PRERE
 7640 51286d61 2c206d69 29004558 49545f46  Q(ma, mi).EXIT_F
 7650 41494c55 52452031 005f5f70 75726532  AILURE 1.__pure2
 7660 205f5f61 74747269 62757465 5f5f2828   __attribute__((
 7670 5f5f636f 6e73745f 5f292900 5f5f4642  __const__)).__FB
 7680 53444944 28732920 73747275 6374205f  SDID(s) struct _
 7690 5f686163 6b007661 5f656e64 28762920  _hack.va_end(v) 
 76a0 5f5f6275 696c7469 6e5f7661 5f656e64  __builtin_va_end
 76b0 28762900 5f5f756e 72656163 6861626c  (v).__unreachabl
 76c0 65282920 5f5f6275 696c7469 6e5f756e  e() __builtin_un
 76d0 72656163 6861626c 65282900 5f6c6266  reachable()._lbf
 76e0 73697a65 00535953 54454d5f 4932435f  size.SYSTEM_I2C_
 76f0 315f494f 5f435452 4c203078 66383031  1_IO_CTRL 0xf801
 7700 38303030 005f5f4c 4f434b5f 494e4954  8000.__LOCK_INIT
 7710 5f524543 55525349 56452863 6c617373  _RECURSIVE(class
 7720 2c6c6f63 6b292073 74617469 6320696e  ,lock) static in
 7730 74206c6f 636b203d 20303b00 5f5f5349  t lock = 0;.__SI
 7740 5a454f46 5f57494e 545f545f 5f203400  ZEOF_WINT_T__ 4.
 7750 5f696e64 005f554e 4255465f 53545245  _ind._UNBUF_STRE
 7760 414d5f4f 50542031 005f5f4f 52444552  AM_OPT 1.__ORDER
 7770 5f4c4954 544c455f 454e4449 414e5f5f  _LITTLE_ENDIAN__
 7780 20313233 34005f5f 6c6f636b 735f7368   1234.__locks_sh
 7790 61726564 282e2e2e 29205f5f 6c6f636b  ared(...) __lock
 77a0 5f616e6e 6f746174 65287368 61726564  _annotate(shared
 77b0 5f6c6f63 6b5f6675 6e637469 6f6e285f  _lock_function(_
 77c0 5f56415f 41524753 5f5f2929 005f5f47  _VA_ARGS__)).__G
 77d0 4e55434c 494b455f 41534d20 33005f5f  NUCLIKE_ASM 3.__
 77e0 494e545f 46415354 385f4d41 585f5f20  INT_FAST8_MAX__ 
 77f0 30783766 66666666 6666005f 5f464c54  0x7fffffff.__FLT
 7800 33325f48 41535f44 454e4f52 4d5f5f20  32_HAS_DENORM__ 
 7810 31004d41 58464c4f 41542033 2e343032  1.MAXFLOAT 3.402
 7820 38323334 37652b33 38460046 505f494c  82347e+38F.FP_IL
 7830 4f474230 20282d5f 5f494e54 5f4d4158  OGB0 (-__INT_MAX
 7840 5f5f2900 5f5f464c 54333258 5f484153  __).__FLT32X_HAS
 7850 5f44454e 4f524d5f 5f203100 5f4d4143  _DENORM__ 1._MAC
 7860 48494e45 5f5f5459 5045535f 4820005f  HINE__TYPES_H ._
 7870 5f494e54 5f464153 5433325f 57494454  _INT_FAST32_WIDT
 7880 485f5f20 3332005f 4e45574c 49425f56  H__ 32._NEWLIB_V
 7890 45525349 4f4e2022 332e312e 3022005f  ERSION "3.1.0"._
 78a0 52414e44 34385f4d 554c545f 30202830  RAND48_MULT_0 (0
 78b0 78653636 6429005f 69735f63 7861005f  xe66d)._is_cxa._
 78c0 5f474e55 434c494b 455f4255 494c5449  _GNUCLIKE_BUILTI
 78d0 4e5f5641 414c4953 54203100 5f5f5349  N_VAALIST 1.__SI
 78e0 5a454f46 5f4c4f4e 475f444f 55424c45  ZEOF_LONG_DOUBLE
 78f0 5f5f2031 36004d49 455f4d54 49452028  __ 16.MIE_MTIE (
 7900 31203c3c 20434155 53455f4d 41434849  1 << CAUSE_MACHI
 7910 4e455f54 494d4552 29005f6e 65787466  NE_TIMER)._nextf
 7920 005f5f49 4e543332 20226c22 005f5f6c  .__INT32 "l".__l
 7930 6f636b5f 616e6e6f 74617465 28782920  ock_annotate(x) 
 7940 00524449 4e535452 45542030 78433032  .RDINSTRET 0xC02
 7950 00535049 5f575249 54455f4c 41524745  .SPI_WRITE_LARGE
 7960 20307835 30007374 72746f64 66207374   0x50.strtodf st
 7970 72746f66 005f5f46 4c543132 385f4d41  rtof.__FLT128_MA
 7980 585f5f20 312e3138 39373331 34393533  X__ 1.1897314953
 7990 35373233 31373635 30383537 35393332  5723176508575932
 79a0 36363238 30303730 32652b34 39333246  662800702e+4932F
 79b0 31323800 5f5f5549 4e543332 5f545950  128.__UINT32_TYP
 79c0 455f5f20 6c6f6e67 20756e73 69676e65  E__ long unsigne
 79d0 6420696e 74005f5f 474e5543 4c494b45  d int.__GNUCLIKE
 79e0 5f4d4154 485f4255 494c5449 4e5f434f  _MATH_BUILTIN_CO
 79f0 4e535441 4e545320 00454e41 424c455f  NSTANTS .ENABLE_
 7a00 5052494e 54465f57 41524e49 4e472031  PRINTF_WARNING 1
 7a10 00454e41 424c455f 4c4f4e47 5f4c4f4e  .ENABLE_LONG_LON
 7a20 475f5355 50504f52 54203000 5f444546  G_SUPPORT 0._DEF
 7a30 41554c54 5f534f55 52434500 53595354  AULT_SOURCE.SYST
 7a40 454d5f50 4c49435f 53595354 454d5f47  EM_PLIC_SYSTEM_G
 7a50 50494f5f 305f494f 5f494e54 45525255  PIO_0_IO_INTERRU
 7a60 5054535f 31203133 005f5f46 4c543132  PTS_1 13.__FLT12
 7a70 385f4841 535f4445 4e4f524d 5f5f2031  8_HAS_DENORM__ 1
 7a80 005f5f56 45525349 4f4e5f5f 2022382e  .__VERSION__ "8.
 7a90 332e3022 005f5f43 435f5355 50504f52  3.0".__CC_SUPPOR
 7aa0 54535f57 41524e49 4e472031 005f6c6f  TS_WARNING 1._lo
 7ab0 63616c65 005f5f55 4c6f6e67 005f5f61  cale.__ULong.__a
 7ac0 73736572 74735f73 68617265 64282e2e  sserts_shared(..
 7ad0 2e29205f 5f6c6f63 6b5f616e 6e6f7461  .) __lock_annota
 7ae0 74652861 73736572 745f7368 61726564  te(assert_shared
 7af0 5f6c6f63 6b285f5f 56415f41 5247535f  _lock(__VA_ARGS_
 7b00 5f292900 5f524545 4e545f43 4845434b  _))._REENT_CHECK
 7b10 5f52414e 44343828 70747229 20005f49  _RAND48(ptr) ._I
 7b20 4e54385f 545f4445 434c4152 45442000  NT8_T_DECLARED .
 7b30 5f5f6c6f 636b5f72 656c6561 7365286c  __lock_release(l
 7b40 6f636b29 20282876 6f696429 20302900  ock) ((void) 0).
 7b50 5f5f5349 5a454f46 5f494e54 5f5f2034  __SIZEOF_INT__ 4
 7b60 005f4253 445f5743 4841525f 545f0055  ._BSD_WCHAR_T_.U
 7b70 494e5431 365f4328 7829205f 5f55494e  INT16_C(x) __UIN
 7b80 5431365f 43287829 00535953 54454d5f  T16_C(x).SYSTEM_
 7b90 52495343 565f4953 415f4558 545f4420  RISCV_ISA_EXT_D 
 7ba0 30006273 705f7075 74436861 72286329  0.bsp_putChar(c)
 7bb0 20756172 745f7772 69746528 4253505f   uart_write(BSP_
 7bc0 55415254 5f544552 4d494e41 4c2c2063  UART_TERMINAL, c
 7bd0 293b005f 5359535f 5f494e54 5355505f  );._SYS__INTSUP_
 7be0 48200072 6561645f 75333200 4249545f  H .read_u32.BIT_
 7bf0 31332028 31203c3c 20313329 004d5354  13 (1 << 13).MST
 7c00 41545553 36345f53 44203078 38303030  ATUS64_SD 0x8000
 7c10 30303030 30303030 30303030 005f5f47  000000000000.__G
 7c20 4e55434c 494b455f 4255494c 54494e5f  NUCLIKE_BUILTIN_
 7c30 4d454d43 50592031 004d5f50 495f3220  MEMCPY 1.M_PI_2 
 7c40 312e3537 30373936 33323637 39343839  1.57079632679489
 7c50 36363139 3233005f 72657375 6c740049  661923._result.I
 7c60 4e545f46 41535436 345f4d41 5820285f  NT_FAST64_MAX (_
 7c70 5f494e54 5f464153 5436345f 4d41585f  _INT_FAST64_MAX_
 7c80 5f29005f 5f6c6f63 6b61626c 65205f5f  _).__lockable __
 7c90 6c6f636b 5f616e6e 6f746174 65286c6f  lock_annotate(lo
 7ca0 636b6162 6c652900 5f504f53 49585f53  ckable)._POSIX_S
 7cb0 4f555243 45203100 5f5f4c44 424c5f4d  OURCE 1.__LDBL_M
 7cc0 494e5f5f 20332e33 36323130 33313433  IN__ 3.362103143
 7cd0 31313230 39333530 36323632 36373738  1120935062626778
 7ce0 31373332 31373532 3630652d 34393332  1732175260e-4932
 7cf0 4c005f5f 55494e54 5f464153 5431365f  L.__UINT_FAST16_
 7d00 54595045 5f5f2075 6e736967 6e656420  TYPE__ unsigned 
 7d10 696e7400 5f5f5349 475f4154 4f4d4943  int.__SIG_ATOMIC
 7d20 5f545950 455f5f20 696e7400 5f4e4557  _TYPE__ int._NEW
 7d30 4c49425f 56455253 494f4e5f 485f5f20  LIB_VERSION_H__ 
 7d40 31004253 505f504c 49435f43 50555f30  1.BSP_PLIC_CPU_0
 7d50 20535953 54454d5f 504c4943 5f535953   SYSTEM_PLIC_SYS
 7d60 54454d5f 434f5245 535f305f 45585445  TEM_CORES_0_EXTE
 7d70 524e414c 5f494e54 45525255 50540053  RNAL_INTERRUPT.S
 7d80 59535445 4d5f5541 52545f30 5f494f5f  YSTEM_UART_0_IO_
 7d90 50415241 4d455445 525f5541 52545f43  PARAMETER_UART_C
 7da0 54524c5f 434f4e46 49475f43 4c4f434b  TRL_CONFIG_CLOCK
 7db0 5f444956 49444552 5f574944 54482032  _DIVIDER_WIDTH 2
 7dc0 30005f5f 53495a45 5f574944 54485f5f  0.__SIZE_WIDTH__
 7dd0 20333200 464c545f 4556414c 5f4d4554   32.FLT_EVAL_MET
 7de0 484f4420 5f5f464c 545f4556 414c5f4d  HOD __FLT_EVAL_M
 7df0 4554484f 445f5f00 5f535953 5f535452  ETHOD__._SYS_STR
 7e00 494e475f 48200053 50495f43 4c4b5f44  ING_H .SPI_CLK_D
 7e10 49564944 45522030 78323000 5f5f5749  IVIDER 0x20.__WI
 7e20 4e545f4d 494e5f5f 20305500 5f6f6666  NT_MIN__ 0U._off
 7e30 5f74005f 5f464c54 36345f44 49475f5f  _t.__FLT64_DIG__
 7e40 20313500 5f5f4445 4336345f 45505349   15.__DEC64_EPSI
 7e50 4c4f4e5f 5f203145 2d313544 44005f5f  LON__ 1E-15DD.__
 7e60 464c545f 4d494e5f 5f20312e 31373534  FLT_MIN__ 1.1754
 7e70 39343335 30383232 32383735 30373936  9435082228750796
 7e80 38373336 35333732 32323234 35363865  873653722224568e
 7e90 2d333846 005f5f43 435f5355 50504f52  -38F.__CC_SUPPOR
 7ea0 54535f5f 5f46554e 435f5f20 31005f5f  TS___FUNC__ 1.__
 7eb0 494e545f 4c454153 54385f57 49445448  INT_LEAST8_WIDTH
 7ec0 5f5f2038 005f5f4c 45415354 31362022  __ 8.__LEAST16 "
 7ed0 6822005f 5f6c6f6e 675f646f 75626c65  h".__long_double
 7ee0 5f74206c 6f6e6720 646f7562 6c65005f  _t long double._
 7ef0 5f494e54 5f4c4541 53543136 5f545950  _INT_LEAST16_TYP
 7f00 455f5f20 73686f72 7420696e 74005f61  E__ short int._a
 7f10 64640053 59535445 4d5f434c 494e545f  dd.SYSTEM_CLINT_
 7f20 485a2032 35303030 30303000 5f5f5853  HZ 25000000.__XS
 7f30 5452494e 47287829 205f5f53 5452494e  TRING(x) __STRIN
 7f40 47287829 00434155 53455f4d 41434849  G(x).CAUSE_MACHI
 7f50 4e455f54 494d4552 20370066 6c6f6174  NE_TIMER 7.float
 7f60 004d5354 41545553 5f545720 30783030  .MSTATUS_TW 0x00
 7f70 32303030 3030005f 5f746d5f 686f7572  200000.__tm_hour
 7f80 005f5245 454e545f 47455444 4154455f  ._REENT_GETDATE_
 7f90 4552525f 50287074 72292028 26282870  ERR_P(ptr) (&((p
 7fa0 7472292d 3e5f6e65 772e5f72 65656e74  tr)->_new._reent
 7fb0 2e5f6765 74646174 655f6572 72292900  ._getdate_err)).
 7fc0 5f5f7346 494c4500 7370695f 7273704f  __sFILE.spi_rspO
 7fd0 63637570 616e6379 005f5f46 4c543634  ccupancy.__FLT64
 7fe0 5f4d414e 545f4449 475f5f20 35330053  _MANT_DIG__ 53.S
 7ff0 50495f49 4e544552 52555054 20307830  PI_INTERRUPT 0x0
 8000 43005f5f 4c44424c 5f4d494e 5f455850  C.__LDBL_MIN_EXP
 8010 5f5f2028 2d313633 38312900 5f5f636f  __ (-16381).__co
 8020 6d70696c 65725f6d 656d6261 72282920  mpiler_membar() 
 8030 5f5f6173 6d205f5f 766f6c61 74696c65  __asm __volatile
 8040 28222022 203a203a 203a2022 6d656d6f  (" " : : : "memo
 8050 72792229 004d5354 41545553 5f534945  ry").MSTATUS_SIE
 8060 20307830 30303030 30303200 55534552   0x00000002.USER
 8070 5f534f46 54574152 455f4d45 4d4f5259  _SOFTWARE_MEMORY
 8080 5f444154 41203078 46393038 30303030  _DATA 0xF9080000
 8090 005f5245 454e545f 53545254 4f4b5f4c  ._REENT_STRTOK_L
 80a0 41535428 70747229 20282870 7472292d  AST(ptr) ((ptr)-
 80b0 3e5f6e65 772e5f72 65656e74 2e5f7374  >_new._reent._st
 80c0 72746f6b 5f6c6173 74290042 49545f31  rtok_last).BIT_1
 80d0 32202831 203c3c20 31322900 5f494e54  2 (1 << 12)._INT
 80e0 33325f45 515f4c4f 4e472000 5f5f6e65  32_EQ_LONG .__ne
 80f0 65645f5f 5f76615f 6c697374 005f5f6c  ed___va_list.__l
 8100 6f636b5f 7472795f 61637175 6972655f  ock_try_acquire_
 8110 72656375 72736976 65286c6f 636b2920  recursive(lock) 
 8120 2828766f 69642920 30290053 59535445  ((void) 0).SYSTE
 8130 4d5f5350 495f315f 494f5f43 54524c20  M_SPI_1_IO_CTRL 
 8140 30786638 30313530 3030005f 5f53495a  0xf8015000.__SIZ
 8150 455f4d41 585f5f20 30786666 66666666  E_MAX__ 0xffffff
 8160 66665500 5f5f6e65 65645f77 696e745f  ffU.__need_wint_
 8170 7420005f 6d627372 746f7763 735f7374  t ._mbsrtowcs_st
 8180 61746500 5f5f6174 74726962 7574655f  ate.__attribute_
 8190 70757265 5f5f2000 4d583235 5f515541  pure__ .MX25_QUA
 81a0 445f454e 41424c45 5f424954 20307834  D_ENABLE_BIT 0x4
 81b0 30005549 4e54385f 4d415820 285f5f55  0.UINT8_MAX (__U
 81c0 494e5438 5f4d4158 5f5f2900 5f5f4c4f  INT8_MAX__).__LO
 81d0 4e475f4d 41585f5f 20307837 66666666  NG_MAX__ 0x7ffff
 81e0 6666664c 005f5f4c 44424c5f 45505349  fffL.__LDBL_EPSI
 81f0 4c4f4e5f 5f20312e 39323539 32393934  LON__ 1.92592994
 8200 34333837 32333538 35333035 35393737  4387235853055977
 8210 39343235 38343932 37333265 2d33344c  94258492732e-34L
 8220 00475049 4f5f494e 54455252 5550545f  .GPIO_INTERRUPT_
 8230 48494748 5f454e41 424c4520 30783238  HIGH_ENABLE 0x28
 8240 006c6f6e 67202b34 005f5f69 6e743332  .long +4.__int32
 8250 5f74005f 5f474e55 434c494b 455f4255  _t.__GNUCLIKE_BU
 8260 494c5449 4e5f5641 52415247 53203100  ILTIN_VARARGS 1.
 8270 5f52414e 4434385f 41444420 28307830  _RAND48_ADD (0x0
 8280 30306229 004d5354 41545553 5f4d4945  00b).MSTATUS_MIE
 8290 20307830 30303030 30303800 53535441   0x00000008.SSTA
 82a0 5455535f 4d585220 30783030 30383030  TUS_MXR 0x000800
 82b0 30300042 49545f30 20283120 3c3c2030  00.BIT_0 (1 << 0
 82c0 29005350 495f4255 46464552 20307830  ).SPI_BUFFER 0x0
 82d0 34004249 545f3230 20283120 3c3c2032  4.BIT_20 (1 << 2
 82e0 30290047 50494f5f 494e5445 52525550  0).GPIO_INTERRUP
 82f0 545f5249 53455f45 4e41424c 45203078  T_RISE_ENABLE 0x
 8300 32300053 59535445 4d5f504c 49435f43  20.SYSTEM_PLIC_C
 8310 54524c20 30786638 63303030 3030005f  TRL 0xf8c00000._
 8320 5f464c54 3332585f 4d414e54 5f444947  _FLT32X_MANT_DIG
 8330 5f5f2035 33006273 705f696e 69742829  __ 53.bsp_init()
 8340 207b7d00 5f5f5743 4841525f 57494454   {}.__WCHAR_WIDT
 8350 485f5f20 3332005f 4e45574c 49425f41  H__ 32._NEWLIB_A
 8360 4c4c4f43 415f4820 005f5f73 676c7565  LLOCA_H .__sglue
 8370 005f5f43 4f4e4341 5428782c 7929205f  .__CONCAT(x,y) _
 8380 5f434f4e 43415431 28782c79 29005f5f  _CONCAT1(x,y).__
 8390 494e5431 365f4328 63292063 005f5f76  INT16_C(c) c.__v
 83a0 615f6c69 73745f5f 20005f66 6e617267  a_list__ ._fnarg
 83b0 73005f5f 50545244 4946465f 57494454  s.__PTRDIFF_WIDT
 83c0 485f5f20 33320073 686f7274 202b3100  H__ 32.short +1.
 83d0 5f5f746d 5f697364 7374005f 5f444551  __tm_isdst.__DEQ
 83e0 55414c49 46592874 7970652c 76617229  UALIFY(type,var)
 83f0 20282874 79706529 285f5f75 696e7470   ((type)(__uintp
 8400 74725f74 2928636f 6e737420 766f6c61  tr_t)(const vola
 8410 74696c65 20766f69 64202a29 28766172  tile void *)(var
 8420 2929005f 5245454e 545f494e 49545f50  ))._REENT_INIT_P
 8430 54525f5a 45524f45 44287661 7229207b  TR_ZEROED(var) {
 8440 20287661 72292d3e 5f737464 696e203d   (var)->_stdin =
 8450 205f5245 454e545f 53544449 4f5f5354   _REENT_STDIO_ST
 8460 5245414d 28766172 2c203029 3b202876  REAM(var, 0); (v
 8470 6172292d 3e5f7374 646f7574 203d205f  ar)->_stdout = _
 8480 5245454e 545f5354 44494f5f 53545245  REENT_STDIO_STRE
 8490 414d2876 61722c20 31293b20 28766172  AM(var, 1); (var
 84a0 292d3e5f 73746465 7272203d 205f5245  )->_stderr = _RE
 84b0 454e545f 53544449 4f5f5354 5245414d  ENT_STDIO_STREAM
 84c0 28766172 2c203229 3b202876 6172292d  (var, 2); (var)-
 84d0 3e5f6e65 772e5f72 65656e74 2e5f7261  >_new._reent._ra
 84e0 6e645f6e 65787420 3d20313b 20287661  nd_next = 1; (va
 84f0 72292d3e 5f6e6577 2e5f7265 656e742e  r)->_new._reent.
 8500 5f723438 2e5f7365 65645b30 5d203d20  _r48._seed[0] = 
 8510 5f52414e 4434385f 53454544 5f303b20  _RAND48_SEED_0; 
 8520 28766172 292d3e5f 6e65772e 5f726565  (var)->_new._ree
 8530 6e742e5f 7234382e 5f736565 645b315d  nt._r48._seed[1]
 8540 203d205f 52414e44 34385f53 4545445f   = _RAND48_SEED_
 8550 313b2028 76617229 2d3e5f6e 65772e5f  1; (var)->_new._
 8560 7265656e 742e5f72 34382e5f 73656564  reent._r48._seed
 8570 5b325d20 3d205f52 414e4434 385f5345  [2] = _RAND48_SE
 8580 45445f32 3b202876 6172292d 3e5f6e65  ED_2; (var)->_ne
 8590 772e5f72 65656e74 2e5f7234 382e5f6d  w._reent._r48._m
 85a0 756c745b 305d203d 205f5241 4e443438  ult[0] = _RAND48
 85b0 5f4d554c 545f303b 20287661 72292d3e  _MULT_0; (var)->
 85c0 5f6e6577 2e5f7265 656e742e 5f723438  _new._reent._r48
 85d0 2e5f6d75 6c745b31 5d203d20 5f52414e  ._mult[1] = _RAN
 85e0 4434385f 4d554c54 5f313b20 28766172  D48_MULT_1; (var
 85f0 292d3e5f 6e65772e 5f726565 6e742e5f  )->_new._reent._
 8600 7234382e 5f6d756c 745b325d 203d205f  r48._mult[2] = _
 8610 52414e44 34385f4d 554c545f 323b2028  RAND48_MULT_2; (
 8620 76617229 2d3e5f6e 65772e5f 7265656e  var)->_new._reen
 8630 742e5f72 34382e5f 61646420 3d205f52  t._r48._add = _R
 8640 414e4434 385f4144 443b207d 00454658  AND48_ADD; }.EFX
 8650 5f53454d 49484f53 54494e47 5f482000  _SEMIHOSTING_H .
 8660 5f5f4154 4f4d4943 5f414351 5f52454c  __ATOMIC_ACQ_REL
 8670 2034005f 5f494e54 5f4c4541 5354385f   4.__INT_LEAST8_
 8680 54595045 5f5f2073 69676e65 64206368  TYPE__ signed ch
 8690 6172005f 5f494e54 33325f54 5950455f  ar.__INT32_TYPE_
 86a0 5f206c6f 6e672069 6e74005f 5f706163  _ long int.__pac
 86b0 6b656420 5f5f6174 74726962 7574655f  ked __attribute_
 86c0 5f28285f 5f706163 6b65645f 5f292900  _((__packed__)).
 86d0 5f5f4442 4c5f4d49 4e5f3130 5f455850  __DBL_MIN_10_EXP
 86e0 5f5f2028 2d333037 29004d53 54415455  __ (-307).MSTATU
 86f0 535f4849 45203078 30303030 30303034  S_HIE 0x00000004
 8700 005f5741 4e545f49 4f5f4c4f 4e475f4c  ._WANT_IO_LONG_L
 8710 4f4e4720 31004650 5f494e46 494e4954  ONG 1.FP_INFINIT
 8720 45203100 5f5f4442 4c5f4445 4e4f524d  E 1.__DBL_DENORM
 8730 5f4d494e 5f5f2028 28646f75 626c6529  _MIN__ ((double)
 8740 342e3934 30363536 34353834 31323436  4.94065645841246
 8750 35343431 37363536 38373932 38363832  5441765687928682
 8760 32313337 32652d33 32344c29 00425350  21372e-324L).BSP
 8770 5f434c49 4e542053 59535445 4d5f434c  _CLINT SYSTEM_CL
 8780 494e545f 4354524c 005f5f4c 44424c5f  INT_CTRL.__LDBL_
 8790 4449475f 5f203333 005f5f69 6e743230  DIG__ 33.__int20
 87a0 00636c6b 44697669 64657200 494e545f  .clkDivider.INT_
 87b0 46415354 33325f4d 41582028 5f5f494e  FAST32_MAX (__IN
 87c0 545f4641 53543332 5f4d4158 5f5f2900  T_FAST32_MAX__).
 87d0 5f5f746d 5f6d696e 005f5245 454e545f  __tm_min._REENT_
 87e0 41534354 494d455f 53495a45 20323600  ASCTIME_SIZE 26.
 87f0 494e5450 54525f4d 494e2028 2d5f5f49  INTPTR_MIN (-__I
 8800 4e545054 525f4d41 585f5f20 2d203129  NTPTR_MAX__ - 1)
 8810 00535953 54454d5f 504c4943 5f535953  .SYSTEM_PLIC_SYS
 8820 54454d5f 5350495f 315f494f 5f494e54  TEM_SPI_1_IO_INT
 8830 45525255 50542035 00627370 5f707574  ERRUPT 5.bsp_put
 8840 53747269 6e672873 29207561 72745f77  String(s) uart_w
 8850 72697465 53747228 4253505f 55415254  riteStr(BSP_UART
 8860 5f544552 4d494e41 4c2c2073 293b005f  _TERMINAL, s);._
 8870 56415f4c 4953545f 20005f50 4f534958  VA_LIST_ ._POSIX
 8880 5f435f53 4f555243 45005f5f 55494e54  _C_SOURCE.__UINT
 8890 4d41585f 4d41585f 5f203078 66666666  MAX_MAX__ 0xffff
 88a0 66666666 66666666 66666666 554c4c00  ffffffffffffULL.
 88b0 5f5f4442 4c5f4d41 4e545f44 49475f5f  __DBL_MANT_DIG__
 88c0 20353300 5f5f756e 626f756e 64656420   53.__unbounded 
 88d0 005f5241 4e443438 5f534545 445f3220  ._RAND48_SEED_2 
 88e0 28307831 32333429 005f5f53 59535f4c  (0x1234).__SYS_L
 88f0 4f434b5f 485f5f20 005f5245 454e545f  OCK_H__ ._REENT_
 8900 494e4954 5f415445 58495420 5f4e554c  INIT_ATEXIT _NUL
 8910 4c2c205f 41544558 49545f49 4e49542c  L, _ATEXIT_INIT,
 8920 005f4743 435f5349 5a455f54 20004249  ._GCC_SIZE_T .BI
 8930 545f3237 20283120 3c3c2032 3729005f  T_27 (1 << 27)._
 8940 5f494e54 5f4d4158 5f5f2030 78376666  _INT_MAX__ 0x7ff
 8950 66666666 66005f5f 55494e54 31365f4d  fffff.__UINT16_M
 8960 41585f5f 20307866 66666600 5f524545  AX__ 0xffff._REE
 8970 4e545f49 4e495428 76617229 207b2030  NT_INIT(var) { 0
 8980 2c205f52 45454e54 5f535444 494f5f53  , _REENT_STDIO_S
 8990 54524541 4d282628 76617229 2c203029  TREAM(&(var), 0)
 89a0 2c205f52 45454e54 5f535444 494f5f53  , _REENT_STDIO_S
 89b0 54524541 4d282628 76617229 2c203129  TREAM(&(var), 1)
 89c0 2c205f52 45454e54 5f535444 494f5f53  , _REENT_STDIO_S
 89d0 54524541 4d282628 76617229 2c203229  TREAM(&(var), 2)
 89e0 2c20302c 2022222c 20302c20 5f4e554c  , 0, "", 0, _NUL
 89f0 4c2c2030 2c205f4e 554c4c2c 205f4e55  L, 0, _NULL, _NU
 8a00 4c4c2c20 302c205f 4e554c4c 2c205f4e  LL, 0, _NULL, _N
 8a10 554c4c2c 20302c20 5f4e554c 4c2c207b  ULL, 0, _NULL, {
 8a20 207b2030 2c205f4e 554c4c2c 2022222c   { 0, _NULL, "",
 8a30 207b302c 20302c20 302c2030 2c20302c   {0, 0, 0, 0, 0,
 8a40 20302c20 302c2030 2c20307d 2c20302c   0, 0, 0, 0}, 0,
 8a50 20312c20 7b207b5f 52414e44 34385f53   1, { {_RAND48_S
 8a60 4545445f 302c205f 52414e44 34385f53  EED_0, _RAND48_S
 8a70 4545445f 312c205f 52414e44 34385f53  EED_1, _RAND48_S
 8a80 4545445f 327d2c20 7b5f5241 4e443438  EED_2}, {_RAND48
 8a90 5f4d554c 545f302c 205f5241 4e443438  _MULT_0, _RAND48
 8aa0 5f4d554c 545f312c 205f5241 4e443438  _MULT_1, _RAND48
 8ab0 5f4d554c 545f327d 2c205f52 414e4434  _MULT_2}, _RAND4
 8ac0 385f4144 44207d2c 207b302c 207b307d  8_ADD }, {0, {0}
 8ad0 7d2c207b 302c207b 307d7d2c 207b302c  }, {0, {0}}, {0,
 8ae0 207b307d 7d2c2022 222c2022 222c2030   {0}}, "", "", 0
 8af0 2c207b30 2c207b30 7d7d2c20 7b302c20  , {0, {0}}, {0, 
 8b00 7b307d7d 2c207b30 2c207b30 7d7d2c20  {0}}, {0, {0}}, 
 8b10 7b302c20 7b307d7d 2c207b30 2c207b30  {0, {0}}, {0, {0
 8b20 7d7d207d 207d2c20 5f524545 4e545f49  }} } }, _REENT_I
 8b30 4e49545f 41544558 4954205f 4e554c4c  NIT_ATEXIT _NULL
 8b40 2c207b5f 4e554c4c 2c20302c 205f4e55  , {_NULL, 0, _NU
 8b50 4c4c7d20 7d005f5f 616c7761 79735f69  LL} }.__always_i
 8b60 6e6c696e 65205f5f 696e6c69 6e655f5f  nline __inline__
 8b70 205f5f61 74747269 62757465 5f5f2828   __attribute__((
 8b80 5f5f616c 77617973 5f696e6c 696e655f  __always_inline_
 8b90 5f292900 5f5f4c6f 6e67206c 6f6e6700  _)).__Long long.
 8ba0 53595354 454d5f55 5345525f 54494d45  SYSTEM_USER_TIME
 8bb0 525f305f 4354524c 20307866 38303139  R_0_CTRL 0xf8019
 8bc0 30303000 5f5f494e 544d4158 5f432863  000.__INTMAX_C(c
 8bd0 29206320 2323204c 4c002e2e 2f636f6d  ) c ## LL.../com
 8be0 6d6f6e2f 73746172 742e5300 474e5520  mon/start.S.GNU 
 8bf0 41532032 2e333200                    AS 2.32.        
Contents of section .comment:
 0000 4743433a 20287850 61636b20 474e5520  GCC: (xPack GNU 
 0010 52495343 2d562045 6d626564 64656420  RISC-V Embedded 
 0020 4743432c 2036342d 62697429 20382e33  GCC, 64-bit) 8.3
 0030 2e3000                               .0.             
Contents of section .debug_frame:
 0000 0c000000 ffffffff 0100017c 010d0200  ...........|....
 0010 0c000000 00000000 dc7800f9 34000000  .........x..4...
 0020 0c000000 00000000 107900f9 10000000  .........y......
 0030 0c000000 00000000 207900f9 0c000000  ........ y......
 0040 20000000 00000000 2c7900f9 40000000   .......,y..@...
 0050 440e104c 81018802 890360c1 44c844c9  D..L......`.D.D.
 0060 440e0000 1c000000 00000000 6c7900f9  D...........ly..
 0070 48000000 440e1048 81018802 70c144c8  H...D..H....p.D.
 0080 440e0000 20000000 00000000 b47900f9  D... ........y..
 0090 48000000 440e104c 81018802 890368c1  H...D..L......h.
 00a0 44c844c9 440e0000 20000000 00000000  D.D.D... .......
 00b0 fc7900f9 48000000 440e104c 81018802  .y..H...D..L....
 00c0 890368c1 44c844c9 440e0000 0c000000  ..h.D.D.D.......
 00d0 00000000 447a00f9 44000000 1c000000  ....Dz..D.......
 00e0 00000000 887a00f9 44000000 440e1048  .....z..D...D..H
 00f0 81018802 6cc144c8 440e0000 18000000  ....l.D.D.......
 0100 00000000 cc7a00f9 18000000 440e1044  .....z......D..D
 0110 810148c1 440e0000 18000000 00000000  ..H.D...........
 0120 e47a00f9 18000000 440e1044 810148c1  .z......D..D..H.
 0130 440e0000 1c000000 00000000 fc7a00f9  D............z..
 0140 50000000 440e3048 81018802 0238c144  P...D.0H.....8.D
 0150 c8440e00 20000000 00000000 4c7b00f9  .D.. .......L{..
 0160 3c000000 440e104c 81018802 89035cc1  <...D..L......\.
 0170 44c844c9 440e0000 18000000 00000000  D.D.D...........
 0180 887b00f9 1c000000 440e1044 81014cc1  .{......D..D..L.
 0190 440e0000 20000000 00000000 a47b00f9  D... ........{..
 01a0 4c000000 440e104c 81018802 89036cc1  L...D..L......l.
 01b0 44c844c9 440e0000 28000000 00000000  D.D.D...(.......
 01c0 f07b00f9 a4000000 440e2054 81018802  .{......D. T....
 01d0 89039204 93050274 c144c844 c944d244  .......t.D.D.D.D
 01e0 d3440e00 2c000000 00000000 947c00f9  .D..,........|..
 01f0 74000000 440e2058 81018802 89039204  t...D. X........
 0200 93059406 023cc144 c844c944 d244d344  .....<.D.D.D.D.D
 0210 d4440e00 1c000000 00000000 087d00f9  .D...........}..
 0220 8c000000 440e1048 81018802 0274c144  ....D..H.....t.D
 0230 c8440e00 18000000 00000000 947d00f9  .D...........}..
 0240 18000000 440e1044 810148c1 440e0000  ....D..D..H.D...
 0250 0c000000 ffffffff 0100017c 010d0200  ...........|....
 0260 28000000 50020000 587800f9 84000000  (...P...Xx......
 0270 440e1048 88029204 54810189 030250c1  D..H....T.....P.
 0280 44c844c9 44d2440e 00000000           D.D.D.D.....    

Disassembly of section .rom_section.init:

f9007800 <_start>:

_start:
#ifdef USE_GP
.option push
.option norelax
	la gp, __global_pointer$
f9007800:	00080197          	auipc	gp,0x80
f9007804:	7f018193          	addi	gp,gp,2032 # f9087ff0 <__global_pointer$>

f9007808 <init>:
	sw a0, smp_lottery_lock, a1
    ret
#endif

init:
	la sp, _sp
f9007808:	c2018113          	addi	sp,gp,-992 # f9087c10 <__freertos_irq_stack_top>

	/* Load data section */
	la a0, _data_lma
f900780c:	81018513          	addi	a0,gp,-2032 # f9087800 <__init_array_end>
	la a1, _data
f9007810:	81018593          	addi	a1,gp,-2032 # f9087800 <__init_array_end>
	la a2, _edata
f9007814:	81c18613          	addi	a2,gp,-2020 # f908780c <__bss_start>
	bgeu a1, a2, 2f
f9007818:	00c5fc63          	bgeu	a1,a2,f9007830 <init+0x28>
1:
	lw t0, (a0)
f900781c:	00052283          	lw	t0,0(a0)
	sw t0, (a1)
f9007820:	0055a023          	sw	t0,0(a1)
	addi a0, a0, 4
f9007824:	00450513          	addi	a0,a0,4
	addi a1, a1, 4
f9007828:	00458593          	addi	a1,a1,4
	bltu a1, a2, 1b
f900782c:	fec5e8e3          	bltu	a1,a2,f900781c <init+0x14>
2:

	/* Clear bss section */
	la a0, __bss_start
f9007830:	81c18513          	addi	a0,gp,-2020 # f908780c <__bss_start>
	la a1, _end
f9007834:	82018593          	addi	a1,gp,-2016 # f9087810 <_end>
	bgeu a0, a1, 2f
f9007838:	00b57863          	bgeu	a0,a1,f9007848 <init+0x40>
1:
	sw zero, (a0)
f900783c:	00052023          	sw	zero,0(a0)
	addi a0, a0, 4
f9007840:	00450513          	addi	a0,a0,4
	bltu a0, a1, 1b
f9007844:	feb56ce3          	bltu	a0,a1,f900783c <init+0x34>
2:

#ifndef NO_LIBC_INIT_ARRAY
	call __libc_init_array
f9007848:	010000ef          	jal	ra,f9007858 <__libc_init_array>
#endif

	call main
f900784c:	548000ef          	jal	ra,f9007d94 <main>

f9007850 <mainDone>:
mainDone:
    j mainDone
f9007850:	0000006f          	j	f9007850 <mainDone>

f9007854 <_init>:


	.globl _init
_init:
    ret
f9007854:	00008067          	ret

Disassembly of section .rom_section.text:

f9007858 <__libc_init_array>:
f9007858:	ff010113          	addi	sp,sp,-16
f900785c:	00812423          	sw	s0,8(sp)
f9007860:	01212023          	sw	s2,0(sp)
f9007864:	81018413          	addi	s0,gp,-2032 # f9087800 <__init_array_end>
f9007868:	81018913          	addi	s2,gp,-2032 # f9087800 <__init_array_end>
f900786c:	40890933          	sub	s2,s2,s0
f9007870:	00112623          	sw	ra,12(sp)
f9007874:	00912223          	sw	s1,4(sp)
f9007878:	40295913          	srai	s2,s2,0x2
f900787c:	00090e63          	beqz	s2,f9007898 <__libc_init_array+0x40>
f9007880:	00000493          	li	s1,0
f9007884:	00042783          	lw	a5,0(s0)
f9007888:	00148493          	addi	s1,s1,1
f900788c:	00440413          	addi	s0,s0,4
f9007890:	000780e7          	jalr	a5
f9007894:	fe9918e3          	bne	s2,s1,f9007884 <__libc_init_array+0x2c>
f9007898:	81018413          	addi	s0,gp,-2032 # f9087800 <__init_array_end>
f900789c:	81018913          	addi	s2,gp,-2032 # f9087800 <__init_array_end>
f90078a0:	40890933          	sub	s2,s2,s0
f90078a4:	40295913          	srai	s2,s2,0x2
f90078a8:	00090e63          	beqz	s2,f90078c4 <__libc_init_array+0x6c>
f90078ac:	00000493          	li	s1,0
f90078b0:	00042783          	lw	a5,0(s0)
f90078b4:	00148493          	addi	s1,s1,1
f90078b8:	00440413          	addi	s0,s0,4
f90078bc:	000780e7          	jalr	a5
f90078c0:	fe9918e3          	bne	s2,s1,f90078b0 <__libc_init_array+0x58>
f90078c4:	00c12083          	lw	ra,12(sp)
f90078c8:	00812403          	lw	s0,8(sp)
f90078cc:	00412483          	lw	s1,4(sp)
f90078d0:	00012903          	lw	s2,0(sp)
f90078d4:	01010113          	addi	sp,sp,16
f90078d8:	00008067          	ret

f90078dc <clint_uDelay>:
    
        return (((u64)hi) << 32) | lo;
    }
    
    static void clint_uDelay(u32 usec, u32 hz, u32 reg){
        u32 mTimePerUsec = hz/1000000;
f90078dc:	000f47b7          	lui	a5,0xf4
f90078e0:	24078793          	addi	a5,a5,576 # f4240 <__stack_size+0xf3e40>
f90078e4:	02f5d5b3          	divu	a1,a1,a5
    readReg_u32 (clint_getTimeLow , CLINT_TIME_ADDR)
f90078e8:	0000c7b7          	lui	a5,0xc
f90078ec:	ff878793          	addi	a5,a5,-8 # bff8 <__stack_size+0xbbf8>
f90078f0:	00f60633          	add	a2,a2,a5
#include "type.h"
#include "soc.h"


    static inline u32 read_u32(u32 address){
        return *((volatile u32*) address);
f90078f4:	00062783          	lw	a5,0(a2)
        u32 limit = clint_getTimeLow(reg) + usec*mTimePerUsec;
f90078f8:	02a58533          	mul	a0,a1,a0
f90078fc:	00f50533          	add	a0,a0,a5
f9007900:	00062783          	lw	a5,0(a2)
        while((int32_t)(limit-(clint_getTimeLow(reg))) >= 0);
f9007904:	40f507b3          	sub	a5,a0,a5
f9007908:	fe07dce3          	bgez	a5,f9007900 <clint_uDelay+0x24>
    }
f900790c:	00008067          	ret

f9007910 <spi_cmdAvailability>:
f9007910:	00452503          	lw	a0,4(a0)
        u32 ssDisable;
    } Spi_Config;
    
    static u32 spi_cmdAvailability(u32 reg){
        return read_u32(reg + SPI_BUFFER) & 0xFFFF;
    }
f9007914:	01051513          	slli	a0,a0,0x10
f9007918:	01055513          	srli	a0,a0,0x10
f900791c:	00008067          	ret

f9007920 <spi_rspOccupancy>:
f9007920:	00452503          	lw	a0,4(a0)
    static u32 spi_rspOccupancy(u32 reg){
        return read_u32(reg + SPI_BUFFER) >> 16;
    }
f9007924:	01055513          	srli	a0,a0,0x10
f9007928:	00008067          	ret

f900792c <spi_write>:
    
    static void spi_write(u32 reg, u8 data){
f900792c:	ff010113          	addi	sp,sp,-16
f9007930:	00112623          	sw	ra,12(sp)
f9007934:	00812423          	sw	s0,8(sp)
f9007938:	00912223          	sw	s1,4(sp)
f900793c:	00050413          	mv	s0,a0
f9007940:	00058493          	mv	s1,a1
        while(spi_cmdAvailability(reg) == 0);
f9007944:	00040513          	mv	a0,s0
f9007948:	fc9ff0ef          	jal	ra,f9007910 <spi_cmdAvailability>
f900794c:	fe050ce3          	beqz	a0,f9007944 <spi_write+0x18>
        write_u32(data | SPI_CMD_WRITE, reg + SPI_DATA);
f9007950:	1004e493          	ori	s1,s1,256
    }
    
    static inline void write_u32(u32 data, u32 address){
        *((volatile u32*) address) = data;
f9007954:	00942023          	sw	s1,0(s0)
    }
f9007958:	00c12083          	lw	ra,12(sp)
f900795c:	00812403          	lw	s0,8(sp)
f9007960:	00412483          	lw	s1,4(sp)
f9007964:	01010113          	addi	sp,sp,16
f9007968:	00008067          	ret

f900796c <spi_read>:
    
    static u8 spi_read(u32 reg){
f900796c:	ff010113          	addi	sp,sp,-16
f9007970:	00112623          	sw	ra,12(sp)
f9007974:	00812423          	sw	s0,8(sp)
f9007978:	00050413          	mv	s0,a0
        while(spi_cmdAvailability(reg) == 0);
f900797c:	00040513          	mv	a0,s0
f9007980:	f91ff0ef          	jal	ra,f9007910 <spi_cmdAvailability>
f9007984:	fe050ce3          	beqz	a0,f900797c <spi_read+0x10>
f9007988:	20000793          	li	a5,512
f900798c:	00f42023          	sw	a5,0(s0)
        write_u32(SPI_CMD_READ, reg + SPI_DATA);
        while(spi_rspOccupancy(reg) == 0);
f9007990:	00040513          	mv	a0,s0
f9007994:	f8dff0ef          	jal	ra,f9007920 <spi_rspOccupancy>
f9007998:	fe050ce3          	beqz	a0,f9007990 <spi_read+0x24>
        return *((volatile u32*) address);
f900799c:	00042503          	lw	a0,0(s0)
        return read_u32(reg + SPI_DATA);
    }
f90079a0:	0ff57513          	andi	a0,a0,255
f90079a4:	00c12083          	lw	ra,12(sp)
f90079a8:	00812403          	lw	s0,8(sp)
f90079ac:	01010113          	addi	sp,sp,16
f90079b0:	00008067          	ret

f90079b4 <spi_select>:
        write_u32(SPI_CMD_READ, reg + SPI_DATA);
        while(spi_rspOccupancy(reg) == 0);
        return read_u32(reg + SPI_READ_LARGE);
    }
    
    static void spi_select(u32 reg, u32 slaveId){
f90079b4:	ff010113          	addi	sp,sp,-16
f90079b8:	00112623          	sw	ra,12(sp)
f90079bc:	00812423          	sw	s0,8(sp)
f90079c0:	00912223          	sw	s1,4(sp)
f90079c4:	00050413          	mv	s0,a0
f90079c8:	00058493          	mv	s1,a1
        while(spi_cmdAvailability(reg) == 0);
f90079cc:	00040513          	mv	a0,s0
f90079d0:	f41ff0ef          	jal	ra,f9007910 <spi_cmdAvailability>
f90079d4:	fe050ce3          	beqz	a0,f90079cc <spi_select+0x18>
        write_u32(slaveId | 0x80 | SPI_CMD_SS, reg + SPI_DATA);
f90079d8:	000017b7          	lui	a5,0x1
f90079dc:	88078793          	addi	a5,a5,-1920 # 880 <__stack_size+0x480>
f90079e0:	00f4e4b3          	or	s1,s1,a5
        *((volatile u32*) address) = data;
f90079e4:	00942023          	sw	s1,0(s0)
    }
f90079e8:	00c12083          	lw	ra,12(sp)
f90079ec:	00812403          	lw	s0,8(sp)
f90079f0:	00412483          	lw	s1,4(sp)
f90079f4:	01010113          	addi	sp,sp,16
f90079f8:	00008067          	ret

f90079fc <spi_diselect>:
    
    static void spi_diselect(u32 reg, u32 slaveId){
f90079fc:	ff010113          	addi	sp,sp,-16
f9007a00:	00112623          	sw	ra,12(sp)
f9007a04:	00812423          	sw	s0,8(sp)
f9007a08:	00912223          	sw	s1,4(sp)
f9007a0c:	00050413          	mv	s0,a0
f9007a10:	00058493          	mv	s1,a1
        while(spi_cmdAvailability(reg) == 0);
f9007a14:	00040513          	mv	a0,s0
f9007a18:	ef9ff0ef          	jal	ra,f9007910 <spi_cmdAvailability>
f9007a1c:	fe050ce3          	beqz	a0,f9007a14 <spi_diselect+0x18>
        write_u32(slaveId | 0x00 | SPI_CMD_SS, reg + SPI_DATA);
f9007a20:	000017b7          	lui	a5,0x1
f9007a24:	80078793          	addi	a5,a5,-2048 # 800 <__stack_size+0x400>
f9007a28:	00f4e4b3          	or	s1,s1,a5
f9007a2c:	00942023          	sw	s1,0(s0)
    }
f9007a30:	00c12083          	lw	ra,12(sp)
f9007a34:	00812403          	lw	s0,8(sp)
f9007a38:	00412483          	lw	s1,4(sp)
f9007a3c:	01010113          	addi	sp,sp,16
f9007a40:	00008067          	ret

f9007a44 <spi_applyConfig>:
    
    static void spi_applyConfig(u32 reg, Spi_Config *config){
        write_u32((config->cpol << 0) | (config->cpha << 1) | (config->mode << 4), reg + SPI_CONFIG);
f9007a44:	0005a783          	lw	a5,0(a1)
f9007a48:	0045a703          	lw	a4,4(a1)
f9007a4c:	00171713          	slli	a4,a4,0x1
f9007a50:	00e7e7b3          	or	a5,a5,a4
f9007a54:	0085a703          	lw	a4,8(a1)
f9007a58:	00471713          	slli	a4,a4,0x4
f9007a5c:	00e7e7b3          	or	a5,a5,a4
f9007a60:	00f52423          	sw	a5,8(a0)
        write_u32(config->clkDivider, reg + SPI_CLK_DIVIDER);
f9007a64:	00c5a783          	lw	a5,12(a1)
f9007a68:	02f52023          	sw	a5,32(a0)
        write_u32(config->ssSetup, reg + SPI_SS_SETUP);
f9007a6c:	0105a783          	lw	a5,16(a1)
f9007a70:	02f52223          	sw	a5,36(a0)
        write_u32(config->ssHold, reg + SPI_SS_HOLD);
f9007a74:	0145a783          	lw	a5,20(a1)
f9007a78:	02f52423          	sw	a5,40(a0)
        write_u32(config->ssDisable, reg + SPI_SS_DISABLE);
f9007a7c:	0185a783          	lw	a5,24(a1)
f9007a80:	02f52623          	sw	a5,44(a0)
    }
f9007a84:	00008067          	ret

f9007a88 <spi_waitXferBusy>:
    /**
    * Wait for SPI Transfer to complete
    * 
    * @param reg SPI base address 
    */
    static void spi_waitXferBusy(u32 reg){
f9007a88:	ff010113          	addi	sp,sp,-16
f9007a8c:	00112623          	sw	ra,12(sp)
f9007a90:	00812423          	sw	s0,8(sp)
f9007a94:	00050413          	mv	s0,a0
    	bsp_uDelay(1);
f9007a98:	f8b00637          	lui	a2,0xf8b00
f9007a9c:	017d85b7          	lui	a1,0x17d8
f9007aa0:	84058593          	addi	a1,a1,-1984 # 17d7840 <__stack_size+0x17d7440>
f9007aa4:	00100513          	li	a0,1
f9007aa8:	e35ff0ef          	jal	ra,f90078dc <clint_uDelay>
    	while(spi_cmdAvailability(reg) != 256);
f9007aac:	00040513          	mv	a0,s0
f9007ab0:	e61ff0ef          	jal	ra,f9007910 <spi_cmdAvailability>
f9007ab4:	10000793          	li	a5,256
f9007ab8:	fef51ae3          	bne	a0,a5,f9007aac <spi_waitXferBusy+0x24>
    }
f9007abc:	00c12083          	lw	ra,12(sp)
f9007ac0:	00812403          	lw	s0,8(sp)
f9007ac4:	01010113          	addi	sp,sp,16
f9007ac8:	00008067          	ret

f9007acc <spiFlash_select>:
    * Set SPI Flash device Chip Select
    * 
    * @param spi SPI port base address 
    * @param cs 32-bit bitwise setting. Set 1 to enable particular bit. 
    */
    static void spiFlash_select(u32 spi, u32 cs){
f9007acc:	ff010113          	addi	sp,sp,-16
f9007ad0:	00112623          	sw	ra,12(sp)
        spi_select(spi, cs);
f9007ad4:	ee1ff0ef          	jal	ra,f90079b4 <spi_select>
    }
f9007ad8:	00c12083          	lw	ra,12(sp)
f9007adc:	01010113          	addi	sp,sp,16
f9007ae0:	00008067          	ret

f9007ae4 <spiFlash_diselect>:
    * Clear SPI Flash device Chip Select
    * 
    * @param spi SPI port base address 
    * @param cs 32-bit bitwise setting. Set 1 to disable particular bit. 
    */ 
    static void spiFlash_diselect(u32 spi, u32 cs){
f9007ae4:	ff010113          	addi	sp,sp,-16
f9007ae8:	00112623          	sw	ra,12(sp)
        spi_diselect(spi, cs);
f9007aec:	f11ff0ef          	jal	ra,f90079fc <spi_diselect>
    }
f9007af0:	00c12083          	lw	ra,12(sp)
f9007af4:	01010113          	addi	sp,sp,16
f9007af8:	00008067          	ret

f9007afc <spiFlash_init_>:
    /**
    * Initialize SPI port with default settings 
    * 
    * @param spi SPI port base address
    */
    static void spiFlash_init_(u32 spi){
f9007afc:	fd010113          	addi	sp,sp,-48
f9007b00:	02112623          	sw	ra,44(sp)
f9007b04:	02812423          	sw	s0,40(sp)
f9007b08:	00050413          	mv	s0,a0
        Spi_Config spiCfg;
        spiCfg.cpol = 0;
f9007b0c:	00012223          	sw	zero,4(sp)
        spiCfg.cpha = 0;
f9007b10:	00012423          	sw	zero,8(sp)
        spiCfg.mode = 0;
f9007b14:	00012623          	sw	zero,12(sp)
        spiCfg.clkDivider = 2;
f9007b18:	00200793          	li	a5,2
f9007b1c:	00f12823          	sw	a5,16(sp)
        spiCfg.ssSetup = 2;
f9007b20:	00f12a23          	sw	a5,20(sp)
        spiCfg.ssHold = 2;
f9007b24:	00f12c23          	sw	a5,24(sp)
        spiCfg.ssDisable = 2;
f9007b28:	00f12e23          	sw	a5,28(sp)
        spi_applyConfig(spi, &spiCfg);
f9007b2c:	00410593          	addi	a1,sp,4
f9007b30:	f15ff0ef          	jal	ra,f9007a44 <spi_applyConfig>
        spi_waitXferBusy(spi); 
f9007b34:	00040513          	mv	a0,s0
f9007b38:	f51ff0ef          	jal	ra,f9007a88 <spi_waitXferBusy>
    }
f9007b3c:	02c12083          	lw	ra,44(sp)
f9007b40:	02812403          	lw	s0,40(sp)
f9007b44:	03010113          	addi	sp,sp,48
f9007b48:	00008067          	ret

f9007b4c <spiFlash_init>:
    * 
    * @param spi SPI port base address
    * @param gpio GPIO port base address 
    * @param cs 32-bit bitwise chip select setting.
    */
    static void spiFlash_init(u32 spi, u32 cs){
f9007b4c:	ff010113          	addi	sp,sp,-16
f9007b50:	00112623          	sw	ra,12(sp)
f9007b54:	00812423          	sw	s0,8(sp)
f9007b58:	00912223          	sw	s1,4(sp)
f9007b5c:	00050413          	mv	s0,a0
f9007b60:	00058493          	mv	s1,a1
        spiFlash_init_(spi);
f9007b64:	f99ff0ef          	jal	ra,f9007afc <spiFlash_init_>
        spiFlash_diselect(spi, cs);
f9007b68:	00048593          	mv	a1,s1
f9007b6c:	00040513          	mv	a0,s0
f9007b70:	f75ff0ef          	jal	ra,f9007ae4 <spiFlash_diselect>
    }
f9007b74:	00c12083          	lw	ra,12(sp)
f9007b78:	00812403          	lw	s0,8(sp)
f9007b7c:	00412483          	lw	s1,4(sp)
f9007b80:	01010113          	addi	sp,sp,16
f9007b84:	00008067          	ret

f9007b88 <spiFlash_wake_>:
    * Define DEFAULT_ADDRESS_BYTE to include command to return
    * to 3-byte addressing mode. 
    * 
    * @param spi SPI port base address
    */
    static void spiFlash_wake_(u32 spi){
f9007b88:	ff010113          	addi	sp,sp,-16
f9007b8c:	00112623          	sw	ra,12(sp)
        spi_write(spi, 0xAB);
f9007b90:	0ab00593          	li	a1,171
f9007b94:	d99ff0ef          	jal	ra,f900792c <spi_write>
#if defined(DEFAULT_ADDRESS_BYTE) || defined(MX25_FLASH)
        //return to 3-byte addressing
        bsp_uDelay(300);
        spi_write(spi, 0xE9);
#endif
    }
f9007b98:	00c12083          	lw	ra,12(sp)
f9007b9c:	01010113          	addi	sp,sp,16
f9007ba0:	00008067          	ret

f9007ba4 <spiFlash_wake>:
    * Wake up the Spi Flash with chip select
    * 
    * @param spi SPI port base address
    * @param cs 32-bit bitwise chip select setting.
    */
    static void spiFlash_wake(u32 spi, u32 cs){
f9007ba4:	ff010113          	addi	sp,sp,-16
f9007ba8:	00112623          	sw	ra,12(sp)
f9007bac:	00812423          	sw	s0,8(sp)
f9007bb0:	00912223          	sw	s1,4(sp)
f9007bb4:	00050413          	mv	s0,a0
f9007bb8:	00058493          	mv	s1,a1
        spiFlash_select(spi,cs);
f9007bbc:	f11ff0ef          	jal	ra,f9007acc <spiFlash_select>
        spiFlash_wake_(spi);
f9007bc0:	00040513          	mv	a0,s0
f9007bc4:	fc5ff0ef          	jal	ra,f9007b88 <spiFlash_wake_>
        spiFlash_diselect(spi,cs);
f9007bc8:	00048593          	mv	a1,s1
f9007bcc:	00040513          	mv	a0,s0
f9007bd0:	f15ff0ef          	jal	ra,f9007ae4 <spiFlash_diselect>
        spi_waitXferBusy(spi);
f9007bd4:	00040513          	mv	a0,s0
f9007bd8:	eb1ff0ef          	jal	ra,f9007a88 <spi_waitXferBusy>
    }
f9007bdc:	00c12083          	lw	ra,12(sp)
f9007be0:	00812403          	lw	s0,8(sp)
f9007be4:	00412483          	lw	s1,4(sp)
f9007be8:	01010113          	addi	sp,sp,16
f9007bec:	00008067          	ret

f9007bf0 <spiFlash_f2m_>:
    * @param spi SPI port base address
    * @param flashAddress The flash address to read the data
    * @param memoryAddress The RAM address to write the data
    * @param size The size of data to copy
    */
    static void spiFlash_f2m_(u32 spi, u32 flashAddress, u32 memoryAddress, u32 size){
f9007bf0:	fe010113          	addi	sp,sp,-32
f9007bf4:	00112e23          	sw	ra,28(sp)
f9007bf8:	00812c23          	sw	s0,24(sp)
f9007bfc:	00912a23          	sw	s1,20(sp)
f9007c00:	01212823          	sw	s2,16(sp)
f9007c04:	01312623          	sw	s3,12(sp)
f9007c08:	00050913          	mv	s2,a0
f9007c0c:	00058493          	mv	s1,a1
f9007c10:	00060413          	mv	s0,a2
f9007c14:	00068993          	mv	s3,a3
        spi_write(spi, 0x0B);
f9007c18:	00b00593          	li	a1,11
f9007c1c:	d11ff0ef          	jal	ra,f900792c <spi_write>
        spi_write(spi, flashAddress >> 16);
f9007c20:	0104d593          	srli	a1,s1,0x10
f9007c24:	0ff5f593          	andi	a1,a1,255
f9007c28:	00090513          	mv	a0,s2
f9007c2c:	d01ff0ef          	jal	ra,f900792c <spi_write>
        spi_write(spi, flashAddress >>  8);
f9007c30:	0084d593          	srli	a1,s1,0x8
f9007c34:	0ff5f593          	andi	a1,a1,255
f9007c38:	00090513          	mv	a0,s2
f9007c3c:	cf1ff0ef          	jal	ra,f900792c <spi_write>
        spi_write(spi, flashAddress >>  0);
f9007c40:	0ff4f593          	andi	a1,s1,255
f9007c44:	00090513          	mv	a0,s2
f9007c48:	ce5ff0ef          	jal	ra,f900792c <spi_write>
        spi_write(spi, 0);
f9007c4c:	00000593          	li	a1,0
f9007c50:	00090513          	mv	a0,s2
f9007c54:	cd9ff0ef          	jal	ra,f900792c <spi_write>
        uint8_t *ram = (uint8_t *) memoryAddress;
        for(u32 idx = 0;idx < size;idx++){
f9007c58:	00000493          	li	s1,0
f9007c5c:	0134fe63          	bgeu	s1,s3,f9007c78 <spiFlash_f2m_+0x88>
            u8 value = spi_read(spi);
f9007c60:	00090513          	mv	a0,s2
f9007c64:	d09ff0ef          	jal	ra,f900796c <spi_read>
            *ram++ = value;
f9007c68:	00a40023          	sb	a0,0(s0)
        for(u32 idx = 0;idx < size;idx++){
f9007c6c:	00148493          	addi	s1,s1,1
            *ram++ = value;
f9007c70:	00140413          	addi	s0,s0,1
f9007c74:	fe9ff06f          	j	f9007c5c <spiFlash_f2m_+0x6c>
        }
    }
f9007c78:	01c12083          	lw	ra,28(sp)
f9007c7c:	01812403          	lw	s0,24(sp)
f9007c80:	01412483          	lw	s1,20(sp)
f9007c84:	01012903          	lw	s2,16(sp)
f9007c88:	00c12983          	lw	s3,12(sp)
f9007c8c:	02010113          	addi	sp,sp,32
f9007c90:	00008067          	ret

f9007c94 <spiFlash_f2m>:
    * @param cs 32-bit bitwise chip select setting
    * @param flashAddress The flash address to read the data
    * @param memoryAddress The RAM address to write the data
    * @param size The size of data to copy
    */ 
    static void spiFlash_f2m(u32 spi, u32 cs, u32 flashAddress, u32 memoryAddress, u32 size){
f9007c94:	fe010113          	addi	sp,sp,-32
f9007c98:	00112e23          	sw	ra,28(sp)
f9007c9c:	00812c23          	sw	s0,24(sp)
f9007ca0:	00912a23          	sw	s1,20(sp)
f9007ca4:	01212823          	sw	s2,16(sp)
f9007ca8:	01312623          	sw	s3,12(sp)
f9007cac:	01412423          	sw	s4,8(sp)
f9007cb0:	00050413          	mv	s0,a0
f9007cb4:	00058493          	mv	s1,a1
f9007cb8:	00060913          	mv	s2,a2
f9007cbc:	00068993          	mv	s3,a3
f9007cc0:	00070a13          	mv	s4,a4
        spiFlash_select(spi,cs);
f9007cc4:	e09ff0ef          	jal	ra,f9007acc <spiFlash_select>
        spiFlash_f2m_(spi, flashAddress, memoryAddress, size);
f9007cc8:	000a0693          	mv	a3,s4
f9007ccc:	00098613          	mv	a2,s3
f9007cd0:	00090593          	mv	a1,s2
f9007cd4:	00040513          	mv	a0,s0
f9007cd8:	f19ff0ef          	jal	ra,f9007bf0 <spiFlash_f2m_>
        spiFlash_diselect(spi,cs);
f9007cdc:	00048593          	mv	a1,s1
f9007ce0:	00040513          	mv	a0,s0
f9007ce4:	e01ff0ef          	jal	ra,f9007ae4 <spiFlash_diselect>
    }
f9007ce8:	01c12083          	lw	ra,28(sp)
f9007cec:	01812403          	lw	s0,24(sp)
f9007cf0:	01412483          	lw	s1,20(sp)
f9007cf4:	01012903          	lw	s2,16(sp)
f9007cf8:	00c12983          	lw	s3,12(sp)
f9007cfc:	00812a03          	lw	s4,8(sp)
f9007d00:	02010113          	addi	sp,sp,32
f9007d04:	00008067          	ret

f9007d08 <bspMain>:
#define USER_SOFTWARE_SIZE_INST   0x7800
#define USER_SOFTWARE_MEMORY_DATA 0xF9080000
#define USER_SOFTWARE_FLASH_DATA  0x00100000 + ( USER_SOFTWARE_MEMORY_DATA - USER_SOFTWARE_MEMORY_INST )
#define USER_SOFTWARE_SIZE_DATA   0x7800

void bspMain() {
f9007d08:	ff010113          	addi	sp,sp,-16
f9007d0c:	00112623          	sw	ra,12(sp)
f9007d10:	00812423          	sw	s0,8(sp)
#ifndef SIM
	spiFlash_init(SPI, SPI_CS);
f9007d14:	00000593          	li	a1,0
f9007d18:	f8014537          	lui	a0,0xf8014
f9007d1c:	e31ff0ef          	jal	ra,f9007b4c <spiFlash_init>
	spiFlash_wake(SPI, SPI_CS);
f9007d20:	00000593          	li	a1,0
f9007d24:	f8014537          	lui	a0,0xf8014
f9007d28:	e7dff0ef          	jal	ra,f9007ba4 <spiFlash_wake>
	spiFlash_f2m(SPI, SPI_CS, USER_SOFTWARE_FLASH_INST, USER_SOFTWARE_MEMORY_INST, USER_SOFTWARE_SIZE_INST);
f9007d2c:	00008437          	lui	s0,0x8
f9007d30:	80040713          	addi	a4,s0,-2048 # 7800 <__stack_size+0x7400>
f9007d34:	f90006b7          	lui	a3,0xf9000
f9007d38:	00100637          	lui	a2,0x100
f9007d3c:	00000593          	li	a1,0
f9007d40:	f8014537          	lui	a0,0xf8014
f9007d44:	f51ff0ef          	jal	ra,f9007c94 <spiFlash_f2m>
	spiFlash_f2m(SPI, SPI_CS, USER_SOFTWARE_FLASH_DATA, USER_SOFTWARE_MEMORY_DATA, USER_SOFTWARE_SIZE_DATA);
f9007d48:	80040713          	addi	a4,s0,-2048
f9007d4c:	f90806b7          	lui	a3,0xf9080
f9007d50:	00180637          	lui	a2,0x180
f9007d54:	00000593          	li	a1,0
f9007d58:	f8014537          	lui	a0,0xf8014
f9007d5c:	f39ff0ef          	jal	ra,f9007c94 <spiFlash_f2m>
#endif

	asm("fence.i; nop; nop; nop; nop; nop; nop"); 
f9007d60:	0000100f          	fence.i
f9007d64:	00000013          	nop
f9007d68:	00000013          	nop
f9007d6c:	00000013          	nop
f9007d70:	00000013          	nop
f9007d74:	00000013          	nop
f9007d78:	00000013          	nop
	void (*userMain)() = (void (*)())USER_SOFTWARE_MEMORY_INST;
#ifdef SMP
    smp_unlock(userMain);
#endif
	userMain();
f9007d7c:	f90007b7          	lui	a5,0xf9000
f9007d80:	000780e7          	jalr	a5 # f9000000 <__global_pointer$+0xfff78010>
}
f9007d84:	00c12083          	lw	ra,12(sp)
f9007d88:	00812403          	lw	s0,8(sp)
f9007d8c:	01010113          	addi	sp,sp,16
f9007d90:	00008067          	ret

f9007d94 <main>:
///////////////////////////////////////////////////////////////////////////////////
#include "type.h"
#include "bsp.h"
#include "bootloaderConfig.h"

void main() {
f9007d94:	ff010113          	addi	sp,sp,-16
f9007d98:	00112623          	sw	ra,12(sp)
    bsp_init();
    bspMain();
f9007d9c:	f6dff0ef          	jal	ra,f9007d08 <bspMain>
}
f9007da0:	00c12083          	lw	ra,12(sp)
f9007da4:	01010113          	addi	sp,sp,16
f9007da8:	00008067          	ret
