
build/gpioDemo_Trinita.elf:     file format elf32-littleriscv

Contents of section .rom_section.init:
 f9000000 97110800 93810197 17210800 13018118  .........!......
 f9000010 17050800 130505ff 97050800 938585fe  ................
 f9000020 1386c181 63fcc500 83220500 23a05500  ....c...."..#.U.
 f9000030 13054500 93854500 e3e8c5fe 1385c181  ..E...E.........
 f9000040 93850182 6378b500 23200500 13054500  ....cx..# ....E.
 f9000050 e36cb5fe ef000001 ef00c065 6f000000  .l.........eo...
 f9000060 67800000                             g...            
Contents of section .rom_section.text:
 f9000064 130101ff 23248100 23202101 17040800  ....#$..# !.....
 f9000074 130404f9 17090800 130989f8 33098940  ............3..@
 f9000084 23261100 23229100 13592940 630e0900  #&..#"...Y)@c...
 f9000094 93040000 83270400 93841400 13044400  .....'........D.
 f90000a4 e7800700 e31899fe 17040800 130444f5  ..............D.
 f90000b4 17090800 1309c9f4 33098940 13592940  ........3..@.Y)@
 f90000c4 630e0900 93040000 83270400 93841400  c........'......
 f90000d4 13044400 e7800700 e31899fe 8320c100  ..D.......... ..
 f90000e4 03248100 83244100 03290100 13010101  .$...$A..)......
 f90000f4 67800000 03254500 13550501 1375f50f  g....%E..U...u..
 f9000104 67800000 130101ff 23261100 23248100  g.......#&..#$..
 f9000114 23229100 13040500 93840500 13050400  #"..............
 f9000124 eff05ffd e30c05fe 23209400 8320c100  .._.....# ... ..
 f9000134 03248100 83244100 13010101 67800000  .$...$A.....g...
 f9000144 b7470f00 93870724 b3d5f502 b7c70000  .G.....$........
 f9000154 938787ff 3306f600 83270600 3385a502  ....3....'..3...
 f9000164 3305f500 83270600 b307f540 e3dc07fe  3....'.....@....
 f9000174 67800000 130101ff 23261100 93050500  g.......#&......
 f9000184 370501f8 eff01ff8 8320c100 13010101  7........ ......
 f9000194 67800000 130101ff 23261100 23248100  g.......#&..#$..
 f90001a4 13040500 03450400 63080500 13041400  .....E..c.......
 f90001b4 eff05ffc 6ff01fff 8320c100 03248100  .._.o.... ...$..
 f90001c4 13010101 67800000 130101ff 23261100  ....g.......#&..
 f90001d4 23248100 23229100 93040500 1304c001  #$..#"..........
 f90001e4 6f004002 b3d78400 13f7f700 b70708f9  o.@.............
 f90001f4 93870700 b387e700 03c50700 eff09ff7  ................
 f9000204 1304c4ff e35004fe 8320c100 03248100  .....P... ...$..
 f9000214 83244100 13010101 67800000 130101ff  .$A.....g.......
 f9000224 23261100 23248100 23229100 93040500  #&..#$..#"......
 f9000234 1304c001 6f004002 b3d78400 13f7f700  ....o.@.........
 f9000244 b70708f9 93874701 b387e700 03c50700  ......G.........
 f9000254 eff05ff2 1304c4ff e35004fe 8320c100  .._......P... ..
 f9000264 03248100 83244100 13010101 67800000  .$...$A.....g...
 f9000274 130101ff 23261100 1375f50f eff09fef  ....#&...u......
 f9000284 8320c100 13010101 67800000 130101ff  . ......g.......
 f9000294 23261100 eff01ff0 8320c100 13010101  #&....... ......
 f90002a4 67800000 130101fd 23261102 23248102  g.......#&..#$..
 f90002b4 23229102 93040500 63460500 13040100  #"......cF......
 f90002c4 6f00c002 1305d002 eff09ffa b3049040  o..............@
 f90002d4 6ff0dffe 1307a000 b3e7e402 93870703  o...............
 f90002e4 2300f400 b3c4e402 13041400 e39404fe  #...............
 f90002f4 93070100 e300f4fe 6f000001 1304f4ff  ........o.......
 f9000304 03450400 eff0dff6 93070100 e318f4fe  .E..............
 f9000314 8320c102 03248102 83244102 13010103  . ...$...$A.....
 f9000324 67800000 130101ff 23261100 13070000  g.......#&......
 f9000334 93077000 63c0e702 93162700 930700ff  ..p.c.....'.....
 f9000344 b397d700 b377f500 63860700 13071700  .....w..c.......
 f9000354 6ff01ffe eff09fec 8320c100 13010101  o........ ......
 f9000364 67800000 130101ff 23261100 13070000  g.......#&......
 f9000374 93077000 63c0e702 93162700 930700ff  ..p.c.....'.....
 f9000384 b397d700 b377f500 63860700 13071700  .....w..c.......
 f9000394 6ff01ffe eff05fe3 8320c100 13010101  o....._.. ......
 f90003a4 67800000 93952500 b385a500 23a0c500  g.....%.....#...
 f90003b4 67800000 93957500 3385a500 93555600  g.....u.3....UV.
 f90003c4 93952500 3305b500 b7250000 3305b500  ..%.3....%..3...
 f90003d4 93071000 b397c700 638a0600 03260500  ........c....&..
 f90003e4 b3e7c700 2320f500 67800000 03260500  ....# ..g....&..
 f90003f4 93c7f7ff b3f7c700 2320f500 67800000  ........# ..g...
 f9000404 9395c500 b385a500 37052000 b385a500  ........7. .....
 f9000414 23a0c500 67800000 9395c500 b385a500  #...g...........
 f9000424 37052000 13054500 b385a500 03a50500  7. ...E.........
 f9000434 67800000 9395c500 b385a500 37052000  g...........7. .
 f9000444 13054500 b385a500 23a0c500 67800000  ..E.....#...g...
 f9000454 130101fc 232e1100 232c8100 232a9100  ....#...#,..#*..
 f9000464 93040500 2322b102 2324c102 2326d102  ....#"..#$..#&..
 f9000474 2328e102 232af102 232c0103 232e1103  #(..#*..#,..#...
 f9000484 93074102 2326f100 13040000 6f00c001  ..A.#&......o...
 f9000494 8327c100 13874700 2326e100 03a50700  .'....G.#&......
 f90004a4 eff01fdd 13041400 b3878400 03c50700  ................
 f90004b4 6302050c 93075002 6306f506 eff05fdb  c.....P.c....._.
 f90004c4 6ff05ffe 8327c100 13874700 2326e100  o._..'....G.#&..
 f90004d4 03a50700 eff09fdb 6ff0dffc 8327c100  ........o....'..
 f90004e4 13874700 2326e100 03a50700 eff09fdb  ..G.#&..........
 f90004f4 6ff05ffb 8327c100 13874700 2326e100  o._..'....G.#&..
 f9000504 03a50700 eff01fe6 6ff0dff9 8327c100  ........o....'..
 f9000514 13874700 2326e100 03a50700 eff09fe0  ..G.#&..........
 f9000524 6ff05ff8 13041400 b3878400 83c70700  o._.............
 f9000534 e38a07f6 13073006 e38ce7f4 13073007  ......0.......0.
 f9000544 e382e7f8 13074006 e38ae7f8 13078005  ......@.........
 f9000554 e382e7fa 13078007 e38ae7fa 13076006  ..............`.
 f9000564 e392e7fc 370508f9 13058502 eff01fd2  ....7...........
 f9000574 6ff05ff3 8320c101 03248101 83244101  o._.. ...$...$A.
 f9000584 13010104 67800000 130101ff 23261100  ....g.......#&..
 f9000594 13060000 93050000 3705c0f8 eff05fe6  ........7....._.
 f90005a4 93061000 1306c000 93050000 3705c0f8  ............7...
 f90005b4 eff05fe0 13061000 9305c000 3705c0f8  .._.........7...
 f90005c4 eff05fde b76701f8 13071000 23a0e702  .._..g......#...
 f90005d4 b70700f9 9387c775 73905730 b7170000  .......us.W0....
 f90005e4 93870780 73a04730 f3270030 37270000  ....s.G0.'.07'..
 f90005f4 13078780 b3e7e700 73900730 8320c100  ........s..0. ..
 f9000604 13010101 67800000 130101ff 23261100  ....g.......#&..
 f9000614 370508f9 13054507 eff09fe3 6f000000  7.....E.....o...
 f9000624 130101ff 23261100 23248100 93050000  ....#&..#$......
 f9000634 3705c0f8 eff05fde 13040500 63080502  7....._.....c...
 f9000644 9307c000 6312f402 370508f9 13058508  ....c...7.......
 f9000654 eff01fe0 13060400 93050000 3705c0f8  ............7...
 f9000664 eff05fdd 6ff09ffc eff01ffa 8320c100  .._.o........ ..
 f9000674 03248100 13010101 67800000 130101ff  .$......g.......
 f9000684 23261100 f3272034 63d20702 13f7f700  #&...' 4c.......
 f9000694 9307b000 631af700 eff09ff8 8320c100  ....c........ ..
 f90006a4 13010101 67800000 eff01ff6 eff0dff5  ....g...........
 f90006b4 130101ff 23261100 23248100 370508f9  ....#&..#$..7...
 f90006c4 1305450a eff0dfd8 370508f9 1305850b  ..E.....7.......
 f90006d4 eff01fd8 b76701f8 1307e000 23a4e700  .....g......#...
 f90006e4 23a20700 13040000 6f000003 376701f8  #.......o...7g..
 f90006f4 83274700 93c7e700 2322f700 3706b0f8  .'G.....#"..7...
 f9000704 b7757804 9385058c 37850100 1305056a  .ux.....7......j
 f9000714 eff01fa3 13041400 93071003 e3d887fc  ................
 f9000724 370508f9 1305450d eff09fd2 370508f9  7.....E.....7...
 f9000734 1305050f eff0dfd1 370508f9 13050512  ........7.......
 f9000744 eff01fd1 370508f9 13050515 eff05fd0  ....7........._.
 f9000754 eff09fe3 6f000000 130101fc 23201100  ....o.......# ..
 f9000764 23225100 23246100 23267100 2328a100  #"Q.#$a.#&q.#(..
 f9000774 232ab100 232cc100 232ed100 2320e102  #*..#,..#...# ..
 f9000784 2322f102 23240103 23261103 2328c103  #"..#$..#&..#(..
 f9000794 232ad103 232ce103 232ef103 eff01fee  #*..#,..#.......
 f90007a4 83200100 83224100 03238100 8323c100  . ..."A..#...#..
 f90007b4 03250101 83254101 03268101 8326c101  .%...%A..&...&..
 f90007c4 03270102 83274102 03288102 8328c102  .'...'A..(...(..
 f90007d4 032e0103 832e4103 032f8103 832fc103  ......A../.../..
 f90007e4 13010104 73002030                    ....s. 0        
Contents of section .ram_section.data:
 f9080000 30313233 34353637 38394142 43444546  0123456789ABCDEF
 f9080010 00000000 30313233 34353637 38396162  ....0123456789ab
 f9080020 63646566 00000000 3c466c6f 6174696e  cdef....<Floatin
 f9080030 6720706f 696e7420 7072696e 74696e67  g point printing
 f9080040 206e6f74 20656e61 626c652e 20506c65   not enable. Ple
 f9080050 61736520 456e6162 6c652069 74206174  ase Enable it at
 f9080060 20627370 2e682066 69727374 2e2e2e3e   bsp.h first...>
 f9080070 00000000 0d0a2a2a 2a204352 41534820  ......*** CRASH 
 f9080080 2a2a2a0d 0a000000 6770696f 20302069  ***.....gpio 0 i
 f9080090 6e746572 72757074 20726f75 74696e65  nterrupt routine
 f90800a0 200d0a00 6770696f 20302064 656d6f20   ...gpio 0 demo 
 f90800b0 21200d0a 00000000 6f6e626f 61726420  ! ......onboard 
 f90800c0 4c454473 20626c69 6e6b696e 67200d0a  LEDs blinking ..
 f90800d0 00000000 6770696f 20302069 6e746572  ....gpio 0 inter
 f90800e0 72757074 2064656d 6f202120 0d0a0000  rupt demo ! ....
 f90800f0 54693138 30207072 65737320 616e6420  Ti180 press and 
 f9080100 72656c65 61736520 6f6e626f 61726420  release onboard 
 f9080110 62757474 6f6e2073 7734200d 0a000000  button sw4 .....
 f9080120 54693630 20707265 73732061 6e642072  Ti60 press and r
 f9080130 656c6561 7365206f 6e626f61 72642062  elease onboard b
 f9080140 7574746f 6e207377 36200d0a 00000000  utton sw6 ......
 f9080150 54313230 20707265 73732061 6e642072  T120 press and r
 f9080160 656c6561 7365206f 6e626f61 72642062  elease onboard b
 f9080170 7574746f 6e207377 37200d0a 00000000  utton sw7 ......
 f9080180 00000000 00000000 0000               ..........      
Contents of section .debug_info:
 0000 14160000 04000000 00000401 59590000  ............YY..
 0010 0c702100 00af1900 00f80000 f9640600  .p!..........d..
 0020 00000000 00000000 00020106 cb530000  .............S..
 0030 020108d3 50000002 02056908 00000202  ....P.....i.....
 0040 07f05e00 00033b80 0000094d 18510000  ..^...;....M.Q..
 0050 00020405 85840000 03344300 00094f19  .........4C...O.
 0060 64000000 02040710 18000002 0805be46  d..............F
 0070 00000208 07806c00 00040405 696e7400  ......l.....int.
 0080 020407c2 1f000003 3d800000 0a2c1345  ........=....,.E
 0090 00000003 36430000 0a301458 00000005  ....6C...0.X....
 00a0 75333200 121e1593 00000003 a2230000  u32..........#..
 00b0 0b281bb7 00000006 04882200 0003017f  .(........".....
 00c0 00000b63 18ab0000 00021004 7a030000  ...c........z...
 00d0 07d42100 000c6501 17800000 0003207c  ..!...e....... |
 00e0 00000d2e 0e510000 0003d659 00000d74  .....Q.....Y...t
 00f0 0e510000 0003a872 00000d93 17790000  .Q.....r.....y..
 0100 0008040d a5032301 00000990 0f00000d  ......#.........
 0110 a70cd000 000009f4 5900000d a8132301  ........Y.....#.
 0120 0000000a 30000000 33010000 0b800000  ....0...3.......
 0130 0003000c 080da209 57010000 0d345400  ........W....4T.
 0140 000da407 79000000 000ded02 00000da9  ....y...........
 0150 05010100 00040003 64650000 0daa0333  ........de.....3
 0160 0100000e 04030179 00000e16 19640000  .......y.....d..
 0170 0003313c 00000f0c 0d790000 00036c64  ..1<.....y....ld
 0180 00000e23 1b710100 000f703f 0000180e  ...#.q....p?....
 0190 3408e301 00000d99 5100000e 3613e301  4.......Q...6...
 01a0 00000010 5f6b000e 37077900 0000040d  ...._k..7.y.....
 01b0 30720000 0e370b79 00000008 0d584900  0r...7.y.....XI.
 01c0 000e3714 79000000 0c0d6233 00000e37  ..7.y.....b3...7
 01d0 1b790000 0010105f 78000e38 0be90100  .y....._x..8....
 01e0 00140011 04890100 000a6501 0000f901  ..........e.....
 01f0 00000b80 00000000 000f3008 0000240e  ..........0...$.
 0200 3c087c02 00000d42 0800000e 3e097900  <.|....B....>.y.
 0210 0000000d de850000 0e3f0979 00000004  .........?.y....
 0220 0d977d00 000e4009 79000000 080d3650  ..}...@.y.....6P
 0230 00000e41 09790000 000c0d99 1800000e  ...A.y..........
 0240 42097900 0000100d 86720000 0e430979  B.y......r...C.y
 0250 00000014 0db55500 000e4409 79000000  ......U...D.y...
 0260 180d6856 00000e45 09790000 001c0db3  ..hV...E.y......
 0270 8100000e 46097900 00002000 12371100  ....F.y... ..7..
 0280 0008010e 4f08c102 00000da2 8100000e  ....O...........
 0290 500ac102 0000000d 415e0000 0e5109c1  P.......A^...Q..
 02a0 02000080 136a1700 000e530a 65010000  .....j....S.e...
 02b0 00011348 7700000e 560a6501 00000401  ...Hw...V.e.....
 02c0 000a6301 0000d102 00000b80 0000001f  ..c.............
 02d0 00126752 00009001 0e620814 0300000d  ..gR.....b......
 02e0 99510000 0e631214 03000000 0db17500  .Q...c........u.
 02f0 000e6406 79000000 040db425 00000e66  ..d.y......%...f
 0300 091a0300 00080d37 1100000e 671e7c02  .......7....g.|.
 0310 00008800 1104d102 00000a2a 0300002a  ...........*...*
 0320 0300000b 80000000 1f001104 30030000  ............0...
 0330 140fed16 0000080e 7a085903 00000d51  ........z.Y....Q
 0340 6100000e 7b115903 0000000d c7090000  a...{.Y.........
 0350 0e7c0679 00000004 00110430 0000000f  .|.y.......0....
 0360 e07d0000 680eba08 a2040000 105f7000  .}..h........_p.
 0370 0ebb1259 03000000 105f7200 0ebc0779  ...Y....._r....y
 0380 00000004 105f7700 0ebd0779 00000008  ....._w....y....
 0390 0db65100 000ebe09 37000000 0c0de610  ..Q.....7.......
 03a0 00000ebf 09370000 000e105f 6266000e  .....7....._bf..
 03b0 c0113103 0000100d 3d750000 0ec10779  ..1.....=u.....y
 03c0 00000018 0dae3200 000ec80a 63010000  ......2.....c...
 03d0 1c0df703 00000eca 1d260600 00200db4  .........&... ..
 03e0 4b00000e cc1d5006 0000240d 34590000  K.....P...$.4Y..
 03f0 0ecf0d74 06000028 0d722600 000ed009  ...t...(.r&.....
 0400 8e060000 2c105f75 62000ed3 11310300  ....,._ub....1..
 0410 0030105f 7570000e d4125903 00003810  .0._up....Y...8.
 0420 5f757200 0ed50779 0000003c 0d805000  _ur....y...<..P.
 0430 000ed811 94060000 400d3c08 00000ed9  ........@.<.....
 0440 11a40600 0043105f 6c62000e dc113103  .....C._lb....1.
 0450 0000440d b9600000 0edf0779 0000004c  ..D..`.....y...L
 0460 0d243500 000ee00a dd000000 500d5867  .$5.........P.Xg
 0470 00000ee3 12c00400 00540d83 0a00000e  .........T......
 0480 e70c7d01 0000580d 33510000 0ee90e57  ..}...X.3Q.....W
 0490 0100005c 0d8e4b00 000eea09 79000000  ...\..K.....y...
 04a0 640015f5 000000c0 04000016 c0040000  d...............
 04b0 16630100 00161406 00001679 00000000  .c.........y....
 04c0 1104cb04 000017c0 04000018 4c220000  ............L"..
 04d0 28040e65 02081406 00001978 4e00000e  (..e.......xN...
 04e0 67020779 00000000 19992900 000e6c02  g..y......)...l.
 04f0 0b000700 0004191c 1e00000e 6c021400  ............l...
 0500 07000008 19e15000 000e6c02 1e000700  ......P...l.....
 0510 000c19f9 2300000e 6e020879 00000010  ....#...n..y....
 0520 193f4300 000e6f02 08000900 001419b4  .?C...o.........
 0530 2100000e 72020779 00000030 19c22d00  !...r..y...0..-.
 0540 000e7302 16150900 00341926 3a00000e  ..s......4.&:...
 0550 75020779 00000038 197d4000 000e7702  u..y...8.}@...w.
 0560 0a260900 003c19b2 7a00000e 7a0213e3  .&...<..z...z...
 0570 01000040 19927300 000e7b02 07790000  ...@..s...{..y..
 0580 00441958 3900000e 7c0213e3 01000048  .D.X9...|......H
 0590 196f4800 000e7d02 142c0900 004c1918  .oH...}..,...L..
 05a0 0600000e 80020779 00000050 19553500  .......y...P.U5.
 05b0 000e8102 09140600 00541961 5000000e  .........T.aP...
 05c0 a40207db 08000058 1a675200 000ea802  .......X.gR.....
 05d0 13140300 0048011a 9f400000 0ea90212  .....H...@......
 05e0 d1020000 4c011a37 3400000e ad020c3d  ....L..74......=
 05f0 090000dc 021a4c81 00000eb2 0210c106  ......L.........
 0600 0000e002 1a360300 000eb402 0a490900  .....6.......I..
 0610 00ec0200 11041a06 00000201 08d25300  ..............S.
 0620 00171a06 00001104 a2040000 15f50000  ................
 0630 004a0600 0016c004 00001663 01000016  .J.........c....
 0640 4a060000 16790000 00001104 21060000  J....y......!...
 0650 11042c06 000015e9 00000074 06000016  ..,........t....
 0660 c0040000 16630100 0016e900 00001679  .....c.........y
 0670 00000000 11045606 00001579 0000008e  ......V....y....
 0680 06000016 c0040000 16630100 00001104  .........c......
 0690 7a060000 0a300000 00a40600 000b8000  z....0..........
 06a0 00000200 0a300000 00b40600 000b8000  .....0..........
 06b0 00000000 07a86400 000e2401 1a5f0300  ......d...$.._..
 06c0 001b5249 00000c0e 280108fa 06000019  ..RI....(.......
 06d0 99510000 0e2a0111 fa060000 0019d544  .Q...*.........D
 06e0 00000e2b 01077900 00000419 99350000  ...+..y......5..
 06f0 0e2c010b 00070000 08001104 c1060000  .,..............
 0700 1104b406 00001b92 5e00000e 0e440108  ........^....D..
 0710 3f070000 19a05800 000e4501 123f0700  ?.....X...E..?..
 0720 00001919 0c00000e 4601123f 07000006  ........F..?....
 0730 190a7d00 000e4701 123e0000 000c000a  ..}...G..>......
 0740 3e000000 4f070000 0b800000 0002001c  >...O...........
 0750 d00e8502 07640800 0019b61b 00000e87  .....d..........
 0760 02188000 00000019 54130000 0e880212  ........T.......
 0770 14060000 0419f405 00000e89 02106408  ..............d.
 0780 00000819 73160000 0e8a0217 f9010000  ....s...........
 0790 24194846 00000e8b 020f7900 00004819  $.HF......y...H.
 07a0 94510000 0e8c022c 72000000 5019cd65  .Q.....,r...P..e
 07b0 00000e8d 021a0607 00005819 826d0000  ..........X..m..
 07c0 0e8e0216 57010000 6819c35a 00000e8f  ....W...h..Z....
 07d0 02165701 00007019 0b510000 0e900216  ..W...p..Q......
 07e0 57010000 78198408 00000e91 02107408  W...x.........t.
 07f0 00008019 633e0000 0e920210 84080000  ....c>..........
 0800 88190c0c 00000e93 020f7900 0000a019  ..........y.....
 0810 ae130000 0e940216 57010000 a4194526  ........W.....E&
 0820 00000e95 02165701 0000ac19 7f7f0000  ......W.........
 0830 0e960216 57010000 b419ea4f 00000e97  ....W......O....
 0840 02165701 0000bc19 8e4a0000 0e980216  ..W......J......
 0850 57010000 c419764e 00000e99 02087900  W.....vN......y.
 0860 0000cc00 0a1a0600 00740800 000b8000  .........t......
 0870 00001900 0a1a0600 00840800 000b8000  ................
 0880 00000700 0a1a0600 00940800 000b8000  ................
 0890 00001700 1cf00e9e 0207bb08 000019ab  ................
 08a0 7700000e a1021bbb 08000000 19cb4500  w.............E.
 08b0 000ea202 18cb0800 0078000a 59030000  .........x..Y...
 08c0 cb080000 0b800000 001d000a 80000000  ................
 08d0 db080000 0b800000 001d001d f00e8302  ................
 08e0 03000900 001e4c22 00000e9a 020b4f07  ......L"......O.
 08f0 00001e9a 2300000e a3020b94 08000000  ....#...........
 0900 0a1a0600 00100900 000b8000 00001800  ................
 0910 1f3e4500 00110410 09000020 26090000  .>E........ &...
 0920 16c00400 00001104 1b090000 1104e301  ................
 0930 0000203d 09000016 79000000 00110443  .. =....y......C
 0940 09000011 04320900 000ab406 00005909  .....2........Y.
 0950 00000b80 00000002 00215610 00000e33  .........!V....3
 0960 0317c004 00002156 7200000e 34031dc6  ......!Vr...4...
 0970 04000022 6e710000 10670e14 06000002  ..."nq...g......
 0980 04047b7d 00000208 047f0300 00236143  ..{}.........#aC
 0990 00000504 79000000 115f0206 ad090000  ....y...._......
 09a0 24e92400 007f25ba 4f000000 0021753b  $.$...%.O....!u;
 09b0 00001168 02238d09 0000262d 17000007  ...h.#....&-....
 09c0 7106b406 00f9a800 0000019c b70b0000  q...............
 09d0 27000000 008f0a00 00286900 07780e79  '........(i..x.y
 09e0 00000000 00000029 08110000 f00600f9  .......)........
 09f0 08000000 07791f1f 0a00002a 19110000  .....y.....*....
 0a00 1f000000 2bfd1500 00f00600 f9080000  ....+...........
 0a10 00082705 2a0a1600 00370000 00000029  ..'.*....7.....)
 0a20 e2100000 fc0600f9 04000000 07790969  .............y.i
 0a30 0a00002a fb100000 4f000000 2aef1000  ...*....O...*...
 0a40 00620000 002bd715 0000fc06 00f90400  .b...+..........
 0a50 00000828 052af015 00007a00 00002ae4  ...(.*....z...*.
 0a60 1500004f 00000000 002c1807 00f93814  ...O.....,....8.
 0a70 00002d01 5a050ca0 8601002d 015b050c  ..-.Z......-.[..
 0a80 c0687804 2d015c05 118080c0 45000029  .hx.-.\.....E..)
 0a90 bc100000 d80600f9 0c000000 077605d9  .............v..
 0aa0 0a00002a d5100000 92000000 2ac91000  ...*........*...
 0ab0 00a60000 002bd715 0000d806 00f90c00  .....+..........
 0ac0 0000082a 052af015 0000be00 00002ae4  ...*.*........*.
 0ad0 15000092 00000000 0029e210 0000e406  .........)......
 0ae0 00f90400 00000777 05230b00 002afb10  .......w.#...*..
 0af0 0000d600 00002aef 100000ea 0000002b  ......*........+
 0b00 d7150000 e40600f9 04000000 0828052a  .............(.*
 0b10 f0150000 02010000 2ae41500 00d60000  ........*.......
 0b20 0000002e cc0600f9 26110000 3a0b0000  ........&...:...
 0b30 2d015a05 03a40008 f9002ed8 0600f926  -.Z............&
 0b40 11000051 0b00002d 015a0503 b80008f9  ...Q...-.Z......
 0b50 002e3007 00f92611 0000680b 00002d01  ..0...&...h...-.
 0b60 5a0503d4 0008f900 2e3c0700 f9261100  Z........<...&..
 0b70 007f0b00 002d015a 0503f000 08f9002e  .....-.Z........
 0b80 480700f9 26110000 960b0000 2d015a05  H...&.......-.Z.
 0b90 03200108 f9002e54 0700f926 110000ad  . .....T...&....
 0ba0 0b00002d 015a0503 500108f9 002f5807  ...-.Z..P..../X.
 0bb0 00f9e40c 00000026 ce6a0000 076c060c  .......&.j...l..
 0bc0 0600f918 00000001 9ce10b00 002c2006  ............., .
 0bd0 00f92611 00002d01 5a050374 0008f900  ..&...-.Z..t....
 0be0 00262e2a 0000075e 06240600 f95c0000  .&.*...^.$...\..
 0bf0 00019c64 0c000030 c4550000 075f0e93  ...d...0.U..._..
 0c00 0000001a 0100002e 3c0600f9 7e0e0000  ........<...~...
 0c10 220c0000 2d015a04 4d46241f 2d015b01  "...-.Z.MF$.-.[.
 0c20 30002e58 0600f926 11000039 0c00002d  0..X...&...9...-
 0c30 015a0503 880008f9 002e6806 00f9160e  .Z........h.....
 0c40 00005a0c 00002d01 5a044d46 241f2d01  ..Z...-.Z.MF$.-.
 0c50 5b01302d 015c0278 00002f70 0600f9b7  [.0-.\.x../p....
 0c60 0b000000 26341a00 00075006 800600f9  ....&4....P.....
 0c70 34000000 019ce40c 0000307f 72000007  4.........0.r...
 0c80 510d8700 00003801 0000306f 7b000007  Q.....8...0o{...
 0c90 520d8700 00005601 00003080 72000007  R.....V...0.r...
 0ca0 530d8700 00008201 00003188 0600f904  S.........1.....
 0cb0 000000c8 0c000028 5f5f7600 07511664  .......(__v..Q.d
 0cc0 00000038 01000000 2fa00600 f9e10b00  ...8..../.......
 0cd0 002fb006 00f9b70b 00002fb4 0600f9b7  ./......../.....
 0ce0 0b000000 262c3a00 00073f06 8c0500f9  ....&,:...?.....
 0cf0 80000000 019c160e 000031d4 0500f90c  ..........1.....
 0d00 00000018 0d000028 5f5f7600 07490564  .......(__v..I.d
 0d10 000000be 01000000 31e00500 f90c0000  ........1.......
 0d20 00340d00 00325f5f 7600074b 05640000  .4...2__v..K.d..
 0d30 00000800 31ec0500 f9140000 006a0d00  ....1........j..
 0d40 00335f5f 7600074c 05640000 00015f34  .3__v..L.d...._4
 0d50 ec0500f9 04000000 285f5f76 00074c05  ........(__v..L.
 0d60 64000000 d1010000 00002996 100000c8  d.........).....
 0d70 0500f90c 00000007 4605b40d 00002aaf  ........F.....*.
 0d80 100000e4 0100002a a3100000 f8010000  .......*........
 0d90 2bd71500 00c80500 f90c0000 00082c05  +.............,.
 0da0 2af01500 00100200 002ae415 0000e401  *........*......
 0db0 00000000 2ea40500 f9d30e00 00d40d00  ................
 0dc0 002d015a 044d4624 1f2d015b 01302d01  .-.Z.MF$.-.[.0-.
 0dd0 5c013000 2eb80500 f93b0f00 00f90d00  \.0......;......
 0de0 002d015a 044d4624 1f2d015b 01302d01  .-.Z.MF$.-.[.0-.
 0df0 5c013c2d 015d0131 002cc805 00f93010  \.<-.].1.,....0.
 0e00 00002d01 5a044d46 241f2d01 5b013c2d  ..-.Z.MF$.-.[.<-
 0e10 015c0131 00003504 45000006 42113804  .\.1..5.E...B.8.
 0e20 00f91c00 0000019c 7e0e0000 36fc7800  ........~...6.x.
 0e30 00064222 9f000000 28020000 36713a00  ..B"....(...6q:.
 0e40 0006422c 9f000000 49020000 37ca7500  ..B,....I...7.u.
 0e50 00064238 9f000000 015c2bd7 1500004c  ..B8.....\+....L
 0e60 0400f904 00000006 43092af0 1500006a  ........C.*....j
 0e70 0200002a e4150000 7d020000 000038bf  ...*....}.....8.
 0e80 55000006 3e109f00 00001c04 00f91c00  U...>...........
 0e90 0000019c d30e0000 36fc7800 00063e1f  ........6.x...>.
 0ea0 9f000000 90020000 36713a00 00063e29  ........6q:...>)
 0eb0 9f000000 b1020000 2bfd1500 00300400  ........+....0..
 0ec0 f9040000 00063f10 2a0a1600 00d20200  ......?.*.......
 0ed0 00000035 0e670000 06361104 0400f918  ...5.g...6......
 0ee0 00000001 9c3b0f00 0036fc78 00000636  .....;...6.x...6
 0ef0 289f0000 00e50200 0036713a 00000636  (........6q:...6
 0f00 329f0000 00060300 00371767 00000636  2........7.g...6
 0f10 3e9f0000 00015c2b d7150000 140400f9  >.....\+........
 0f20 04000000 0637092a f0150000 27030000  .....7.*....'...
 0f30 2ae41500 003a0300 00000035 8e420000  *....:.....5.B..
 0f40 062d11b8 0300f94c 00000001 9c301000  .-.....L.....0..
 0f50 0036fc78 0000062d 259f0000 004d0300  .6.x...-%....M..
 0f60 0036713a 0000062d 2f9f0000 006e0300  .6q:...-/....n..
 0f70 0036ca75 0000062d 3a9f0000 008f0300  .6.u...-:.......
 0f80 00379742 0000062d 479f0000 00015d39  .7.B...-G.....]9
 0f90 bf170000 062e0d9f 00000001 5a30ad47  ............Z0.G
 0fa0 0000062f 0d9f0000 00c90300 0029fd15  .../.........)..
 0fb0 0000e003 00f90400 00000631 17cb0f00  ...........1....
 0fc0 002a0a16 00001b04 00000029 d7150000  .*.........)....
 0fd0 e80300f9 08000000 06310df2 0f00002a  .........1.....*
 0fe0 f0150000 2e040000 2ae41500 00410400  ........*....A..
 0ff0 000029fd 150000f0 0300f904 00000006  ..).............
 1000 33171010 00002a0a 16000054 04000000  3.....*....T....
 1010 2bd71500 00fc0300 f9040000 0006330d  +.............3.
 1020 3af01500 00015a3a e4150000 015f0000  :.....Z:....._..
 1030 35bc1300 00062511 a80300f9 10000000  5.....%.........
 1040 019c9610 000037fc 78000006 25279f00  ......7.x...%'..
 1050 0000015a 36ca7500 00062531 9f000000  ...Z6.u...%1....
 1060 67040000 37c51300 0006253e 9f000000  g...7.....%>....
 1070 015c2bd7 150000b0 0300f904 00000006  .\+.............
 1080 26092af0 15000088 0400002a e4150000  &.*........*....
 1090 9b040000 00003b7f 3a000008 2c0503bc  ......;.:...,...
 10a0 1000003c 72656700 082c059f 0000003d  ...<reg..,.....=
 10b0 ef020000 082c059f 00000000 3b762a00  .....,......;v*.
 10c0 00082a05 03e21000 003c7265 6700082a  ..*......<reg..*
 10d0 059f0000 003def02 0000082a 059f0000  .....=.....*....
 10e0 00003b21 72000008 28050308 1100003c  ..;!r...(......<
 10f0 72656700 0828059f 0000003d ef020000  reg..(.....=....
 1100 0828059f 00000000 3eb32900 00082705  .(......>.)...'.
 1110 9f000000 03261100 003c7265 67000827  .....&...<reg..'
 1120 059f0000 0000358a 81000005 df115404  ......5.......T.
 1130 00f93801 0000019c b3110000 36696c00  ..8.........6il.
 1140 0005df28 4a060000 ae040000 3f286900  ...(J.......?(i.
 1150 05e10d79 000000da 04000033 61700005  ...y.......3ap..
 1160 e211bd00 00000291 4c2fa804 00f9f012  ........L/......
 1170 00002fc4 0400f9f0 1200002f dc0400f9  ../......../....
 1180 ba120000 2ff40400 f9491200 002f0c05  ..../....I.../..
 1190 00f9b311 00002f24 0500f9fe 1100002c  ....../$.......,
 11a0 740500f9 ba120000 2d015a05 03280008  t.......-.Z..(..
 11b0 f9000035 72560000 05d01168 0300f940  ...5rV.....h...@
 11c0 00000001 9cfe1100 00407661 6c0005d0  .........@val...
 11d0 22790000 00f90400 00286900 05d21179  "y.......(i....y
 11e0 0000001a 05000041 f4160000 05d21379  .......A.......y
 11f0 00000002 2f9c0300 f97b1300 0000354c  ..../....{....5L
 1200 59000005 c1112803 00f94000 0000019c  Y.....(...@.....
 1210 49120000 4076616c 0005c122 79000000  I...@val..."y...
 1220 39050000 28690005 c30d7900 00005a05  9...(i....y...Z.
 1230 000041f4 16000005 c30f7900 0000022f  ..A.......y..../
 1240 5c0300f9 26130000 0035bf57 000005b1  \...&....5.W....
 1250 11a80200 f9800000 00019caa 12000040  ...............@
 1260 76616c00 05b12279 00000079 05000039  val..."y...y...9
 1270 2d320000 05b30eaa 12000002 91502870  -2...........P(p
 1280 0005b40f 14060000 97050000 2ed00200  ................
 1290 f9f01200 00a01200 002d015a 02082d00  .........-.Z..-.
 12a0 2f0c0300 f9f01200 00000a1a 060000ba  /...............
 12b0 1200000b 80000000 1f003517 59000005  ..........5.Y...
 12c0 aa119002 00f91800 0000019c f0120000  ................
 12d0 40700005 aa241406 0000cd05 00002c9c  @p...$........,.
 12e0 0200f9d0 1300002d 015a03f3 015a0000  .......-.Z...Z..
 12f0 35b25700 0005a511 740200f9 1c000000  5.W.....t.......
 1300 019c2613 00004063 0005a522 79000000  ..&...@c..."y...
 1310 ee050000 2c840200 f9fe1300 002d015a  ....,........-.Z
 1320 03f3015a 00003500 08000004 7f112002  ...Z..5....... .
 1330 00f95400 0000019c 7b130000 4076616c  ..T.....{...@val
 1340 00047f2d 93000000 0f060000 41350800  ...-........A5..
 1350 00048116 93000000 08343402 00f92c00  .........44...,.
 1360 00002869 00048416 79000000 3b060000  ..(i....y...;...
 1370 2f580200 f9fe1300 00000035 8f6d0000  /X.........5.m..
 1380 047511cc 0100f954 00000001 9cd01300  .u.....T........
 1390 00407661 6c000475 27930000 005a0600  .@val..u'....Z..
 13a0 00413508 00000477 12930000 000834e0  .A5....w......4.
 13b0 0100f92c 00000028 6900047a 12790000  ...,...(i..z.y..
 13c0 00860600 002f0402 00f9fe13 00000000  ...../..........
 13d0 35ac1400 00046911 980100f9 34000000  5.....i.....4...
 13e0 019cfe13 00004070 00046922 14060000  ......@p..i"....
 13f0 a5060000 2fb80100 f9fe1300 0000352c  ..../.........5,
 1400 66000004 61117801 00f92000 0000019c  f...a.x... .....
 1410 38140000 36718100 0004611f 1a060000  8...6q....a.....
 1420 c3060000 2c8c0100 f9241500 002d015a  ....,....$...-.Z
 1430 05118080 84400000 35552f00 00033711  .....@..5U/...7.
 1440 440100f9 34000000 019c0615 000036dc  D...4.........6.
 1450 54000003 37229f00 0000e406 00004068  T...7"........@h
 1460 7a000337 2c9f0000 00050700 00407265  z..7,........@re
 1470 67000337 349f0000 00260700 00395651  g..74....&...9VQ
 1480 00000338 0d9f0000 00015b39 7d300000  ...8......[9}0..
 1490 03390d9f 00000001 5a290615 00005001  .9......Z)....P.
 14a0 00f91000 00000339 15d11400 002a1715  .......9.....*..
 14b0 00004807 00002bfd 1500005c 0100f904  ..H...+....\....
 14c0 00000003 21052a0a 1600006a 07000000  ....!.*....j....
 14d0 002b0615 00006801 00f90400 0000033a  .+....h........:
 14e0 202a1715 00007d07 00002bfd 15000068   *....}...+....h
 14f0 0100f904 00000003 21052a0a 16000094  ........!.*.....
 1500 07000000 00003e2d 27000003 21059f00  ......>-'...!...
 1510 00000324 1500003c 72656700 0321059f  ...$...<reg..!..
 1520 00000000 35b04b00 00013411 080100f9  ....5.K...4.....
 1530 3c000000 019c9215 00004072 65670001  <.........@reg..
 1540 34209f00 0000a707 00003659 67000001  4 ........6Yg...
 1550 342a1a06 0000d307 000029d7 1500002c  4*........)....,
 1560 0100f904 00000001 36098115 00002af0  ........6.....*.
 1570 150000f4 0700002a e4150000 07080000  .......*........
 1580 002c2801 00f99215 00002d01 5a027800  .,(.......-.Z.x.
 1590 0000389e 55000001 2d109f00 0000f800  ..8.U...-.......
 15a0 00f91000 0000019c d7150000 40726567  ............@reg
 15b0 00012d2b 9f000000 1a080000 2bfd1500  ..-+........+...
 15c0 00f80000 f9040000 00012e11 2a0a1600  ............*...
 15d0 003b0800 0000003b f50b0000 02221803  .;.....;....."..
 15e0 fd150000 3d596700 00022226 9f000000  ....=Yg..."&....
 15f0 3d075200 00022230 9f000000 00424f7a  =.R..."0.....BOz
 1600 0000021e 179f0000 00033d07 52000002  ..........=.R...
 1610 1e249f00 00000000 22000000 0200c003  .$......".......
 1620 00000401 2c0e0000 000000f9 640000f9  ....,.......d...
 1630 d2890000 af190000 e4890000 01802200  ..............".
 1640 00000200 d4030000 0401e60e 00005c07  ..............\.
 1650 00f9ec07 00f9f089 0000af19 0000e489  ................
 1660 00000180                             ....            
Contents of section .debug_abbrev:
 0000 01110125 0e130b03 0e1b0e11 01120610  ...%............
 0010 17994217 00000224 000b0b3e 0b030e00  ..B....$...>....
 0020 00031600 030e3a0b 3b0b390b 49130000  ......:.;.9.I...
 0030 0424000b 0b3e0b03 08000005 16000308  .$...>..........
 0040 3a0b3b0b 390b4913 0000060f 000b0b03  :.;.9.I.........
 0050 0e000007 1600030e 3a0b3b05 390b4913  ........:.;.9.I.
 0060 00000817 010b0b3a 0b3b0b39 0b011300  .......:.;.9....
 0070 00090d00 030e3a0b 3b0b390b 49130000  ......:.;.9.I...
 0080 0a010149 13011300 000b2100 49132f0b  ...I......!.I./.
 0090 00000c13 010b0b3a 0b3b0b39 0b011300  .......:.;.9....
 00a0 000d0d00 030e3a0b 3b0b390b 4913380b  ......:.;.9.I.8.
 00b0 00000e0f 000b0b00 000f1301 030e0b0b  ................
 00c0 3a0b3b0b 390b0113 0000100d 0003083a  :.;.9..........:
 00d0 0b3b0b39 0b491338 0b000011 0f000b0b  .;.9.I.8........
 00e0 49130000 12130103 0e0b053a 0b3b0b39  I..........:.;.9
 00f0 0b011300 00130d00 030e3a0b 3b0b390b  ..........:.;.9.
 0100 49133805 00001415 00271900 00151501  I.8......'......
 0110 27194913 01130000 16050049 13000017  '.I........I....
 0120 26004913 00001813 01030e0b 053a0b3b  &.I..........:.;
 0130 05390b01 13000019 0d00030e 3a0b3b05  .9..........:.;.
 0140 390b4913 380b0000 1a0d0003 0e3a0b3b  9.I.8........:.;
 0150 05390b49 13380500 001b1301 030e0b0b  .9.I.8..........
 0160 3a0b3b05 390b0113 00001c13 010b0b3a  :.;.9..........:
 0170 0b3b0539 0b011300 001d1701 0b0b3a0b  .;.9..........:.
 0180 3b05390b 01130000 1e0d0003 0e3a0b3b  ;.9..........:.;
 0190 05390b49 1300001f 1300030e 3c190000  .9.I........<...
 01a0 20150127 19011300 00213400 030e3a0b   ..'.....!4...:.
 01b0 3b05390b 49133f19 3c190000 22340003  ;.9.I.?.<..."4..
 01c0 0e3a0b3b 0b390b49 133f193c 19000023  .:.;.9.I.?.<...#
 01d0 0401030e 3e0b0b0b 49133a0b 3b05390b  ....>...I.:.;.9.
 01e0 01130000 24280003 0e1c0d00 00252800  ....$(.......%(.
 01f0 030e1c0b 0000262e 013f1903 0e3a0b3b  ......&..?...:.;
 0200 0b390b11 01120640 18974219 01130000  .9.....@..B.....
 0210 270b0155 17011300 00283400 03083a0b  '..U.....(4...:.
 0220 3b0b390b 49130217 0000291d 01311311  ;.9.I.....)..1..
 0230 01120658 0b590b57 0b011300 002a0500  ...X.Y.W.....*..
 0240 31130217 00002b1d 01311311 01120658  1.....+..1.....X
 0250 0b590b57 0b00002c 89820101 11013113  .Y.W...,......1.
 0260 00002d8a 82010002 18914218 00002e89  ..-.......B.....
 0270 82010111 01311301 1300002f 89820100  .....1...../....
 0280 11013113 00003034 00030e3a 0b3b0b39  ..1...04...:.;.9
 0290 0b491302 17000031 0b011101 12060113  .I.....1........
 02a0 00003234 0003083a 0b3b0b39 0b49131c  ..24...:.;.9.I..
 02b0 05000033 34000308 3a0b3b0b 390b4913  ...34...:.;.9.I.
 02c0 02180000 340b0111 01120600 00352e01  ....4........5..
 02d0 030e3a0b 3b0b390b 27191101 12064018  ..:.;.9.'.....@.
 02e0 97421901 13000036 0500030e 3a0b3b0b  .B.....6....:.;.
 02f0 390b4913 02170000 37050003 0e3a0b3b  9.I.....7....:.;
 0300 0b390b49 13021800 00382e01 030e3a0b  .9.I.....8....:.
 0310 3b0b390b 27194913 11011206 40189742  ;.9.'.I.....@..B
 0320 19011300 00393400 030e3a0b 3b0b390b  .....94...:.;.9.
 0330 49130218 00003a05 00311302 1800003b  I.....:..1.....;
 0340 2e01030e 3a0b3b0b 390b2719 200b0113  ....:.;.9.'. ...
 0350 00003c05 0003083a 0b3b0b39 0b491300  ..<....:.;.9.I..
 0360 003d0500 030e3a0b 3b0b390b 49130000  .=....:.;.9.I...
 0370 3e2e0103 0e3a0b3b 0b390b27 19491320  >....:.;.9.'.I. 
 0380 0b011300 003f1800 00004005 0003083a  .....?....@....:
 0390 0b3b0b39 0b491302 17000041 3400030e  .;.9.I.....A4...
 03a0 3a0b3b0b 390b4913 1c0b0000 422e0103  :.;.9.I.....B...
 03b0 0e3a0b3b 0b390b27 19491320 0b000000  .:.;.9.'.I. ....
 03c0 01110010 06110112 01030e1b 0e250e13  .............%..
 03d0 05000000 01110010 06110112 01030e1b  ................
 03e0 0e250e13 05000000                    .%......        
Contents of section .debug_loc:
 0000 f0050000 f8050000 0200309f f8050000  ..........0.....
 0010 64060000 01005800 00000000 000000f8  d.....X.........
 0020 05000000 06000006 001180c0 85409f00  .............@..
 0030 00000000 000000f8 05000000 06000006  ................
 0040 001184c0 85409f00 00000000 00000004  .....@..........
 0050 06000008 06000001 005f0000 00000000  ........._......
 0060 00000406 00000806 00000600 1180c085  ................
 0070 409f0000 00000000 00000406 00000806  @...............
 0080 00000600 1184c085 409f0000 00000000  ........@.......
 0090 0000e005 0000ec05 00000200 3e9f0000  ............>...
 00a0 00000000 0000e005 0000ec05 00000600  ................
 00b0 1180c085 409f0000 00000000 0000e005  ....@...........
 00c0 0000ec05 00000600 1188c085 409f0000  ............@...
 00d0 00000000 0000ec05 0000f005 00000200  ................
 00e0 309f0000 00000000 0000ec05 0000f005  0...............
 00f0 00000600 1180c085 409f0000 00000000  ........@.......
 0100 0000ec05 0000f005 00000600 1184c085  ................
 0110 409f0000 00000000 00004805 00008005  @.........H.....
 0120 00000100 58800500 00880500 0001005a  ....X..........Z
 0130 00000000 00000000 94050000 a0050000  ................
 0140 01005fb8 050000bb 05000001 005f0000  .._.........._..
 0150 00000000 00009405 0000a005 00000800  ................
 0160 7f00302d 08ff1a9f b8050000 bb050000  ..0-............
 0170 08007f00 302d08ff 1a9f0000 00000000  ....0-..........
 0180 00009405 00009c05 00000500 7f003f1a  ..............?.
 0190 9f9c0500 00a70500 0001005e b4050000  ...........^....
 01a0 b7050000 01005eb8 050000bb 05000005  ......^.........
 01b0 007f003f 1a9f0000 00000000 0000e404  ...?............
 01c0 0000ec04 00000100 5f000000 00000000  ........_.......
 01d0 00f80400 00040500 0001005f 00000000  ..........._....
 01e0 00000000 d0040000 dc040000 0200319f  ..............1.
 01f0 00000000 00000000 d0040000 dc040000  ................
 0200 06001180 c085409f 00000000 00000000  ......@.........
 0210 d0040000 dc040000 060011a0 c085409f  ..............@.
 0220 00000000 00000000 40030000 4c030000  ........@...L...
 0230 01005a4c 0300005c 03000004 00f3015a  ..ZL...\.......Z
 0240 9f000000 00000000 00400300 00440300  .........@...D..
 0250 0001005b 44030000 5c030000 0400f301  ...[D...\.......
 0260 5b9f0000 00000000 00005403 00005803  [.........T...X.
 0270 00000100 5b000000 00000000 00540300  ....[........T..
 0280 00580300 0001005c 00000000 00000000  .X.....\........
 0290 24030000 30030000 01005a30 03000040  $...0.....Z0...@
 02a0 03000004 00f3015a 9f000000 00000000  .......Z........
 02b0 00240300 00280300 0001005b 28030000  .$...(.....[(...
 02c0 40030000 0400f301 5b9f0000 00000000  @.......[.......
 02d0 00003803 00003c03 00000100 5b000000  ..8...<.....[...
 02e0 00000000 000c0300 00180300 0001005a  ...............Z
 02f0 18030000 24030000 0400f301 5a9f0000  ....$.......Z...
 0300 00000000 00000c03 00001003 00000100  ................
 0310 5b100300 00240300 000400f3 015b9f00  [....$.......[..
 0320 00000000 0000001c 03000020 03000001  ........... ....
 0330 005b0000 00000000 00001c03 00002003  .[............ .
 0340 00000100 5c000000 00000000 00c00200  ....\...........
 0350 00c80200 0001005a c8020000 0c030000  .......Z........
 0360 0400f301 5a9f0000 00000000 0000c002  ....Z...........
 0370 0000c402 00000100 5bc40200 000c0300  ........[.......
 0380 000400f3 015b9f00 00000000 000000c0  .....[..........
 0390 020000ec 02000001 005cec02 0000f802  .........\......
 03a0 00000400 f3015c9f f8020000 fc020000  ......\.........
 03b0 01005cfc 0200000c 03000004 00f3015c  ..\............\
 03c0 9f000000 00000000 00e40200 00f00200  ................
 03d0 0001005f f0020000 f8020000 090031f3  ..._..........1.
 03e0 015c08ff 1a249ff8 02000000 03000001  .\...$..........
 03f0 005f0003 00000403 00000400 7f00209f  ._............ .
 0400 04030000 0c030000 090031f3 015c08ff  ..........1..\..
 0410 1a249f00 00000000 000000e8 020000ec  .$..............
 0420 02000001 005a0000 00000000 0000f002  .....Z..........
 0430 0000f802 00000100 5a000000 00000000  ........Z.......
 0440 00f00200 00f80200 0001005f 00000000  ..........._....
 0450 00000000 f8020000 fc020000 01005a00  ..............Z.
 0460 00000000 000000b0 020000b4 02000001  ................
 0470 005bb402 0000c002 00000400 f3015b9f  .[............[.
 0480 00000000 00000000 b8020000 bc020000  ................
 0490 01005b00 00000000 000000b8 020000bc  ..[.............
 04a0 02000001 005c0000 00000000 00005c03  .....\........\.
 04b0 00009c03 00000100 5a9c0300 008c0400  ........Z.......
 04c0 00010059 8c040000 94040000 0400f301  ...Y............
 04d0 5a9f0000 00000000 00009403 00009c03  Z...............
 04e0 00000200 309f9c03 00008804 00000100  ....0...........
 04f0 58000000 00000000 00700200 00a30200  X........p......
 0500 0001005a a3020000 b0020000 0400f301  ...Z............
 0510 5a9f0000 00000000 00007802 00007c02  Z.........x...|.
 0520 00000200 309f7c02 0000a302 00000100  ....0.|.........
 0530 5e000000 00000000 00300200 00630200  ^........0...c..
 0540 0001005a 63020000 70020000 0400f301  ...Zc...p.......
 0550 5a9f0000 00000000 00003802 00003c02  Z.........8...<.
 0560 00000200 309f3c02 00006302 00000100  ....0.<...c.....
 0570 5e000000 00000000 00b00100 00c80100  ^...............
 0580 0001005a c8010000 28020000 01005900  ...Z....(.....Y.
 0590 00000000 000000c4 010000e0 01000001  ................
 05a0 0052e001 0000e801 00000100 58e80100  .R..........X...
 05b0 00f80100 00030078 019ff801 00002402  .......x......$.
 05c0 00000100 58000000 00000000 00980100  ....X...........
 05d0 00a30100 0001005a a3010000 b0010000  .......Z........
 05e0 0400f301 5a9f0000 00000000 00007c01  ....Z.........|.
 05f0 00008801 00000100 5a880100 00980100  ........Z.......
 0600 000400f3 015a9f00 00000000 00000028  .....Z.........(
 0610 01000044 01000001 005a4401 00007401  ...D.....ZD...t.
 0620 00000100 59740100 007c0100 000400f3  ....Yt...|......
 0630 015a9f00 00000000 0000003c 01000044  .Z.........<...D
 0640 01000002 004c9f44 01000070 01000001  .....L.D...p....
 0650 00580000 00000000 0000d400 0000f000  .X..............
 0660 00000100 5af00000 00200100 00010059  ....Z.... .....Y
 0670 20010000 28010000 0400f301 5a9f0000   ...(.......Z...
 0680 00000000 0000e800 0000f000 00000200  ................
 0690 4c9ff000 00001c01 00000100 58000000  L...........X...
 06a0 00000000 00a00000 00b00000 0001005a  ...............Z
 06b0 b0000000 cc000000 01005800 00000000  ..........X.....
 06c0 00000080 00000090 00000001 005a9000  .............Z..
 06d0 0000a000 00000400 f3015a9f 00000000  ..........Z.....
 06e0 00000000 4c000000 6c000000 01005a6c  ....L...l.....Zl
 06f0 00000080 00000004 00f3015a 9f000000  ...........Z....
 0700 00000000 004c0000 00580000 0001005b  .....L...X.....[
 0710 58000000 80000000 0400f301 5b9f0000  X...........[...
 0720 00000000 00004c00 00006400 00000100  ......L...d.....
 0730 5c640000 00800000 0005007c 88807d9f  \d.........|..}.
 0740 00000000 00000000 58000000 64000000  ........X...d...
 0750 01005c64 00000068 00000005 007c8880  ..\d...h.....|..
 0760 7d9f0000 00000000 00006400 00006800  }.........d...h.
 0770 00000100 5c000000 00000000 00700000  ....\........p..
 0780 00740000 0005007c 88807d9f 00000000  .t.....|..}.....
 0790 00000000 70000000 74000000 01005c00  ....p...t.....\.
 07a0 00000000 00000010 00000028 00000001  ...........(....
 07b0 005a2800 00004000 00000100 58400000  .Z(...@.....X@..
 07c0 004c0000 000400f3 015a9f00 00000000  .L.......Z......
 07d0 00000010 00000028 00000001 005b2800  .......(.....[(.
 07e0 00004c00 00000400 f3015b9f 00000000  ..L.......[.....
 07f0 00000000 34000000 38000000 01005800  ....4...8.....X.
 0800 00000000 00000034 00000038 00000001  .......4...8....
 0810 00590000 00000000 00000000 00000400  .Y..............
 0820 00000100 5a040000 00100000 000400f3  ....Z...........
 0830 015a9f00 00000000 00000000 00000004  .Z..............
 0840 00000003 007a049f 00000000 00000000  .....z..........
Contents of section .debug_aranges:
 0000 1c000000 02000000 00000400 00000000  ................
 0010 f80000f9 64060000 00000000 00000000  ....d...........
 0020 1c000000 02001816 00000400 00000000  ................
 0030 000000f9 64000000 00000000 00000000  ....d...........
 0040 1c000000 02003e16 00000400 00000000  ......>.........
 0050 5c0700f9 90000000 00000000 00000000  \...............
Contents of section .debug_ranges:
 0000 f0050000 f8050000 f8050000 04060000  ................
 0010 04060000 2c060000 00000000 00000000  ....,...........
Contents of section .debug_macro:
 0000 04000200 00000007 e7010000 03000703  ................
 0010 2713050a 540e0000 030c0905 06e15400  '...T.........T.
 0020 00030814 0516e823 0000031c 15074709  .......#......G.
 0030 00000407 69090000 0407f709 00000403  ....i...........
 0040 0d160748 0a000004 030e0a07 4b0b0000  ...H........K...
 0050 0407b50b 00000403 2804032c 1707940d  ........(..,....
 0060 00000403 2d01031a 12071e0f 00000403  ....-...........
 0070 1b02031b 170407e2 0f000004 07f20f00  ................
 0080 0004032e 03070e10 00000403 31180529  ............1..)
 0090 30840000 032d1903 1b1a0724 10000004  0....-.....$....
 00a0 07dc1100 00040530 09550000 0407f211  .......0.U......
 00b0 000003a4 0105032a 0b07a412 00000403  .......*........
 00c0 2b100508 59690000 030a1b07 fc120000  +...Yi..........
 00d0 04030b1c 0508704a 0000030a 1d071513  ......pJ........
 00e0 00000403 0b1e0502 f6450000 03041b04  .........E......
 00f0 07671300 0004079b 13000004 07cf1300  .g..............
 0100 0003100c 07e51300 00040312 0e050bb8  ................
 0110 4e000003 0d1c0403 0e0c07f3 14000004  N...............
 0120 030f0d07 80150000 03180c07 96150000  ................
 0130 04031b1f 0506ed76 00000407 d9150000  .......v........
 0140 04070d16 00000322 0f071d16 00000407  ......."........
 0150 6f160000 04031320 052bf220 0000032f  o...... .+. .../
 0160 0c0407f1 17000004 03142105 02fe2300  ..........!...#.
 0170 00040316 22072a1b 00000407 401b0000  ....".*.....@...
 0180 04032d11 05038c61 00000307 1b040769  ..-....a.......i
 0190 1b000004 032e2307 121d0000 03110c07  ......#.........
 01a0 281d0000 04031424 0504ae05 00000403  (......$........
 01b0 1825051e 43690000 0403af01 26050d01  .%..Ci......&...
 01c0 7c000004 04040403 2a08075d 1d000004  |.......*..]....
 01d0 032c0607 8b1d0000 0405313e 19000005  .,........1>....
 01e0 362a7600 00040004 00000500 56500000  6*v.........VP..
 01f0 0500721e 00000500 13080000 0500ef1f  ..r.............
 0200 00000500 3a590000 05008439 00000500  ....:Y.....9....
 0210 6d670000 05004c1d 00000500 d0780000  mg....L......x..
 0220 0500e46f 00000500 5d210000 0500515b  ...o....]!....Q[
 0230 00000500 923e0000 05004384 00000500  .....>....C.....
 0240 f7040000 05002c3f 00000500 07600000  ......,?.....`..
 0250 05009c79 00000500 b6180000 0500dd05  ...y............
 0260 00000500 68230000 0500ce71 00000500  ....h#.....q....
 0270 51190000 05006d77 00000500 486c0000  Q.....mw....Hl..
 0280 0500a94e 00000500 c3260000 0500e307  ...N.....&......
 0290 00000500 a80d0000 0500f606 00000500  ................
 02a0 364a0000 05008650 00000500 35160000  6J.....P....5...
 02b0 05001007 00000500 655d0000 05005d4a  ........e]....]J
 02c0 00000500 e84a0000 05007268 00000500  .....J....rh....
 02d0 32170000 0500e05e 00000500 00180000  2......^........
 02e0 0500af09 00000500 bd530000 05005a08  .........S....Z.
 02f0 00000500 76840000 0500af46 00000500  ....v......F....
 0300 c4500000 05008f39 00000500 30780000  .P.....9....0x..
 0310 0500706c 00000500 56840000 0500eb7c  ..pl....V......|
 0320 00000500 a55a0000 0500a70f 00000500  .....Z..........
 0330 31130000 05009a5e 00000500 a8670000  1......^.....g..
 0340 05002d3d 00000500 fe140000 05004d5e  ..-=..........M^
 0350 00000500 f53e0000 0500f409 00000500  .....>..........
 0360 ef3a0000 05004d7b 00000500 ad1f0000  .:....M{........
 0370 0500d225 00000500 f63f0000 0500946b  ...%.....?.....k
 0380 00000500 68370000 0500c82b 00000500  ....h7.....+....
 0390 62090000 05000a4f 00000500 0f5d0000  b......O.....]..
 03a0 05004d87 00000500 be7f0000 05001356  ..M............V
 03b0 00000500 b9250000 0500a52f 00000500  .....%...../....
 03c0 935d0000 0500107c 00000500 3b030000  .].....|....;...
 03d0 05001b43 00000500 09100000 05008251  ...C...........Q
 03e0 00000500 7b5b0000 05001041 00000500  ....{[.....A....
 03f0 be440000 05002681 00000500 9d460000  .D....&......F..
 0400 0500a40e 00000500 cb7b0000 0500fd03  .........{......
 0410 00000500 29010000 05009886 00000500  ....)...........
 0420 07160000 0500e206 00000500 015c0000  .............\..
 0430 05005a31 00000500 3f740000 05001639  ..Z1....?t.....9
 0440 00000500 b1720000 0500e63b 00000500  .....r.....;....
 0450 bf3f0000 0500dd28 00000500 64870000  .?.....(....d...
 0460 05000a3a 00000500 74350000 05007836  ...:....t5....x6
 0470 00000500 0c570000 0500987c 00000500  .....W.....|....
 0480 c72a0000 05007b81 00000500 80330000  .*....{......3..
 0490 05005e49 00000500 940d0000 05006519  ..^I..........e.
 04a0 00000500 433c0000 0500071d 00000500  ....C<..........
 04b0 7d380000 0500c631 00000500 4b080000  }8.....1....K...
 04c0 0500001e 00000500 666e0000 0500c137  ........fn.....7
 04d0 00000500 312c0000 0500e25a 00000500  ....1,.....Z....
 04e0 163d0000 05004676 00000500 1d4f0000  .=....Fv.....O..
 04f0 05001e60 00000500 37100000 05003f21  ...`....7.....?!
 0500 00000500 00770000 05001d14 00000500  .....w..........
 0510 a00c0000 0500300f 00000500 ec100000  ......0.........
 0520 05007918 00000500 275b0000 05004e11  ..y.....'[....N.
 0530 00000500 80450000 05005761 00000500  .....E....Wa....
 0540 14500000 05005d39 00000500 c74e0000  .P....]9.....N..
 0550 0500503a 00000500 394c0000 0500ee43  ..P:....9L.....C
 0560 00000500 c93e0000 0500684e 00000500  .....>....hN....
 0570 224c0000 05000d1b 00000500 a2180000  "L..............
 0580 05007920 00000500 7b1b0000 0500b123  ..y ....{......#
 0590 00000500 487c0000 05000529 00000500  ....H|.....)....
 05a0 89540000 05005f07 00000500 96380000  .T...._......8..
 05b0 0500341d 00000500 be860000 05000c6c  ..4............l
 05c0 00000500 35580000 0500b384 00000500  ....5X..........
 05d0 6f3e0000 05000106 00000500 0e240000  o>...........$..
 05e0 0500b632 00000500 7c660000 0500b37e  ...2....|f.....~
 05f0 00000500 3d850000 0500c229 00000500  ....=......)....
 0600 87700000 05006569 00000500 4c550000  .p....ei....LU..
 0610 0500a285 00000500 fe7d0000 0500d067  .........}.....g
 0620 00000500 f6220000 05007361 00000500  ....."....sa....
 0630 a0290000 0500d439 00000500 57460000  .).....9....WF..
 0640 0500137b 00000500 d77f0000 05007317  ...{..........s.
 0650 00000500 de590000 05006530 00000500  .....Y....e0....
 0660 89440000 0500c83c 00000500 24590000  .D.....<....$Y..
 0670 05009f0b 00000500 07540000 05001717  .........T......
 0680 00000500 e20a0000 0500cb07 00000500  ................
 0690 77570000 0500890a 00000500 1b200000  wW........... ..
 06a0 05004f1c 00000500 63760000 0500fe43  ..O.....cv.....C
 06b0 00000500 c82f0000 0500e87d 00000500  ...../.....}....
 06c0 277c0000 0500766e 00000500 390c0000  '|....vn....9...
 06d0 0500d445 00000500 281f0000 0500b80c  ...E....(.......
 06e0 00000500 b45b0000 0500783f 00000500  .....[....x?....
 06f0 976c0000 0500103b 00000500 514e0000  .l.....;....QN..
 0700 0500d402 00000500 01200000 05009c73  ......... .....s
 0710 00000500 fa560000 05004a15 00000500  .....V....J.....
 0720 f0000000 0500e22a 00000500 f94f0000  .......*.....O..
 0730 0500e201 00000500 f1770000 05004324  .........w....C$
 0740 00000500 404f0000 0500886a 00000500  ....@O.....j....
 0750 b8780000 05000d5b 00000500 340e0000  .x.....[....4...
 0760 05000181 00000500 3e5f0000 05007d04  ........>_....}.
 0770 00000500 0a400000 05005037 00000500  .....@....P7....
 0780 9f300000 05004514 00000500 134e0000  .0....E......N..
 0790 0500fb59 00000500 c8680000 0500c81e  ...Y.....h......
 07a0 00000500 b13e0000 05007712 00000500  .....>....w.....
 07b0 7b140000 0500673d 00000500 3b050000  {.....g=....;...
 07c0 0500b80b 00000500 ec390000 0500936f  .........9.....o
 07d0 00000500 ee0f0000 05008959 00000500  ...........Y....
 07e0 b1080000 0500be66 00000500 4d050000  .......f....M...
 07f0 0500ef57 00000500 d5160000 05006832  ...W..........h2
 0800 00000500 df560000 0500c754 00000500  .....V.....T....
 0810 72270000 0500313a 00000500 cc060000  r'....1:........
 0820 05008330 00000500 590f0000 05002104  ...0....Y.....!.
 0830 00000500 3d5c0000 0500fd31 00000500  ....=\.....1....
 0840 2b070000 0500f971 00000500 bd1a0000  +......q........
 0850 05002006 00000500 41340000 05009f51  .. .....A4.....Q
 0860 00000500 d2140000 0500da20 00000500  ........... ....
 0870 c20d0000 0500a020 00000500 0e010000  ....... ........
 0880 0500c76b 00000500 b26b0000 05005d35  ...k.....k....]5
 0890 00000500 a01c0000 0500a601 00000500  ................
 08a0 91160000 05003652 00000500 913d0000  ......6R.....=..
 08b0 0500621d 00000500 6d010000 0500ce2c  ..b.....m......,
 08c0 00000500 90680000 0500df31 00000500  .....h.....1....
 08d0 94450000 0500312f 00000500 c5100000  .E....1/........
 08e0 05002839 00000500 ba240000 05005547  ..(9.....$....UG
 08f0 00000500 9d750000 0500906e 00000500  .....u.....n....
 0900 e6000000 0500c672 00000500 f01a0000  .......r........
 0910 05001b05 00000500 c2600000 0500ce13  .........`......
 0920 00000500 68450000 0500d265 00000500  ....hE.....e....
 0930 2a610000 0500c369 00000500 c8180000  *a.....i........
 0940 05005131 00000004 00000504 dd420000  ..Q1.........B..
 0950 05061877 00000507 e31a0000 0508d34b  ...w...........K
 0960 00000509 8c5b0000 00040000 0521eb11  .....[.......!..
 0970 00000528 57740000 068301a8 78000005  ...(Wt......x...
 0980 8401b63c 00000688 01b23900 00058901  ...<......9.....
 0990 037b0000 068a0188 86000005 8b017a5e  .{............z^
 09a0 0000069e 01b93500 00059f01 d3490000  ......5......I..
 09b0 05f70154 52000005 fd01a45b 00000585  ...TR......[....
 09c0 02c45d00 00058a02 4c540000 059502a7  ..].....LT......
 09d0 1a000005 9902822f 0000059f 02520600  ......./.....R..
 09e0 0005af02 a7000000 05bf0282 73000005  ............s...
 09f0 ca024473 00000004 0000050f 004a0000  ..Ds.........J..
 0a00 051a3c60 00000521 38720000 052f4439  ..<`...!8r.../D9
 0a10 0000053d f0280000 05533346 0000056d  ...=.(...S3F...m
 0a20 c0160000 058c0166 50000005 a601b714  .......fP.......
 0a30 000005bc 01f23400 0005ce01 d9480000  ......4......H..
 0a40 06f401d0 59000000 04000005 0a3f7a00  ....Y........?z.
 0a50 000510e4 49000006 2bd35500 00062c79  ....I...+.U...,y
 0a60 6d000006 2dd25300 00062ead 68000002  m...-.S.....h...
 0a70 2f696e74 000630b2 85000006 31a40500  /int..0.....1...
 0a80 000632aa 09000005 33a73e00 000534a5  ..2.....3.>...4.
 0a90 3e000005 35d46a00 000536aa 81000005  >...5.j...6.....
 0aa0 37b43f00 00053809 64000005 39783a00  7.?...8.d...9x:.
 0ab0 00053a33 80000005 43403700 00054a38  ..:3....C@7...J8
 0ac0 7c000005 52f00800 00055d34 4f000005  |...R.....]4O...
 0ad0 68b27700 000571b8 10000005 78ac7600  h.w...q.....x.v.
 0ae0 00058101 851a0000 05880135 74000005  ...........5t...
 0af0 9301843e 00000597 01fb2a00 0005a201  ...>......*.....
 0b00 c26e0000 05ad01aa 10000005 b6016255  .n............bU
 0b10 000006b8 01d35500 0006b901 796d0000  ......U.....ym..
 0b20 06ba01d2 53000006 bb01ad68 000002bc  ....S......h....
 0b30 01696e74 0006bd01 aa090000 06c201b2  .int............
 0b40 85000006 c301a405 00000004 0000050a  ................
 0b50 4f0e0000 05156a79 00000519 c31b0000  O.....jy........
 0b60 051b4539 00000521 f8320000 05251b6c  ..E9...!.2...%.l
 0b70 00000527 f1280000 052d5d3f 00000531  ...'.(...-]?...1
 0b80 e3030000 05333446 00000539 39810000  .....34F...99...
 0b90 053dc417 0000053f c1160000 0544c35e  .=.....?.....D.^
 0ba0 00000549 655e0000 054e5512 00000553  ...Ie^...NU....S
 0bb0 f3600000 00040000 05176750 0000051d  .`........gP....
 0bc0 b8140000 0523f334 00000529 da480000  .....#.4...).H..
 0bd0 0535e950 0000053f 034b0000 0549870c  .5.P...?.K...I..
 0be0 00000553 ae220000 058001fe 85000005  ...S."..........
 0bf0 81012f6f 00000582 01f91600 00059801  ../o............
 0c00 db0d0000 0599014d 0a000005 9a01a47f  .......M........
 0c10 000005a2 01ba0300 0005a301 ca0f0000  ................
 0c20 05a401ed 70000005 ae016154 000005af  ....p.....aT....
 0c30 011f0c00 0005b001 39470000 05b80182  ........9G......
 0c40 47000005 b9013c09 000005ba 01092c00  G.....<.......,.
 0c50 0005c401 9f360000 05c5015c 2a000005  .....6.....\*...
 0c60 c6016044 000005d4 01ca2d00 0005d501  ..`D......-.....
 0c70 9c2d0000 05d60126 6a000005 e601746f  .-.....&j.....to
 0c80 000005e7 01964b00 0005e801 d1700000  ......K......p..
 0c90 05f6010c 11000005 f7015f0e 000005f8  .........._.....
 0ca0 01945c00 00058602 ec4d0000 0587021a  ..\......M......
 0cb0 22000005 8802ae4d 00000596 02c83500  "......M......5.
 0cc0 00059702 79090000 05980274 07000005  ....y......t....
 0cd0 a6029112 000005a7 02ba8500 0005a802  ................
 0ce0 dc6a0000 05b6024a 16000005 b702ba7a  .j.....J.......z
 0cf0 000005b8 02ab7000 0005c602 402a0000  ......p.....@*..
 0d00 05c70232 1c000005 cf025322 000005d7  ...2......S"....
 0d10 023a0600 0005dd02 82320000 05de02dc  .:.......2......
 0d20 26000005 e202c40a 000005e6 02512500  &............Q%.
 0d30 0005eb02 ed1c0000 05f6029e 42000005  ............B...
 0d40 8003dc44 00000585 033a0000 00058c03  ...D.....:......
 0d50 9b3a0000 058d03e1 71000005 98033b0d  .:......q.....;.
 0d60 00000599 03bb7900 0005a403 ab690000  ......y......i..
 0d70 05a5039f 35000005 b103505f 000005b2  ....5.....P_....
 0d80 03216700 0005c103 37250000 05c203a3  .!g.....7%......
 0d90 59000000 04000005 02182b00 000503fa  Y.........+.....
 0da0 0a000005 049d3100 0005051f 86000005  ......1.........
 0db0 06f22100 00050778 58000005 08577f00  ..!....xX....W..
 0dc0 00050948 5a000005 0aa06500 00050bdd  ...HZ.....e.....
 0dd0 4e000005 0c035f00 00050dee 5f000005  N....._....._...
 0de0 0e685f00 00050fec 5d000005 108b2a00  .h_.....].....*.
 0df0 000511d5 79000005 12571f00 00051385  ....y....W......
 0e00 0e000005 141b0e00 0005156a 53000005  ...........jS...
 0e10 16cc6200 00051788 7b000005 18f72400  ..b.....{.....$.
 0e20 00051952 2b000005 1a535c00 00051b07  ...R+....S\.....
 0e30 85000005 1ce71300 00051d94 02000005  ................
 0e40 1e966100 00051f03 62000005 20696000  ..a.....b... i`.
 0e50 000521ad 28000005 22bc3300 000523c6  ..!.(...".3...#.
 0e60 30000005 240f0900 000525ff 65000005  0...$.....%.e...
 0e70 261f1a00 000527b3 68000005 28533b00  &.....'.h...(S;.
 0e80 00052972 34000005 2a873100 00052b14  ..)r4...*.1...+.
 0e90 38000005 2c635100 00052d4f 4c000005  8...,cQ...-OL...
 0ea0 2ed66c00 00052fe5 80000005 30ba1200  ..l.../.....0...
 0eb0 0005319c 60000005 32b90e00 000533fb  ..1.`...2.....3.
 0ec0 52000005 342c6d00 00053537 7f000005  R...4,m...57....
 0ed0 367e4900 00053700 00000005 38e32700  6~I...7.....8.'.
 0ee0 00053946 75000005 3a9b2700 00053baf  ..9Fu...:.'...;.
 0ef0 7c000005 3cd47200 00053dae 89000005  |...<.r...=.....
 0f00 3e6b0b00 00053f04 28000005 40d75300  >k....?.(...@.S.
 0f10 000541cf 1f000005 42904f00 00000400  ..A.....B.O.....
 0f20 0005255e 67000005 26f85300 0005276e  ..%^g...&.S...'n
 0f30 40000005 287c2d00 00052922 18000005  @...(|-...)"....
 0f40 2a2c0500 00052b13 71000005 2c386300  *,....+.q...,8c.
 0f50 00052d47 50000005 2ea73c00 00052f8b  ..-GP.....<.../.
 0f60 2d000005 30065900 000531a2 7e000005  -...0.Y...1.~...
 0f70 32f05b00 0005333a 33000005 34be0500  2.[...3:3...4...
 0f80 0005359a 07000005 362c3500 000537e7  ..5.....6,5...7.
 0f90 36000005 381f5c00 000539b4 80000005  6...8.\...9.....
 0fa0 3a3f2900 00053baf 16000005 3cbd2c00  :?)...;.....<.,.
 0fb0 00053d0c 2e000005 3ebf5900 00053fd1  ..=.....>.Y...?.
 0fc0 5a000005 403c8700 0005410a 05000005  Z...@<....A.....
 0fd0 424f4400 000543b3 50000005 440f5200  BOD...C.P...D.R.
 0fe0 00000400 00053aad 38000005 3f0d2300  ......:.8...?.#.
 0ff0 00000400 00051d81 4f000005 1e9c6d00  ........O.....m.
 1000 00051fac 5d000005 20f52d00 00000400  ....]... .-.....
 1010 00051de0 22000005 1e2a0b00 00051fdb  ...."....*......
 1020 21000000 04000005 1b1b1000 00051c65  !..............e
 1030 7d000005 1d8c2300 00051f2a 53000005  }.....#....*S...
 1040 207f5600 0005213b 3f000005 22993300   .V...!;?...".3.
 1050 00052379 26000005 24c61100 0005251c  ..#y&...$.....%.
 1060 5f000005 26ed1800 00052722 54000005  _...&.....'"T...
 1070 28877700 00052962 10000005 2ac64000  (.w...)b....*.@.
 1080 00052b51 7e000005 2ccd8400 00052d86  ..+Q~...,.....-.
 1090 80000005 2ead6d00 00052f3d 35000005  ......m.../=5...
 10a0 304c6500 00053187 40000005 32881100  0Le...1.@...2...
 10b0 00053331 3e000005 34056500 00053541  ..31>...4.e...5A
 10c0 1f000005 36ea1700 0005378e 01000005  ....6.....7.....
 10d0 38163200 00053971 22000005 3a114500  8.2...9q"...:.E.
 10e0 00053b81 7d000005 3c445300 00053d50  ..;.}...<DS...=P
 10f0 56000005 3ef50200 00053f5e 38000005  V...>.....?^8...
 1100 40587a00 000541c7 51000005 420d3500  @Xz...A.Q...B.5.
 1110 0005438f 1a000005 44bb4b00 00054529  ..C.....D.K...E)
 1120 37000005 46284500 000547da 55000005  7...F(E...G.U...
 1130 48774200 0005499d 80000005 4a350a00  HwB...I.....J5..
 1140 00054b95 21000005 4c530d00 00054d52  ..K.!...LS....MR
 1150 66000005 4ebd2b00 00054f89 0d000005  f...N.+...O.....
 1160 50b41700 000551ae 04000005 52914600  P.....Q.....R.F.
 1170 000553b9 30000005 549e7000 000555dd  ..S.0...T.p...U.
 1180 40000005 57cf0500 0005595c 6c000005  @...W.....Y\l...
 1190 5bd27700 00055dd6 1b000005 5f1c5300  [.w...]....._.S.
 11a0 00056110 72000005 63026b00 00056b66  ..a.r...c.k...kf
 11b0 15000005 73b33d00 00057a9b 2e000005  ....s.=...z.....
 11c0 82017243 00000589 01fc0100 00059101  ..rC............
 11d0 1d2e0000 05dc0174 4c000000 04000005  .......tL.......
 11e0 1e7c4d00 00052154 62000005 2b0b3300  .|M...!Tb...+.3.
 11f0 00000400 0005337b 21000005 34c95800  ......3{!...4.X.
 1200 00053586 85000005 36356600 0005371b  ..5.....65f...7.
 1210 69000005 3a002d00 00053b91 1b000005  i...:.-...;.....
 1220 3c3e2700 00053d4b 4b000005 3ed72900  <>'...=KK...>.).
 1230 00054018 81000005 410e7a00 00054250  ..@.....A.z...BP
 1240 29000005 43478600 000546b8 00000005  )...CG....F.....
 1250 47903700 000548cb 41000005 496f5200  G.7...H.A...IoR.
 1260 00054a73 08000005 515c4800 000552e2  ..Js....Q\H...R.
 1270 3f000005 53754b00 000554cb 3b000005  ?...SuK...T.;...
 1280 57e33700 00055862 2f000005 59506000  W.7...Xb/...YP`.
 1290 00055a8d 78000005 5da91100 00055e75  ..Z.x...].....^u
 12a0 78000000 04000005 1f0d3f00 000520fd  x.........?... .
 12b0 66000006 22f87e00 0005273c 54000005  f...".~...'<T...
 12c0 2f702500 000530f7 74000005 31356e00  /p%...0.t...15n.
 12d0 000534e1 64000005 36df6400 0005697d  ..4.d...6.d...i}
 12e0 86000005 6c425400 00056f93 2f000005  ....lBT...o./...
 12f0 72691200 00057595 81000000 04000005  ri....u.........
 1300 c301ed61 000005d1 03195100 0005d403  ...a......Q.....
 1310 e22f0000 00040000 05089036 00000512  ./.........6....
 1320 9f4a0000 0515e484 00000518 20520000  .J.......... R..
 1330 051b4b33 00000528 8b1e0000 05321f16  ..K3...(.....2..
 1340 00000539 9a220000 053cf055 00000542  ...9."...<.U...B
 1350 7f4e0000 05453a56 00000548 f11d0000  .N...E:V...H....
 1360 054bb675 00000004 00000553 90720000  .K.u.......S.r..
 1370 05e0019d 09000006 e601c939 000005ea  ...........9....
 1380 01961400 0005fa01 01510000 05fe01bd  .........Q......
 1390 51000005 8b022119 00000004 0000051f  Q.....!.........
 13a0 d1640000 05208e2b 00000521 4f0f0000  .d... .+...!O...
 13b0 05256d03 0000052b f76f0000 0545cc57  .%m....+.o...E.W
 13c0 00000549 15150000 054aea69 00000004  ...I.....J.i....
 13d0 0000050d 092b0000 050ef444 0000050f  .....+.....D....
 13e0 9a3c0000 00040000 05bb013e 15000005  .<.........>....
 13f0 bc017673 000005bd 01338700 0005be01  ..vs.....3......
 1400 576e0000 05bf0146 3a000005 c001d75e  Wn.....F:......^
 1410 000005c1 014d5800 0005c201 ff630000  .....MX......c..
 1420 05c301fb 63000005 c4019b1f 000005c5  ....c...........
 1430 017b2300 0005c601 971f0000 05c701d8  .{#.............
 1440 17000005 c8012503 000005c9 012f8700  ......%....../..
 1450 0005ca01 50690000 05d20172 0c000006  ....Pi.....r....
 1460 ee014804 0000058b 027c4400 00058c02  ..H......|D.....
 1470 37730000 058d027c 5a000005 8e02c041  7s.....|Z......A
 1480 0000058f 023f1200 00059002 eb450000  .....?.......E..
 1490 05910286 16000005 92028216 00000593  ................
 14a0 02ed2c00 00059402 7f3d0000 05950274  ..,......=.....t
 14b0 65000005 9602d10c 00000597 026f6500  e............oe.
 14c0 00059802 785a0000 05990296 4e000006  ....xZ......N...
 14d0 a602ad79 000006db 02900b00 00069103  ...y............
 14e0 a9440000 05960314 03000006 9c03a244  .D.............D
 14f0 00000004 00000527 834a0000 0528d624  .......'.J...(.$
 1500 0000052a 7e4a0000 05890140 55000005  ...*~J.....@U...
 1510 8a01a42a 0000058b 01c94f00 00058c01  ...*......O.....
 1520 ff0b0000 058d013e 4b000005 8e013a4b  .......>K.....:K
 1530 0000058f 01183f00 00059001 3c550000  ......?.....<U..
 1540 059101de 51000006 a101960f 000006ee  ....Q...........
 1550 01480400 0006db02 900b0000 069103a9  .H..............
 1560 44000005 96031403 0000069c 03a24400  D.............D.
 1570 0005a103 de3c0000 05a60309 69000000  .....<......i...
 1580 04000005 14753900 00051609 2b000005  .....u9.....+...
 1590 17797b00 00000400 0006a101 960f0000  .y{.............
 15a0 06ee0148 04000006 db02900b 000005e0  ...H............
 15b0 023c2600 0006e702 cd210000 069103a9  .<&......!......
 15c0 44000005 96031403 0000069c 03a24400  D.............D.
 15d0 0005a103 de3c0000 00040000 067f8054  .....<.........T
 15e0 00000592 01f83600 00069401 796d0000  ......6.....ym..
 15f0 05b3017e 19000005 bb019619 000005c0  ...~............
 1600 011c6500 0005c501 193c0000 00040000  ..e......<......
 1610 05116972 00000515 a2890000 00040000  ..ir............
 1620 0502f786 0000050e 71550000 050f6675  ........qU....fu
 1630 00000510 3b670000 05115604 00000512  ....;g....V.....
 1640 54260000 0513d363 00000514 ee790000  T&.....c.....y..
 1650 0515b13a 00000516 79480000 0517097f  ...:....yH......
 1660 00000518 7c790000 05197e67 00000004  ....|y....~g....
 1670 0000054d 5a170000 0569fc33 0000056f  ...MZ....i.3...o
 1680 07870000 05b701a8 40000005 bd026a47  ........@.....jG
 1690 000005be 02dd3e00 0005bf02 df860000  ......>.........
 16a0 05c00230 77000005 c1025a68 000005c2  ...0w.....Zh....
 16b0 02d45d00 0005c302 71800000 05cf02c7  ..].....q.......
 16c0 22000005 d002e785 000005d1 02980400  "...............
 16d0 0005a005 49120000 05bc0575 64000005  ....I......ud...
 16e0 bf057a87 000005ef 05068200 0005fd05  ..z.............
 16f0 50790000 05fe05b6 4a000005 ff053665  Py......J.....6e
 1700 00000580 06494500 00058106 6b6a0000  .....IE.....kj..
 1710 0582061c 1d000005 83065040 00000585  ..........P@....
 1720 06b57600 00058606 d1150000 058706f9  ..v.............
 1730 12000005 88061744 00000589 06b71c00  .......D........
 1740 00058a06 cd090000 058b067c 00000005  ...........|....
 1750 8c06d260 0000058d 06400b00 00058e06  ...`.....@......
 1760 815f0000 058f0634 32000005 90068328  ._.....42......(
 1770 00000591 06687e00 00059206 f1350000  .....h~......5..
 1780 059306e6 4b000005 9406055e 00000595  ....K......^....
 1790 069d4800 00059606 fe250000 059706dd  ..H......%......
 17a0 47000005 9806b904 00000599 06235d00  G............#].
 17b0 00059a06 9f490000 059b06ac 6f000005  .....I......o...
 17c0 9c06a17d 000005a0 06e30c00 0005a806  ...}............
 17d0 6a700000 05b006d2 4d000005 c0064f10  jp......M.....O.
 17e0 000005c3 06487200 0005c906 ba010000  .....Hr.........
 17f0 00040000 05318f20 00000532 305c0000  .....1. ...20\..
 1800 05334949 00000536 261b0000 0539911c  .3II...6&....9..
 1810 0000053a cf7c0000 053cb12a 0000053d  ...:.|...<.*...=
 1820 907f0000 053e741f 0000053f 71720000  .....>t....?qr..
 1830 05427c0c 00000543 d2860000 05440846  .B|....C.....D.F
 1840 0000054e 720f0000 05512955 00000557  ...Nr....Q)U...W
 1850 fc080000 055e395a 0000055f ff6c0000  .....^9Z..._.l..
 1860 056b1976 0000056c 52780000 05708e05  .k.v...lRx...p..
 1870 00000571 78710000 05725603 00000575  ...qxq...rV....u
 1880 dc650000 0578ef5c 0000057f a8560000  .e...x.\.....V..
 1890 0580015a 73000005 81015077 00000585  ...Zs.....Pw....
 18a0 01144600 00058c01 187e0000 05900125  ..F......~.....%
 18b0 24000005 91015920 00000594 01787a00  $.....Y .....xz.
 18c0 00059701 56010000 05980115 2a000005  ....V.......*...
 18d0 9901a76e 0000059b 017f7c00 00059c01  ...n......|.....
 18e0 e4780000 059e0138 62000005 a0013118  .x.....8b.....1.
 18f0 000005b1 01080e00 0005b201 730d0000  ............s...
 1900 05b30154 81000005 b4015b53 000005b5  ...T......[S....
 1910 010f7d00 0005b701 186a0000 05b801ca  ..}......j......
 1920 55000005 b901f351 000005e6 01bb2700  U......Q......'.
 1930 0005f301 fe300000 05f401ba 74000005  .....0......t...
 1940 f5015418 000005f6 01252800 0005f701  ..T......%(.....
 1950 8e840000 05f8014c 6d000005 f9013138  .......Lm.....18
 1960 000005fc 01bc5c00 0005fd01 2c300000  ......\.....,0..
 1970 058302bc 1d000005 dc024628 000005ee  ..........F(....
 1980 02003c00 0005f402 52000000 05f50257  ..<.....R......W
 1990 58000005 fc026489 00000582 03032700  X.....d.......'.
 19a0 00058803 45800000 058903b2 47000005  ....E.......G...
 19b0 90034b6f 00000591 03825300 00059803  ..Ko......S.....
 19c0 1f2b0000 059e0315 75000005 b203db3a  .+......u......:
 19d0 000005d3 03991e00 0005d403 cb520000  .............R..
 19e0 05db036c 3c000005 dc038474 000005df  ...l<......t....
 19f0 03bb5f00 0005e903 24310000 05ea0322  .._.....$1....."
 1a00 71000005 f4034763 0000058a 04d06e00  q.....Gc......n.
 1a10 00058c04 1a570000 058e0401 21000005  .....W......!...
 1a20 8f04b473 00000591 04472c00 00059b04  ...s.....G,.....
 1a30 a6580000 05a00469 06000005 a504d80e  .X.....i........
 1a40 000005a8 04004200 0005ac04 391a0000  ......B.....9...
 1a50 05ae0424 1e000005 d104dd74 000005d5  ...$.......t....
 1a60 042f6c00 0005d904 d9120000 05dd043c  ./l............<
 1a70 51000005 e1044e6a 000005e5 04287d00  Q.....Nj.....(}.
 1a80 0005e904 f4720000 05ed04be 81000005  .....r..........
 1a90 f4049f11 000005f5 04250800 0005f604  .........%......
 1aa0 aa2c0000 05f70448 3e000005 f804b152  .,.....H>......R
 1ab0 0000058d 05096300 00058e05 0c6d0000  ......c......m..
 1ac0 05a005be 77000005 a605de7a 000005a9  ....w......z....
 1ad0 05611300 0005ab05 d2750000 05af05e6  .a.......u......
 1ae0 46000005 b1052b36 000005b5 051f4800  F.....+6......H.
 1af0 0005b805 e51b0000 05ba0509 79000005  ............y...
 1b00 be050968 000005c0 051f7000 0005c205  ...h......p.....
 1b10 853b0000 05c60516 64000005 c905066e  .;......d......n
 1b20 000005ca 05d16d00 00000400 00050824  ......m........$
 1b30 50000006 0d405000 000510ec 40000000  P....@P.....@...
 1b40 04000005 383f0100 00053cfa 2b000005  ....8?....<.+...
 1b50 3dfe1a00 00053fc0 39000005 43154a00  =.....?.9...C.J.
 1b60 0005a801 e2770000 00040000 050d865a  .....w.........Z
 1b70 00000513 ab070000 0517af64 0000051b  ...........d....
 1b80 3c2d0000 051f5f14 00000523 67330000  <-...._....#g3..
 1b90 059101dd 7b000005 9201645b 000006a8  ....{.....d[....
 1ba0 01f80d00 0005ab01 45110000 05ac01f9  ........E.......
 1bb0 84000005 ad01b926 000005ae 01121900  .......&........
 1bc0 0005af01 0c6a0000 05b20193 76000005  .....j......v...
 1bd0 b501242d 000005b9 015a3d00 0005bc01  ..$-.....Z=.....
 1be0 ed140000 05bf015f 1b000005 d3018e34  ......._.......4
 1bf0 000005d7 01be3600 0005da01 f3420000  ......6......B..
 1c00 05dd019a 2b000005 df012740 000005f4  ....+.....'@....
 1c10 01224100 00058402 86030000 05850290  ."A.............
 1c20 71000005 86027d69 00000587 02822400  q.....}i......$.
 1c30 00058802 0d490000 05890284 1d000005  .....I..........
 1c40 cd020d1f 000005b4 04a22600 0005b804  ..........&.....
 1c50 b8420000 05bf047a 76000005 c104c556  .B.....zv......V
 1c60 000005c2 045e2d00 0005c304 68110000  .....^-.....h...
 1c70 05c404fc 54000005 c5049625 000005c6  ....T......%....
 1c80 04cc4a00 0005c704 947a0000 05c8041c  ..J......z......
 1c90 4b000005 c904650a 000005ca 04410700  K.....e......A..
 1ca0 0005cb04 08610000 05cc0492 52000005  .....a......R...
 1cb0 cd04d40b 000005d3 04d54f00 0005d404  ..........O.....
 1cc0 cd610000 05d5048e 08000005 d6040a30  .a.............0
 1cd0 000005d7 04891000 0005d804 160a0000  ................
 1ce0 05d90415 74000005 da04ae44 000005db  ....t......D....
 1cf0 04083700 0005e504 4a430000 05e60468  ..7.....JC.....h
 1d00 3b000005 ea04e224 000005eb 04b24f00  ;......$......O.
 1d10 00000400 000508c5 6d000005 0f092b00  ........m.....+.
 1d20 0005109a 3c000000 04000006 a101960f  ....<...........
 1d30 000006ee 01480400 0006db02 900b0000  .....H..........
 1d40 069103a9 44000005 96031403 0000069c  ....D...........
 1d50 03a24400 0005a103 de3c0000 00040000  ..D......<......
 1d60 051d3c22 0000051e 8a270000 051f5464  ..<".....'....Td
 1d70 00000520 c5800000 05218065 00000522  ... .....!.e..."
 1d80 13800000 05235d66 00000004 0000051d  .....#]f........
 1d90 cc460000 051e7a5d 0000051f b3450000  .F....z].....E..
 1da0 0520550c 00000521 f4480000 05222000  . U....!.H..." .
 1db0 00000523 ec670000 00                 ...#.g...       
Contents of section .debug_line:
 0000 280e0000 03007903 00000101 fb0e0d00  (.....y.........
 0010 01010101 00000001 0000012e 2e2f6472  ............./dr
 0020 69766572 002e2e2f 2e2e2f2e 2e2f6273  iver.../../../bs
 0030 702f6566 696e6978 2f456678 53617070  p/efinix/EfxSapp
 0040 68697265 536f632f 696e636c 75646500  hireSoc/include.
 0050 2e2e2f2e 2e2f2e2e 2f627370 2f656669  ../../../bsp/efi
 0060 6e69782f 45667853 61707068 69726553  nix/EfxSapphireS
 0070 6f632f61 70700073 72630063 3a5c6566  oc/app.src.c:\ef
 0080 696e6974 795c6566 696e6974 792d7269  inity\efinity-ri
 0090 7363762d 6964652d 32303233 2e312e33  scv-ide-2023.1.3
 00a0 5c746f6f 6c636861 696e5c72 69736376  \toolchain\riscv
 00b0 2d6e6f6e 652d656d 6265645c 696e636c  -none-embed\incl
 00c0 7564655c 6d616368 696e6500 633a5c65  ude\machine.c:\e
 00d0 66696e69 74795c65 66696e69 74792d72  finity\efinity-r
 00e0 69736376 2d696465 2d323032 332e312e  iscv-ide-2023.1.
 00f0 335c746f 6f6c6368 61696e5c 72697363  3\toolchain\risc
 0100 762d6e6f 6e652d65 6d626564 5c696e63  v-none-embed\inc
 0110 6c756465 5c737973 00633a5c 6566696e  lude\sys.c:\efin
 0120 6974795c 6566696e 6974792d 72697363  ity\efinity-risc
 0130 762d6964 652d3230 32332e31 2e335c74  v-ide-2023.1.3\t
 0140 6f6f6c63 6861696e 5c6c6962 5c676363  oolchain\lib\gcc
 0150 5c726973 63762d6e 6f6e652d 656d6265  \riscv-none-embe
 0160 645c382e 332e305c 696e636c 75646500  d\8.3.0\include.
 0170 633a5c65 66696e69 74795c65 66696e69  c:\efinity\efini
 0180 74792d72 69736376 2d696465 2d323032  ty-riscv-ide-202
 0190 332e312e 335c746f 6f6c6368 61696e5c  3.1.3\toolchain\
 01a0 72697363 762d6e6f 6e652d65 6d626564  riscv-none-embed
 01b0 5c696e63 6c756465 00007561 72742e68  \include..uart.h
 01c0 00010000 696f2e68 00010000 636c696e  ....io.h....clin
 01d0 742e6800 01000062 73702e68 00020000  t.h....bsp.h....
 01e0 7072696e 742e6800 03000070 6c69632e  print.h....plic.
 01f0 68000100 006d6169 6e2e6300 04000067  h....main.c....g
 0200 70696f2e 68000100 005f6465 6661756c  pio.h...._defaul
 0210 745f7479 7065732e 68000500 005f7374  t_types.h...._st
 0220 64696e74 2e680006 00007374 64617267  dint.h....stdarg
 0230 2e680007 00007374 64646566 2e680007  .h....stddef.h..
 0240 00005f74 79706573 2e680006 00007265  .._types.h....re
 0250 656e742e 68000600 006c6f63 6b2e6800  ent.h....lock.h.
 0260 06000073 74646c69 622e6800 0800006d  ...stdlib.h....m
 0270 6174682e 68000800 00747970 652e6800  ath.h....type.h.
 0280 01000073 7464696e 742e6800 08000066  ...stdint.h....f
 0290 65617475 7265732e 68000600 005f6e65  eatures.h...._ne
 02a0 776c6962 5f766572 73696f6e 2e680008  wlib_version.h..
 02b0 00005f69 6e747375 702e6800 06000073  .._intsup.h....s
 02c0 6f632e68 00020000 73656d69 686f7374  oc.h....semihost
 02d0 696e672e 68000300 00766578 72697363  ing.h....vexrisc
 02e0 762e6800 01000072 69736376 2e680001  v.h....riscv.h..
 02f0 00006965 65656670 2e680005 00005f61  ..ieeefp.h...._a
 0300 6e73692e 68000800 006e6577 6c69622e  nsi.h....newlib.
 0310 68000800 00636f6e 6669672e 68000600  h....config.h...
 0320 005f7479 7065732e 68000500 00636465  ._types.h....cde
 0330 66732e68 00060000 7374646c 69622e68  fs.h....stdlib.h
 0340 00050000 616c6c6f 63612e68 00080000  ....alloca.h....
 0350 73747269 6e672e68 00080000 5f6c6f63  string.h...._loc
 0360 616c652e 68000600 00737472 696e6773  ale.h....strings
 0370 2e680008 00007374 72696e67 2e680006  .h....string.h..
 0380 00000005 2f000502 f80000f9 032c0105  ..../........,..
 0390 09030109 00000104 02037109 00000105  ..........q.....
 03a0 10060300 09000001 0401052d 030f0904  ...........-....
 03b0 00010505 03010904 0001052f 06030509  .........../....
 03c0 08000105 09030109 18000105 30000204  ............0...
 03d0 01030009 00000105 0f000204 01060300  ................
 03e0 09000001 050e0002 04010300 09080001  ................
 03f0 05090603 01090400 01040203 6d090000  ............m...
 0400 01052406 03000900 00010401 05050314  ..$.............
 0410 09040001 04030538 06030009 14000105  .......8........
 0420 09030109 00000105 0d060300 09000001  ................
 0430 05090603 01090c00 01050503 68090000  ............h...
 0440 01040205 09037e09 0c000105 10060300  ......~.........
 0450 09000001 04030531 031a0904 0001050d  .......1........
 0460 03000904 00010509 06030109 04000105  ................
 0470 3d000204 01030009 00000105 05000204  =...............
 0480 01036709 00000104 02050900 02040103  ..g.............
 0490 7e090000 01051000 02040106 03000900  ~...............
 04a0 00010403 051e0002 0401031b 09040001  ................
 04b0 050e0002 04010300 09040001 05050301  ................
 04c0 09040001 04040529 06032609 04000105  .......)..&.....
 04d0 0d030409 08000105 23030009 0c000105  ........#.......
 04e0 05060302 09000001 06030309 0c000105  ................
 04f0 09030409 10000105 10060300 09000001  ................
 0500 050f0300 09040001 050d0603 01090400  ................
 0510 01051906 03000900 0001050d 03000904  ................
 0520 00010505 03020908 00010603 05091000  ................
 0530 01050903 01091400 01030109 00000103  ................
 0540 02090000 01050e03 00090000 01051206  ................
 0550 03000900 00010509 03000904 0001050d  ................
 0560 00020403 06030109 04000105 2e000204  ................
 0570 03060300 09000001 05340002 04030300  .........4......
 0580 09040001 050d0002 04030300 09040001  ................
 0590 052e0002 0403037f 09140001 05090002  ................
 05a0 04010300 09040001 05050303 09040001  ................
 05b0 05090603 03091400 01050d03 01091400  ................
 05c0 01030109 00000103 02090000 01051203  ................
 05d0 00090000 01051606 03000900 0001050d  ................
 05e0 03000904 00010511 00020403 06030109  ................
 05f0 04000105 32000204 03060300 09000001  ....2...........
 0600 05380002 04030300 09040001 05110002  .8..............
 0610 04030300 09040001 05320002 0403037f  .........2......
 0620 09140001 050d0002 04010300 09040001  ................
 0630 05090304 09040001 04050505 06031e09  ................
 0640 14000105 09030109 08000105 05060301  ................
 0650 09080001 06030309 0c000105 09030109  ................
 0660 08000105 05060301 09040001 06030509  ................
 0670 0c000105 09030109 14000103 01090000  ................
 0680 01030109 00000105 0c060300 09000001  ................
 0690 0505037d 09040001 050d0603 04090800  ...}............
 06a0 01030109 08000105 11060300 09000001  ................
 06b0 050d0603 03090800 01052006 03000900  .......... .....
 06c0 0001051a 03000908 00010514 03000904  ................
 06d0 0001050d 06030109 04000105 11060300  ................
 06e0 09000001 0510037f 09040001 050f037f  ................
 06f0 09040001 05140002 04010300 09040001  ................
 0700 050d0603 05090c00 01050f06 037f090c  ................
 0710 00010505 03020908 00010603 03091400  ................
 0720 01050903 01090800 01030209 00000105  ................
 0730 0e060300 09000001 05090002 04010300  ................
 0740 09040001 050d0603 02090800 01052706  ..............'.
 0750 03000900 00010523 03000904 00010515  .......#........
 0760 03000908 0001050f 03000904 00010516  ................
 0770 00020402 037e0904 00010509 06030809  .....~..........
 0780 08000105 05060301 09040001 05090603  ................
 0790 03090c00 01050d03 01090800 01030209  ................
 07a0 00000105 12060300 09000001 050d0002  ................
 07b0 04010300 09040001 05110603 02090800  ................
 07c0 01052b06 03000900 00010527 03000904  ..+........'....
 07d0 00010519 03000908 00010513 03000904  ................
 07e0 0001051a 00020402 037e0904 0001050d  .........~......
 07f0 06030809 08000105 09060301 09040001  ................
 0800 04060547 0603c87e 090c0001 05090301  ...G...~........
 0810 09000001 05400603 00090000 01050903  .....@..........
 0820 00090400 01040206 037d0904 00010524  .........}.....$
 0830 06030009 00000104 06050503 04090400  ................
 0840 01054e06 03060904 00010509 03010900  ..N.............
 0850 00010535 06030009 00000105 2c030009  ...5........,...
 0860 04000105 57030009 04000105 5c030009  ....W.......\...
 0870 04000105 4c030009 04000105 0d030009  ....L...........
 0880 04000105 09060301 09080001 05160603  ................
 0890 00090000 01050906 03010908 0001050c  ................
 08a0 06030009 00000105 0d060301 09040001  ................
 08b0 04020509 036e0900 00010510 06030009  .....n..........
 08c0 00000104 06050d03 12090400 01040205  ................
 08d0 09060372 09040001 05240603 00090000  ...r.....$......
 08e0 01040605 0d060310 09080001 04020509  ................
 08f0 036c0900 00010510 06030009 00000104  .l..............
 0900 06052803 14090400 01050d03 00090400  ..(.............
 0910 01040205 09060370 09040001 05240603  .......p.....$..
 0920 00090000 01040605 05031109 04000105  ................
 0930 48060302 09040001 05090301 09000001  H...............
 0940 05410603 00090000 01053903 00090400  .A........9.....
 0950 01050903 00090400 01040206 036c0908  .............l..
 0960 00010524 06030009 00000104 06050503  ...$............
 0970 15090400 01053006 03060904 00010509  ......0.........
 0980 03010900 00010538 06030009 00000105  .......8........
 0990 30030009 04000105 10030009 04000104  0...............
 09a0 02050906 0360090c 00010510 06030009  .....`..........
 09b0 00000104 06050503 21090400 01054006  ........!.....@.
 09c0 03020904 00010509 03010900 0001053a  ...............:
 09d0 06030009 00000105 32030009 04000105  ........2.......
 09e0 09030009 04000104 02060360 090c0001  ...........`....
 09f0 05240603 00090000 01040605 05032109  .$............!.
 0a00 04000104 0506039c 01090400 01050903  ................
 0a10 01093000 01030109 00000103 02090000  ..0.............
 0a20 01030209 08000105 10060300 09000001  ................
 0a30 05090300 09040001 05190603 04090400  ................
 0a40 01030109 14000105 21000204 0206037b  ........!......{
 0a50 09000001 051b0002 04010300 09040001  ................
 0a60 05090002 04010300 09080001 050d0603  ................
 0a70 01090400 01051006 03000900 00010511  ................
 0a80 06032309 08000105 19036409 08000103  ..#.......d.....
 0a90 01091400 01030309 04000103 01091400  ................
 0aa0 01030309 04000103 01091400 01030309  ................
 0ab0 04000103 01091400 01051706 036d0904  .............m..
 0ac0 0001051e 03000904 00010517 03000908  ................
 0ad0 00010515 06030109 04000105 18060300  ................
 0ae0 09000001 051a0603 04090800 01051d06  ................
 0af0 03000900 0001051a 06030409 08000105  ................
 0b00 1d060300 09000001 051a0603 04090800  ................
 0b10 01051d06 03000900 0001051a 06030409  ................
 0b20 08000105 1d060300 09000001 051a0603  ................
 0b30 0a090800 01051d06 03000900 00010519  ................
 0b40 06030109 08000103 01090c00 01050506  ................
 0b50 03080904 00010407 050c0603 b27e0914  .............~..
 0b60 00010505 03030908 00010301 09100001  ................
 0b70 03010914 00010302 09100001 04080366  ...............f
 0b80 09000001 04020509 03770900 00010524  .........w.....$
 0b90 06030009 00000104 07050506 0326090c  .............&..
 0ba0 00010300 09000001 03000908 00010302  ................
 0bb0 09040001 03000900 00010300 09000001  ................
 0bc0 0301090c 00010300 09000001 03000900  ................
 0bd0 00010300 09000001 03000904 00010300  ................
 0be0 090c0001 05010603 01090400 01050d06  ................
 0bf0 031f090c 00010505 03010908 00010002  ................
 0c00 04010301 090c0001 050d0002 04010300  ................
 0c10 09000001 05190370 09040001 05050301  .......p........
 0c20 090c0001 03020900 00010513 06030009  ................
 0c30 00000105 0a030009 10000105 09060301  ................
 0c40 09040001 05390301 09080001 05660300  .....9.......f..
 0c50 090c0001 05090304 09000001 0512037d  ...............}
 0c60 09140001 05010603 05090400 01050c06  ................
 0c70 03670910 00010505 03010908 00010516  .g..............
 0c80 03000900 00010300 09000001 03000904  ................
 0c90 00010505 03010900 00010301 09000001  ................
 0ca0 03010900 00010507 06030009 00000105  ................
 0cb0 09060301 09080001 05260301 09080001  .........&......
 0cc0 053b0300 09040001 05010603 06090000  .;..............
 0cd0 01051206 037b090c 00010509 03030904  .....{..........
 0ce0 0001050d 03170904 00010505 0301090c  ................
 0cf0 0001050f 03000900 00010505 03010900  ................
 0d00 00010301 090c0001 0302090c 00010408  ................
 0d10 03b47f09 00000104 02050903 79090000  ............y...
 0d20 01052406 03000900 00010407 05050603  ..$.............
 0d30 d400090c 00010408 03b17f09 00000104  ................
 0d40 02050903 7b090000 01052406 03000900  ....{.....$.....
 0d50 00010407 05050603 d5000904 0001050a  ................
 0d60 03000900 0001050e 06030009 00000105  ................
 0d70 05030009 04000105 09060301 09040001  ................
 0d80 04080505 03ae7f09 00000104 02050903  ................
 0d90 78090000 01051006 03000900 00010407  x...............
 0da0 050903da 00090800 01040805 050603af  ................
 0db0 7f090400 01040205 09037b09 00000105  ..........{.....
 0dc0 24060300 09000001 04070509 0603d700  $...............
 0dd0 09040001 05200300 09180001 051a0603  ..... ..........
 0de0 7e090000 01050500 02040103 00090400  ~...............
 0df0 01060304 09080001 0301090c 00010301  ................
 0e00 090c0001 0301090c 00010301 090c0001  ................
 0e10 00020401 03010904 0001050d 00020401  ................
 0e20 03000900 00010904 00000101 b6000000  ................
 0e30 03002800 00000101 fb0e0d00 01010101  ..(.............
 0e40 00000001 0000012e 2e2f636f 6d6d6f6e  ........./common
 0e50 00007374 6172742e 53000100 00000005  ..start.S.......
 0e60 02000000 f9030901 032a0908 00010303  .........*......
 0e70 09080001 03010908 00010301 09080001  ................
 0e80 03010904 00010302 09040001 03010904  ................
 0e90 00010301 09040001 03010904 00010301  ................
 0ea0 09040001 03040904 00010301 09040001  ................
 0eb0 03010904 00010302 09040001 03010904  ................
 0ec0 00010301 09040001 03040904 00010303  ................
 0ed0 09040001 03020904 00010305 09040001  ................
 0ee0 09040000 01010d01 00000300 27000000  ............'...
 0ef0 0101fb0e 0d000101 01010000 00010000  ................
 0f00 012e2e2f 636f6d6d 6f6e0000 74726170  .../common..trap
 0f10 2e530001 00000000 05025c07 00f91503  .S........\.....
 0f20 01090400 01030109 04000103 01090400  ................
 0f30 01030109 04000103 01090400 01030109  ................
 0f40 04000103 01090400 01030109 04000103  ................
 0f50 01090400 01030109 04000103 01090400  ................
 0f60 01030109 04000103 01090400 01030109  ................
 0f70 04000103 01090400 01030109 04000103  ................
 0f80 01090400 01030109 04000103 01090400  ................
 0f90 01030109 04000103 01090400 01030109  ................
 0fa0 04000103 01090400 01030109 04000103  ................
 0fb0 01090400 01030109 04000103 01090400  ................
 0fc0 01030109 04000103 01090400 01030109  ................
 0fd0 04000103 01090400 01030109 04000103  ................
 0fe0 01090400 01030109 04000103 01090400  ................
 0ff0 01090400 000101                      .......         
Contents of section .debug_str:
 0000 53595354 454d5f53 50495f30 5f494f5f  SYSTEM_SPI_0_IO_
 0010 4354524c 20307866 38303134 30303000  CTRL 0xf8014000.
 0020 504c4943 5f454e41 424c455f 5045525f  PLIC_ENABLE_PER_
 0030 48415254 20307838 30005749 4e545f4d  HART 0x80.WINT_M
 0040 494e2028 5f5f5749 4e545f4d 494e5f5f  IN (__WINT_MIN__
 0050 29005f5f 6d616c6c 6f635f6c 696b6520  ).__malloc_like 
 0060 5f5f6174 74726962 7574655f 5f28285f  __attribute__((_
 0070 5f6d616c 6c6f635f 5f292900 5f524545  _malloc__))._REE
 0080 4e545f4d 505f5245 53554c54 5f4b2870  NT_MP_RESULT_K(p
 0090 74722920 28287074 72292d3e 5f726573  tr) ((ptr)->_res
 00a0 756c745f 6b29005f 5f535649 445f5649  ult_k).__SVID_VI
 00b0 5349424c 45203100 636f6e66 69674d54  SIBLE 1.configMT
 00c0 494d455f 42415345 5f414444 52455353  IME_BASE_ADDRESS
 00d0 20284253 505f434c 494e5420 2b203078   (BSP_CLINT + 0x
 00e0 42464638 29005f5f 72697363 76203100  BFF8).__riscv 1.
 00f0 5f5f464c 54313238 5f4d494e 5f31305f  __FLT128_MIN_10_
 0100 4558505f 5f20282d 34393331 29005f5f  EXP__ (-4931).__
 0110 44454331 32385f45 5053494c 4f4e5f5f  DEC128_EPSILON__
 0120 2031452d 3333444c 005f5f49 4e544d41   1E-33DL.__INTMA
 0130 585f4328 63292063 20232320 4c4c005f  X_C(c) c ## LL._
 0140 5f636f6d 7061725f 666e5f74 5f646566  _compar_fn_t_def
 0150 696e6564 20005f5f 43435f53 5550504f  ined .__CC_SUPPO
 0160 5254535f 494e4c49 4e452031 005f5f47  RTS_INLINE 1.__G
 0170 43435f41 544f4d49 435f5743 4841525f  CC_ATOMIC_WCHAR_
 0180 545f4c4f 434b5f46 52454520 31004d53  T_LOCK_FREE 1.MS
 0190 54415455 535f4d50 52562030 78303030  TATUS_MPRV 0x000
 01a0 32303030 30005f5f 43484152 5f554e53  20000.__CHAR_UNS
 01b0 49474e45 445f5f20 31005f47 4c4f4241  IGNED__ 1._GLOBA
 01c0 4c5f4154 45584954 20285f47 4c4f4241  L_ATEXIT (_GLOBA
 01d0 4c5f5245 454e542d 3e5f6174 65786974  L_REENT->_atexit
 01e0 29005f5f 464c5431 32385f44 4543494d  ).__FLT128_DECIM
 01f0 414c5f44 49475f5f 20333600 6373725f  AL_DIG__ 36.csr_
 0200 72656164 5f636c65 61722863 73722c76  read_clear(csr,v
 0210 616c2920 287b2075 6e736967 6e656420  al) ({ unsigned 
 0220 6c6f6e67 205f5f76 203d2028 756e7369  long __v = (unsi
 0230 676e6564 206c6f6e 67292876 616c293b  gned long)(val);
 0240 205f5f61 736d5f5f 205f5f76 6f6c6174   __asm__ __volat
 0250 696c655f 5f202822 63737272 63202530  ile__ ("csrrc %0
 0260 2c202220 23637372 20222c20 25312220  , " #csr ", %1" 
 0270 3a20223d 72222028 5f5f7629 203a2022  : "=r" (__v) : "
 0280 724b2220 285f5f76 29293b20 5f5f763b  rK" (__v)); __v;
 0290 207d2900 53595354 454d5f55 4152545f   }).SYSTEM_UART_
 02a0 305f494f 5f504152 414d4554 45525f55  0_IO_PARAMETER_U
 02b0 4152545f 4354524c 5f434f4e 4649475f  ART_CTRL_CONFIG_
 02c0 52585f53 414d504c 455f5045 525f4249  RX_SAMPLE_PER_BI
 02d0 54203800 5f5f464c 5436345f 4841535f  T 8.__FLT64_HAS_
 02e0 494e4649 4e495459 5f5f2031 005f5f76  INFINITY__ 1.__v
 02f0 616c7565 004d5354 41545553 5f55584c  alue.MSTATUS_UXL
 0300 20307830 30303030 30303330 30303030   0x0000000300000
 0310 30303000 4e554c4c 20282876 6f696420  000.NULL ((void 
 0320 2a293029 005f5f5f 696e745f 73697a65  *)0).___int_size
 0330 5f745f68 20005f5f 7366005f 5f505452  _t_h .__sf.__PTR
 0340 44494646 5f4d4158 5f5f2030 78376666  DIFF_MAX__ 0x7ff
 0350 66666666 66005f5f 474e5543 4c494b45  fffff.__GNUCLIKE
 0360 5f5f5f53 45435449 4f4e2031 005f4c4f  ___SECTION 1._LO
 0370 4e475f44 4f55424c 45206c6f 6e672064  NG_DOUBLE long d
 0380 6f75626c 65006973 67726561 74657228  ouble.isgreater(
 0390 5f5f782c 5f5f7929 20285f5f 6275696c  __x,__y) (__buil
 03a0 74696e5f 69736772 65617465 7220285f  tin_isgreater (_
 03b0 5f782c20 5f5f7929 2900494e 545f4c45  _x, __y)).INT_LE
 03c0 41535438 5f4d494e 20282d5f 5f494e54  AST8_MIN (-__INT
 03d0 5f4c4541 5354385f 4d41585f 5f202d20  _LEAST8_MAX__ - 
 03e0 3129005f 55494e54 33325f54 5f444543  1)._UINT32_T_DEC
 03f0 4c415245 4420005f 72656164 005f5f49  LARED ._read.__I
 0400 4e544d41 585f4d41 585f5f20 30783766  NTMAX_MAX__ 0x7f
 0410 66666666 66666666 66666666 66664c4c  ffffffffffffffLL
 0420 005f5f44 45433332 5f535542 4e4f524d  .__DEC32_SUBNORM
 0430 414c5f4d 494e5f5f 20302e30 30303030  AL_MIN__ 0.00000
 0440 31452d39 35444600 5f5f6e65 65645f73  1E-95DF.__need_s
 0450 697a655f 74005f5f 6c6f636b 5f696e69  ize_t.__lock_ini
 0460 745f7265 63757273 69766528 6c6f636b  t_recursive(lock
 0470 29202828 766f6964 29203029 005f5f46  ) ((void) 0).__F
 0480 4c543332 585f4d49 4e5f4558 505f5f20  LT32X_MIN_EXP__ 
 0490 282d3130 32312900 5f524545 4e545f53  (-1021)._REENT_S
 04a0 49474e41 4c5f5349 5a452032 3400504d  IGNAL_SIZE 24.PM
 04b0 505f4c20 30783830 005f5245 454e545f  P_L 0x80._REENT_
 04c0 57435254 4f4d425f 53544154 45287074  WCRTOMB_STATE(pt
 04d0 72292028 28707472 292d3e5f 6e65772e  r) ((ptr)->_new.
 04e0 5f726565 6e742e5f 77637274 6f6d625f  _reent._wcrtomb_
 04f0 73746174 6529005f 5f41544f 4d49435f  state).__ATOMIC_
 0500 434f4e53 554d4520 31004249 545f3238  CONSUME 1.BIT_28
 0510 20283120 3c3c2032 3829005f 5f726973   (1 << 28).__ris
 0520 63765f6d 756c6469 76203100 4249545f  cv_muldiv 1.BIT_
 0530 35202831 203c3c20 3529005f 5f464c54  5 (1 << 5).__FLT
 0540 3634585f 4449475f 5f203333 005f5f46  64X_DIG__ 33.__F
 0550 4c543634 585f4550 53494c4f 4e5f5f20  LT64X_EPSILON__ 
 0560 312e3932 35393239 39343433 38373233  1.92592994438723
 0570 35383533 30353539 37373934 32353834  5853055977942584
 0580 39323733 32652d33 34463634 78005f5f  92732e-34F64x.__
 0590 474e5543 4c494b45 5f5f5f54 5950454f  GNUCLIKE___TYPEO
 05a0 46203100 5f5f696e 7432305f 5f005f53  F 1.__int20__._S
 05b0 59535f5f 4c4f4341 4c455f48 20004249  YS__LOCALE_H .BI
 05c0 545f3135 20283120 3c3c2031 35290052  T_15 (1 << 15).R
 05d0 44435943 4c452030 78433030 005f5f53  DCYCLE 0xC00.__S
 05e0 495a454f 465f4c4f 4e475f4c 4f4e475f  IZEOF_LONG_LONG_
 05f0 5f203800 5f617363 74696d65 5f627566  _ 8._asctime_buf
 0600 005f5f44 424c5f4d 41585f31 305f4558  .__DBL_MAX_10_EX
 0610 505f5f20 33303800 5f637674 6c656e00  P__ 308._cvtlen.
 0620 5f5f4445 4336345f 45505349 4c4f4e5f  __DEC64_EPSILON_
 0630 5f203145 2d313544 44005349 5a455f4d  _ 1E-15DD.SIZE_M
 0640 41582028 5f5f5349 5a455f4d 41585f5f  AX (__SIZE_MAX__
 0650 29005f5f 504f5349 585f5649 5349424c  ).__POSIX_VISIBL
 0660 45203230 30383039 005f5f73 74726f6e  E 200809.__stron
 0670 675f7265 66657265 6e636528 73796d2c  g_reference(sym,
 0680 616c6961 7373796d 29206578 7465726e  aliassym) extern
 0690 205f5f74 7970656f 66202873 796d2920   __typeof (sym) 
 06a0 616c6961 7373796d 205f5f61 74747269  aliassym __attri
 06b0 62757465 5f5f2028 285f5f61 6c696173  bute__ ((__alias
 06c0 5f5f2028 2373796d 29292900 5f5f4445  __ (#sym))).__DE
 06d0 4333325f 4d494e5f 5f203145 2d393544  C32_MIN__ 1E-95D
 06e0 46005f5f 494e544d 41585f57 49445448  F.__INTMAX_WIDTH
 06f0 5f5f2036 34005f5f 4f524445 525f5044  __ 64.__ORDER_PD
 0700 505f454e 4449414e 5f5f2033 34313200  P_ENDIAN__ 3412.
 0710 5f5f5349 5a455f54 5950455f 5f20756e  __SIZE_TYPE__ un
 0720 7369676e 65642069 6e74005f 5f444543  signed int.__DEC
 0730 36345f4d 41585f45 58505f5f 20333835  64_MAX_EXP__ 385
 0740 004d5f32 5f504920 302e3633 36363139  .M_2_PI 0.636619
 0750 37373233 36373538 31333433 3038005f  77236758134308._
 0760 5f464c54 5f484153 5f44454e 4f524d5f  _FLT_HAS_DENORM_
 0770 5f203100 55494e54 5f464153 5431365f  _ 1.UINT_FAST16_
 0780 4d415820 285f5f55 494e545f 46415354  MAX (__UINT_FAST
 0790 31365f4d 41585f5f 29004249 545f3136  16_MAX__).BIT_16
 07a0 20283120 3c3c2031 36290048 5547455f   (1 << 16).HUGE_
 07b0 56414c20 285f5f62 75696c74 696e5f68  VAL (__builtin_h
 07c0 7567655f 76616c28 2929005f 5f464c54  uge_val()).__FLT
 07d0 33325f44 4543494d 414c5f44 49475f5f  32_DECIMAL_DIG__
 07e0 2039005f 5f4f5244 45525f4c 4954544c   9.__ORDER_LITTL
 07f0 455f454e 4449414e 5f5f2031 32333400  E_ENDIAN__ 1234.
 0800 6273705f 7072696e 74486578 5f6c6f77  bsp_printHex_low
 0810 6572005f 5f535444 435f5554 465f3136  er.__STDC_UTF_16
 0820 5f5f2031 005f4e75 6c6c6162 6c652000  __ 1._Nullable .
 0830 5f5f746d 00646967 69747300 5f6e6275  __tm.digits._nbu
 0840 66005f5f 746d5f73 6563005f 5f55494e  f.__tm_sec.__UIN
 0850 54385f43 28632920 63005f5f 494e5431  T8_C(c) c.__INT1
 0860 365f5459 50455f5f 2073686f 72742069  6_TYPE__ short i
 0870 6e740042 53505f4c 45445f4d 41534b20  nt.BSP_LED_MASK 
 0880 30786600 5f6c3634 615f6275 66004d5f  0xf._l64a_buf.M_
 0890 53515254 50492031 2e373732 34353338  SQRTPI 1.7724538
 08a0 35303930 35353136 30323739 32393831  5090551602792981
 08b0 005f5f46 4c543634 585f4d41 585f5f20  .__FLT64X_MAX__ 
 08c0 312e3138 39373331 34393533 35373233  1.18973149535723
 08d0 31373635 30383537 35393332 36363238  1765085759326628
 08e0 30303730 32652b34 39333246 36347800  00702e+4932F64x.
 08f0 5f5f494e 54382022 68682200 5f5f6861  __INT8 "hh".__ha
 0900 735f6275 696c7469 6e287829 20300053  s_builtin(x) 0.S
 0910 59535445 4d5f5541 52545f30 5f494f5f  YSTEM_UART_0_IO_
 0920 50415241 4d455445 525f5458 5f464946  PARAMETER_TX_FIF
 0930 4f5f4445 50544820 31323800 494e545f  O_DEPTH 128.INT_
 0940 4c454153 5431365f 4d415820 285f5f49  LEAST16_MAX (__I
 0950 4e545f4c 45415354 31365f4d 41585f5f  NT_LEAST16_MAX__
 0960 29005f5f 4758585f 4142495f 56455253  ).__GXX_ABI_VERS
 0970 494f4e20 31303133 00494e54 5f464153  ION 1013.INT_FAS
 0980 5431365f 4d415820 285f5f49 4e545f46  T16_MAX (__INT_F
 0990 41535431 365f4d41 585f5f29 005f504f  AST16_MAX__)._PO
 09a0 494e5445 525f494e 54206c6f 6e67005f  INTER_INT long._
 09b0 5f534947 5f41544f 4d49435f 54595045  _SIG_ATOMIC_TYPE
 09c0 5f5f2069 6e74005f 73697a65 005f5245  __ int._size._RE
 09d0 454e545f 4d505f52 4553554c 54287074  ENT_MP_RESULT(pt
 09e0 72292028 28707472 292d3e5f 72657375  r) ((ptr)->_resu
 09f0 6c742900 5f5f494e 545f4641 53543634  lt).__INT_FAST64
 0a00 5f545950 455f5f20 6c6f6e67 206c6f6e  _TYPE__ long lon
 0a10 6720696e 74004d5f 53515254 3320312e  g int.M_SQRT3 1.
 0a20 37333230 35303830 37353638 38373731  7320508075688771
 0a30 39303030 00535354 41545553 33325f53  9000.SSTATUS32_S
 0a40 44203078 38303030 30303030 00494e54  D 0x80000000.INT
 0a50 385f4d41 5820285f 5f494e54 385f4d41  8_MAX (__INT8_MA
 0a60 585f5f29 004d5f31 5f504920 302e3331  X__).M_1_PI 0.31
 0a70 38333039 38383631 38333739 30363731  8309886183790671
 0a80 3534005f 6c6f636b 005f5f46 4c543332  54._lock.__FLT32
 0a90 5f4d494e 5f5f2031 2e313735 34393433  _MIN__ 1.1754943
 0aa0 35303832 32323837 35303739 36383733  5082228750796873
 0ab0 36353337 32323232 34353638 652d3338  653722224568e-38
 0ac0 46333200 50545244 4946465f 4d415820  F32.PTRDIFF_MAX 
 0ad0 285f5f50 54524449 46465f4d 41585f5f  (__PTRDIFF_MAX__
 0ae0 29005f5f 464c5433 325f4d41 585f3130  ).__FLT32_MAX_10
 0af0 5f455850 5f5f2033 38005359 5354454d  _EXP__ 38.SYSTEM
 0b00 5f504c49 435f5359 5354454d 5f434f52  _PLIC_SYSTEM_COR
 0b10 45535f30 5f455854 45524e41 4c5f494e  ES_0_EXTERNAL_IN
 0b20 54455252 55505420 3000434c 494e545f  TERRUPT 0.CLINT_
 0b30 434d505f 41444452 20307834 30303000  CMP_ADDR 0x4000.
 0b40 5f524545 4e545f4d 505f4652 45454c49  _REENT_MP_FREELI
 0b50 53542870 74722920 28287074 72292d3e  ST(ptr) ((ptr)->
 0b60 5f667265 656c6973 74290053 59535445  _freelist).SYSTE
 0b70 4d5f5553 45525f54 494d4552 5f305f43  M_USER_TIMER_0_C
 0b80 54524c5f 53495a45 20307831 30303000  TRL_SIZE 0x1000.
 0b90 5f5f6e65 65645f77 63686172 5f74005f  __need_wchar_t._
 0ba0 5f464c54 33325f4d 494e5f45 58505f5f  _FLT32_MIN_EXP__
 0bb0 20282d31 32352900 5f5f464c 54363458   (-125).__FLT64X
 0bc0 5f4d494e 5f455850 5f5f2028 2d313633  _MIN_EXP__ (-163
 0bd0 38312900 4d5f5351 5254315f 3220302e  81).M_SQRT1_2 0.
 0be0 37303731 30363738 31313836 35343735  7071067811865475
 0bf0 32343430 00777269 74655f75 3332005f  2440.write_u32._
 0c00 5f505452 44494646 5f542000 5f676574  _PTRDIFF_T ._get
 0c10 64617465 5f657272 005f6d75 6c740049  date_err._mult.I
 0c20 4e543136 5f4d4158 20285f5f 494e5431  NT16_MAX (__INT1
 0c30 365f4d41 585f5f29 005f5f46 4c543634  6_MAX__).__FLT64
 0c40 5f4d494e 5f31305f 4558505f 5f20282d  _MIN_10_EXP__ (-
 0c50 33303729 00504c49 435f5448 52455348  307).PLIC_THRESH
 0c60 4f4c445f 42415345 20307832 30303030  OLD_BASE 0x20000
 0c70 30005f5f 73697a65 5f742000 5f5f626f  0.__size_t .__bo
 0c80 756e6465 6420005f 5f696e74 5f666173  unded .__int_fas
 0c90 7433325f 745f6465 66696e65 64203100  t32_t_defined 1.
 0ca0 5f5f494e 545f4641 53543634 5f574944  __INT_FAST64_WID
 0cb0 54485f5f 20363400 5f5f464c 5436345f  TH__ 64.__FLT64_
 0cc0 44454349 4d414c5f 4449475f 5f203137  DECIMAL_DIG__ 17
 0cd0 005f5f5f 696e745f 77636861 725f745f  .___int_wchar_t_
 0ce0 6820005f 5245454e 545f494e 49545f50  h ._REENT_INIT_P
 0cf0 54522876 61722920 7b206d65 6d736574  TR(var) { memset
 0d00 28287661 72292c20 302c2073 697a656f  ((var), 0, sizeo
 0d10 66282a28 76617229 29293b20 5f524545  f(*(var))); _REE
 0d20 4e545f49 4e49545f 5054525f 5a45524f  NT_INIT_PTR_ZERO
 0d30 45442876 6172293b 207d0049 4e543136  ED(var); }.INT16
 0d40 5f432878 29205f5f 494e5431 365f4328  _C(x) __INT16_C(
 0d50 78290053 53544154 55533634 5f534420  x).SSTATUS64_SD 
 0d60 30783830 30303030 30303030 30303030  0x80000000000000
 0d70 3030005f 5f434f4e 43415431 28782c79  00.__CONCAT1(x,y
 0d80 29207820 23232079 00504d50 5f582030  ) x ## y.PMP_X 0
 0d90 78303400 5f5f494e 5433325f 43286329  x04.__INT32_C(c)
 0da0 20632023 23204c00 5f5f4f52 4445525f   c ## L.__ORDER_
 0db0 4249475f 454e4449 414e5f5f 20343332  BIG_ENDIAN__ 432
 0dc0 31005f5f 44454331 32385f4d 494e5f5f  1.__DEC128_MIN__
 0dd0 2031452d 36313433 444c0049 4e54385f   1E-6143DL.INT8_
 0de0 4d494e20 282d5f5f 494e5438 5f4d4158  MIN (-__INT8_MAX
 0df0 5f5f202d 20312900 464c545f 4556414c  __ - 1).FLT_EVAL
 0e00 5f4d4554 484f4400 5f5f5028 70726f74  _METHOD.__P(prot
 0e10 6f732920 70726f74 6f730053 59535445  os) protos.SYSTE
 0e20 4d5f434c 494e545f 485a2037 35303030  M_CLINT_HZ 75000
 0e30 30303000 5f5f464c 54313238 5f484153  000.__FLT128_HAS
 0e40 5f515549 45545f4e 414e5f5f 2031005f  _QUIET_NAN__ 1._
 0e50 5359535f 5f535444 494e545f 48200049  SYS__STDINT_H .I
 0e60 4e545f4c 45415354 36345f4d 41582028  NT_LEAST64_MAX (
 0e70 5f5f494e 545f4c45 41535436 345f4d41  __INT_LEAST64_MA
 0e80 585f5f29 00535953 54454d5f 52495343  X__).SYSTEM_RISC
 0e90 565f4953 415f4558 545f5a49 46454e43  V_ISA_EXT_ZIFENC
 0ea0 45203100 5f5f5054 52444946 465f5749  E 1.__PTRDIFF_WI
 0eb0 4454485f 5f203332 00535953 54454d5f  DTH__ 32.SYSTEM_
 0ec0 434c494e 545f4354 524c5f53 495a4520  CLINT_CTRL_SIZE 
 0ed0 30783130 30303000 5f5f7765 616b5f72  0x10000.__weak_r
 0ee0 65666572 656e6365 2873796d 2c616c69  eference(sym,ali
 0ef0 61732920 5f5f6173 6d5f5f28 222e7765  as) __asm__(".we
 0f00 616b2022 2023616c 69617329 3b205f5f  ak " #alias); __
 0f10 61736d5f 5f28222e 65717520 22202361  asm__(".equ " #a
 0f20 6c696173 20222c20 22202373 796d2900  lias ", " #sym).
 0f30 5f5f5549 4e545f46 41535438 5f4d4158  __UINT_FAST8_MAX
 0f40 5f5f2030 78666666 66666666 6655005f  __ 0xffffffffU._
 0f50 4e4f5448 524f5720 005f5f44 45433332  NOTHROW .__DEC32
 0f60 5f455053 494c4f4e 5f5f2031 452d3644  _EPSILON__ 1E-6D
 0f70 46005f5f 6861735f 65787465 6e73696f  F.__has_extensio
 0f80 6e205f5f 6861735f 66656174 75726500  n __has_feature.
 0f90 5f5f7763 68005f5f 6e656564 5f707472  __wch.__need_ptr
 0fa0 64696666 5f74005f 5f494e54 5f4c4541  diff_t.__INT_LEA
 0fb0 53543634 5f545950 455f5f20 6c6f6e67  ST64_TYPE__ long
 0fc0 206c6f6e 6720696e 7400494e 545f4c45   long int.INT_LE
 0fd0 41535438 5f4d4158 20285f5f 494e545f  AST8_MAX (__INT_
 0fe0 4c454153 54385f4d 41585f5f 29005f5f  LEAST8_MAX__).__
 0ff0 464c5436 34585f4d 41585f31 305f4558  FLT64X_MAX_10_EX
 1000 505f5f20 34393332 005f5f53 43484152  P__ 4932.__SCHAR
 1010 5f574944 54485f5f 20380043 41555345  _WIDTH__ 8.CAUSE
 1020 5f494c4c 4547414c 5f494e53 54525543  _ILLEGAL_INSTRUC
 1030 54494f4e 2032005f 5f494e54 5f464153  TION 2.__INT_FAS
 1040 5431365f 57494454 485f5f20 3332005f  T16_WIDTH__ 32._
 1050 5245454e 54205f69 6d707572 655f7074  REENT _impure_pt
 1060 72004d49 455f4d45 49452028 31203c3c  r.MIE_MEIE (1 <<
 1070 20434155 53455f4d 41434849 4e455f45   CAUSE_MACHINE_E
 1080 58544552 4e414c29 004d5f4c 4e324849  XTERNAL).M_LN2HI
 1090 20362e39 33313437 31383033 36393132   6.9314718036912
 10a0 33383136 3439452d 31005f5f 4c454153  381649E-1.__LEAS
 10b0 54333220 226c2200 5f5f494e 54363420  T32 "l".__INT64 
 10c0 226c6c22 005f5f47 43435f41 544f4d49  "ll".__GCC_ATOMI
 10d0 435f504f 494e5445 525f4c4f 434b5f46  C_POINTER_LOCK_F
 10e0 52454520 31005f66 696c6500 5f5f5549  REE 1._file.__UI
 10f0 4e545f46 41535431 365f4d41 585f5f20  NT_FAST16_MAX__ 
 1100 30786666 66666666 66665500 494e545f  0xffffffffU.INT_
 1110 4c454153 5436345f 4d494e20 282d5f5f  LEAST64_MIN (-__
 1120 494e545f 4c454153 5436345f 4d41585f  INT_LEAST64_MAX_
 1130 5f202d20 3129005f 6f6e5f65 7869745f  _ - 1)._on_exit_
 1140 61726773 0046505f 4e414e20 30005f5f  args.FP_NAN 0.__
 1150 494e5450 54525f4d 41585f5f 20307837  INTPTR_MAX__ 0x7
 1160 66666666 66666600 4d5f4c4f 47313045  fffffff.M_LOG10E
 1170 20302e34 33343239 34343831 39303332   0.4342944819032
 1180 35313832 37363500 4d535441 5455535f  5182765.MSTATUS_
 1190 53505020 30783030 30303031 3030005f  SPP 0x00000100._
 11a0 4e6f6e6e 756c6c20 00454e41 424c455f  Nonnull .ENABLE_
 11b0 42524944 47455f46 554c4c5f 544f5f4c  BRIDGE_FULL_TO_L
 11c0 49544520 31004d49 44454c45 475f5355  ITE 1.MIDELEG_SU
 11d0 50455256 49534f52 5f534f46 54574152  PERVISOR_SOFTWAR
 11e0 45202831 203c3c20 3129005f 5f474e55  E (1 << 1).__GNU
 11f0 435f5052 45524551 286d616a 2c6d696e  C_PREREQ(maj,min
 1200 29202828 5f5f474e 55435f5f 203c3c20  ) ((__GNUC__ << 
 1210 31362920 2b205f5f 474e5543 5f4d494e  16) + __GNUC_MIN
 1220 4f525f5f 203e3d20 28286d61 6a29203c  OR__ >= ((maj) <
 1230 3c203136 29202b20 286d696e 2929005f  < 16) + (min))._
 1240 545f5743 48415220 005f4e5f 4c495354  T_WCHAR ._N_LIST
 1250 53203330 005f494e 54505452 5f545f44  S 30._INTPTR_T_D
 1260 45434c41 52454420 005f5641 5f4c4953  ECLARED ._VA_LIS
 1270 545f545f 4820005f 5f464c54 3332585f  T_T_H .__FLT32X_
 1280 4841535f 494e4649 4e495459 5f5f2031  HAS_INFINITY__ 1
 1290 00494e54 5f464153 5433325f 4d494e20  .INT_FAST32_MIN 
 12a0 282d5f5f 494e545f 46415354 33325f4d  (-__INT_FAST32_M
 12b0 41585f5f 202d2031 29005359 5354454d  AX__ - 1).SYSTEM
 12c0 5f504c49 435f4354 524c5f53 495a4520  _PLIC_CTRL_SIZE 
 12d0 30783430 30303030 005f5f52 43534944  0x400000.__RCSID
 12e0 5f534f55 52434528 73292073 74727563  _SOURCE(s) struc
 12f0 74205f5f 6861636b 005f5245 454e545f  t __hack._REENT_
 1300 52414e44 34385f53 45454428 70747229  RAND48_SEED(ptr)
 1310 20282870 7472292d 3e5f6e65 772e5f72   ((ptr)->_new._r
 1320 65656e74 2e5f7234 382e5f73 65656429  eent._r48._seed)
 1330 005f5f55 494e545f 4c454153 54385f54  .__UINT_LEAST8_T
 1340 5950455f 5f20756e 7369676e 65642063  YPE__ unsigned c
 1350 68617200 5f737472 746f6b5f 6c617374  har._strtok_last
 1360 005f5f6c 6f636b73 5f657863 6c757369  .__locks_exclusi
 1370 7665282e 2e2e2920 5f5f6c6f 636b5f61  ve(...) __lock_a
 1380 6e6e6f74 61746528 6578636c 75736976  nnotate(exclusiv
 1390 655f6c6f 636b5f66 756e6374 696f6e28  e_lock_function(
 13a0 5f5f5641 5f415247 535f5f29 29005f6d  __VA_ARGS__))._m
 13b0 62726c65 6e5f7374 61746500 706c6963  brlen_state.plic
 13c0 5f736574 5f707269 6f726974 79005f5f  _set_priority.__
 13d0 72697363 765f666c 6f61745f 6162695f  riscv_float_abi_
 13e0 736f6674 20310053 59535445 4d5f5541  soft 1.SYSTEM_UA
 13f0 52545f30 5f494f5f 50415241 4d455445  RT_0_IO_PARAMETE
 1400 525f5541 52545f43 54524c5f 434f4e46  R_UART_CTRL_CONF
 1410 49475f52 54535f47 454e2030 005f5f49  IG_RTS_GEN 0.__I
 1420 4e545f46 41535436 345f4d41 585f5f20  NT_FAST64_MAX__ 
 1430 30783766 66666666 66666666 66666666  0x7fffffffffffff
 1440 66664c4c 005f5f46 4c543332 585f4445  ffLL.__FLT32X_DE
 1450 43494d41 4c5f4449 475f5f20 31370049  CIMAL_DIG__ 17.I
 1460 4e46494e 49545920 285f5f62 75696c74  NFINITY (__built
 1470 696e5f69 6e666628 2929005f 5f464c54  in_inff()).__FLT
 1480 3332585f 4841535f 51554945 545f4e41  32X_HAS_QUIET_NA
 1490 4e5f5f20 31005f5f 52414e44 5f4d4158  N__ 1.__RAND_MAX
 14a0 20307837 66666666 66666600 5f707574   0x7fffffff._put
 14b0 63686172 5f73005f 5f5f696e 745f6c65  char_s.___int_le
 14c0 61737431 365f745f 64656669 6e656420  ast16_t_defined 
 14d0 31005f5f 44454331 32385f4d 494e5f45  1.__DEC128_MIN_E
 14e0 58505f5f 20282d36 31343229 004d4154  XP__ (-6142).MAT
 14f0 485f4552 52455843 45505420 32005f5f  H_ERREXCEPT 2.__
 1500 494e545f 46415354 385f5459 50455f5f  INT_FAST8_TYPE__
 1510 20696e74 005f4e4f 494e4c49 4e45205f   int._NOINLINE _
 1520 5f617474 72696275 74655f5f 2028285f  _attribute__ ((_
 1530 5f6e6f69 6e6c696e 655f5f29 29005f5f  _noinline__)).__
 1540 73697a65 5f745f5f 20005f5f 464c5431  size_t__ .__FLT1
 1550 32385f4d 494e5f45 58505f5f 20282d31  28_MIN_EXP__ (-1
 1560 36333831 29006373 725f7265 61642863  6381).csr_read(c
 1570 73722920 287b2072 65676973 74657220  sr) ({ register 
 1580 756e7369 676e6564 206c6f6e 67205f5f  unsigned long __
 1590 763b205f 5f61736d 5f5f205f 5f766f6c  v; __asm__ __vol
 15a0 6174696c 655f5f20 28226373 72722025  atile__ ("csrr %
 15b0 302c2022 20236373 72203a20 223d7222  0, " #csr : "=r"
 15c0 20285f5f 7629293b 205f5f76 3b207d29   (__v)); __v; })
 15d0 005f5245 454e545f 52414e44 5f4e4558  ._REENT_RAND_NEX
 15e0 54287074 72292028 28707472 292d3e5f  T(ptr) ((ptr)->_
 15f0 6e65772e 5f726565 6e742e5f 72616e64  new._reent._rand
 1600 5f6e6578 7429005f 5f55494e 544d4158  _next).__UINTMAX
 1610 5f432863 29206320 23232055 4c4c0048  _C(c) c ## ULL.H
 1620 4156455f 494e4954 46494e49 5f415252  AVE_INITFINI_ARR
 1630 41592031 005f5f53 495a454f 465f504f  AY 1.__SIZEOF_PO
 1640 494e5445 525f5f20 3400494e 545f4641  INTER__ 4.INT_FA
 1650 53543634 5f4d494e 20282d5f 5f494e54  ST64_MIN (-__INT
 1660 5f464153 5436345f 4d41585f 5f202d20  _FAST64_MAX__ - 
 1670 3129005f 6c6f6361 6c74696d 655f6275  1)._localtime_bu
 1680 66005f42 53445f57 43484152 5f545f20  f._BSD_WCHAR_T_ 
 1690 005f5f47 43435f41 544f4d49 435f424f  .__GCC_ATOMIC_BO
 16a0 4f4c5f4c 4f434b5f 46524545 20310042  OL_LOCK_FREE 1.B
 16b0 49545f32 32202831 203c3c20 32322900  IT_22 (1 << 22).
 16c0 5f5f5f69 6e743634 5f745f64 6566696e  ___int64_t_defin
 16d0 65642031 005f5f46 4c543634 585f4841  ed 1.__FLT64X_HA
 16e0 535f4445 4e4f524d 5f5f2031 005f5f73  S_DENORM__ 1.__s
 16f0 62756600 64696769 0055494e 54505452  buf.digi.UINTPTR
 1700 5f4d4158 20285f5f 55494e54 5054525f  _MAX (__UINTPTR_
 1710 4d41585f 5f29005f 5f464c54 33325f4d  MAX__).__FLT32_M
 1720 41585f45 58505f5f 20313238 006d6169  AX_EXP__ 128.mai
 1730 6e005f5f 55494e54 4d41585f 54595045  n.__UINTMAX_TYPE
 1740 5f5f206c 6f6e6720 6c6f6e67 20756e73  __ long long uns
 1750 69676e65 6420696e 74005f41 54455849  igned int._ATEXI
 1760 545f5349 5a452033 32005f66 6e747970  T_SIZE 32._fntyp
 1770 6573005f 5f4c4442 4c5f4445 4e4f524d  es.__LDBL_DENORM
 1780 5f4d494e 5f5f2036 2e343735 31373531  _MIN__ 6.4751751
 1790 31393433 38303235 31313039 32343433  1943802511092443
 17a0 38393538 32323736 34363535 652d3439  895822764655e-49
 17b0 36364c00 504d505f 41203078 31380077  66L.PMP_A 0x18.w
 17c0 6f726400 5f55494e 5436345f 545f4445  ord._UINT64_T_DE
 17d0 434c4152 45442000 5f53495a 455f545f  CLARED ._SIZE_T_
 17e0 4445434c 41524544 20004d53 54415455  DECLARED .MSTATU
 17f0 535f5853 20307830 30303138 30303000  S_XS 0x00018000.
 1800 5f5f4348 41523332 5f545950 455f5f20  __CHAR32_TYPE__ 
 1810 6c6f6e67 20756e73 69676e65 6420696e  long unsigned in
 1820 74004249 545f3420 2831203c 3c203429  t.BIT_4 (1 << 4)
 1830 005f5f43 435f5355 50504f52 54535f44  .__CC_SUPPORTS_D
 1840 594e414d 49435f41 52524159 5f494e49  YNAMIC_ARRAY_INI
 1850 54203100 5f5f756e 75736564 205f5f61  T 1.__unused __a
 1860 74747269 62757465 5f5f2828 5f5f756e  ttribute__((__un
 1870 75736564 5f5f2929 005f5f55 494e545f  used__)).__UINT_
 1880 46415354 33325f4d 41585f5f 20307866  FAST32_MAX__ 0xf
 1890 66666666 66666655 005f5f74 6d5f6d6f  fffffffU.__tm_mo
 18a0 6e005f5f 464c545f 4d41585f 4558505f  n.__FLT_MAX_EXP_
 18b0 5f203132 38005f5f 53495a45 4f465f4c  _ 128.__SIZEOF_L
 18c0 4f4e475f 5f203400 53595354 454d5f49  ONG__ 4.SYSTEM_I
 18d0 32435f41 5f415042 20535953 54454d5f  2C_A_APB SYSTEM_
 18e0 4932435f 305f494f 5f415042 004d4944  I2C_0_IO_APB.MID
 18f0 454c4547 5f535550 45525649 534f525f  ELEG_SUPERVISOR_
 1900 45585445 524e414c 20283120 3c3c2039  EXTERNAL (1 << 9
 1910 29004650 5f535542 4e4f524d 414c2033  ).FP_SUBNORMAL 3
 1920 005f5245 41445f57 52495445 5f425546  ._READ_WRITE_BUF
 1930 53495a45 5f545950 4520696e 74004c4f  SIZE_TYPE int.LO
 1940 4f505f55 44454c41 59203130 30303030  OP_UDELAY 100000
 1950 005f5f53 495a454f 465f444f 55424c45  .__SIZEOF_DOUBLE
 1960 5f5f2038 005f5f49 4e545f4c 45415354  __ 8.__INT_LEAST
 1970 33325f57 49445448 5f5f2033 32005f43  32_WIDTH__ 32._C
 1980 4c4f434b 5f545f20 756e7369 676e6564  LOCK_T_ unsigned
 1990 206c6f6e 67005f54 494d455f 545f205f   long._TIME_T_ _
 19a0 5f696e74 5f6c6561 73743634 5f740044  _int_least64_t.D
 19b0 3a5c5f75 6e6f5c32 3430332d 47697448  :\_uno\2403-GitH
 19c0 75625c74 6573742d 7265706f 5c657861  ub\test-repo\exa
 19d0 6d706c65 5f746936 305f3173 74675f62  mple_ti60_1stg_b
 19e0 6f6f746c 6f616465 725c656d 62656464  ootloader\embedd
 19f0 65645f73 775c7361 705c736f 66747761  ed_sw\sap\softwa
 1a00 72655c73 74616e64 616c6f6e 655c6770  re\standalone\gp
 1a10 696f4465 6d6f5f54 72696e69 74610053  ioDemo_Trinita.S
 1a20 59535445 4d5f434f 5245535f 305f4346  YSTEM_CORES_0_CF
 1a30 55203000 74726170 005f5f73 796d5f63  U 0.trap.__sym_c
 1a40 6f6d7061 74287379 6d2c696d 706c2c76  ompat(sym,impl,v
 1a50 65726964 29205f5f 61736d5f 5f28222e  erid) __asm__(".
 1a60 73796d76 65722022 2023696d 706c2022  symver " #impl "
 1a70 2c202220 2373796d 20224022 20237665  , " #sym "@" #ve
 1a80 72696429 005f5f46 41535431 36200053  rid).__FAST16 .S
 1a90 53544154 55535f55 50494520 30783030  STATUS_UPIE 0x00
 1aa0 30303030 3130005f 5f4c4152 47454649  000010.__LARGEFI
 1ab0 4c455f56 49534942 4c452030 005f5f44  LE_VISIBLE 0.__D
 1ac0 45433634 5f4d4158 5f5f2039 2e393939  EC64_MAX__ 9.999
 1ad0 39393939 39393939 39393939 45333834  999999999999E384
 1ae0 4444005f 5f4e4557 4c49425f 5f203300  DD.__NEWLIB__ 3.
 1af0 5f5f7269 7363765f 64697620 31004558  __riscv_div 1.EX
 1b00 49545f53 55434345 53532030 005f5f46  IT_SUCCESS 0.__F
 1b10 4c545f4d 494e5f31 305f4558 505f5f20  LT_MIN_10_EXP__ 
 1b20 282d3337 29005f5f 41534d4e 414d4528  (-37).__ASMNAME(
 1b30 636e616d 6529205f 5f585354 52494e47  cname) __XSTRING
 1b40 20285f5f 55534552 5f4c4142 454c5f50   (__USER_LABEL_P
 1b50 52454649 585f5f29 20636e61 6d65006d  REFIX__) cname.m
 1b60 6174685f 65727268 616e646c 696e6720  ath_errhandling 
 1b70 4d415448 5f455252 4e4f005f 5f464c54  MATH_ERRNO.__FLT
 1b80 5f444543 494d414c 5f444947 5f5f2039  _DECIMAL_DIG__ 9
 1b90 00425350 5f4d4143 48494e45 5f54494d  .BSP_MACHINE_TIM
 1ba0 45525f48 5a205359 5354454d 5f434c49  ER_HZ SYSTEM_CLI
 1bb0 4e545f48 5a005f75 6e757365 645f7261  NT_HZ._unused_ra
 1bc0 6e64005f 55494e54 385f545f 4445434c  nd._UINT8_T_DECL
 1bd0 41524544 20005244 4359434c 45482030  ARED .RDCYCLEH 0
 1be0 78433830 005f5f61 73736572 74735f65  xC80.__asserts_e
 1bf0 78636c75 73697665 282e2e2e 29205f5f  xclusive(...) __
 1c00 6c6f636b 5f616e6e 6f746174 65286173  lock_annotate(as
 1c10 73657274 5f657863 6c757369 76655f6c  sert_exclusive_l
 1c20 6f636b28 5f5f5641 5f415247 535f5f29  ock(__VA_ARGS__)
 1c30 2900494e 544d4158 5f4d494e 20282d49  ).INTMAX_MIN (-I
 1c40 4e544d41 585f4d41 58202d20 3129005f  NTMAX_MAX - 1)._
 1c50 5f464c54 33325f44 454e4f52 4d5f4d49  _FLT32_DENORM_MI
 1c60 4e5f5f20 312e3430 31323938 34363433  N__ 1.4012984643
 1c70 32343831 37303730 39323337 32393538  2481707092372958
 1c80 33323839 39313631 33652d34 35463332  328991613e-45F32
 1c90 005f5f70 74725f74 20766f69 64202a00  .__ptr_t void *.
 1ca0 5f5f474e 55435f53 5444435f 494e4c49  __GNUC_STDC_INLI
 1cb0 4e455f5f 2031005f 5245454e 545f5241  NE__ 1._REENT_RA
 1cc0 4e443438 5f414444 28707472 29202828  ND48_ADD(ptr) ((
 1cd0 70747229 2d3e5f6e 65772e5f 7265656e  ptr)->_new._reen
 1ce0 742e5f72 34382e5f 61646429 00574348  t._r48._add).WCH
 1cf0 41525f4d 494e2028 5f5f5743 4841525f  AR_MIN (__WCHAR_
 1d00 4d494e5f 5f29005f 5f494e54 36345f43  MIN__).__INT64_C
 1d10 28632920 63202323 204c4c00 5f524545  (c) c ## LL._REE
 1d20 4e545f43 4845434b 5f4d4953 43287074  NT_CHECK_MISC(pt
 1d30 72292000 5f5f464c 545f4841 535f5155  r) .__FLT_HAS_QU
 1d40 4945545f 4e414e5f 5f203100 5f5f474e  IET_NAN__ 1.__GN
 1d50 55435f50 41544348 4c455645 4c5f5f20  UC_PATCHLEVEL__ 
 1d60 30005f5f 4743435f 41544f4d 49435f43  0.__GCC_ATOMIC_C
 1d70 48415233 325f545f 4c4f434b 5f465245  HAR32_T_LOCK_FRE
 1d80 45203100 6973756e 6f726465 72656428  E 1.isunordered(
 1d90 5f5f782c 5f5f7929 20285f5f 6275696c  __x,__y) (__buil
 1da0 74696e5f 6973756e 6f726465 72656420  tin_isunordered 
 1db0 285f5f78 2c205f5f 79292900 5f5f616c  (__x, __y)).__al
 1dc0 6c6f635f 616c6967 6e287829 205f5f61  loc_align(x) __a
 1dd0 74747269 62757465 5f5f2828 5f5f616c  ttribute__((__al
 1de0 6c6f635f 616c6967 6e5f5f28 78292929  loc_align__(x)))
 1df0 005f5749 44455f4f 5249454e 54203100  ._WIDE_ORIENT 1.
 1e00 5f5f5549 4e545f4c 45415354 31365f4d  __UINT_LEAST16_M
 1e10 41585f5f 20307866 66666600 5f737464  AX__ 0xffff._std
 1e20 6f757400 5f5f7379 6d5f6465 6661756c  out.__sym_defaul
 1e30 74287379 6d2c696d 706c2c76 65726964  t(sym,impl,verid
 1e40 29205f5f 61736d5f 5f28222e 73796d76  ) __asm__(".symv
 1e50 65722022 2023696d 706c2022 2c202220  er " #impl ", " 
 1e60 2373796d 20224040 22202376 65726964  #sym "@@" #verid
 1e70 29005f5f 53544443 5f564552 53494f4e  ).__STDC_VERSION
 1e80 5f5f2032 30313731 304c005f 4d425f4c  __ 201710L._MB_L
 1e90 454e5f4d 41582031 005f5f70 72656469  EN_MAX 1.__predi
 1ea0 63745f74 72756528 65787029 205f5f62  ct_true(exp) __b
 1eb0 75696c74 696e5f65 78706563 74282865  uiltin_expect((e
 1ec0 7870292c 20312900 5f5f464c 54333258  xp), 1).__FLT32X
 1ed0 5f44454e 4f524d5f 4d494e5f 5f20342e  _DENORM_MIN__ 4.
 1ee0 39343036 35363435 38343132 34363534  9406564584124654
 1ef0 34313736 35363837 39323836 38323231  4176568792868221
 1f00 33373265 2d333234 46333278 006c6f67  372e-324F32x.log
 1f10 32287829 20286c6f 67202878 29202f20  2(x) (log (x) / 
 1f20 5f4d5f4c 4e322900 5f5f464c 5436345f  _M_LN2).__FLT64_
 1f30 4d41585f 31305f45 58505f5f 20333038  MAX_10_EXP__ 308
 1f40 004d5354 41545553 5f465320 30783030  .MSTATUS_FS 0x00
 1f50 30303630 30300053 59535445 4d5f5249  006000.SYSTEM_RI
 1f60 5343565f 4953415f 4558545f 5a494353  SCV_ISA_EXT_ZICS
 1f70 52203100 5f5f6174 74726962 7574655f  R 1.__attribute_
 1f80 666f726d 61745f73 7472666d 6f6e5f5f  format_strfmon__
 1f90 28612c62 2920005f 4253445f 53495a45  (a,b) ._BSD_SIZE
 1fa0 5f545f44 4546494e 45445f20 005f5f55  _T_DEFINED_ .__U
 1fb0 494e545f 46415354 33325f54 5950455f  INT_FAST32_TYPE_
 1fc0 5f20756e 7369676e 65642069 6e740049  _ unsigned int.I
 1fd0 4f5f4150 425f534c 4156455f 305f494e  O_APB_SLAVE_0_IN
 1fe0 50555420 30786638 31303030 3030005f  PUT 0xf8100000._
 1ff0 5f535444 435f5554 465f3332 5f5f2031  _STDC_UTF_32__ 1
 2000 005f5f46 4c543634 5f484153 5f515549  .__FLT64_HAS_QUI
 2010 45545f4e 414e5f5f 2031005f 5f464c54  ET_NAN__ 1.__FLT
 2020 33325f45 5053494c 4f4e5f5f 20312e31  32_EPSILON__ 1.1
 2030 39323039 32383935 35303738 31323530  9209289550781250
 2040 30303030 30303030 30303030 30303030  0000000000000000
 2050 3030652d 37463332 005f5f47 4e55434c  00e-7F32.__GNUCL
 2060 494b455f 4d415448 5f425549 4c54494e  IKE_MATH_BUILTIN
 2070 5f52454c 4f505320 005f5f46 4c545f4d  _RELOPS .__FLT_M
 2080 41585f31 305f4558 505f5f20 3338005f  AX_10_EXP__ 38._
 2090 5f504d54 28617267 73292061 72677300  _PMT(args) args.
 20a0 5f5f4445 43313238 5f4d4158 5f5f2039  __DEC128_MAX__ 9
 20b0 2e393939 39393939 39393939 39393939  .999999999999999
 20c0 39393939 39393939 39393939 39393939  9999999999999999
 20d0 39394536 31343444 4c005f5f 44454331  99E6144DL.__DEC1
 20e0 32385f4d 41585f45 58505f5f 20363134  28_MAX_EXP__ 614
 20f0 35005f53 59535f43 44454653 5f485f20  5._SYS_CDEFS_H_ 
 2100 005f5f66 6f726d61 745f6172 6728666d  .__format_arg(fm
 2110 74617267 29205f5f 61747472 69627574  targ) __attribut
 2120 655f5f28 285f5f66 6f726d61 745f6172  e__((__format_ar
 2130 675f5f20 28666d74 61726729 2929005f  g__ (fmtarg)))._
 2140 5f494e54 5f464153 5433325f 4d41585f  _INT_FAST32_MAX_
 2150 5f203078 37666666 66666666 005f5f41  _ 0x7fffffff.__A
 2160 544f4d49 435f5345 515f4353 54203500  TOMIC_SEQ_CST 5.
 2170 7372632f 6d61696e 2e630042 53505f50  src/main.c.BSP_P
 2180 4c494320 53595354 454d5f50 4c49435f  LIC SYSTEM_PLIC_
 2190 4354524c 00535354 41545553 5f55584c  CTRL.SSTATUS_UXL
 21a0 20307830 30303030 30303330 30303030   0x0000000300000
 21b0 30303000 5f756e73 70656369 66696564  000._unspecified
 21c0 5f6c6f63 616c655f 696e666f 005f5f6e  _locale_info.__n
 21d0 6565645f 77696e74 5f740043 4c494e54  eed_wint_t.CLINT
 21e0 5f54494d 455f4144 44522030 78424646  _TIME_ADDR 0xBFF
 21f0 38005359 5354454d 5f504c49 435f5359  8.SYSTEM_PLIC_SY
 2200 5354454d 5f535049 5f305f49 4f5f494e  STEM_SPI_0_IO_IN
 2210 54455252 55505420 3400494e 545f4641  TERRUPT 4.INT_FA
 2220 5354385f 4d415820 285f5f49 4e545f46  ST8_MAX (__INT_F
 2230 41535438 5f4d4158 5f5f2900 4750494f  AST8_MAX__).GPIO
 2240 5f494e50 55542030 78303000 5f726565  _INPUT 0x00._ree
 2250 6e740055 494e544d 41585f4d 41582028  nt.UINTMAX_MAX (
 2260 5f5f5549 4e544d41 585f4d41 585f5f29  __UINTMAX_MAX__)
 2270 004d5354 41545553 5f4d5852 20307830  .MSTATUS_MXR 0x0
 2280 30303830 30303000 5f5f6275 696c7469  0080000.__builti
 2290 6e5f7661 5f6c6973 74005f48 4156455f  n_va_list._HAVE_
 22a0 4c4f4e47 5f444f55 424c4520 31005f5f  LONG_DOUBLE 1.__
 22b0 696e745f 66617374 36345f74 5f646566  int_fast64_t_def
 22c0 696e6564 2031005f 5245454e 545f454d  ined 1._REENT_EM
 22d0 45524745 4e43595f 53495a45 20323500  ERGENCY_SIZE 25.
 22e0 434c494e 545f4950 495f4144 44522030  CLINT_IPI_ADDR 0
 22f0 78303030 30005f5f 4c44424c 5f4d4158  x0000.__LDBL_MAX
 2300 5f455850 5f5f2031 36333834 00726561  _EXP__ 16384.rea
 2310 64526567 5f753332 286e616d 652c6f66  dReg_u32(name,of
 2320 66736574 29207374 61746963 20696e6c  fset) static inl
 2330 696e6520 75333220 6e616d65 28753332  ine u32 name(u32
 2340 20726567 297b2072 65747572 6e207265   reg){ return re
 2350 61645f75 33322872 6567202b 206f6666  ad_u32(reg + off
 2360 73657429 3b207d00 5f5f5349 5a454f46  set); }.__SIZEOF
 2370 5f53484f 52545f5f 2032005f 53495a45  _SHORT__ 2._SIZE
 2380 5f545f44 4546494e 45442000 43415553  _T_DEFINED .CAUS
 2390 455f5343 414c4c20 39005f75 6e757365  E_SCALL 9._unuse
 23a0 64005f5f 676e7563 5f76615f 6c697374  d.__gnuc_va_list
 23b0 005f5f46 4c545f4d 41585f5f 20332e34  .__FLT_MAX__ 3.4
 23c0 30323832 33343636 33383532 38383539  0282346638528859
 23d0 38313137 30343138 33343834 35313639  8117041834845169
 23e0 3235652b 33384600 5f535953 5f464541  25e+38F._SYS_FEA
 23f0 54555245 535f4820 005f696e 63005f4d  TURES_H ._inc._M
 2400 41434853 54444c49 425f485f 20005f5f  ACHSTDLIB_H_ .__
 2410 44424c5f 44454349 4d414c5f 4449475f  DBL_DECIMAL_DIG_
 2420 5f203137 005f5f47 4e55434c 494b455f  _ 17.__GNUCLIKE_
 2430 4255494c 54494e5f 4e455854 5f415247  BUILTIN_NEXT_ARG
 2440 2031005f 5f464c54 3132385f 4d494e5f   1.__FLT128_MIN_
 2450 5f20332e 33363231 30333134 33313132  _ 3.362103143112
 2460 30393335 30363236 32363737 38313733  0935062626778173
 2470 32313735 32363065 2d343933 32463132  2175260e-4932F12
 2480 38006973 6c657373 65717561 6c285f5f  8.islessequal(__
 2490 782c5f5f 79292028 5f5f6275 696c7469  x,__y) (__builti
 24a0 6e5f6973 6c657373 65717561 6c20285f  n_islessequal (_
 24b0 5f782c20 5f5f7929 29005f5f 50524147  _x, __y)).__PRAG
 24c0 4d415f52 45444546 494e455f 4558544e  MA_REDEFINE_EXTN
 24d0 414d4520 31005f53 54444445 465f485f  AME 1._STDDEF_H_
 24e0 20005f49 4545455f 205f5f66 646c6962   ._IEEE_ __fdlib
 24f0 6d5f6965 65650053 59535445 4d5f5541  m_ieee.SYSTEM_UA
 2500 52545f30 5f494f5f 50415241 4d455445  RT_0_IO_PARAMETE
 2510 525f5541 52545f43 54524c5f 434f4e46  R_UART_CTRL_CONF
 2520 49475f50 52455f53 414d504c 494e475f  IG_PRE_SAMPLING_
 2530 53495a45 20310049 4e544d41 585f4328  SIZE 1.INTMAX_C(
 2540 7829205f 5f494e54 4d41585f 43287829  x) __INTMAX_C(x)
 2550 00505452 44494646 5f4d494e 20282d50  .PTRDIFF_MIN (-P
 2560 54524449 46465f4d 4158202d 20312900  TRDIFF_MAX - 1).
 2570 76615f73 74617274 28762c6c 29205f5f  va_start(v,l) __
 2580 6275696c 74696e5f 76615f73 74617274  builtin_va_start
 2590 28762c6c 29004d5f 4c4e3130 20322e33  (v,l).M_LN10 2.3
 25a0 30323538 35303932 39393430 34353638  0258509299404568
 25b0 34303200 5f666e73 005f5f57 43484152  402._fns.__WCHAR
 25c0 5f4d4158 5f5f2030 78376666 66666666  _MAX__ 0x7ffffff
 25d0 66005f5f 55494e54 5f464153 5436345f  f.__UINT_FAST64_
 25e0 54595045 5f5f206c 6f6e6720 6c6f6e67  TYPE__ long long
 25f0 20756e73 69676e65 6420696e 74005f52   unsigned int._R
 2600 45454e54 5f4d4252 544f5743 5f535441  EENT_MBRTOWC_STA
 2610 54452870 74722920 28287074 72292d3e  TE(ptr) ((ptr)->
 2620 5f6e6577 2e5f7265 656e742e 5f6d6272  _new._reent._mbr
 2630 746f7763 5f737461 74652900 5f57494e  towc_state)._WIN
 2640 545f5420 005f6d62 72746f77 635f7374  T_T ._mbrtowc_st
 2650 61746500 5f5f6c6f 636b5f63 6c6f7365  ate.__lock_close
 2660 286c6f63 6b292028 28766f69 64292030  (lock) ((void) 0
 2670 29005f63 6c6f7365 004d4544 454c4547  )._close.MEDELEG
 2680 5f555345 525f454e 5649524f 4e4e454d  _USER_ENVIRONNEM
 2690 454e545f 43414c4c 20283120 3c3c2038  ENT_CALL (1 << 8
 26a0 29007369 676e6761 6d20282a 5f5f7369  ).signgam (*__si
 26b0 676e6761 6d282929 0046505f 5a45524f  gngam()).FP_ZERO
 26c0 2032005f 5f424947 47455354 5f414c49   2.__BIGGEST_ALI
 26d0 474e4d45 4e545f5f 20313600 5349475f  GNMENT__ 16.SIG_
 26e0 41544f4d 49435f4d 41582028 5f5f5354  ATOMIC_MAX (__ST
 26f0 44494e54 5f455850 28494e54 5f4d4158  DINT_EXP(INT_MAX
 2700 2929005f 5f6e6f69 6e6c696e 65205f5f  )).__noinline __
 2710 61747472 69627574 655f5f20 28285f5f  attribute__ ((__
 2720 6e6f696e 6c696e65 5f5f2929 00636c69  noinline__)).cli
 2730 6e745f67 65745469 6d654c6f 77006d61  nt_getTimeLow.ma
 2740 6368696e 6554696d 65725f73 6574436d  chineTimer_setCm
 2750 7028702c 636d7029 20636c69 6e745f73  p(p,cmp) clint_s
 2760 6574436d 7028702c 20636d70 2c203029  etCmp(p, cmp, 0)
 2770 3b005f5f 44454333 325f4d49 4e5f4558  ;.__DEC32_MIN_EX
 2780 505f5f20 282d3934 29004750 494f5f4f  P__ (-94).GPIO_O
 2790 55545055 54203078 30340053 59535445  UTPUT 0x04.SYSTE
 27a0 4d5f4932 435f315f 494f5f43 54524c5f  M_I2C_1_IO_CTRL_
 27b0 53495a45 20307831 3030005f 5f776561  SIZE 0x100.__wea
 27c0 6b5f7379 6d626f6c 205f5f61 74747269  k_symbol __attri
 27d0 62757465 5f5f2828 5f5f7765 616b5f5f  bute__((__weak__
 27e0 29290053 59535445 4d5f5350 495f305f  )).SYSTEM_SPI_0_
 27f0 494f5f43 54524c5f 53495a45 20307831  IO_CTRL_SIZE 0x1
 2800 30303000 53595354 454d5f47 50494f5f  000.SYSTEM_GPIO_
 2810 305f494f 5f435452 4c203078 66383031  0_IO_CTRL 0xf801
 2820 36303030 005f5f75 73656420 5f5f6174  6000.__used __at
 2830 74726962 7574655f 5f28285f 5f757365  tribute__((__use
 2840 645f5f29 29005f5f 67656e65 72696328  d__)).__generic(
 2850 65787072 2c742c79 65732c6e 6f29205f  expr,t,yes,no) _
 2860 47656e65 72696328 65787072 2c20743a  Generic(expr, t:
 2870 20796573 2c206465 6661756c 743a206e   yes, default: n
 2880 6f29005f 5245454e 545f454d 45524745  o)._REENT_EMERGE
 2890 4e435928 70747229 20282870 7472292d  NCY(ptr) ((ptr)-
 28a0 3e5f656d 65726765 6e637929 00535953  >_emergency).SYS
 28b0 54454d5f 55415254 5f305f49 4f5f5041  TEM_UART_0_IO_PA
 28c0 52414d45 5445525f 494e4954 5f434f4e  RAMETER_INIT_CON
 28d0 4649475f 53544f50 204f4e45 005f5f55  FIG_STOP ONE.__U
 28e0 494e5438 5f4d4158 5f5f2030 78666600  INT8_MAX__ 0xff.
 28f0 5f5f5f69 6e743136 5f745f64 6566696e  ___int16_t_defin
 2900 65642031 005f5f46 4c545f45 5053494c  ed 1.__FLT_EPSIL
 2910 4f4e5f5f 20312e31 39323039 32383935  ON__ 1.192092895
 2920 35303738 31323530 30303030 30303030  5078125000000000
 2930 30303030 30303030 3030652d 37460042  0000000000e-7F.B
 2940 49545f32 31202831 203c3c20 32312900  IT_21 (1 << 21).
 2950 6273705f 7544656c 61792875 73656329  bsp_uDelay(usec)
 2960 20636c69 6e745f75 44656c61 79287573   clint_uDelay(us
 2970 65632c20 53595354 454d5f43 4c494e54  ec, SYSTEM_CLINT
 2980 5f485a2c 20535953 54454d5f 434c494e  _HZ, SYSTEM_CLIN
 2990 545f4354 524c293b 005f7374 64696e00  T_CTRL);._stdin.
 29a0 5f5f4445 43494d41 4c5f4449 475f5f20  __DECIMAL_DIG__ 
 29b0 33360067 70696f5f 6765744f 75747075  36.gpio_getOutpu
 29c0 74005f5f 44424c5f 4841535f 44454e4f  t.__DBL_HAS_DENO
 29d0 524d5f5f 2031006d 61636869 6e655469  RM__ 1.machineTi
 29e0 6d65725f 7544656c 61792875 7365632c  mer_uDelay(usec,
 29f0 687a2c72 65672920 636c696e 745f7544  hz,reg) clint_uD
 2a00 656c6179 28757365 632c2068 7a2c2072  elay(usec, hz, r
 2a10 6567293b 005f5f43 435f5355 50504f52  eg);.__CC_SUPPOR
 2a20 54535f5f 5f494e4c 494e4520 31006578  TS___INLINE 1.ex
 2a30 7465726e 616c496e 74657272 75707400  ternalInterrupt.
 2a40 494e544d 41585f4d 41582028 5f5f494e  INTMAX_MAX (__IN
 2a50 544d4158 5f4d4158 5f5f2900 494e5433  TMAX_MAX__).INT3
 2a60 325f4d41 5820285f 5f494e54 33325f4d  2_MAX (__INT32_M
 2a70 41585f5f 29006770 696f5f73 65744f75  AX__).gpio_setOu
 2a80 74707574 456e6162 6c650053 59535445  tputEnable.SYSTE
 2a90 4d5f5249 5343565f 4953415f 4558545f  M_RISCV_ISA_EXT_
 2aa0 46203000 5f545f50 54524449 46465f20  F 0._T_PTRDIFF_ 
 2ab0 005f5f61 74747269 62757465 5f6d616c  .__attribute_mal
 2ac0 6c6f635f 5f20005f 5f494e54 5f4c4541  loc__ .__INT_LEA
 2ad0 53543136 5f4d4158 5f5f2030 78376666  ST16_MAX__ 0x7ff
 2ae0 66005f5f 464c5431 32385f4d 41585f45  f.__FLT128_MAX_E
 2af0 58505f5f 20313633 3834005f 5f4c4541  XP__ 16384.__LEA
 2b00 53543820 22686822 005f5f6e 6565645f  ST8 "hh".__need_
 2b10 73697a65 5f742000 534f435f 4820005f  size_t .SOC_H ._
 2b20 5f726574 75726e73 5f747769 6365205f  _returns_twice _
 2b30 5f617474 72696275 74655f5f 28285f5f  _attribute__((__
 2b40 72657475 726e735f 74776963 655f5f29  returns_twice__)
 2b50 29005359 5354454d 5f554152 545f305f  ).SYSTEM_UART_0_
 2b60 494f5f50 4152414d 45544552 5f554152  IO_PARAMETER_UAR
 2b70 545f4354 524c5f43 4f4e4649 475f5341  T_CTRL_CONFIG_SA
 2b80 4d504c49 4e475f53 495a4520 35005f45  MPLING_SIZE 5._E
 2b90 4e445f53 54445f43 20006973 6e616e28  ND_STD_C .isnan(
 2ba0 5f5f7829 20285f5f 6275696c 74696e5f  __x) (__builtin_
 2bb0 69736e61 6e20285f 5f782929 00504d50  isnan (__x)).PMP
 2bc0 5f572030 78303200 5f5f6861 735f696e  _W 0x02.__has_in
 2bd0 636c7564 655f6e65 78742853 54522920  clude_next(STR) 
 2be0 5f5f6861 735f696e 636c7564 655f6e65  __has_include_ne
 2bf0 78745f5f 28535452 29004558 49545f46  xt__(STR).EXIT_F
 2c00 41494c55 52452031 0055494e 545f4c45  AILURE 1.UINT_LE
 2c10 41535431 365f4d41 5820285f 5f55494e  AST16_MAX (__UIN
 2c20 545f4c45 41535431 365f4d41 585f5f29  T_LEAST16_MAX__)
 2c30 005f5f55 494e5433 325f4328 63292063  .__UINT32_C(c) c
 2c40 20232320 554c005f 5f737472 6674696d   ## UL.__strftim
 2c50 656c696b 6528666d 74617267 2c666972  elike(fmtarg,fir
 2c60 73747661 72617267 29205f5f 61747472  stvararg) __attr
 2c70 69627574 655f5f28 285f5f66 6f726d61  ibute__((__forma
 2c80 745f5f20 285f5f73 74726674 696d655f  t__ (__strftime_
 2c90 5f2c2066 6d746172 672c2066 69727374  _, fmtarg, first
 2ca0 76617261 72672929 29005f4e 756c6c5f  vararg)))._Null_
 2cb0 756e7370 65636966 69656420 00424954  unspecified .BIT
 2cc0 5f323320 2831203c 3c203233 29005f5f  _23 (1 << 23).__
 2cd0 4743435f 41544f4d 49435f53 484f5254  GCC_ATOMIC_SHORT
 2ce0 5f4c4f43 4b5f4652 45452031 005f5743  _LOCK_FREE 1._WC
 2cf0 4841525f 545f4445 46494e45 445f2000  HAR_T_DEFINED_ .
 2d00 4253505f 4d414348 494e455f 54494d45  BSP_MACHINE_TIME
 2d10 52205359 5354454d 5f434c49 4e545f43  R SYSTEM_CLINT_C
 2d20 54524c00 46505f49 4c4f4742 4e414e20  TRL.FP_ILOGBNAN 
 2d30 5f5f494e 545f4d41 585f5f00 48554745  __INT_MAX__.HUGE
 2d40 5f56414c 4c20285f 5f627569 6c74696e  _VALL (__builtin
 2d50 5f687567 655f7661 6c6c2829 29004d5f  _huge_vall()).M_
 2d60 4c4f4732 4520312e 34343236 39353034  LOG2E 1.44269504
 2d70 30383838 39363334 30373400 4249545f  08889634074.BIT_
 2d80 33202831 203c3c20 33290042 49545f31  3 (1 << 3).BIT_1
 2d90 30202831 203c3c20 31302900 494e545f  0 (1 << 10).INT_
 2da0 4c454153 5433325f 4d415820 285f5f49  LEAST32_MAX (__I
 2db0 4e545f4c 45415354 33325f4d 41585f5f  NT_LEAST32_MAX__
 2dc0 29005f6c 6f63616c 6500494e 545f4c45  )._locale.INT_LE
 2dd0 41535433 325f4d49 4e20282d 5f5f494e  AST32_MIN (-__IN
 2de0 545f4c45 41535433 325f4d41 585f5f20  T_LEAST32_MAX__ 
 2df0 2d203129 00554152 545f4652 414d455f  - 1).UART_FRAME_
 2e00 434f4e46 49472030 78304300 4249545f  CONFIG 0x0C.BIT_
 2e10 32342028 31203c3c 20323429 00637372  24 (1 << 24).csr
 2e20 5f636c65 61722863 73722c76 616c2920  _clear(csr,val) 
 2e30 287b2075 6e736967 6e656420 6c6f6e67  ({ unsigned long
 2e40 205f5f76 203d2028 756e7369 676e6564   __v = (unsigned
 2e50 206c6f6e 67292876 616c293b 205f5f61   long)(val); __a
 2e60 736d5f5f 205f5f76 6f6c6174 696c655f  sm__ __volatile_
 2e70 5f202822 63737263 20222023 63737220  _ ("csrc " #csr 
 2e80 222c2025 3022203a 203a2022 724b2220  ", %0" : : "rK" 
 2e90 285f5f76 29293b20 7d290063 73725f72  (__v)); }).csr_r
 2ea0 6561645f 73657428 6373722c 76616c29  ead_set(csr,val)
 2eb0 20287b20 756e7369 676e6564 206c6f6e   ({ unsigned lon
 2ec0 67205f5f 76203d20 28756e73 69676e65  g __v = (unsigne
 2ed0 64206c6f 6e672928 76616c29 3b205f5f  d long)(val); __
 2ee0 61736d5f 5f205f5f 766f6c61 74696c65  asm__ __volatile
 2ef0 5f5f2028 22637372 72732025 302c2022  __ ("csrrs %0, "
 2f00 20236373 7220222c 20253122 203a2022   #csr ", %1" : "
 2f10 3d722220 285f5f76 29203a20 22724b22  =r" (__v) : "rK"
 2f20 20285f5f 7629293b 205f5f76 3b207d29   (__v)); __v; })
 2f30 005f5f47 43435f41 544f4d49 435f5445  .__GCC_ATOMIC_TE
 2f40 53545f41 4e445f53 45545f54 52554556  ST_AND_SET_TRUEV
 2f50 414c2031 00636c69 6e745f75 44656c61  AL 1.clint_uDela
 2f60 7900454e 41424c45 5f46505f 4558504f  y.ENABLE_FP_EXPO
 2f70 4e454e54 49414c5f 53555050 4f525420  NENTIAL_SUPPORT 
 2f80 30005f5f 4d495343 5f564953 49424c45  0.__MISC_VISIBLE
 2f90 2031005f 56415f4c 4953545f 44454649   1._VA_LIST_DEFI
 2fa0 4e454420 005f5f57 43484152 5f4d494e  NED .__WCHAR_MIN
 2fb0 5f5f2028 2d5f5f57 43484152 5f4d4158  __ (-__WCHAR_MAX
 2fc0 5f5f202d 20312900 5f5f464c 5433325f  __ - 1).__FLT32_
 2fd0 4841535f 51554945 545f4e41 4e5f5f20  HAS_QUIET_NAN__ 
 2fe0 31005f5f 4f42534f 4c455445 5f4d4154  1.__OBSOLETE_MAT
 2ff0 48205f5f 4f42534f 4c455445 5f4d4154  H __OBSOLETE_MAT
 3000 485f4445 4641554c 54004d5f 4c4e324c  H_DEFAULT.M_LN2L
 3010 4f20312e 39303832 31343932 39323730  O 1.908214929270
 3020 35383737 30303045 2d313000 5f5f616c  5877000E-10.__al
 3030 6c6f635f 73697a65 32286e2c 7829205f  loc_size2(n,x) _
 3040 5f617474 72696275 74655f5f 28285f5f  _attribute__((__
 3050 616c6c6f 635f7369 7a655f5f 286e2c20  alloc_size__(n, 
 3060 78292929 005f5f4c 44424c5f 4841535f  x))).__LDBL_HAS_
 3070 494e4649 4e495459 5f5f2031 006c696d  INFINITY__ 1.lim
 3080 6974005f 5f444543 33325f4d 41585f5f  it.__DEC32_MAX__
 3090 20392e39 39393939 39453936 4446005f   9.999999E96DF._
 30a0 5f464c54 3332585f 4d41585f 31305f45  _FLT32X_MAX_10_E
 30b0 58505f5f 20333038 00504d50 5f544f52  XP__ 308.PMP_TOR
 30c0 20307830 38005359 5354454d 5f554152   0x08.SYSTEM_UAR
 30d0 545f305f 494f5f50 4152414d 45544552  T_0_IO_PARAMETER
 30e0 5f425553 5f43414e 5f575249 54455f46  _BUS_CAN_WRITE_F
 30f0 52414d45 5f434f4e 46494720 31005f5f  RAME_CONFIG 1.__
 3100 64656164 32205f5f 61747472 69627574  dead2 __attribut
 3110 655f5f28 285f5f6e 6f726574 75726e5f  e__((__noreturn_
 3120 5f292900 5f5f6f66 66736574 6f662874  _)).__offsetof(t
 3130 7970652c 6669656c 6429206f 66667365  ype,field) offse
 3140 746f6628 74797065 2c206669 656c6429  tof(type, field)
 3150 00555345 5f475020 31005f5f 5349475f  .USE_GP 1.__SIG_
 3160 41544f4d 49435f4d 494e5f5f 20282d5f  ATOMIC_MIN__ (-_
 3170 5f534947 5f41544f 4d49435f 4d41585f  _SIG_ATOMIC_MAX_
 3180 5f202d20 31290053 59535445 4d5f4252  _ - 1).SYSTEM_BR
 3190 49444745 5f424d42 20307830 00535953  IDGE_BMB 0x0.SYS
 31a0 54454d5f 504c4943 5f535953 54454d5f  TEM_PLIC_SYSTEM_
 31b0 55415254 5f305f49 4f5f494e 54455252  UART_0_IO_INTERR
 31c0 55505420 31005f5f 55494e54 5f4c4541  UPT 1.__UINT_LEA
 31d0 5354385f 4d41585f 5f203078 6666005f  ST8_MAX__ 0xff._
 31e0 5f474343 5f41544f 4d49435f 4c4f4e47  _GCC_ATOMIC_LONG
 31f0 5f4c4f43 4b5f4652 45452031 005f5f44  _LOCK_FREE 1.__D
 3200 45433634 5f4d494e 5f455850 5f5f2028  EC64_MIN_EXP__ (
 3210 2d333832 29004d53 54415455 535f5355  -382).MSTATUS_SU
 3220 4d203078 30303034 30303030 00627566  M 0x00040000.buf
 3230 66657200 5f524545 4e545f54 4d287074  fer._REENT_TM(pt
 3240 72292028 26287074 72292d3e 5f6e6577  r) (&(ptr)->_new
 3250 2e5f7265 656e742e 5f6c6f63 616c7469  ._reent._localti
 3260 6d655f62 75662900 5f5f464c 54363458  me_buf).__FLT64X
 3270 5f484153 5f494e46 494e4954 595f5f20  _HAS_INFINITY__ 
 3280 31005349 475f4154 4f4d4943 5f4d494e  1.SIG_ATOMIC_MIN
 3290 20282d5f 5f535444 494e545f 45585028   (-__STDINT_EXP(
 32a0 494e545f 4d415829 202d2031 29005f63  INT_MAX) - 1)._c
 32b0 6f6f6b69 65005f5f 44424c5f 4d41585f  ookie.__DBL_MAX_
 32c0 5f202828 646f7562 6c652931 2e373937  _ ((double)1.797
 32d0 36393331 33343836 32333135 37303831  6931348623157081
 32e0 34353237 34323337 33313730 34333537  4527423731704357
 32f0 652b3330 384c2900 5f494e54 31365f54  e+308L)._INT16_T
 3300 5f444543 4c415245 44200069 6e737472  _DECLARED .instr
 3310 75637469 6f6e5f63 61636865 5f696e76  uction_cache_inv
 3320 616c6964 61746528 29206173 6d282266  alidate() asm("f
 3330 656e6365 2e692229 3b004249 545f3134  ence.i");.BIT_14
 3340 20283120 3c3c2031 3429005f 57414e54   (1 << 14)._WANT
 3350 5f494f5f 4c4f4e47 5f444f55 424c4520  _IO_LONG_DOUBLE 
 3360 31005f77 6473004e 414e2028 5f5f6275  1._wds.NAN (__bu
 3370 696c7469 6e5f6e61 6e662822 22292900  iltin_nanf("")).
 3380 5f5f494e 545f4c45 41535431 365f5749  __INT_LEAST16_WI
 3390 4454485f 5f203136 004d4544 454c4547  DTH__ 16.MEDELEG
 33a0 5f53544f 52455f50 4147455f 4641554c  _STORE_PAGE_FAUL
 33b0 54202831 203c3c20 31352900 53595354  T (1 << 15).SYST
 33c0 454d5f55 4152545f 305f494f 5f504152  EM_UART_0_IO_PAR
 33d0 414d4554 45525f42 55535f43 414e5f57  AMETER_BUS_CAN_W
 33e0 52495445 5f434c4f 434b5f44 49564944  RITE_CLOCK_DIVID
 33f0 45525f43 4f4e4649 47203100 5f415445  ER_CONFIG 1._ATE
 3400 5849545f 494e4954 207b5f4e 554c4c2c  XIT_INIT {_NULL,
 3410 20302c20 7b5f4e55 4c4c7d2c 207b7b5f   0, {_NULL}, {{_
 3420 4e554c4c 7d2c207b 5f4e554c 4c7d2c20  NULL}, {_NULL}, 
 3430 302c2030 7d7d005f 7369675f 66756e63  0, 0}}._sig_func
 3440 005f5f44 45433634 5f535542 4e4f524d  .__DEC64_SUBNORM
 3450 414c5f4d 494e5f5f 20302e30 30303030  AL_MIN__ 0.00000
 3460 30303030 30303030 3031452d 33383344  0000000001E-383D
 3470 44005359 5354454d 5f434f52 45535f30  D.SYSTEM_CORES_0
 3480 5f535550 45525649 534f5220 30006670  _SUPERVISOR 0.fp
 3490 636c6173 73696679 285f5f78 2920285f  classify(__x) (_
 34a0 5f627569 6c74696e 5f667063 6c617373  _builtin_fpclass
 34b0 69667920 2846505f 4e414e2c 2046505f  ify (FP_NAN, FP_
 34c0 494e4649 4e495445 2c204650 5f4e4f52  INFINITE, FP_NOR
 34d0 4d414c2c 2046505f 5355424e 4f524d41  MAL, FP_SUBNORMA
 34e0 4c2c2046 505f5a45 524f2c20 5f5f7829  L, FP_ZERO, __x)
 34f0 29005f5f 5f696e74 5f6c6561 73743332  ).___int_least32
 3500 5f745f64 6566696e 65642031 00535354  _t_defined 1.SST
 3510 41545553 5f534945 20307830 30303030  ATUS_SIE 0x00000
 3520 30303200 5f6f6666 73657400 4249545f  002._offset.BIT_
 3530 31372028 31203c3c 20313729 004d5354  17 (1 << 17).MST
 3540 41545553 5f535049 45203078 30303030  ATUS_SPIE 0x0000
 3550 30303230 005f6376 74627566 005f5f55  0020._cvtbuf.__U
 3560 5345525f 4c414245 4c5f5052 45464958  SER_LABEL_PREFIX
 3570 5f5f2000 5f5f5549 4e543634 5f4d4158  __ .__UINT64_MAX
 3580 5f5f2030 78666666 66666666 66666666  __ 0xfffffffffff
 3590 66666666 66554c4c 005f696f 62730055  fffffULL._iobs.U
 35a0 494e5433 325f4328 7829205f 5f55494e  INT32_C(x) __UIN
 35b0 5433325f 43287829 005f4154 46494c45  T32_C(x)._ATFILE
 35c0 5f534f55 52434500 494e545f 46415354  _SOURCE.INT_FAST
 35d0 31365f4d 494e2028 2d5f5f49 4e545f46  16_MIN (-__INT_F
 35e0 41535431 365f4d41 585f5f20 2d203129  AST16_MAX__ - 1)
 35f0 005f5245 454e545f 4d424c45 4e5f5354  ._REENT_MBLEN_ST
 3600 41544528 70747229 20282870 7472292d  ATE(ptr) ((ptr)-
 3610 3e5f6e65 772e5f72 65656e74 2e5f6d62  >_new._reent._mb
 3620 6c656e5f 73746174 6529005f 5f747279  len_state).__try
 3630 6c6f636b 735f7368 61726564 282e2e2e  locks_shared(...
 3640 29205f5f 6c6f636b 5f616e6e 6f746174  ) __lock_annotat
 3650 65287368 61726564 5f747279 6c6f636b  e(shared_trylock
 3660 5f66756e 6374696f 6e285f5f 56415f41  _function(__VA_A
 3670 5247535f 5f292900 5f5f494e 545f4c45  RGS__)).__INT_LE
 3680 41535438 5f4d4158 5f5f2030 78376600  AST8_MAX__ 0x7f.
 3690 5f5f4e45 574c4942 5f485f5f 20310049  __NEWLIB_H__ 1.I
 36a0 4e543332 5f4d494e 20282d5f 5f494e54  NT32_MIN (-__INT
 36b0 33325f4d 41585f5f 202d2031 29006973  32_MAX__ - 1).is
 36c0 66696e69 7465285f 5f782920 285f5f62  finite(__x) (__b
 36d0 75696c74 696e5f69 7366696e 69746520  uiltin_isfinite 
 36e0 285f5f78 29290042 49545f31 38202831  (__x)).BIT_18 (1
 36f0 203c3c20 31382900 756e7369 676e6564   << 18).unsigned
 3700 20736967 6e656400 4d5f494e 564c4e32   signed.M_INVLN2
 3710 20312e34 34323639 35303430 38383839   1.4426950408889
 3720 36333338 37304530 00535354 41545553  633870E0.SSTATUS
 3730 5f535050 20307830 30303030 31303000  _SPP 0x00000100.
 3740 5f494e54 5054525f 45515f49 4e542000  _INTPTR_EQ_INT .
 3750 5f5f464c 54333258 5f4d4158 5f455850  __FLT32X_MAX_EXP
 3760 5f5f2031 30323400 5f5f6861 735f696e  __ 1024.__has_in
 3770 636c7564 65285354 5229205f 5f686173  clude(STR) __has
 3780 5f696e63 6c756465 5f5f2853 54522900  _include__(STR).
 3790 636f6e66 69674d54 494d4543 4d505f42  configMTIMECMP_B
 37a0 4153455f 41444452 45535320 28425350  ASE_ADDRESS (BSP
 37b0 5f434c49 4e54202b 20307834 30303029  _CLINT + 0x4000)
 37c0 005f5f55 494e545f 4c454153 5433325f  .__UINT_LEAST32_
 37d0 4d41585f 5f203078 66666666 66666666  MAX__ 0xffffffff
 37e0 554c0045 4e41424c 455f464c 4f415449  UL.ENABLE_FLOATI
 37f0 4e475f50 4f494e54 5f535550 504f5254  NG_POINT_SUPPORT
 3800 20535953 54454d5f 434f5245 535f305f   SYSTEM_CORES_0_
 3810 46505500 53595354 454d5f52 414d5f41  FPU.SYSTEM_RAM_A
 3820 5f435452 4c203078 66393030 30303030  _CTRL 0xf9000000
 3830 005f5f73 65637469 6f6e2878 29205f5f  .__section(x) __
 3840 61747472 69627574 655f5f28 285f5f73  attribute__((__s
 3850 65637469 6f6e5f5f 28782929 29004d53  ection__(x))).MS
 3860 54415455 535f5358 4c203078 30303030  TATUS_SXL 0x0000
 3870 30303043 30303030 30303030 005f5f49  000C00000000.__I
 3880 4e545f4c 45415354 36345f57 49445448  NT_LEAST64_WIDTH
 3890 5f5f2036 34005f5f 464c545f 4841535f  __ 64.__FLT_HAS_
 38a0 494e4649 4e495459 5f5f2031 00777269  INFINITY__ 1.wri
 38b0 74655265 675f7533 32286e61 6d652c6f  teReg_u32(name,o
 38c0 66667365 74292073 74617469 6320696e  ffset) static in
 38d0 6c696e65 20766f69 64206e61 6d652875  line void name(u
 38e0 33322072 65672c20 75333220 76616c75  32 reg, u32 valu
 38f0 65297b20 77726974 655f7533 32287661  e){ write_u32(va
 3900 6c75652c 20726567 202b206f 66667365  lue, reg + offse
 3910 74293b20 7d005f5f 494e5438 5f4d4158  t); }.__INT8_MAX
 3920 5f5f2030 78376600 5f5f4743 435f4841  __ 0x7f.__GCC_HA
 3930 56455f44 57415246 325f4346 495f4153  VE_DWARF2_CFI_AS
 3940 4d203100 5f5f5f69 6e74385f 745f6465  M 1.___int8_t_de
 3950 66696e65 64203100 5f703573 005f5f47  fined 1._p5s.__G
 3960 43435f49 45435f35 35395f43 4f4d504c  CC_IEC_559_COMPL
 3970 45582030 005f5359 535f5f54 59504553  EX 0._SYS__TYPES
 3980 5f482000 5f5f474e 55435f5f 2038005f  _H .__GNUC__ 8._
 3990 5f55494e 5431365f 54595045 5f5f2073  _UINT16_TYPE__ s
 39a0 686f7274 20756e73 69676e65 6420696e  hort unsigned in
 39b0 74005f50 4f534958 5f534f55 52434500  t._POSIX_SOURCE.
 39c0 52414e44 5f4d4158 205f5f52 414e445f  RAND_MAX __RAND_
 39d0 4d415800 5f5f4c44 424c5f44 4543494d  MAX.__LDBL_DECIM
 39e0 414c5f44 49475f5f 20333600 5f5f464c  AL_DIG__ 36.__FL
 39f0 54363458 5f4d494e 5f31305f 4558505f  T64X_MIN_10_EXP_
 3a00 5f20282d 34393331 29005f5f 55494e54  _ (-4931).__UINT
 3a10 33325f4d 41585f5f 20307866 66666666  32_MAX__ 0xfffff
 3a20 66666655 4c005f5f 73646964 696e6974  fffUL.__sdidinit
 3a30 005f5f44 45433332 5f4d4158 5f455850  .__DEC32_MAX_EXP
 3a40 5f5f2039 37005f54 5f53495a 455f2000  __ 97._T_SIZE_ .
 3a50 5f5f464c 545f4556 414c5f4d 4554484f  __FLT_EVAL_METHO
 3a60 445f5453 5f313836 36315f33 5f5f2030  D_TS_18661_3__ 0
 3a70 00746172 67657400 696e7420 2b320067  .target.int +2.g
 3a80 70696f5f 73657449 6e746572 72757074  pio_setInterrupt
 3a90 52697365 456e6162 6c650049 4e54385f  RiseEnable.INT8_
 3aa0 43287829 205f5f49 4e54385f 43287829  C(x) __INT8_C(x)
 3ab0 005f5f6c 6f636b5f 61637175 6972655f  .__lock_acquire_
 3ac0 72656375 72736976 65286c6f 636b2920  recursive(lock) 
 3ad0 2828766f 69642920 3029005f 5f726573  ((void) 0).__res
 3ae0 74726963 74207265 73747269 6374005f  trict restrict._
 3af0 5f55494e 545f4641 5354385f 54595045  _UINT_FAST8_TYPE
 3b00 5f5f2075 6e736967 6e656420 696e7400  __ unsigned int.
 3b10 5f5f464c 5436345f 44454e4f 524d5f4d  __FLT64_DENORM_M
 3b20 494e5f5f 20342e39 34303635 36343538  IN__ 4.940656458
 3b30 34313234 36353434 31373635 36383739  4124654417656879
 3b40 32383638 32323133 3732652d 33323446  2868221372e-324F
 3b50 36340053 59535445 4d5f434f 5245535f  64.SYSTEM_CORES_
 3b60 305f4d4d 55203000 5f4c4942 5f564552  0_MMU 0._LIB_VER
 3b70 53494f4e 205f5f66 646c6962 5f766572  SION __fdlib_ver
 3b80 73696f6e 005f5f72 65717569 7265735f  sion.__requires_
 3b90 756e6c6f 636b6564 282e2e2e 29205f5f  unlocked(...) __
 3ba0 6c6f636b 5f616e6e 6f746174 65286c6f  lock_annotate(lo
 3bb0 636b735f 6578636c 75646564 285f5f56  cks_excluded(__V
 3bc0 415f4152 47535f5f 29290045 4e41424c  A_ARGS__)).ENABL
 3bd0 455f5345 4d49484f 5354494e 475f5052  E_SEMIHOSTING_PR
 3be0 494e5420 30005f5f 494e5433 325f4d41  INT 0.__INT32_MA
 3bf0 585f5f20 30783766 66666666 66664c00  X__ 0x7fffffffL.
 3c00 5f5f6d69 6e5f7369 7a652878 29207374  __min_size(x) st
 3c10 61746963 20287829 005f5449 4d45525f  atic (x)._TIMER_
 3c20 545f2075 6e736967 6e656420 6c6f6e67  T_ unsigned long
 3c30 005f4c4f 434b5f52 45435552 53495645  ._LOCK_RECURSIVE
 3c40 5f54005f 5f494e54 5f4c4541 53543634  _T.__INT_LEAST64
 3c50 5f4d4158 5f5f2030 78376666 66666666  _MAX__ 0x7ffffff
 3c60 66666666 66666666 664c4c00 5f5f6e75  fffffffffLL.__nu
 3c70 6c6c5f73 656e7469 6e656c20 5f5f6174  ll_sentinel __at
 3c80 74726962 7574655f 5f28285f 5f73656e  tribute__((__sen
 3c90 74696e65 6c5f5f29 29005f5f 6e656564  tinel__)).__need
 3ca0 5f4e554c 4c200042 49545f39 20283120  _NULL .BIT_9 (1 
 3cb0 3c3c2039 29005f44 45464155 4c545f53  << 9)._DEFAULT_S
 3cc0 4f555243 45203100 5f5f464c 5433325f  OURCE 1.__FLT32_
 3cd0 4d414e54 5f444947 5f5f2032 34006f66  MANT_DIG__ 24.of
 3ce0 66736574 6f662854 5950452c 4d454d42  fsetof(TYPE,MEMB
 3cf0 45522920 5f5f6275 696c7469 6e5f6f66  ER) __builtin_of
 3d00 66736574 6f662028 54595045 2c204d45  fsetof (TYPE, ME
 3d10 4d424552 29005f5f 55494e54 36345f43  MBER).__UINT64_C
 3d20 28632920 63202323 20554c4c 005f5f55  (c) c ## ULL.__U
 3d30 494e545f 4c454153 5436345f 54595045  INT_LEAST64_TYPE
 3d40 5f5f206c 6f6e6720 6c6f6e67 20756e73  __ long long uns
 3d50 69676e65 6420696e 74004d41 54485f45  igned int.MATH_E
 3d60 52524e4f 2031005f 5f464c54 3634585f  RRNO 1.__FLT64X_
 3d70 4d414e54 5f444947 5f5f2031 3133005f  MANT_DIG__ 113._
 3d80 57434841 525f545f 44454649 4e454420  WCHAR_T_DEFINED 
 3d90 005f5f47 43435f41 544f4d49 435f4348  .__GCC_ATOMIC_CH
 3da0 41523136 5f545f4c 4f434b5f 46524545  AR16_T_LOCK_FREE
 3db0 20310063 73725f77 72697465 28637372   1.csr_write(csr
 3dc0 2c76616c 2920287b 20756e73 69676e65  ,val) ({ unsigne
 3dd0 64206c6f 6e67205f 5f76203d 2028756e  d long __v = (un
 3de0 7369676e 6564206c 6f6e6729 2876616c  signed long)(val
 3df0 293b205f 5f61736d 5f5f205f 5f766f6c  ); __asm__ __vol
 3e00 6174696c 655f5f20 28226373 72772022  atile__ ("csrw "
 3e10 20236373 7220222c 20253022 203a203a   #csr ", %0" : :
 3e20 2022724b 2220285f 5f762929 3b207d29   "rK" (__v)); })
 3e30 004d5354 41545553 5f485050 20307830  .MSTATUS_HPP 0x0
 3e40 30303030 36303000 5f5f4e55 4c4c4142  0000600.__NULLAB
 3e50 494c4954 595f5052 41474d41 5f505553  ILITY_PRAGMA_PUS
 3e60 4820005f 7369676e 616c5f62 7566005f  H ._signal_buf._
 3e70 5f44424c 5f4d4158 5f455850 5f5f2031  _DBL_MAX_EXP__ 1
 3e80 30323400 5f5f4641 53543634 20226c6c  024.__FAST64 "ll
 3e90 22005f5f 41544f4d 49435f52 454c4541  ".__ATOMIC_RELEA
 3ea0 53452033 00756e73 69676e65 64202b30  SE 3.unsigned +0
 3eb0 005f5f46 4c543332 585f4841 535f4445  .__FLT32X_HAS_DE
 3ec0 4e4f524d 5f5f2031 005f5f46 4c545f4d  NORM__ 1.__FLT_M
 3ed0 414e545f 4449475f 5f203234 005f5241  ANT_DIG__ 24._RA
 3ee0 4e443438 5f534545 445f3120 28307861  ND48_SEED_1 (0xa
 3ef0 62636429 005f5f49 4e545f46 41535433  bcd).__INT_FAST3
 3f00 325f5459 50455f5f 20696e74 005f5354  2_TYPE__ int._ST
 3f10 44415247 5f482000 5f5f5f69 6e745f70  DARG_H .___int_p
 3f20 74726469 66665f74 5f682000 5f5f4f50  trdiff_t_h .__OP
 3f30 54494d49 5a455f5f 2031004d 4544454c  TIMIZE__ 1.MEDEL
 3f40 45475f4c 4f41445f 50414745 5f464155  EG_LOAD_PAGE_FAU
 3f50 4c542028 31203c3c 20313329 005f494e  LT (1 << 13)._IN
 3f60 5433325f 545f4445 434c4152 45442000  T32_T_DECLARED .
 3f70 5f426967 696e7400 5f5f464c 5436345f  _Bigint.__FLT64_
 3f80 4d494e5f 5f20322e 32323530 37333835  MIN__ 2.22507385
 3f90 38353037 32303133 38333039 30323332  8507201383090232
 3fa0 37313733 33323430 34303665 2d333038  71733240406e-308
 3fb0 46363400 5f5f696e 74323020 2b32005f  F64.__int20 +2._
 3fc0 5f494e54 36345f4d 41585f5f 20307837  _INT64_MAX__ 0x7
 3fd0 66666666 66666666 66666666 6666664c  fffffffffffffffL
 3fe0 4c00454e 41424c45 5f425350 5f505249  L.ENABLE_BSP_PRI
 3ff0 4e544620 31005f5f 494e5450 54525f54  NTF 1.__INTPTR_T
 4000 5950455f 5f20696e 74005f5f 464c5433  YPE__ int.__FLT3
 4010 32585f4d 494e5f31 305f4558 505f5f20  2X_MIN_10_EXP__ 
 4020 282d3330 37290069 736e6f72 6d616c28  (-307).isnormal(
 4030 5f5f7829 20285f5f 6275696c 74696e5f  __x) (__builtin_
 4040 69736e6f 726d616c 20285f5f 78292900  isnormal (__x)).
 4050 5f524545 4e545f43 4845434b 5f534947  _REENT_CHECK_SIG
 4060 4e414c5f 42554628 70747229 20004249  NAL_BUF(ptr) .BI
 4070 545f3220 2831203c 3c203229 005f5f63  T_2 (1 << 2).__c
 4080 6c65616e 7570004d 53544154 55535f4d  leanup.MSTATUS_M
 4090 50494520 30783030 30303030 3830005f  PIE 0x00000080._
 40a0 61746578 69743000 5f524545 4e545f53  atexit0._REENT_S
 40b0 4d414c4c 5f434845 434b5f49 4e495428  MALL_CHECK_INIT(
 40c0 70747229 20004d53 54415455 535f5549  ptr) .MSTATUS_UI
 40d0 45203078 30303030 30303031 00504d50  E 0x00000001.PMP
 40e0 5f4e4150 4f542030 78313800 616c6c6f  _NAPOT 0x18.allo
 40f0 63612873 697a6529 205f5f62 75696c74  ca(size) __built
 4100 696e5f61 6c6c6f63 61287369 7a652900  in_alloca(size).
 4110 5f5f4c4f 4e475f57 49445448 5f5f2033  __LONG_WIDTH__ 3
 4120 32007369 676e6269 74285f5f 78292028  2.signbit(__x) (
 4130 2873697a 656f6628 5f5f7829 203d3d20  (sizeof(__x) == 
 4140 73697a65 6f662866 6c6f6174 2929203f  sizeof(float)) ?
 4150 205f5f62 75696c74 696e5f73 69676e62   __builtin_signb
 4160 69746628 5f5f7829 203a2028 73697a65  itf(__x) : (size
 4170 6f66285f 5f782920 3d3d2073 697a656f  of(__x) == sizeo
 4180 6628646f 75626c65 2929203f 205f5f62  f(double)) ? __b
 4190 75696c74 696e5f73 69676e62 69742028  uiltin_signbit (
 41a0 5f5f7829 203a205f 5f627569 6c74696e  __x) : __builtin
 41b0 5f736967 6e626974 6c285f5f 78292900  _signbitl(__x)).
 41c0 5f545f57 43484152 5f200063 6f6e6669  _T_WCHAR_ .confi
 41d0 67435055 5f434c4f 434b5f48 5a202820  gCPU_CLOCK_HZ ( 
 41e0 28207569 6e743332 5f742029 20282042  ( uint32_t ) ( B
 41f0 53505f43 4c494e54 5f485a20 29202900  SP_CLINT_HZ ) ).
 4200 5f5f7761 726e5f72 65666572 656e6365  __warn_reference
 4210 73287379 6d2c6d73 6729205f 5f61736d  s(sym,msg) __asm
 4220 5f5f2822 2e736563 74696f6e 202e676e  __(".section .gn
 4230 752e7761 726e696e 672e2220 2373796d  u.warning." #sym
 4240 293b205f 5f61736d 5f5f2822 2e617363  ); __asm__(".asc
 4250 697a205c 2222206d 73672022 5c222229  iz \"" msg "\"")
 4260 3b205f5f 61736d5f 5f28222e 70726576  ; __asm__(".prev
 4270 696f7573 22290053 53544154 55535f53  ious").SSTATUS_S
 4280 554d2030 78303030 34303030 3000706c  UM 0x00040000.pl
 4290 69635f73 65745f65 6e61626c 65005743  ic_set_enable.WC
 42a0 4841525f 4d415820 285f5f57 43484152  HAR_MAX (__WCHAR
 42b0 5f4d4158 5f5f2900 5f5f7369 676e6761  _MAX__).__signga
 42c0 6d5f7228 70747229 205f5245 454e545f  m_r(ptr) _REENT_
 42d0 5349474e 47414d28 70747229 005f4e45  SIGNGAM(ptr)._NE
 42e0 574c4942 5f564552 53494f4e 5f485f5f  WLIB_VERSION_H__
 42f0 20310069 73696e66 285f5f78 2920285f   1.isinf(__x) (_
 4300 5f627569 6c74696e 5f697369 6e665f73  _builtin_isinf_s
 4310 69676e20 285f5f78 2929005f 5f53495a  ign (__x)).__SIZ
 4320 455f4d41 585f5f20 30786666 66666666  E_MAX__ 0xffffff
 4330 66665500 5f5f7569 6e743332 5f74005f  ffU.__uint32_t._
 4340 656d6572 67656e63 79005f4c 49425f56  emergency._LIB_V
 4350 45525349 4f4e5f54 59504520 656e756d  ERSION_TYPE enum
 4360 205f5f66 646c6962 6d5f7665 7273696f   __fdlibm_versio
 4370 6e006373 725f7365 74286373 722c7661  n.csr_set(csr,va
 4380 6c292028 7b20756e 7369676e 6564206c  l) ({ unsigned l
 4390 6f6e6720 5f5f7620 3d202875 6e736967  ong __v = (unsig
 43a0 6e656420 6c6f6e67 29287661 6c293b20  ned long)(val); 
 43b0 5f5f6173 6d5f5f20 5f5f766f 6c617469  __asm__ __volati
 43c0 6c655f5f 20282263 73727320 22202363  le__ ("csrs " #c
 43d0 73722022 2c202530 22203a20 3a202272  sr ", %0" : : "r
 43e0 4b222028 5f5f7629 293b207d 29005f5f  K" (__v)); }).__
 43f0 464c545f 52414449 585f5f20 32005f5f  FLT_RADIX__ 2.__
 4400 464c5433 325f4841 535f494e 46494e49  FLT32_HAS_INFINI
 4410 54595f5f 2031005f 5245454e 545f5241  TY__ 1._REENT_RA
 4420 4e443438 5f4d554c 54287074 72292028  ND48_MULT(ptr) (
 4430 28707472 292d3e5f 6e65772e 5f726565  (ptr)->_new._ree
 4440 6e742e5f 7234382e 5f6d756c 74290042  nt._r48._mult).B
 4450 49545f32 39202831 203c3c20 32392900  IT_29 (1 << 29).
 4460 55494e54 33325f4d 41582028 5f5f5549  UINT32_MAX (__UI
 4470 4e543332 5f4d4158 5f5f2900 5f5f7763  NT32_MAX__).__wc
 4480 6861725f 745f5f20 005f5f4c 44424c5f  har_t__ .__LDBL_
 4490 4841535f 51554945 545f4e41 4e5f5f20  HAS_QUIET_NAN__ 
 44a0 31005f5f 6e656564 5f4e554c 4c004d5f  1.__need_NULL.M_
 44b0 4c4f4732 5f45205f 4d5f4c4e 32005f5f  LOG2_E _M_LN2.__
 44c0 4c4f4e47 5f4c4f4e 475f5749 4454485f  LONG_LONG_WIDTH_
 44d0 5f203634 005f6e69 6f627300 57494e54  _ 64._niobs.WINT
 44e0 5f4d4158 20285f5f 57494e54 5f4d4158  _MAX (__WINT_MAX
 44f0 5f5f2900 5f5f6e65 65645f77 63686172  __).__need_wchar
 4500 5f742000 706c6963 5f72656c 65617365  _t .plic_release
 4510 004d5354 41545553 5f54564d 20307830  .MSTATUS_TVM 0x0
 4520 30313030 30303000 53535441 5455535f  0100000.SSTATUS_
 4530 46532030 78303030 30363030 30005f5f  FS 0x00006000.__
 4540 6c6f6361 6c655f74 005f5245 454e545f  locale_t._REENT_
 4550 43484543 4b5f4153 4354494d 455f4255  CHECK_ASCTIME_BU
 4560 46287074 72292000 5f5f7269 7363765f  F(ptr) .__riscv_
 4570 636d6f64 656c5f6d 65646c6f 77203100  cmodel_medlow 1.
 4580 5f5f494e 54505452 5f574944 54485f5f  __INTPTR_WIDTH__
 4590 20333200 5f5f4743 435f4154 4f4d4943   32.__GCC_ATOMIC
 45a0 5f4c4c4f 4e475f4c 4f434b5f 46524545  _LLONG_LOCK_FREE
 45b0 20310050 4c49435f 454e4142 4c455f42   1.PLIC_ENABLE_B
 45c0 41534520 30783230 3030005f 6e6d616c  ASE 0x2000._nmal
 45d0 6c6f6300 5f5f464c 5436345f 4d41585f  loc.__FLT64_MAX_
 45e0 4558505f 5f203130 3234005f 5f574348  EXP__ 1024.__WCH
 45f0 41525f54 20005f5f 5359535f 434f4e46  AR_T .__SYS_CONF
 4600 49475f48 5f5f2000 5f5f7074 7276616c  IG_H__ .__ptrval
 4610 75652000 5f5f474e 55435f56 415f4c49  ue .__GNUC_VA_LI
 4620 53545f43 4f4d5041 54494249 4c495459  ST_COMPATIBILITY
 4630 2031005f 5f5f696e 7433325f 745f6465   1.___int32_t_de
 4640 66696e65 64203100 5f67616d 6d615f73  fined 1._gamma_s
 4650 69676e67 616d005f 5f4c4442 4c5f4d41  igngam.__LDBL_MA
 4660 585f5f20 312e3138 39373331 34393533  X__ 1.1897314953
 4670 35373233 31373635 30383537 35393332  5723176508575932
 4680 36363238 30303730 32652b34 3933324c  662800702e+4932L
 4690 00504d50 5f534849 46542032 005f5f57  .PMP_SHIFT 2.__W
 46a0 494e545f 57494454 485f5f20 3332005f  INT_WIDTH__ 32._
 46b0 5f494e54 36345f54 5950455f 5f206c6f  _INT64_TYPE__ lo
 46c0 6e67206c 6f6e6720 696e7400 504c4943  ng long int.PLIC
 46d0 5f505249 4f524954 595f4241 53452030  _PRIORITY_BASE 0
 46e0 78303030 30005f5f 7472796c 6f636b73  x0000.__trylocks
 46f0 5f657863 6c757369 7665282e 2e2e2920  _exclusive(...) 
 4700 5f5f6c6f 636b5f61 6e6e6f74 61746528  __lock_annotate(
 4710 6578636c 75736976 655f7472 796c6f63  exclusive_tryloc
 4720 6b5f6675 6e637469 6f6e285f 5f56415f  k_function(__VA_
 4730 41524753 5f5f2929 0055494e 5431365f  ARGS__)).UINT16_
 4740 4d415820 285f5f55 494e5431 365f4d41  MAX (__UINT16_MA
 4750 585f5f29 005f5f53 495a454f 465f5743  X__).__SIZEOF_WC
 4760 4841525f 545f5f20 34005f52 414e4434  HAR_T__ 4._RAND4
 4770 385f5345 45445f30 20283078 33333065  8_SEED_0 (0x330e
 4780 2900494e 545f4c45 41535431 365f4d49  ).INT_LEAST16_MI
 4790 4e20282d 5f5f494e 545f4c45 41535431  N (-__INT_LEAST1
 47a0 365f4d41 585f5f20 2d203129 006d6173  6_MAX__ - 1).mas
 47b0 6b005f5f 6e6f6e6e 756c6c5f 616c6c20  k.__nonnull_all 
 47c0 5f5f6174 74726962 7574655f 5f28285f  __attribute__((_
 47d0 5f6e6f6e 6e756c6c 5f5f2929 005f5245  _nonnull__))._RE
 47e0 454e545f 4d425352 544f5743 535f5354  ENT_MBSRTOWCS_ST
 47f0 41544528 70747229 20282870 7472292d  ATE(ptr) ((ptr)-
 4800 3e5f6e65 772e5f72 65656e74 2e5f6d62  >_new._reent._mb
 4810 7372746f 7763735f 73746174 6529005f  srtowcs_state)._
 4820 5f756e6c 6f636b73 282e2e2e 29205f5f  _unlocks(...) __
 4830 6c6f636b 5f616e6e 6f746174 6528756e  lock_annotate(un
 4840 6c6f636b 5f66756e 6374696f 6e285f5f  lock_function(__
 4850 56415f41 5247535f 5f292900 454e4142  VA_ARGS__)).ENAB
 4860 4c455f42 53505f50 52494e54 2031005f  LE_BSP_PRINT 1._
 4870 66726565 6c697374 005f5f6c 6f636b5f  freelist.__lock_
 4880 7472795f 61637175 69726528 6c6f636b  try_acquire(lock
 4890 29202828 766f6964 29203029 005f5245  ) ((void) 0)._RE
 48a0 454e545f 4d42524c 454e5f53 54415445  ENT_MBRLEN_STATE
 48b0 28707472 29202828 70747229 2d3e5f6e  (ptr) ((ptr)->_n
 48c0 65772e5f 7265656e 742e5f6d 62726c65  ew._reent._mbrle
 48d0 6e5f7374 61746529 005f5f5f 696e745f  n_state).___int_
 48e0 6c656173 7436345f 745f6465 66696e65  least64_t_define
 48f0 64203100 504c4943 5f434c41 494d5f42  d 1.PLIC_CLAIM_B
 4900 41534520 30783230 30303034 0069736c  ASE 0x200004.isl
 4910 65737367 72656174 6572285f 5f782c5f  essgreater(__x,_
 4920 5f792920 285f5f62 75696c74 696e5f69  _y) (__builtin_i
 4930 736c6573 73677265 61746572 20285f5f  slessgreater (__
 4940 782c205f 5f792929 005f5f54 48524f57  x, __y)).__THROW
 4950 20005f67 6c756500 5f736967 6e005f5f   ._glue._sign.__
 4960 494e545f 4c454153 5433325f 4d41585f  INT_LEAST32_MAX_
 4970 5f203078 37666666 66666666 4c005359  _ 0x7fffffffL.SY
 4980 5354454d 5f535049 5f315f49 4f5f4354  STEM_SPI_1_IO_CT
 4990 524c5f53 495a4520 30783130 3030005f  RL_SIZE 0x1000._
 49a0 5245454e 545f4c36 34415f42 55462870  REENT_L64A_BUF(p
 49b0 74722920 28287074 72292d3e 5f6e6577  tr) ((ptr)->_new
 49c0 2e5f7265 656e742e 5f6c3634 615f6275  ._reent._l64a_bu
 49d0 6629005f 41544649 4c455f53 4f555243  f)._ATFILE_SOURC
 49e0 45203100 5f5f5354 44494e54 5f455850  E 1.__STDINT_EXP
 49f0 28782920 5f5f2023 23782023 235f5f00  (x) __ ##x ##__.
 4a00 5f5f4558 50287829 205f5f20 23237820  __EXP(x) __ ##x 
 4a10 23235f5f 004d425f 4355525f 4d415820  ##__.MB_CUR_MAX 
 4a20 5f5f6c6f 63616c65 5f6d625f 6375725f  __locale_mb_cur_
 4a30 6d617828 29005f5f 42595445 5f4f5244  max().__BYTE_ORD
 4a40 45525f5f 205f5f4f 52444552 5f4c4954  ER__ __ORDER_LIT
 4a50 544c455f 454e4449 414e5f5f 005f5f57  TLE_ENDIAN__.__W
 4a60 43484152 5f545950 455f5f20 696e7400  CHAR_TYPE__ int.
 4a70 5f414e53 49444543 4c5f485f 20005f41  _ANSIDECL_H_ ._A
 4a80 4e53495f 53544444 45465f48 20005f77  NSI_STDDEF_H ._w
 4a90 63737274 6f6d6273 5f737461 7465005f  csrtombs_state._
 4aa0 57414e54 5f494f5f 4339395f 464f524d  WANT_IO_C99_FORM
 4ab0 41545320 31005f52 45454e54 5f434845  ATS 1._REENT_CHE
 4ac0 434b5f4d 50287074 72292000 4d5f5049  CK_MP(ptr) .M_PI
 4ad0 20332e31 34313539 32363533 35383937   3.1415926535897
 4ae0 39333233 38343600 5f5f5749 4e545f54  9323846.__WINT_T
 4af0 5950455f 5f20756e 7369676e 65642069  YPE__ unsigned i
 4b00 6e74005f 5f696e74 5f666173 7431365f  nt.__int_fast16_
 4b10 745f6465 66696e65 64203100 4d5f5049  t_defined 1.M_PI
 4b20 5f342030 2e373835 33393831 36333339  _4 0.78539816339
 4b30 37343438 33303936 32005f42 53445f50  744830962._BSD_P
 4b40 54524449 46465f54 5f20006d 61636869  TRDIFF_T_ .machi
 4b50 6e655469 6d65725f 67657454 696d6528  neTimer_getTime(
 4b60 70292063 6c696e74 5f676574 54696d65  p) clint_getTime
 4b70 2870293b 00454e41 424c455f 4253505f  (p);.ENABLE_BSP_
 4b80 5052494e 54465f46 554c4c20 30005f66  PRINTF_FULL 0._f
 4b90 6c616773 3200494e 5436345f 4d415820  lags2.INT64_MAX 
 4ba0 285f5f49 4e543634 5f4d4158 5f5f2900  (__INT64_MAX__).
 4bb0 75617274 5f777269 74650053 53544154  uart_write.SSTAT
 4bc0 55535f53 50494520 30783030 30303030  US_SPIE 0x000000
 4bd0 3230005f 5f4e4557 4c49425f 4d494e4f  20.__NEWLIB_MINO
 4be0 525f5f20 31005f52 45454e54 5f4d4254  R__ 1._REENT_MBT
 4bf0 4f57435f 53544154 45287074 72292028  OWC_STATE(ptr) (
 4c00 28707472 292d3e5f 6e65772e 5f726565  (ptr)->_new._ree
 4c10 6e742e5f 6d62746f 77635f73 74617465  nt._mbtowc_state
 4c20 29005f5f 464c545f 4d494e5f 4558505f  ).__FLT_MIN_EXP_
 4c30 5f20282d 31323529 005f5f44 45435f45  _ (-125).__DEC_E
 4c40 56414c5f 4d455448 4f445f5f 20320053  VAL_METHOD__ 2.S
 4c50 59535445 4d5f424d 425f5045 52495048  YSTEM_BMB_PERIPH
 4c60 4552414c 5f424d42 20307866 38303030  ERAL_BMB 0xf8000
 4c70 30303000 6f70636f 64655f52 286f7063  000.opcode_R(opc
 4c80 6f64652c 66756e63 332c6675 6e63372c  ode,func3,func7,
 4c90 7273312c 72733229 20287b20 72656769  rs1,rs2) ({ regi
 4ca0 73746572 20756e73 69676e65 64206c6f  ster unsigned lo
 4cb0 6e67205f 5f763b20 61736d20 766f6c61  ng __v; asm vola
 4cc0 74696c65 2820222e 776f7264 20282822  tile( ".word (("
 4cd0 20236f70 636f6465 20222920 7c202872   #opcode ") | (r
 4ce0 65676e75 6d5f2530 203c3c20 3729207c  egnum_%0 << 7) |
 4cf0 20287265 676e756d 5f253120 3c3c2031   (regnum_%1 << 1
 4d00 3529207c 20287265 676e756d 5f253220  5) | (regnum_%2 
 4d10 3c3c2032 3029207c 20282822 20236675  << 20) | ((" #fu
 4d20 6e633320 2229203c 3c203132 29207c20  nc3 ") << 12) | 
 4d30 28282220 2366756e 63372022 29203c3c  ((" #func7 ") <<
 4d40 20323529 293b2220 3a205b72 645d2022   25));" : [rd] "
 4d50 3d722220 285f5f76 29203a20 22722220  =r" (__v) : "r" 
 4d60 28727331 292c2022 72222028 72733229  (rs1), "r" (rs2)
 4d70 20293b20 5f5f763b 207d2900 64617461   ); __v; }).data
 4d80 5f636163 68655f69 6e76616c 69646174  _cache_invalidat
 4d90 655f616c 6c282920 61736d28 222e776f  e_all() asm(".wo
 4da0 72642830 78353030 46292229 3b005549  rd(0x500F)");.UI
 4db0 4e545f46 41535438 5f4d4158 20285f5f  NT_FAST8_MAX (__
 4dc0 55494e54 5f464153 54385f4d 41585f5f  UINT_FAST8_MAX__
 4dd0 29005f5f 41545452 49425554 455f494d  ).__ATTRIBUTE_IM
 4de0 50555245 5f505452 5f5f2000 494e545f  PURE_PTR__ .INT_
 4df0 46415354 385f4d49 4e20282d 5f5f494e  FAST8_MIN (-__IN
 4e00 545f4641 5354385f 4d41585f 5f202d20  T_FAST8_MAX__ - 
 4e10 3129005f 5f464c54 3332585f 4d41585f  1).__FLT32X_MAX_
 4e20 5f20312e 37393736 39333133 34383632  _ 1.797693134862
 4e30 33313537 30383134 35323734 32333733  3157081452742373
 4e40 31373034 33353765 2b333038 46333278  1704357e+308F32x
 4e50 005f5f46 4c543634 5f484153 5f44454e  .__FLT64_HAS_DEN
 4e60 4f524d5f 5f203100 5f5f464c 545f4449  ORM__ 1.__FLT_DI
 4e70 475f5f20 36005f68 5f657272 6e6f005f  G__ 6._h_errno._
 4e80 46565752 4954455f 494e5f53 54524541  FVWRITE_IN_STREA
 4e90 4d494f20 31005f57 43484152 5f545f44  MIO 1._WCHAR_T_D
 4ea0 45434c41 52454420 005f5f43 4841525f  ECLARED .__CHAR_
 4eb0 4249545f 5f203800 5f535953 5f524545  BIT__ 8._SYS_REE
 4ec0 4e545f48 5f20005f 5f464c54 5f455641  NT_H_ .__FLT_EVA
 4ed0 4c5f4d45 54484f44 5f5f2030 00535953  L_METHOD__ 0.SYS
 4ee0 54454d5f 504c4943 5f535953 54454d5f  TEM_PLIC_SYSTEM_
 4ef0 4750494f 5f305f49 4f5f494e 54455252  GPIO_0_IO_INTERR
 4f00 55505453 5f312031 33005f5f 53434841  UPTS_1 13.__SCHA
 4f10 525f4d41 585f5f20 30783766 005f5f49  R_MAX__ 0x7f.__I
 4f20 4e545f46 41535438 5f574944 54485f5f  NT_FAST8_WIDTH__
 4f30 20333200 5f5f494e 54313620 22682200   32.__INT16 "h".
 4f40 5f5f464c 54313238 5f455053 494c4f4e  __FLT128_EPSILON
 4f50 5f5f2031 2e393235 39323939 34343338  __ 1.92592994438
 4f60 37323335 38353330 35353937 37393432  7235853055977942
 4f70 35383439 32373332 652d3334 46313238  58492732e-34F128
 4f80 00554152 545f4441 54412030 78303000  .UART_DATA 0x00.
 4f90 494f5f41 50425f53 4c415645 5f305f49  IO_APB_SLAVE_0_I
 4fa0 4e505554 5f53495a 45203078 31303030  NPUT_SIZE 0x1000
 4fb0 30005f50 4f534958 5f205f5f 66646c69  0._POSIX_ __fdli
 4fc0 626d5f70 6f736978 005f545f 50545244  bm_posix._T_PTRD
 4fd0 49464620 004d5f54 574f5049 20284d5f  IFF .M_TWOPI (M_
 4fe0 5049202a 20322e30 29005f77 6372746f  PI * 2.0)._wcrto
 4ff0 6d625f73 74617465 005f5f46 4c543132  mb_state.__FLT12
 5000 385f4d41 585f3130 5f455850 5f5f2034  8_MAX_10_EXP__ 4
 5010 39333200 5f5f4743 435f4945 435f3535  932.__GCC_IEC_55
 5020 39203000 5f4e4557 4c49425f 414c4c4f  9 0._NEWLIB_ALLO
 5030 43415f48 20005f5f 746d5f6d 64617900  CA_H .__tm_mday.
 5040 616c6c6f 63610042 49545f38 20283120  alloca.BIT_8 (1 
 5050 3c3c2038 29005f5f 53544443 5f5f2031  << 8).__STDC__ 1
 5060 005f6e65 77005f5f 5f696e74 5f6c6561  ._new.___int_lea
 5070 7374385f 745f6465 66696e65 64203100  st8_t_defined 1.
 5080 5f756275 66005f5f 464c4f41 545f574f  _ubuf.__FLOAT_WO
 5090 52445f4f 52444552 5f5f205f 5f4f5244  RD_ORDER__ __ORD
 50a0 45525f4c 4954544c 455f454e 4449414e  ER_LITTLE_ENDIAN
 50b0 5f5f0042 49545f33 30202831 203c3c20  __.BIT_30 (1 << 
 50c0 33302900 5f5f5549 4e54385f 54595045  30).__UINT8_TYPE
 50d0 5f5f2075 6e736967 6e656420 63686172  __ unsigned char
 50e0 005f7374 64657272 005f5f69 6e745f66  ._stderr.__int_f
 50f0 61737438 5f745f64 6566696e 65642031  ast8_t_defined 1
 5100 005f5f45 58504f52 5420005f 7763746f  .__EXPORT ._wcto
 5110 6d625f73 74617465 005f5f4f 42534f4c  mb_state.__OBSOL
 5120 4554455f 4d415448 5f444546 41554c54  ETE_MATH_DEFAULT
 5130 2031005f 6d627374 61746500 5f5f5343   1._mbstate.__SC
 5140 43534944 28732920 73747275 6374205f  CSID(s) struct _
 5150 5f686163 6b006d54 696d6550 65725573  _hack.mTimePerUs
 5160 65630053 59535445 4d5f5241 4d5f415f  ec.SYSTEM_RAM_A_
 5170 4354524c 5f53495a 45203078 31303030  CTRL_SIZE 0x1000
 5180 30005f5f 53485254 5f574944 54485f5f  0.__SHRT_WIDTH__
 5190 20313600 5f72616e 645f6e65 7874005f   16._rand_next._
 51a0 5f444543 3132385f 4d414e54 5f444947  _DEC128_MANT_DIG
 51b0 5f5f2033 34005f66 6c616773 005f5f49  __ 34._flags.__I
 51c0 4d504f52 54200053 53544154 55535f55  MPORT .SSTATUS_U
 51d0 49452030 78303030 30303030 31005f50  IE 0x00000001._P
 51e0 54524449 46465f54 5f444543 4c415245  TRDIFF_T_DECLARE
 51f0 4420005f 5f766f6c 6174696c 6520766f  D .__volatile vo
 5200 6c617469 6c650061 64647265 73730042  latile.address.B
 5210 49545f33 31202831 203c3c20 33312900  IT_31 (1 << 31).
 5220 5f57414e 545f5245 47495354 45525f46  _WANT_REGISTER_F
 5230 494e4920 31005f5f 4743435f 41544f4d  INI 1.__GCC_ATOM
 5240 49435f43 4841525f 4c4f434b 5f465245  IC_CHAR_LOCK_FRE
 5250 45203100 5f5f4154 46494c45 5f564953  E 1.__ATFILE_VIS
 5260 49424c45 2031005f 61746578 69740042  IBLE 1._atexit.B
 5270 53505f4c 45445f47 50494f20 53595354  SP_LED_GPIO SYST
 5280 454d5f47 50494f5f 305f494f 5f435452  EM_GPIO_0_IO_CTR
 5290 4c004d5f 53515254 3220312e 34313432  L.M_SQRT2 1.4142
 52a0 31333536 32333733 30393530 34383830  1356237309504880
 52b0 005f5f4e 554c4c41 42494c49 54595f50  .__NULLABILITY_P
 52c0 5241474d 415f504f 5020005f 5f707265  RAGMA_POP .__pre
 52d0 64696374 5f66616c 73652865 78702920  dict_false(exp) 
 52e0 5f5f6275 696c7469 6e5f6578 70656374  __builtin_expect
 52f0 28286578 70292c20 30290053 59535445  ((exp), 0).SYSTE
 5300 4d5f5541 52545f30 5f494f5f 4354524c  M_UART_0_IO_CTRL
 5310 20307866 38303130 30303000 52445449   0xf8010000.RDTI
 5320 4d454820 30784338 31004341 5553455f  MEH 0xC81.CAUSE_
 5330 4d414348 494e455f 45585445 524e414c  MACHINE_EXTERNAL
 5340 20313100 4d535441 5455535f 54535220   11.MSTATUS_TSR 
 5350 30783030 34303030 3030005f 5f535452  0x00400000.__STR
 5360 494e4728 78292023 78005359 5354454d  ING(x) #x.SYSTEM
 5370 5f52414d 5f415f53 495a4520 36353533  _RAM_A_SIZE 6553
 5380 36005f5f 72657375 6c745f75 73655f63  6.__result_use_c
 5390 6865636b 205f5f61 74747269 62757465  heck __attribute
 53a0 5f5f2828 5f5f7761 726e5f75 6e757365  __((__warn_unuse
 53b0 645f7265 73756c74 5f5f2929 005f5f49  d_result__)).__I
 53c0 4e54385f 54595045 5f5f2073 69676e65  NT8_TYPE__ signe
 53d0 64206368 61720053 59535445 4d5f4750  d char.SYSTEM_GP
 53e0 494f5f30 5f494f5f 4354524c 5f53495a  IO_0_IO_CTRL_SIZ
 53f0 45203078 31303000 4249545f 31202831  E 0x100.BIT_1 (1
 5400 203c3c20 3129005f 5f464c54 33325f4d   << 1).__FLT32_M
 5410 494e5f31 305f4558 505f5f20 282d3337  IN_10_EXP__ (-37
 5420 29004d49 505f5354 49502028 31203c3c  ).MIP_STIP (1 <<
 5430 20352900 5f5f636f 756e7400 5f5f474e   5).__count.__GN
 5440 55435f56 415f4c49 53542000 5f5f4953  UC_VA_LIST .__IS
 5450 4f5f435f 56495349 424c4520 32303131  O_C_VISIBLE 2011
 5460 00494e54 31365f4d 494e2028 2d5f5f49  .INT16_MIN (-__I
 5470 4e543136 5f4d4158 5f5f202d 20312900  NT16_MAX__ - 1).
 5480 5f5f7369 7a655f74 005f5f46 4c545f44  __size_t.__FLT_D
 5490 454e4f52 4d5f4d49 4e5f5f20 312e3430  ENORM_MIN__ 1.40
 54a0 31323938 34363433 32343831 37303730  1298464324817070
 54b0 39323337 32393538 33323839 39313631  9237295832899161
 54c0 33652d34 3546005f 5f444543 33325f4d  3e-45F.__DEC32_M
 54d0 414e545f 4449475f 5f203700 75736563  ANT_DIG__ 7.usec
 54e0 005f4d41 4348494e 455f5f44 45464155  ._MACHINE__DEFAU
 54f0 4c545f54 59504553 5f482000 4d5f4c4e  LT_TYPES_H .M_LN
 5500 32205f4d 5f4c4e32 00524953 43565f53  2 _M_LN2.RISCV_S
 5510 454d4948 4f535449 4e475f43 414c4c5f  EMIHOSTING_CALL_
 5520 4e554d42 45522037 005f5f68 61735f66  NUMBER 7.__has_f
 5530 65617475 72652878 29203000 5f474343  eature(x) 0._GCC
 5540 5f505452 44494646 5f542000 5f5f4c44  _PTRDIFF_T .__LD
 5550 424c5f4d 414e545f 4449475f 5f203131  BL_MANT_DIG__ 11
 5560 33005f5f 4c454153 54363420 226c6c22  3.__LEAST64 "ll"
 5570 005f5f4c 4f434b5f 494e4954 28636c61  .__LOCK_INIT(cla
 5580 73732c6c 6f636b29 20737461 74696320  ss,lock) static 
 5590 696e7420 6c6f636b 203d2030 3b007561  int lock = 0;.ua
 55a0 72745f77 72697465 41766169 6c616269  rt_writeAvailabi
 55b0 6c697479 005f5f74 6d5f7764 61790070  lity.__tm_wday.p
 55c0 6c69635f 636c6169 6d005f5f 7369676e  lic_claim.__sign
 55d0 65642073 69676e65 64005353 54415455  ed signed.SSTATU
 55e0 535f5853 20307830 30303138 30303000  S_XS 0x00018000.
 55f0 5f484156 455f4343 5f494e48 49424954  _HAVE_CC_INHIBIT
 5600 5f4c4f4f 505f544f 5f4c4942 43414c4c  _LOOP_TO_LIBCALL
 5610 2031005f 5f4c4f4e 475f4c4f 4e475f4d   1.__LONG_LONG_M
 5620 41585f5f 20307837 66666666 66666666  AX__ 0x7ffffffff
 5630 66666666 6666664c 4c005f46 5345454b  fffffffLL._FSEEK
 5640 5f4f5054 494d495a 4154494f 4e203100  _OPTIMIZATION 1.
 5650 4d535441 54555333 325f5344 20307838  MSTATUS32_SD 0x8
 5660 30303030 30303000 5f5f746d 5f796461  0000000.__tm_yda
 5670 79006273 705f7072 696e7466 5f58004d  y.bsp_printf_X.M
 5680 4544454c 45475f49 4e535452 55435449  EDELEG_INSTRUCTI
 5690 4f4e5f50 4147455f 4641554c 54202831  ON_PAGE_FAULT (1
 56a0 203c3c20 31322900 5f5f474e 55434c49   << 12).__GNUCLI
 56b0 4b455f42 55494c54 494e5f56 41524152  KE_BUILTIN_VARAR
 56c0 47532031 004d5f45 20322e37 31383238  GS 1.M_E 2.71828
 56d0 31383238 34353930 34353233 3534005f  18284590452354._
 56e0 5f464c54 3634585f 4841535f 51554945  _FLT64X_HAS_QUIE
 56f0 545f4e41 4e5f5f20 31005f5f 464c5431  T_NAN__ 1.__FLT1
 5700 32385f44 49475f5f 20333300 5f5f494e  28_DIG__ 33.__IN
 5710 54385f43 28632920 63005f5f 7363616e  T8_C(c) c.__scan
 5720 666c696b 6528666d 74617267 2c666972  flike(fmtarg,fir
 5730 73747661 72617267 29205f5f 61747472  stvararg) __attr
 5740 69627574 655f5f28 285f5f66 6f726d61  ibute__((__forma
 5750 745f5f20 285f5f73 63616e66 5f5f2c20  t__ (__scanf__, 
 5760 666d7461 72672c20 66697273 74766172  fmtarg, firstvar
 5770 61726729 2929005f 5f464c54 33325f4d  arg))).__FLT32_M
 5780 41585f5f 20332e34 30323832 33343636  AX__ 3.402823466
 5790 33383532 38383539 38313137 30343138  3852885981170418
 57a0 33343834 35313639 3235652b 33384633  3484516925e+38F3
 57b0 32006273 705f7072 696e7466 5f630062  2.bsp_printf_c.b
 57c0 73705f70 72696e74 665f6400 5f454c49  sp_printf_d._ELI
 57d0 4441424c 455f494e 4c494e45 20737461  DABLE_INLINE sta
 57e0 74696320 5f5f696e 6c696e65 5f5f005f  tic __inline__._
 57f0 5f464c54 3634585f 44454e4f 524d5f4d  _FLT64X_DENORM_M
 5800 494e5f5f 20362e34 37353137 35313139  IN__ 6.475175119
 5810 34333830 32353131 30393234 34333839  4380251109244389
 5820 35383232 37363436 3535652d 34393636  5822764655e-4966
 5830 46363478 005f5f44 424c5f4d 494e5f45  F64x.__DBL_MIN_E
 5840 58505f5f 20282d31 30323129 005f5f53  XP__ (-1021).__S
 5850 495a455f 5420005f 5f707572 65205f5f  IZE_T .__pure __
 5860 61747472 69627574 655f5f28 285f5f70  attribute__((__p
 5870 7572655f 5f292900 53595354 454d5f50  ure__)).SYSTEM_P
 5880 4c49435f 53595354 454d5f49 32435f31  LIC_SYSTEM_I2C_1
 5890 5f494f5f 494e5445 52525550 54203900  _IO_INTERRUPT 9.
 58a0 5f736565 64005f5f 7072696e 7466306c  _seed.__printf0l
 58b0 696b6528 666d7461 72672c66 69727374  ike(fmtarg,first
 58c0 76617261 72672920 00425350 5f504c49  vararg) .BSP_PLI
 58d0 435f4350 555f3020 53595354 454d5f50  C_CPU_0 SYSTEM_P
 58e0 4c49435f 53595354 454d5f43 4f524553  LIC_SYSTEM_CORES
 58f0 5f305f45 58544552 4e414c5f 494e5445  _0_EXTERNAL_INTE
 5900 52525550 54004249 545f3131 20283120  RRUPT.BIT_11 (1 
 5910 3c3c2031 31290062 73705f70 72696e74  << 11).bsp_print
 5920 665f7300 5f5f464c 5433325f 4449475f  f_s.__FLT32_DIG_
 5930 5f203600 5f736565 6b005f5f 53544443  _ 6._seek.__STDC
 5940 5f484f53 5445445f 5f203100 6273705f  _HOSTED__ 1.bsp_
 5950 7072696e 74665f78 00474e55 20433137  printf_x.GNU C17
 5960 20382e33 2e30202d 6d617263 683d7276   8.3.0 -march=rv
 5970 3332696d 202d6d61 62693d69 6c703332  32im -mabi=ilp32
 5980 202d6733 202d4f67 005f5f46 4c543634   -g3 -Og.__FLT64
 5990 585f4445 43494d41 4c5f4449 475f5f20  X_DECIMAL_DIG__ 
 59a0 33360055 494e544d 41585f43 28782920  36.UINTMAX_C(x) 
 59b0 5f5f5549 4e544d41 585f4328 78290042  __UINTMAX_C(x).B
 59c0 49545f32 35202831 203c3c20 32352900  IT_25 (1 << 25).
 59d0 5f5f4558 50005f66 706f735f 74005f5f  __EXP._fpos_t.__
 59e0 4c44424c 5f484153 5f44454e 4f524d5f  LDBL_HAS_DENORM_
 59f0 5f203100 5f5f7763 6862005f 5f464c54  _ 1.__wchb.__FLT
 5a00 3332585f 4d494e5f 5f20322e 32323530  32X_MIN__ 2.2250
 5a10 37333835 38353037 32303133 38333039  7385850720138309
 5a20 30323332 37313733 33323430 34303665  023271733240406e
 5a30 2d333038 46333278 005f5f42 4547494e  -308F32x.__BEGIN
 5a40 5f444543 4c532000 53595354 454d5f50  _DECLS .SYSTEM_P
 5a50 4c49435f 53595354 454d5f55 5345525f  LIC_SYSTEM_USER_
 5a60 54494d45 525f305f 494e5445 52525550  TIMER_0_INTERRUP
 5a70 54535f30 20313900 5f474343 5f574348  TS_0 19._GCC_WCH
 5a80 41525f54 20005f4d 5f4c4e32 20302e36  AR_T ._M_LN2 0.6
 5a90 39333134 37313830 35353939 34353330  9314718055994530
 5aa0 39343137 005f5f49 4e545f4c 45415354  9417.__INT_LEAST
 5ab0 33325f54 5950455f 5f206c6f 6e672069  32_TYPE__ long i
 5ac0 6e74005f 6d62746f 77635f73 74617465  nt._mbtowc_state
 5ad0 00424954 5f323620 2831203c 3c203236  .BIT_26 (1 << 26
 5ae0 29005f5f 55494e54 5f4c4541 53543634  ).__UINT_LEAST64
 5af0 5f4d4158 5f5f2030 78666666 66666666  _MAX__ 0xfffffff
 5b00 66666666 66666666 66554c4c 005f5f46  fffffffffULL.__F
 5b10 4c543132 385f4841 535f494e 46494e49  LT128_HAS_INFINI
 5b20 54595f5f 2031005f 5f55494e 545f4641  TY__ 1.__UINT_FA
 5b30 53543634 5f4d4158 5f5f2030 78666666  ST64_MAX__ 0xfff
 5b40 66666666 66666666 66666666 66554c4c  fffffffffffffULL
 5b50 005f5f41 544f4d49 435f4143 51554952  .__ATOMIC_ACQUIR
 5b60 45203200 5f5f544d 505f464c 545f4556  E 2.__TMP_FLT_EV
 5b70 414c5f4d 4554484f 4420005f 5f494e54  AL_METHOD .__INT
 5b80 5f574944 54485f5f 20333200 5f5f4e45  _WIDTH__ 32.__NE
 5b90 574c4942 5f504154 43484c45 56454c5f  WLIB_PATCHLEVEL_
 5ba0 5f203000 5f5f4253 445f5649 5349424c  _ 0.__BSD_VISIBL
 5bb0 45203100 5f5f464c 5436345f 4d41585f  E 1.__FLT64_MAX_
 5bc0 5f20312e 37393736 39333133 34383632  _ 1.797693134862
 5bd0 33313537 30383134 35323734 32333733  3157081452742373
 5be0 31373034 33353765 2b333038 46363400  1704357e+308F64.
 5bf0 4249545f 31332028 31203c3c 20313329  BIT_13 (1 << 13)
 5c00 005f5f53 49475f41 544f4d49 435f4d41  .__SIG_ATOMIC_MA
 5c10 585f5f20 30783766 66666666 66660042  X__ 0x7fffffff.B
 5c20 49545f31 39202831 203c3c20 31392900  IT_19 (1 << 19).
 5c30 5f5f444f 5453202c 202e2e2e 005f5f44  __DOTS , ....__D
 5c40 45433634 5f4d414e 545f4449 475f5f20  EC64_MANT_DIG__ 
 5c50 31360053 59535445 4d5f5541 52545f30  16.SYSTEM_UART_0
 5c60 5f494f5f 50415241 4d455445 525f5541  _IO_PARAMETER_UA
 5c70 52545f43 54524c5f 434f4e46 49475f50  RT_CTRL_CONFIG_P
 5c80 4f53545f 53414d50 4c494e47 5f53495a  OST_SAMPLING_SIZ
 5c90 45203200 55494e54 5f4c4541 53543634  E 2.UINT_LEAST64
 5ca0 5f4d4158 20285f5f 55494e54 5f4c4541  _MAX (__UINT_LEA
 5cb0 53543634 5f4d4158 5f5f2900 5f5f616c  ST64_MAX__).__al
 5cc0 6c6f635f 73697a65 28782920 5f5f6174  loc_size(x) __at
 5cd0 74726962 7574655f 5f28285f 5f616c6c  tribute__((__all
 5ce0 6f635f73 697a655f 5f287829 2929005f  oc_size__(x)))._
 5cf0 5f474e55 434c494b 455f4255 494c5449  _GNUCLIKE_BUILTI
 5d00 4e5f434f 4e535441 4e545f50 2031005f  N_CONSTANT_P 1._
 5d10 5f534852 545f4d41 585f5f20 30783766  _SHRT_MAX__ 0x7f
 5d20 6666005f 5245454e 545f5743 5352544f  ff._REENT_WCSRTO
 5d30 4d42535f 53544154 45287074 72292028  MBS_STATE(ptr) (
 5d40 28707472 292d3e5f 6e65772e 5f726565  (ptr)->_new._ree
 5d50 6e742e5f 77637372 746f6d62 735f7374  nt._wcsrtombs_st
 5d60 61746529 005f5f50 54524449 46465f54  ate).__PTRDIFF_T
 5d70 5950455f 5f20696e 7400504c 49435f50  YPE__ int.PLIC_P
 5d80 454e4449 4e475f42 41534520 30783130  ENDING_BASE 0x10
 5d90 3030005f 5f57494e 545f4d41 585f5f20  00.__WINT_MAX__ 
 5da0 30786666 66666666 66665500 55415254  0xffffffffU.UART
 5db0 5f434c4f 434b5f44 49564944 45522030  _CLOCK_DIVIDER 0
 5dc0 78303800 5f5f474e 555f5649 5349424c  x08.__GNU_VISIBL
 5dd0 45203000 5f52414e 4434385f 4d554c54  E 0._RAND48_MULT
 5de0 5f322028 30783030 30352900 53595354  _2 (0x0005).SYST
 5df0 454d5f52 49534356 5f495341 5f455854  EM_RISCV_ISA_EXT
 5e00 5f432030 005f5245 454e545f 5743544f  _C 0._REENT_WCTO
 5e10 4d425f53 54415445 28707472 29202828  MB_STATE(ptr) ((
 5e20 70747229 2d3e5f6e 65772e5f 7265656e  ptr)->_new._reen
 5e30 742e5f77 63746f6d 625f7374 61746529  t._wctomb_state)
 5e40 005f6473 6f5f6861 6e646c65 005f5f49  ._dso_handle.__I
 5e50 4e545f46 41535431 365f5459 50455f5f  NT_FAST16_TYPE__
 5e60 20696e74 005f5549 4e544d41 585f545f   int._UINTMAX_T_
 5e70 4445434c 41524544 20005f50 4f534958  DECLARED ._POSIX
 5e80 5f435f53 4f555243 45203230 30383039  _C_SOURCE 200809
 5e90 4c005f72 616e6434 38005f5f 55494e54  L._rand48.__UINT
 5ea0 5f4c4541 53543136 5f545950 455f5f20  _LEAST16_TYPE__ 
 5eb0 73686f72 7420756e 7369676e 65642069  short unsigned i
 5ec0 6e74005f 494e544d 41585f54 5f444543  nt._INTMAX_T_DEC
 5ed0 4c415245 4420005f 545f5349 5a452000  LARED ._T_SIZE .
 5ee0 5f5f4348 41523136 5f545950 455f5f20  __CHAR16_TYPE__ 
 5ef0 73686f72 7420756e 7369676e 65642069  short unsigned i
 5f00 6e740053 59535445 4d5f5249 5343565f  nt.SYSTEM_RISCV_
 5f10 4953415f 52563332 49203100 4d494445  ISA_RV32I 1.MIDE
 5f20 4c45475f 53555045 52564953 4f525f54  LEG_SUPERVISOR_T
 5f30 494d4552 20283120 3c3c2035 29005f5f  IMER (1 << 5).__
 5f40 464c5433 32585f44 49475f5f 20313500  FLT32X_DIG__ 15.
 5f50 494e5436 345f4328 7829205f 5f494e54  INT64_C(x) __INT
 5f60 36345f43 28782900 53595354 454d5f52  64_C(x).SYSTEM_R
 5f70 49534356 5f495341 5f455854 5f412030  ISCV_ISA_EXT_A 0
 5f80 005f5245 454e545f 41534354 494d455f  ._REENT_ASCTIME_
 5f90 42554628 70747229 20282870 7472292d  BUF(ptr) ((ptr)-
 5fa0 3e5f6e65 772e5f72 65656e74 2e5f6173  >_new._reent._as
 5fb0 6374696d 655f6275 6629005f 5f686964  ctime_buf).__hid
 5fc0 64656e20 5f5f6174 74726962 7574655f  den __attribute_
 5fd0 5f28285f 5f766973 6962696c 6974795f  _((__visibility_
 5fe0 5f282268 69646465 6e222929 29005359  _("hidden"))).SY
 5ff0 5354454d 5f524953 43565f49 53415f45  STEM_RISCV_ISA_E
 6000 58545f4d 2031005f 5f46494e 4954455f  XT_M 1.__FINITE_
 6010 4d415448 5f4f4e4c 595f5f20 30005f5f  MATH_ONLY__ 0.__
 6020 494e545f 46415354 31365f4d 41585f5f  INT_FAST16_MAX__
 6030 20307837 66666666 66666600 5f5f6861   0x7fffffff.__ha
 6040 76655f6c 6f6e676c 6f6e6736 34203100  ve_longlong64 1.
 6050 454e4142 4c455f50 54524449 46465f53  ENABLE_PTRDIFF_S
 6060 5550504f 52542030 00535953 54454d5f  UPPORT 0.SYSTEM_
 6070 55415254 5f305f49 4f5f5041 52414d45  UART_0_IO_PARAME
 6080 5445525f 494e4954 5f434f4e 4649475f  TER_INIT_CONFIG_
 6090 50415249 5459204e 4f4e4500 53595354  PARITY NONE.SYST
 60a0 454d5f43 4c494e54 5f435452 4c203078  EM_CLINT_CTRL 0x
 60b0 66386230 30303030 005f626c 6b73697a  f8b00000._blksiz
 60c0 65005f5f 72697363 765f786c 656e2033  e.__riscv_xlen 3
 60d0 32005f52 45454e54 5f4d505f 50355328  2._REENT_MP_P5S(
 60e0 70747229 20282870 7472292d 3e5f7035  ptr) ((ptr)->_p5
 60f0 7329005f 55494e54 5054525f 545f4445  s)._UINTPTR_T_DE
 6100 434c4152 45442000 4d5f325f 53515254  CLARED .M_2_SQRT
 6110 50492031 2e313238 33373931 36373039  PI 1.12837916709
 6120 35353132 35373339 30005359 5354454d  551257390.SYSTEM
 6130 5f554152 545f415f 41504220 53595354  _UART_A_APB SYST
 6140 454d5f55 4152545f 305f494f 5f415042  EM_UART_0_IO_APB
 6150 005f6261 7365005f 5f55494e 54505452  ._base.__UINTPTR
 6160 5f4d4158 5f5f2030 78666666 66666666  _MAX__ 0xfffffff
 6170 6655005f 5f4c4442 4c5f4d41 585f3130  fU.__LDBL_MAX_10
 6180 5f455850 5f5f2034 39333200 5f4d4154  _EXP__ 4932._MAT
 6190 485f485f 20005359 5354454d 5f554152  H_H_ .SYSTEM_UAR
 61a0 545f305f 494f5f50 4152414d 45544552  T_0_IO_PARAMETER
 61b0 5f494e49 545f434f 4e464947 5f424155  _INIT_CONFIG_BAU
 61c0 44524154 45203131 35323030 004d5f33  DRATE 115200.M_3
 61d0 50495f34 20322e33 35363139 34343930  PI_4 2.356194490
 61e0 31393233 34343833 37304530 005f5f49  1923448370E0.__I
 61f0 4545455f 4c495454 4c455f45 4e444941  EEE_LITTLE_ENDIA
 6200 4e200053 59535445 4d5f5541 52545f30  N .SYSTEM_UART_0
 6210 5f494f5f 50415241 4d455445 525f494e  _IO_PARAMETER_IN
 6220 49545f43 4f4e4649 475f4441 54415f4c  IT_CONFIG_DATA_L
 6230 454e4754 48203700 5f5f4343 5f535550  ENGTH 7.__CC_SUP
 6240 504f5254 535f5641 52414449 435f5858  PORTS_VARADIC_XX
 6250 58203100 64617461 5f636163 68655f69  X 1.data_cache_i
 6260 6e76616c 69646174 655f6164 64726573  nvalidate_addres
 6270 73286164 64726573 73292028 7b206173  s(address) ({ as
 6280 6d20766f 6c617469 6c652820 222e776f  m volatile( ".wo
 6290 72642028 28307835 30304629 207c2028  rd ((0x500F) | (
 62a0 7265676e 756d5f25 30203c3c 20313529  regnum_%0 << 15)
 62b0 293b2220 3a203a20 22722220 28616464  );" : : "r" (add
 62c0 72657373 2920293b 207d2900 53595354  ress) ); }).SYST
 62d0 454d5f55 4152545f 305f494f 5f504152  EM_UART_0_IO_PAR
 62e0 414d4554 45525f55 4152545f 4354524c  AMETER_UART_CTRL
 62f0 5f434f4e 4649475f 44415441 5f574944  _CONFIG_DATA_WID
 6300 54485f4d 41582038 005f5f61 72675f74  TH_MAX 8.__arg_t
 6310 7970655f 74616728 6172675f 6b696e64  ype_tag(arg_kind
 6320 2c617267 5f696478 2c747970 655f7461  ,arg_idx,type_ta
 6330 675f6964 78292000 4249545f 37202831  g_idx) .BIT_7 (1
 6340 203c3c20 3729005f 5f636f6e 7461696e   << 7).__contain
 6350 65726f66 28782c73 2c6d2920 287b2063  erof(x,s,m) ({ c
 6360 6f6e7374 20766f6c 6174696c 65205f5f  onst volatile __
 6370 74797065 6f662828 2873202a 2930292d  typeof(((s *)0)-
 6380 3e6d2920 2a5f5f78 203d2028 78293b20  >m) *__x = (x); 
 6390 5f5f4445 5155414c 49465928 73202a2c  __DEQUALIFY(s *,
 63a0 2028636f 6e737420 766f6c61 74696c65   (const volatile
 63b0 20636861 72202a29 5f5f7820 2d205f5f   char *)__x - __
 63c0 6f666673 65746f66 28732c20 6d29293b  offsetof(s, m));
 63d0 7d29005f 5f6c6f63 6b5f636c 6f73655f  }).__lock_close_
 63e0 72656375 72736976 65286c6f 636b2920  recursive(lock) 
 63f0 2828766f 69642920 3029005f 4253445f  ((void) 0)._BSD_
 6400 53495a45 5f545f20 005f5f69 6e743230  SIZE_T_ .__int20
 6410 5f5f202b 32005f5f 6e6f5f6c 6f636b5f  __ +2.__no_lock_
 6420 616e616c 79736973 205f5f6c 6f636b5f  analysis __lock_
 6430 616e6e6f 74617465 286e6f5f 74687265  annotate(no_thre
 6440 61645f73 61666574 795f616e 616c7973  ad_safety_analys
 6450 69732900 4750494f 5f4f5554 5055545f  is).GPIO_OUTPUT_
 6460 454e4142 4c452030 78303800 5f666c6f  ENABLE 0x08._flo
 6470 636b5f74 005f5245 454e545f 53544449  ck_t._REENT_STDI
 6480 4f5f5354 5245414d 28766172 2c696e64  O_STREAM(var,ind
 6490 65782920 26287661 72292d3e 5f5f7366  ex) &(var)->__sf
 64a0 5b696e64 65785d00 5f5f4649 4c450048  [index].__FILE.H
 64b0 5547455f 56414c46 20285f5f 6275696c  UGE_VALF (__buil
 64c0 74696e5f 68756765 5f76616c 66282929  tin_huge_valf())
 64d0 005f4245 47494e5f 5354445f 4320005f  ._BEGIN_STD_C ._
 64e0 5f76615f 636f7079 28642c73 29205f5f  _va_copy(d,s) __
 64f0 6275696c 74696e5f 76615f63 6f707928  builtin_va_copy(
 6500 642c7329 004d5354 41545553 5f4d5050  d,s).MSTATUS_MPP
 6510 20307830 30303031 38303000 5f434c4f   0x00001800._CLO
 6520 434b4944 5f545f20 756e7369 676e6564  CKID_T_ unsigned
 6530 206c6f6e 67005f52 45454e54 5f434845   long._REENT_CHE
 6540 434b5f54 4d287074 72292000 4d535441  CK_TM(ptr) .MSTA
 6550 5455535f 48504945 20307830 30303030  TUS_HPIE 0x00000
 6560 30343000 5f6d6273 74617465 5f74005f  040._mbstate_t._
 6570 5f494e54 5f574348 41525f54 5f482000  _INT_WCHAR_T_H .
 6580 4750494f 5f494e54 45525255 50545f46  GPIO_INTERRUPT_F
 6590 414c4c5f 454e4142 4c452030 78323400  ALL_ENABLE 0x24.
 65a0 53595354 454d5f50 4c49435f 53595354  SYSTEM_PLIC_SYST
 65b0 454d5f47 50494f5f 305f494f 5f494e54  EM_GPIO_0_IO_INT
 65c0 45525255 5054535f 30203132 005f7234  ERRUPTS_0 12._r4
 65d0 38005f5f 454c465f 5f203100 5f5f474e  8.__ELF__ 1.__GN
 65e0 55434c49 4b455f43 544f525f 53454354  UCLIKE_CTOR_SECT
 65f0 494f4e5f 48414e44 4c494e47 20310053  ION_HANDLING 1.S
 6600 59535445 4d5f5541 52545f30 5f494f5f  YSTEM_UART_0_IO_
 6610 50415241 4d455445 525f5258 5f464946  PARAMETER_RX_FIF
 6620 4f5f4445 50544820 31323800 5f707574  O_DEPTH 128._put
 6630 63686172 00425350 5f434c49 4e545f48  char.BSP_CLINT_H
 6640 5a205359 5354454d 5f434c49 4e545f48  Z SYSTEM_CLINT_H
 6650 5a00504d 505f5220 30783031 00475049  Z.PMP_R 0x01.GPI
 6660 4f5f494e 54455252 5550545f 4c4f575f  O_INTERRUPT_LOW_
 6670 454e4142 4c452030 78326300 5f5f4442  ENABLE 0x2c.__DB
 6680 4c5f4d49 4e5f5f20 2828646f 75626c65  L_MIN__ ((double
 6690 29322e32 32353037 33383538 35303732  )2.2250738585072
 66a0 30313338 33303930 32333237 31373333  0138309023271733
 66b0 32343034 3036652d 3330384c 29005f5f  240406e-308L).__
 66c0 464c5436 34585f4d 494e5f5f 20332e33  FLT64X_MIN__ 3.3
 66d0 36323130 33313433 31313230 39333530  6210314311209350
 66e0 36323632 36373738 31373332 31373532  6262677817321752
 66f0 3630652d 34393332 46363478 005f414e  60e-4932F64x._AN
 6700 53495f53 54444152 475f485f 2000706c  SI_STDARG_H_ .pl
 6710 69635f73 65745f74 68726573 686f6c64  ic_set_threshold
 6720 0055494e 5436345f 43287829 205f5f55  .UINT64_C(x) __U
 6730 494e5436 345f4328 7829005f 5f6c6f63  INT64_C(x).__loc
 6740 6b5f696e 6974286c 6f636b29 20282876  k_init(lock) ((v
 6750 6f696429 20302900 5f646174 61004249  oid) 0)._data.BI
 6760 545f3020 2831203c 3c203029 005f5f47  T_0 (1 << 0).__G
 6770 4e55435f 4d494e4f 525f5f20 33005f5f  NUC_MINOR__ 3.__
 6780 6c6f636b 5f72656c 65617365 5f726563  lock_release_rec
 6790 75727369 7665286c 6f636b29 20282876  ursive(lock) ((v
 67a0 6f696429 20302900 5f5f5549 4e545f4c  oid) 0).__UINT_L
 67b0 45415354 33325f54 5950455f 5f206c6f  EAST32_TYPE__ lo
 67c0 6e672075 6e736967 6e656420 696e7400  ng unsigned int.
 67d0 5f5f4c44 424c5f4d 494e5f31 305f4558  __LDBL_MIN_10_EX
 67e0 505f5f20 282d3439 33312900 504c4943  P__ (-4931).PLIC
 67f0 5f434f4e 54455854 5f504552 5f484152  _CONTEXT_PER_HAR
 6800 54203078 31303030 005f5f72 65717569  T 0x1000.__requi
 6810 7265735f 6578636c 75736976 65282e2e  res_exclusive(..
 6820 2e29205f 5f6c6f63 6b5f616e 6e6f7461  .) __lock_annota
 6830 74652865 78636c75 73697665 5f6c6f63  te(exclusive_loc
 6840 6b735f72 65717569 72656428 5f5f5641  ks_required(__VA
 6850 5f415247 535f5f29 29005f52 414e4434  _ARGS__))._RAND4
 6860 385f4d55 4c545f31 20283078 64656563  8_MULT_1 (0xdeec
 6870 29005f5f 494e544d 41585f54 5950455f  ).__INTMAX_TYPE_
 6880 5f206c6f 6e67206c 6f6e6720 696e7400  _ long long int.
 6890 5f5f4743 435f4154 4f4d4943 5f494e54  __GCC_ATOMIC_INT
 68a0 5f4c4f43 4b5f4652 45452031 0073686f  _LOCK_FREE 1.sho
 68b0 72740053 59535445 4d5f434f 5245535f  rt.SYSTEM_CORES_
 68c0 305f4650 55203000 5f5f464c 54333258  0_FPU 0.__FLT32X
 68d0 5f455053 494c4f4e 5f5f2032 2e323230  _EPSILON__ 2.220
 68e0 34343630 34393235 30333133 30383038  4460492503130808
 68f0 34373236 33333336 31383136 34303632  4726333618164062
 6900 652d3136 46333278 005f4743 435f4d41  e-16F32x._GCC_MA
 6910 585f414c 49474e5f 54200042 53505f55  X_ALIGN_T .BSP_U
 6920 4152545f 5445524d 494e414c 20535953  ART_TERMINAL SYS
 6930 54454d5f 55415254 5f305f49 4f5f4354  TEM_UART_0_IO_CT
 6940 524c005f 53545249 4e47535f 485f2000  RL._STRINGS_H_ .
 6950 5f53495a 45545f20 005f5354 444c4942  _SIZET_ ._STDLIB
 6960 5f485f20 005f5f44 424c5f48 41535f51  _H_ .__DBL_HAS_Q
 6970 55494554 5f4e414e 5f5f2031 0069736c  UIET_NAN__ 1.isl
 6980 65737328 5f5f782c 5f5f7929 20285f5f  ess(__x,__y) (__
 6990 6275696c 74696e5f 69736c65 73732028  builtin_isless (
 69a0 5f5f782c 205f5f79 29290049 4e543332  __x, __y)).INT32
 69b0 5f432878 29205f5f 494e5433 325f4328  _C(x) __INT32_C(
 69c0 78290053 59535445 4d5f4750 494f5f41  x).SYSTEM_GPIO_A
 69d0 5f415042 20535953 54454d5f 4750494f  _APB SYSTEM_GPIO
 69e0 5f305f49 4f5f4150 42005f4e 4f494e4c  _0_IO_APB._NOINL
 69f0 494e455f 53544154 4943205f 4e4f494e  INE_STATIC _NOIN
 6a00 4c494e45 20737461 74696300 46505f4e  LINE static.FP_N
 6a10 4f524d41 4c203400 5f5f636f 6e737420  ORMAL 4.__const 
 6a20 636f6e73 74005549 4e545f4c 45415354  const.UINT_LEAST
 6a30 33325f4d 41582028 5f5f5549 4e545f4c  32_MAX (__UINT_L
 6a40 45415354 33325f4d 41585f5f 29005f5f  EAST32_MAX__).__
 6a50 434f5059 52494748 54287329 20737472  COPYRIGHT(s) str
 6a60 75637420 5f5f6861 636b005f 5245454e  uct __hack._REEN
 6a70 545f4348 45434b5f 454d4552 47454e43  T_CHECK_EMERGENC
 6a80 59287074 72292000 5f5f464c 54313238  Y(ptr) .__FLT128
 6a90 5f44454e 4f524d5f 4d494e5f 5f20362e  _DENORM_MIN__ 6.
 6aa0 34373531 37353131 39343338 30323531  4751751194380251
 6ab0 31303932 34343338 39353832 32373634  1092443895822764
 6ac0 36353565 2d343936 36463132 38006372  655e-4966F128.cr
 6ad0 61736800 63686172 202b3000 55494e54  ash.char +0.UINT
 6ae0 5f464153 5433325f 4d415820 285f5f55  _FAST32_MAX (__U
 6af0 494e545f 46415354 33325f4d 41585f5f  INT_FAST32_MAX__
 6b00 29006373 725f7377 61702863 73722c76  ).csr_swap(csr,v
 6b10 616c2920 287b2075 6e736967 6e656420  al) ({ unsigned 
 6b20 6c6f6e67 205f5f76 203d2028 756e7369  long __v = (unsi
 6b30 676e6564 206c6f6e 67292876 616c293b  gned long)(val);
 6b40 205f5f61 736d5f5f 205f5f76 6f6c6174   __asm__ __volat
 6b50 696c655f 5f202822 63737272 77202530  ile__ ("csrrw %0
 6b60 2c202220 23637372 20222c20 25312220  , " #csr ", %1" 
 6b70 3a20223d 72222028 5f5f7629 203a2022  : "=r" (__v) : "
 6b80 724b2220 285f5f76 29293b20 5f5f763b  rK" (__v)); __v;
 6b90 207d2900 5f5f5549 4e545054 525f5459   }).__UINTPTR_TY
 6ba0 50455f5f 20756e73 69676e65 6420696e  PE__ unsigned in
 6bb0 74005f5f 52454749 53544552 5f505245  t.__REGISTER_PRE
 6bc0 4649585f 5f20005f 5f444543 3132385f  FIX__ .__DEC128_
 6bd0 5355424e 4f524d41 4c5f4d49 4e5f5f20  SUBNORMAL_MIN__ 
 6be0 302e3030 30303030 30303030 30303030  0.00000000000000
 6bf0 30303030 30303030 30303030 30303030  0000000000000000
 6c00 30303145 2d363134 33444c00 5f5f4442  001E-6143DL.__DB
 6c10 4c5f4449 475f5f20 3135005f 55494e54  L_DIG__ 15._UINT
 6c20 31365f54 5f444543 4c415245 4420005f  16_T_DECLARED ._
 6c30 5f524353 49442873 29207374 72756374  _RCSID(s) struct
 6c40 205f5f68 61636b00 5f5f5349 5a454f46   __hack.__SIZEOF
 6c50 5f53495a 455f545f 5f203400 52445449  _SIZE_T__ 4.RDTI
 6c60 4d452030 78433031 00666f72 6d617400  ME 0xC01.format.
 6c70 5f5f5549 4e543634 5f545950 455f5f20  __UINT64_TYPE__ 
 6c80 6c6f6e67 206c6f6e 6720756e 7369676e  long long unsign
 6c90 65642069 6e74005f 5f464c54 36345f45  ed int.__FLT64_E
 6ca0 5053494c 4f4e5f5f 20322e32 32303434  PSILON__ 2.22044
 6cb0 36303439 32353033 31333038 30383437  6049250313080847
 6cc0 32363333 33363138 31363430 3632652d  26333618164062e-
 6cd0 31364636 34005359 5354454d 5f424d42  16F64.SYSTEM_BMB
 6ce0 5f504552 49504845 52414c5f 424d425f  _PERIPHERAL_BMB_
 6cf0 53495a45 20307831 30303030 3030005f  SIZE 0x1000000._
 6d00 5f454e44 5f444543 4c532000 5f5f6461  _END_DECLS .__da
 6d10 74617479 70655f74 7970655f 74616728  tatype_type_tag(
 6d20 6b696e64 2c747970 65292000 53595354  kind,type) .SYST
 6d30 454d5f55 4152545f 305f494f 5f435452  EM_UART_0_IO_CTR
 6d40 4c5f5349 5a452030 78343000 5f5f616c  L_SIZE 0x40.__al
 6d50 69676e65 64287829 205f5f61 74747269  igned(x) __attri
 6d60 62757465 5f5f2828 5f5f616c 69676e65  bute__((__aligne
 6d70 645f5f28 78292929 00756e73 69676e65  d__(x))).unsigne
 6d80 64005f6d 626c656e 5f737461 74650062  d._mblen_state.b
 6d90 73705f70 72696e74 48657800 55415254  sp_printHex.UART
 6da0 5f535441 54555320 30783034 004d5354  _STATUS 0x04.MST
 6db0 41545553 5f555049 45203078 30303030  ATUS_UPIE 0x0000
 6dc0 30303130 005f5354 52494e47 5f485f20  0010._STRING_H_ 
 6dd0 005f5f70 745f6775 61726465 645f6279  .__pt_guarded_by
 6de0 28782920 5f5f6c6f 636b5f61 6e6e6f74  (x) __lock_annot
 6df0 61746528 70745f67 75617264 65645f62  ate(pt_guarded_b
 6e00 79287829 29005f5f 67756172 6465645f  y(x)).__guarded_
 6e10 62792878 29205f5f 6c6f636b 5f616e6e  by(x) __lock_ann
 6e20 6f746174 65286775 61726465 645f6279  otate(guarded_by
 6e30 28782929 0076615f 61726728 762c6c29  (x)).va_arg(v,l)
 6e40 205f5f62 75696c74 696e5f76 615f6172   __builtin_va_ar
 6e50 6728762c 6c29005f 5359535f 53495a45  g(v,l)._SYS_SIZE
 6e60 5f545f48 20005f5f 55494e54 31365f43  _T_H .__UINT16_C
 6e70 28632920 63005f5f 464c5436 345f4d49  (c) c.__FLT64_MI
 6e80 4e5f4558 505f5f20 282d3130 32312900  N_EXP__ (-1021).
 6e90 5f5f5349 5a454f46 5f505452 44494646  __SIZEOF_PTRDIFF
 6ea0 5f545f5f 2034005f 5f43435f 53555050  _T__ 4.__CC_SUPP
 6eb0 4f525453 5f5f5f49 4e4c494e 455f5f20  ORTS___INLINE__ 
 6ec0 31005f5f 4c454153 54313620 22682200  1.__LEAST16 "h".
 6ed0 5f5f7072 696e7466 6c696b65 28666d74  __printflike(fmt
 6ee0 6172672c 66697273 74766172 61726729  arg,firstvararg)
 6ef0 205f5f61 74747269 62757465 5f5f2828   __attribute__((
 6f00 5f5f666f 726d6174 5f5f2028 5f5f7072  __format__ (__pr
 6f10 696e7466 5f5f2c20 666d7461 72672c20  intf__, fmtarg, 
 6f20 66697273 74766172 61726729 29290049  firstvararg))).I
 6f30 4e545054 525f4d41 5820285f 5f494e54  NTPTR_MAX (__INT
 6f40 5054525f 4d41585f 5f29005f 5f666173  PTR_MAX__).__fas
 6f50 7463616c 6c205f5f 61747472 69627574  tcall __attribut
 6f60 655f5f28 285f5f66 61737463 616c6c5f  e__((__fastcall_
 6f70 5f292900 494e5436 345f4d49 4e20282d  _)).INT64_MIN (-
 6f80 5f5f494e 5436345f 4d41585f 5f202d20  __INT64_MAX__ - 
 6f90 3129005f 5f464c54 3634585f 4d41585f  1).__FLT64X_MAX_
 6fa0 4558505f 5f203136 33383400 5f524545  EXP__ 16384._REE
 6fb0 4e545f53 49474e41 4c5f4255 46287074  NT_SIGNAL_BUF(pt
 6fc0 72292028 28707472 292d3e5f 6e65772e  r) ((ptr)->_new.
 6fd0 5f726565 6e742e5f 7369676e 616c5f62  _reent._signal_b
 6fe0 75662900 5f5f4154 4f4d4943 5f52454c  uf).__ATOMIC_REL
 6ff0 41584544 2030005f 41545452 49425554  AXED 0._ATTRIBUT
 7000 45286174 74727329 205f5f61 74747269  E(attrs) __attri
 7010 62757465 5f5f2028 61747472 7329005f  bute__ (attrs)._
 7020 5f726571 75697265 735f7368 61726564  _requires_shared
 7030 282e2e2e 29205f5f 6c6f636b 5f616e6e  (...) __lock_ann
 7040 6f746174 65287368 61726564 5f6c6f63  otate(shared_loc
 7050 6b735f72 65717569 72656428 5f5f5641  ks_required(__VA
 7060 5f415247 535f5f29 29005f4b 6d617820  _ARGS__))._Kmax 
 7070 2873697a 656f6620 2873697a 655f7429  (sizeof (size_t)
 7080 203c3c20 3329005f 5f44424c 5f484153   << 3).__DBL_HAS
 7090 5f494e46 494e4954 595f5f20 3100504d  _INFINITY__ 1.PM
 70a0 505f4e41 34203078 31300055 494e545f  P_NA4 0x10.UINT_
 70b0 46415354 36345f4d 41582028 5f5f5549  FAST64_MAX (__UI
 70c0 4e545f46 41535436 345f4d41 585f5f29  NT_FAST64_MAX__)
 70d0 0055494e 5436345f 4d415820 285f5f55  .UINT64_MAX (__U
 70e0 494e5436 345f4d41 585f5f29 0055494e  INT64_MAX__).UIN
 70f0 545f4c45 41535438 5f4d4158 20285f5f  T_LEAST8_MAX (__
 7100 55494e54 5f4c4541 5354385f 4d41585f  UINT_LEAST8_MAX_
 7110 5f290042 49545f36 20283120 3c3c2036  _).BIT_6 (1 << 6
 7120 29005f5f 72616e67 656f6628 74797065  ).__rangeof(type
 7130 2c737461 72742c65 6e642920 285f5f6f  ,start,end) (__o
 7140 66667365 746f6628 74797065 2c20656e  ffsetof(type, en
 7150 6429202d 205f5f6f 66667365 746f6628  d) - __offsetof(
 7160 74797065 2c207374 61727429 29007375  type, start)).su
 7170 626f7074 61726700 5f5f474e 55434c49  boptarg.__GNUCLI
 7180 4b455f5f 5f4f4646 5345544f 46203100  KE___OFFSETOF 1.
 7190 69736772 65617465 72657175 616c285f  isgreaterequal(_
 71a0 5f782c5f 5f792920 285f5f62 75696c74  _x,__y) (__built
 71b0 696e5f69 73677265 61746572 65717561  in_isgreaterequa
 71c0 6c20285f 5f782c20 5f5f7929 29005f5f  l (__x, __y)).__
 71d0 53495a45 4f465f46 4c4f4154 5f5f2034  SIZEOF_FLOAT__ 4
 71e0 0055494e 54385f43 28782920 5f5f5549  .UINT8_C(x) __UI
 71f0 4e54385f 43287829 005f5f44 45433634  NT8_C(x).__DEC64
 7200 5f4d494e 5f5f2031 452d3338 33444400  _MIN__ 1E-383DD.
 7210 5244494e 53545245 54482030 78433832  RDINSTRETH 0xC82
 7220 00677069 6f5f7365 744f7574 70757400  .gpio_setOutput.
 7230 5f6d6178 77647300 5f5f6861 76655f6c  _maxwds.__have_l
 7240 6f6e6733 32203100 5f474c4f 42414c5f  ong32 1._GLOBAL_
 7250 5245454e 54205f67 6c6f6261 6c5f696d  REENT _global_im
 7260 70757265 5f707472 005f4e55 4c4c2030  pure_ptr._NULL 0
 7270 005f5f66 6c657861 7272205b 305d006d  .__flexarr [0].m
 7280 63617573 65005f5f 746d5f79 65617200  cause.__tm_year.
 7290 5f524541 445f5752 4954455f 52455455  _READ_WRITE_RETU
 72a0 524e5f54 59504520 5f737369 7a655f74  RN_TYPE _ssize_t
 72b0 005f5f49 4e543136 5f4d4158 5f5f2030  .__INT16_MAX__ 0
 72c0 78376666 66005f5f 72697363 765f6d75  x7fff.__riscv_mu
 72d0 6c203100 53595354 454d5f49 32435f30  l 1.SYSTEM_I2C_0
 72e0 5f494f5f 4354524c 5f53495a 45203078  _IO_CTRL_SIZE 0x
 72f0 31303000 5f5f4445 564f4c41 54494c45  100.__DEVOLATILE
 7300 28747970 652c7661 72292028 28747970  (type,var) ((typ
 7310 6529285f 5f75696e 74707472 5f742928  e)(__uintptr_t)(
 7320 766f6c61 74696c65 20766f69 64202a29  volatile void *)
 7330 28766172 2929005f 5f574348 41525f54  (var)).__WCHAR_T
 7340 5f5f2000 5f5f5353 505f464f 52544946  __ .__SSP_FORTIF
 7350 595f4c45 56454c20 30005f5f 474e5543  Y_LEVEL 0.__GNUC
 7360 4c494b45 5f425549 4c54494e 5f535444  LIKE_BUILTIN_STD
 7370 41524720 31005f5f 53495a45 5f545f5f  ARG 1.__SIZE_T__
 7380 20005f5f 5853495f 56495349 424c4520   .__XSI_VISIBLE 
 7390 30005f72 6573756c 745f6b00 5f5f464c  0._result_k.__FL
 73a0 54313238 5f4d414e 545f4449 475f5f20  T128_MANT_DIG__ 
 73b0 31313300 5f5f7374 72666d6f 6e6c696b  113.__strfmonlik
 73c0 6528666d 74617267 2c666972 73747661  e(fmtarg,firstva
 73d0 72617267 29205f5f 61747472 69627574  rarg) __attribut
 73e0 655f5f28 285f5f66 6f726d61 745f5f20  e__((__format__ 
 73f0 285f5f73 7472666d 6f6e5f5f 2c20666d  (__strfmon__, fm
 7400 74617267 2c206669 72737476 61726172  targ, firstvarar
 7410 67292929 004d5f49 564c4e31 3020302e  g))).M_IVLN10 0.
 7420 34333432 39343438 31393033 32353138  4342944819032518
 7430 32373635 005f5f46 41535433 3220005f  2765.__FAST32 ._
 7440 5f534947 5f41544f 4d49435f 57494454  _SIG_ATOMIC_WIDT
 7450 485f5f20 3332005f 5f474e55 435f5052  H__ 32.__GNUC_PR
 7460 45524551 5f5f286d 612c6d69 29205f5f  EREQ__(ma,mi) __
 7470 474e5543 5f505245 52455128 6d612c20  GNUC_PREREQ(ma, 
 7480 6d692900 5f5f6578 706f7274 6564205f  mi).__exported _
 7490 5f617474 72696275 74655f5f 28285f5f  _attribute__((__
 74a0 76697369 62696c69 74795f5f 28226465  visibility__("de
 74b0 6661756c 74222929 29005f5f 70757265  fault"))).__pure
 74c0 32205f5f 61747472 69627574 655f5f28  2 __attribute__(
 74d0 285f5f63 6f6e7374 5f5f2929 005f5f46  (__const__)).__F
 74e0 42534449 44287329 20737472 75637420  BSDID(s) struct 
 74f0 5f5f6861 636b0076 615f656e 64287629  __hack.va_end(v)
 7500 205f5f62 75696c74 696e5f76 615f656e   __builtin_va_en
 7510 64287629 005f5f75 6e726561 63686162  d(v).__unreachab
 7520 6c652829 205f5f62 75696c74 696e5f75  le() __builtin_u
 7530 6e726561 63686162 6c652829 005f6c62  nreachable()._lb
 7540 6673697a 65005359 5354454d 5f493243  fsize.SYSTEM_I2C
 7550 5f315f49 4f5f4354 524c2030 78663830  _1_IO_CTRL 0xf80
 7560 31383030 30005f5f 4c4f434b 5f494e49  18000.__LOCK_INI
 7570 545f5245 43555253 49564528 636c6173  T_RECURSIVE(clas
 7580 732c6c6f 636b2920 73746174 69632069  s,lock) static i
 7590 6e74206c 6f636b20 3d20303b 005f5f53  nt lock = 0;.__S
 75a0 495a454f 465f5749 4e545f54 5f5f2034  IZEOF_WINT_T__ 4
 75b0 005f696e 64005f55 4e425546 5f535452  ._ind._UNBUF_STR
 75c0 45414d5f 4f505420 31006761 74657761  EAM_OPT 1.gatewa
 75d0 79005f5f 6c6f636b 735f7368 61726564  y.__locks_shared
 75e0 282e2e2e 29205f5f 6c6f636b 5f616e6e  (...) __lock_ann
 75f0 6f746174 65287368 61726564 5f6c6f63  otate(shared_loc
 7600 6b5f6675 6e637469 6f6e285f 5f56415f  k_function(__VA_
 7610 41524753 5f5f2929 005f5f47 4e55434c  ARGS__)).__GNUCL
 7620 494b455f 41534d20 33004750 494f3020  IKE_ASM 3.GPIO0 
 7630 53595354 454d5f47 50494f5f 305f494f  SYSTEM_GPIO_0_IO
 7640 5f435452 4c005f5f 494e545f 46415354  _CTRL.__INT_FAST
 7650 385f4d41 585f5f20 30783766 66666666  8_MAX__ 0x7fffff
 7660 6666005f 5f464c54 33325f48 41535f44  ff.__FLT32_HAS_D
 7670 454e4f52 4d5f5f20 31004d41 58464c4f  ENORM__ 1.MAXFLO
 7680 41542033 2e343032 38323334 37652b33  AT 3.40282347e+3
 7690 38460046 505f494c 4f474230 20282d5f  8F.FP_ILOGB0 (-_
 76a0 5f494e54 5f4d4158 5f5f2900 5f5f4641  _INT_MAX__).__FA
 76b0 53543820 005f5245 454e545f 5349474e  ST8 ._REENT_SIGN
 76c0 47414d28 70747229 20282870 7472292d  GAM(ptr) ((ptr)-
 76d0 3e5f6e65 772e5f72 65656e74 2e5f6761  >_new._reent._ga
 76e0 6d6d615f 7369676e 67616d29 005f4d41  mma_signgam)._MA
 76f0 4348494e 455f5f54 59504553 5f482000  CHINE__TYPES_H .
 7700 5f5f494e 545f4641 53543332 5f574944  __INT_FAST32_WID
 7710 54485f5f 20333200 5f4e4557 4c49425f  TH__ 32._NEWLIB_
 7720 56455253 494f4e20 22332e31 2e302200  VERSION "3.1.0".
 7730 5f52414e 4434385f 4d554c54 5f302028  _RAND48_MULT_0 (
 7740 30786536 36642900 5f69735f 63786100  0xe66d)._is_cxa.
 7750 5f5f474e 55434c49 4b455f42 55494c54  __GNUCLIKE_BUILT
 7760 494e5f56 41414c49 53542031 005f5f53  IN_VAALIST 1.__S
 7770 495a454f 465f4c4f 4e475f44 4f55424c  IZEOF_LONG_DOUBL
 7780 455f5f20 3136004d 49455f4d 54494520  E__ 16.MIE_MTIE 
 7790 2831203c 3c204341 5553455f 4d414348  (1 << CAUSE_MACH
 77a0 494e455f 54494d45 5229005f 6e657874  INE_TIMER)._next
 77b0 66005f5f 494e5433 3220226c 22005f5f  f.__INT32 "l".__
 77c0 6c6f636b 5f616e6e 6f746174 65287829  lock_annotate(x)
 77d0 20005244 494e5354 52455420 30784330   .RDINSTRET 0xC0
 77e0 32007374 72746f64 66207374 72746f66  2.strtodf strtof
 77f0 005f5f46 4c543132 385f4d41 585f5f20  .__FLT128_MAX__ 
 7800 312e3138 39373331 34393533 35373233  1.18973149535723
 7810 31373635 30383537 35393332 36363238  1765085759326628
 7820 30303730 32652b34 39333246 31323800  00702e+4932F128.
 7830 5f5f5549 4e543332 5f545950 455f5f20  __UINT32_TYPE__ 
 7840 6c6f6e67 20756e73 69676e65 6420696e  long unsigned in
 7850 74005f5f 474e5543 4c494b45 5f4d4154  t.__GNUCLIKE_MAT
 7860 485f4255 494c5449 4e5f434f 4e535441  H_BUILTIN_CONSTA
 7870 4e545320 00454e41 424c455f 5052494e  NTS .ENABLE_PRIN
 7880 54465f57 41524e49 4e472031 00454e41  TF_WARNING 1.ENA
 7890 424c455f 4c4f4e47 5f4c4f4e 475f5355  BLE_LONG_LONG_SU
 78a0 50504f52 54203000 5f444546 41554c54  PPORT 0._DEFAULT
 78b0 5f534f55 52434500 5f5f464c 54313238  _SOURCE.__FLT128
 78c0 5f484153 5f44454e 4f524d5f 5f203100  _HAS_DENORM__ 1.
 78d0 5f5f5645 5253494f 4e5f5f20 22382e33  __VERSION__ "8.3
 78e0 2e302200 5f5f4343 5f535550 504f5254  .0".__CC_SUPPORT
 78f0 535f5741 524e494e 47203100 706c6963  S_WARNING 1.plic
 7900 005f5f55 4c6f6e67 005f5f61 73736572  .__ULong.__asser
 7910 74735f73 68617265 64282e2e 2e29205f  ts_shared(...) _
 7920 5f6c6f63 6b5f616e 6e6f7461 74652861  _lock_annotate(a
 7930 73736572 745f7368 61726564 5f6c6f63  ssert_shared_loc
 7940 6b285f5f 56415f41 5247535f 5f292900  k(__VA_ARGS__)).
 7950 5f524545 4e545f43 4845434b 5f52414e  _REENT_CHECK_RAN
 7960 44343828 70747229 20005f49 4e54385f  D48(ptr) ._INT8_
 7970 545f4445 434c4152 45442000 5f5f6c6f  T_DECLARED .__lo
 7980 636b5f72 656c6561 7365286c 6f636b29  ck_release(lock)
 7990 20282876 6f696429 20302900 5f5f5349   ((void) 0).__SI
 79a0 5a454f46 5f494e54 5f5f2034 005f4253  ZEOF_INT__ 4._BS
 79b0 445f5743 4841525f 545f0055 494e5431  D_WCHAR_T_.UINT1
 79c0 365f4328 7829205f 5f55494e 5431365f  6_C(x) __UINT16_
 79d0 43287829 00535953 54454d5f 52495343  C(x).SYSTEM_RISC
 79e0 565f4953 415f4558 545f4420 30005f5f  V_ISA_EXT_D 0.__
 79f0 6c6f636b 5f616371 75697265 286c6f63  lock_acquire(loc
 7a00 6b292028 28766f69 64292030 29006273  k) ((void) 0).bs
 7a10 705f7075 74436861 72286329 20756172  p_putChar(c) uar
 7a20 745f7772 69746528 4253505f 55415254  t_write(BSP_UART
 7a30 5f544552 4d494e41 4c2c2063 293b005f  _TERMINAL, c);._
 7a40 5359535f 5f494e54 5355505f 48200072  SYS__INTSUP_H .r
 7a50 6561645f 75333200 4d535441 54555336  ead_u32.MSTATUS6
 7a60 345f5344 20307838 30303030 30303030  4_SD 0x800000000
 7a70 30303030 30303000 5f5f474e 55434c49  0000000.__GNUCLI
 7a80 4b455f42 55494c54 494e5f4d 454d4350  KE_BUILTIN_MEMCP
 7a90 59203100 4d5f5049 5f322031 2e353730  Y 1.M_PI_2 1.570
 7aa0 37393633 32363739 34383936 36313932  7963267948966192
 7ab0 33005f72 6573756c 7400494e 545f4641  3._result.INT_FA
 7ac0 53543634 5f4d4158 20285f5f 494e545f  ST64_MAX (__INT_
 7ad0 46415354 36345f4d 41585f5f 29005f5f  FAST64_MAX__).__
 7ae0 6c6f636b 61626c65 205f5f6c 6f636b5f  lockable __lock_
 7af0 616e6e6f 74617465 286c6f63 6b61626c  annotate(lockabl
 7b00 6529005f 504f5349 585f534f 55524345  e)._POSIX_SOURCE
 7b10 2031005f 5f4c4442 4c5f4d49 4e5f5f20   1.__LDBL_MIN__ 
 7b20 332e3336 32313033 31343331 31323039  3.36210314311209
 7b30 33353036 32363236 37373831 37333231  3506262677817321
 7b40 37353236 30652d34 3933324c 005f5f55  75260e-4932L.__U
 7b50 494e545f 46415354 31365f54 5950455f  INT_FAST16_TYPE_
 7b60 5f20756e 7369676e 65642069 6e740069  _ unsigned int.i
 7b70 6e746572 72757074 005f5f6e 6565645f  nterrupt.__need_
 7b80 77696e74 5f742000 53595354 454d5f55  wint_t .SYSTEM_U
 7b90 4152545f 305f494f 5f504152 414d4554  ART_0_IO_PARAMET
 7ba0 45525f55 4152545f 4354524c 5f434f4e  ER_UART_CTRL_CON
 7bb0 4649475f 434c4f43 4b5f4449 56494445  FIG_CLOCK_DIVIDE
 7bc0 525f5749 44544820 3230005f 5f53495a  R_WIDTH 20.__SIZ
 7bd0 455f5749 4454485f 5f203332 00464c54  E_WIDTH__ 32.FLT
 7be0 5f455641 4c5f4d45 54484f44 205f5f46  _EVAL_METHOD __F
 7bf0 4c545f45 56414c5f 4d455448 4f445f5f  LT_EVAL_METHOD__
 7c00 005f5359 535f5354 52494e47 5f482000  ._SYS_STRING_H .
 7c10 5f5f5749 4e545f4d 494e5f5f 20305500  __WINT_MIN__ 0U.
 7c20 5f6f6666 5f74005f 5f464c54 36345f44  _off_t.__FLT64_D
 7c30 49475f5f 20313500 5f494e54 33325f45  IG__ 15._INT32_E
 7c40 515f4c4f 4e472000 5f5f464c 545f4d49  Q_LONG .__FLT_MI
 7c50 4e5f5f20 312e3137 35343934 33353038  N__ 1.1754943508
 7c60 32323238 37353037 39363837 33363533  2228750796873653
 7c70 37323232 32343536 38652d33 3846005f  722224568e-38F._
 7c80 5f43435f 53555050 4f525453 5f5f5f46  _CC_SUPPORTS___F
 7c90 554e435f 5f203100 5f5f494e 545f4c45  UNC__ 1.__INT_LE
 7ca0 41535438 5f574944 54485f5f 20380053  AST8_WIDTH__ 8.S
 7cb0 59535445 4d5f4932 435f305f 494f5f43  YSTEM_I2C_0_IO_C
 7cc0 54524c20 30786638 30313730 3030005f  TRL 0xf8017000._
 7cd0 5f6c6f6e 675f646f 75626c65 5f74206c  _long_double_t l
 7ce0 6f6e6720 646f7562 6c65005f 5f494e54  ong double.__INT
 7cf0 5f4c4541 53543136 5f545950 455f5f20  _LEAST16_TYPE__ 
 7d00 73686f72 7420696e 74005f61 6464005f  short int._add._
 7d10 5f585354 52494e47 28782920 5f5f5354  _XSTRING(x) __ST
 7d20 52494e47 28782900 5f5f4445 434f4e53  RING(x).__DECONS
 7d30 54287479 70652c76 61722920 28287479  T(type,var) ((ty
 7d40 70652928 5f5f7569 6e747074 725f7429  pe)(__uintptr_t)
 7d50 28636f6e 73742076 6f696420 2a292876  (const void *)(v
 7d60 61722929 00434155 53455f4d 41434849  ar)).CAUSE_MACHI
 7d70 4e455f54 494d4552 20370066 6c6f6174  NE_TIMER 7.float
 7d80 004d5354 41545553 5f545720 30783030  .MSTATUS_TW 0x00
 7d90 32303030 3030005f 5f746d5f 686f7572  200000.__tm_hour
 7da0 005f5245 454e545f 47455444 4154455f  ._REENT_GETDATE_
 7db0 4552525f 50287074 72292028 26282870  ERR_P(ptr) (&((p
 7dc0 7472292d 3e5f6e65 772e5f72 65656e74  tr)->_new._reent
 7dd0 2e5f6765 74646174 655f6572 72292900  ._getdate_err)).
 7de0 5f5f7346 494c4500 5f5f464c 5436345f  __sFILE.__FLT64_
 7df0 4d414e54 5f444947 5f5f2035 33005f5f  MANT_DIG__ 53.__
 7e00 4c44424c 5f4d494e 5f455850 5f5f2028  LDBL_MIN_EXP__ (
 7e10 2d313633 38312900 5f5f636f 6d70696c  -16381).__compil
 7e20 65725f6d 656d6261 72282920 5f5f6173  er_membar() __as
 7e30 6d205f5f 766f6c61 74696c65 28222022  m __volatile(" "
 7e40 203a203a 203a2022 6d656d6f 72792229   : : : "memory")
 7e50 004d5354 41545553 5f534945 20307830  .MSTATUS_SIE 0x0
 7e60 30303030 30303200 5f524545 4e545f53  0000002._REENT_S
 7e70 5452544f 4b5f4c41 53542870 74722920  TRTOK_LAST(ptr) 
 7e80 28287074 72292d3e 5f6e6577 2e5f7265  ((ptr)->_new._re
 7e90 656e742e 5f737472 746f6b5f 6c617374  ent._strtok_last
 7ea0 29004249 545f3132 20283120 3c3c2031  ).BIT_12 (1 << 1
 7eb0 3229005f 5f44424c 5f455053 494c4f4e  2).__DBL_EPSILON
 7ec0 5f5f2028 28646f75 626c6529 322e3232  __ ((double)2.22
 7ed0 30343436 30343932 35303331 33303830  0446049250313080
 7ee0 38343732 36333333 36313831 36343036  8472633361816406
 7ef0 32652d31 364c2900 5f5f6e65 65645f5f  2e-16L).__need__
 7f00 5f76615f 6c697374 005f5f6c 6f636b5f  _va_list.__lock_
 7f10 7472795f 61637175 6972655f 72656375  try_acquire_recu
 7f20 72736976 65286c6f 636b2920 2828766f  rsive(lock) ((vo
 7f30 69642920 30290053 59535445 4d5f5350  id) 0).SYSTEM_SP
 7f40 495f315f 494f5f43 54524c20 30786638  I_1_IO_CTRL 0xf8
 7f50 30313530 30300053 59535445 4d5f504c  015000.SYSTEM_PL
 7f60 49435f53 59535445 4d5f4932 435f305f  IC_SYSTEM_I2C_0_
 7f70 494f5f49 4e544552 52555054 2038005f  IO_INTERRUPT 8._
 7f80 6d627372 746f7763 735f7374 61746500  mbsrtowcs_state.
 7f90 5f5f6174 74726962 7574655f 70757265  __attribute_pure
 7fa0 5f5f2000 55494e54 385f4d41 5820285f  __ .UINT8_MAX (_
 7fb0 5f55494e 54385f4d 41585f5f 29005f5f  _UINT8_MAX__).__
 7fc0 4c4f4e47 5f4d4158 5f5f2030 78376666  LONG_MAX__ 0x7ff
 7fd0 66666666 664c005f 5f4c4442 4c5f4550  fffffL.__LDBL_EP
 7fe0 53494c4f 4e5f5f20 312e3932 35393239  SILON__ 1.925929
 7ff0 39343433 38373233 35383533 30353539  9443872358530559
 8000 37373934 32353834 39323733 32652d33  7794258492732e-3
 8010 344c0047 50494f5f 494e5445 52525550  4L.GPIO_INTERRUP
 8020 545f4849 47485f45 4e41424c 45203078  T_HIGH_ENABLE 0x
 8030 3238006c 6f6e6720 2b34005f 5f696e74  28.long +4.__int
 8040 33325f74 005f5f6e 6f6e6e75 6c6c2878  32_t.__nonnull(x
 8050 29205f5f 61747472 69627574 655f5f28  ) __attribute__(
 8060 285f5f6e 6f6e6e75 6c6c5f5f 20782929  (__nonnull__ x))
 8070 005f5241 4e443438 5f414444 20283078  ._RAND48_ADD (0x
 8080 30303062 29004d53 54415455 535f4d49  000b).MSTATUS_MI
 8090 45203078 30303030 30303038 00535354  E 0x00000008.SST
 80a0 41545553 5f4d5852 20307830 30303830  ATUS_MXR 0x00080
 80b0 30303000 4249545f 32302028 31203c3c  000.BIT_20 (1 <<
 80c0 20323029 00475049 4f5f494e 54455252   20).GPIO_INTERR
 80d0 5550545f 52495345 5f454e41 424c4520  UPT_RISE_ENABLE 
 80e0 30783230 00535953 54454d5f 504c4943  0x20.SYSTEM_PLIC
 80f0 5f435452 4c203078 66386330 30303030  _CTRL 0xf8c00000
 8100 005f5f46 4c543332 585f4d41 4e545f44  .__FLT32X_MANT_D
 8110 49475f5f 20353300 6273705f 696e6974  IG__ 53.bsp_init
 8120 2829207b 7d005f5f 57434841 525f5749  () {}.__WCHAR_WI
 8130 4454485f 5f203332 005f494e 5436345f  DTH__ 32._INT64_
 8140 545f4445 434c4152 45442000 5f5f7367  T_DECLARED .__sg
 8150 6c756500 5f5f434f 4e434154 28782c79  lue.__CONCAT(x,y
 8160 29205f5f 434f4e43 41543128 782c7929  ) __CONCAT1(x,y)
 8170 00636861 72616374 6572005f 5f494e54  .character.__INT
 8180 31365f43 28632920 63006273 705f7072  16_C(c) c.bsp_pr
 8190 696e7466 005f5f76 615f6c69 73745f5f  intf.__va_list__
 81a0 20005f66 6e617267 73007368 6f727420   ._fnargs.short 
 81b0 2b31005f 5f746d5f 69736473 74005f5f  +1.__tm_isdst.__
 81c0 44455155 414c4946 59287479 70652c76  DEQUALIFY(type,v
 81d0 61722920 28287479 70652928 5f5f7569  ar) ((type)(__ui
 81e0 6e747074 725f7429 28636f6e 73742076  ntptr_t)(const v
 81f0 6f6c6174 696c6520 766f6964 202a2928  olatile void *)(
 8200 76617229 29005f52 45454e54 5f494e49  var))._REENT_INI
 8210 545f5054 525f5a45 524f4544 28766172  T_PTR_ZEROED(var
 8220 29207b20 28766172 292d3e5f 73746469  ) { (var)->_stdi
 8230 6e203d20 5f524545 4e545f53 5444494f  n = _REENT_STDIO
 8240 5f535452 45414d28 7661722c 2030293b  _STREAM(var, 0);
 8250 20287661 72292d3e 5f737464 6f757420   (var)->_stdout 
 8260 3d205f52 45454e54 5f535444 494f5f53  = _REENT_STDIO_S
 8270 54524541 4d287661 722c2031 293b2028  TREAM(var, 1); (
 8280 76617229 2d3e5f73 74646572 72203d20  var)->_stderr = 
 8290 5f524545 4e545f53 5444494f 5f535452  _REENT_STDIO_STR
 82a0 45414d28 7661722c 2032293b 20287661  EAM(var, 2); (va
 82b0 72292d3e 5f6e6577 2e5f7265 656e742e  r)->_new._reent.
 82c0 5f72616e 645f6e65 7874203d 20313b20  _rand_next = 1; 
 82d0 28766172 292d3e5f 6e65772e 5f726565  (var)->_new._ree
 82e0 6e742e5f 7234382e 5f736565 645b305d  nt._r48._seed[0]
 82f0 203d205f 52414e44 34385f53 4545445f   = _RAND48_SEED_
 8300 303b2028 76617229 2d3e5f6e 65772e5f  0; (var)->_new._
 8310 7265656e 742e5f72 34382e5f 73656564  reent._r48._seed
 8320 5b315d20 3d205f52 414e4434 385f5345  [1] = _RAND48_SE
 8330 45445f31 3b202876 6172292d 3e5f6e65  ED_1; (var)->_ne
 8340 772e5f72 65656e74 2e5f7234 382e5f73  w._reent._r48._s
 8350 6565645b 325d203d 205f5241 4e443438  eed[2] = _RAND48
 8360 5f534545 445f323b 20287661 72292d3e  _SEED_2; (var)->
 8370 5f6e6577 2e5f7265 656e742e 5f723438  _new._reent._r48
 8380 2e5f6d75 6c745b30 5d203d20 5f52414e  ._mult[0] = _RAN
 8390 4434385f 4d554c54 5f303b20 28766172  D48_MULT_0; (var
 83a0 292d3e5f 6e65772e 5f726565 6e742e5f  )->_new._reent._
 83b0 7234382e 5f6d756c 745b315d 203d205f  r48._mult[1] = _
 83c0 52414e44 34385f4d 554c545f 313b2028  RAND48_MULT_1; (
 83d0 76617229 2d3e5f6e 65772e5f 7265656e  var)->_new._reen
 83e0 742e5f72 34382e5f 6d756c74 5b325d20  t._r48._mult[2] 
 83f0 3d205f52 414e4434 385f4d55 4c545f32  = _RAND48_MULT_2
 8400 3b202876 6172292d 3e5f6e65 772e5f72  ; (var)->_new._r
 8410 65656e74 2e5f7234 382e5f61 6464203d  eent._r48._add =
 8420 205f5241 4e443438 5f414444 3b207d00   _RAND48_ADD; }.
 8430 4546585f 53454d49 484f5354 494e475f  EFX_SEMIHOSTING_
 8440 4820005f 5f41544f 4d49435f 4143515f  H .__ATOMIC_ACQ_
 8450 52454c20 34005f5f 494e545f 4c454153  REL 4.__INT_LEAS
 8460 54385f54 5950455f 5f207369 676e6564  T8_TYPE__ signed
 8470 20636861 72005f5f 494e5433 325f5459   char.__INT32_TY
 8480 50455f5f 206c6f6e 6720696e 74005f5f  PE__ long int.__
 8490 7061636b 6564205f 5f617474 72696275  packed __attribu
 84a0 74655f5f 28285f5f 7061636b 65645f5f  te__((__packed__
 84b0 2929005f 5f44424c 5f4d494e 5f31305f  )).__DBL_MIN_10_
 84c0 4558505f 5f20282d 33303729 004d5354  EXP__ (-307).MST
 84d0 41545553 5f484945 20307830 30303030  ATUS_HIE 0x00000
 84e0 30303400 5f57414e 545f494f 5f4c4f4e  004._WANT_IO_LON
 84f0 475f4c4f 4e472031 0046505f 494e4649  G_LONG 1.FP_INFI
 8500 4e495445 20310053 59535445 4d5f5541  NITE 1.SYSTEM_UA
 8510 52545f30 5f494f5f 50415241 4d455445  RT_0_IO_PARAMETE
 8520 525f5541 52545f43 54524c5f 434f4e46  R_UART_CTRL_CONF
 8530 49475f43 54535f47 454e2030 005f5f44  IG_CTS_GEN 0.__D
 8540 424c5f44 454e4f52 4d5f4d49 4e5f5f20  BL_DENORM_MIN__ 
 8550 2828646f 75626c65 29342e39 34303635  ((double)4.94065
 8560 36343538 34313234 36353434 31373635  6458412465441765
 8570 36383739 32383638 32323133 3732652d  68792868221372e-
 8580 3332344c 29004253 505f434c 494e5420  324L).BSP_CLINT 
 8590 53595354 454d5f43 4c494e54 5f435452  SYSTEM_CLINT_CTR
 85a0 4c005f5f 4c44424c 5f444947 5f5f2033  L.__LDBL_DIG__ 3
 85b0 33005f5f 696e7432 3000494e 545f4641  3.__int20.INT_FA
 85c0 53543332 5f4d4158 20285f5f 494e545f  ST32_MAX (__INT_
 85d0 46415354 33325f4d 41585f5f 29005f5f  FAST32_MAX__).__
 85e0 746d5f6d 696e005f 5245454e 545f4153  tm_min._REENT_AS
 85f0 4354494d 455f5349 5a452032 3600494e  CTIME_SIZE 26.IN
 8600 54505452 5f4d494e 20282d5f 5f494e54  TPTR_MIN (-__INT
 8610 5054525f 4d41585f 5f202d20 31290053  PTR_MAX__ - 1).S
 8620 59535445 4d5f504c 49435f53 59535445  YSTEM_PLIC_SYSTE
 8630 4d5f5350 495f315f 494f5f49 4e544552  M_SPI_1_IO_INTER
 8640 52555054 20350062 73705f70 75745374  RUPT 5.bsp_putSt
 8650 72696e67 28732920 75617274 5f777269  ring(s) uart_wri
 8660 74655374 72284253 505f5541 52545f54  teStr(BSP_UART_T
 8670 45524d49 4e414c2c 2073293b 005f5641  ERMINAL, s);._VA
 8680 5f4c4953 545f2000 5f504f53 49585f43  _LIST_ ._POSIX_C
 8690 5f534f55 52434500 5f5f5549 4e544d41  _SOURCE.__UINTMA
 86a0 585f4d41 585f5f20 30786666 66666666  X_MAX__ 0xffffff
 86b0 66666666 66666666 6666554c 4c005f5f  ffffffffffULL.__
 86c0 44424c5f 4d414e54 5f444947 5f5f2035  DBL_MANT_DIG__ 5
 86d0 33005f5f 756e626f 756e6465 6420005f  3.__unbounded ._
 86e0 52414e44 34385f53 4545445f 32202830  RAND48_SEED_2 (0
 86f0 78313233 3429005f 5f535953 5f4c4f43  x1234).__SYS_LOC
 8700 4b5f485f 5f20005f 5245454e 545f494e  K_H__ ._REENT_IN
 8710 49545f41 54455849 54205f4e 554c4c2c  IT_ATEXIT _NULL,
 8720 205f4154 45584954 5f494e49 542c005f   _ATEXIT_INIT,._
 8730 4743435f 53495a45 5f542000 4249545f  GCC_SIZE_T .BIT_
 8740 32372028 31203c3c 20323729 005f5f49  27 (1 << 27).__I
 8750 4e545f4d 41585f5f 20307837 66666666  NT_MAX__ 0x7ffff
 8760 66666600 5f5f5549 4e543136 5f4d4158  fff.__UINT16_MAX
 8770 5f5f2030 78666666 66005f52 45454e54  __ 0xffff._REENT
 8780 5f494e49 54287661 7229207b 20302c20  _INIT(var) { 0, 
 8790 5f524545 4e545f53 5444494f 5f535452  _REENT_STDIO_STR
 87a0 45414d28 26287661 72292c20 30292c20  EAM(&(var), 0), 
 87b0 5f524545 4e545f53 5444494f 5f535452  _REENT_STDIO_STR
 87c0 45414d28 26287661 72292c20 31292c20  EAM(&(var), 1), 
 87d0 5f524545 4e545f53 5444494f 5f535452  _REENT_STDIO_STR
 87e0 45414d28 26287661 72292c20 32292c20  EAM(&(var), 2), 
 87f0 302c2022 222c2030 2c205f4e 554c4c2c  0, "", 0, _NULL,
 8800 20302c20 5f4e554c 4c2c205f 4e554c4c   0, _NULL, _NULL
 8810 2c20302c 205f4e55 4c4c2c20 5f4e554c  , 0, _NULL, _NUL
 8820 4c2c2030 2c205f4e 554c4c2c 207b207b  L, 0, _NULL, { {
 8830 20302c20 5f4e554c 4c2c2022 222c207b   0, _NULL, "", {
 8840 302c2030 2c20302c 20302c20 302c2030  0, 0, 0, 0, 0, 0
 8850 2c20302c 20302c20 307d2c20 302c2031  , 0, 0, 0}, 0, 1
 8860 2c207b20 7b5f5241 4e443438 5f534545  , { {_RAND48_SEE
 8870 445f302c 205f5241 4e443438 5f534545  D_0, _RAND48_SEE
 8880 445f312c 205f5241 4e443438 5f534545  D_1, _RAND48_SEE
 8890 445f327d 2c207b5f 52414e44 34385f4d  D_2}, {_RAND48_M
 88a0 554c545f 302c205f 52414e44 34385f4d  ULT_0, _RAND48_M
 88b0 554c545f 312c205f 52414e44 34385f4d  ULT_1, _RAND48_M
 88c0 554c545f 327d2c20 5f52414e 4434385f  ULT_2}, _RAND48_
 88d0 41444420 7d2c207b 302c207b 307d7d2c  ADD }, {0, {0}},
 88e0 207b302c 207b307d 7d2c207b 302c207b   {0, {0}}, {0, {
 88f0 307d7d2c 2022222c 2022222c 20302c20  0}}, "", "", 0, 
 8900 7b302c20 7b307d7d 2c207b30 2c207b30  {0, {0}}, {0, {0
 8910 7d7d2c20 7b302c20 7b307d7d 2c207b30  }}, {0, {0}}, {0
 8920 2c207b30 7d7d2c20 7b302c20 7b307d7d  , {0}}, {0, {0}}
 8930 207d207d 2c205f52 45454e54 5f494e49   } }, _REENT_INI
 8940 545f4154 45584954 205f4e55 4c4c2c20  T_ATEXIT _NULL, 
 8950 7b5f4e55 4c4c2c20 302c205f 4e554c4c  {_NULL, 0, _NULL
 8960 7d207d00 5f5f616c 77617973 5f696e6c  } }.__always_inl
 8970 696e6520 5f5f696e 6c696e65 5f5f205f  ine __inline__ _
 8980 5f617474 72696275 74655f5f 28285f5f  _attribute__((__
 8990 616c7761 79735f69 6e6c696e 655f5f29  always_inline__)
 89a0 29005f5f 4c6f6e67 206c6f6e 67005359  ).__Long long.SY
 89b0 5354454d 5f555345 525f5449 4d45525f  STEM_USER_TIMER_
 89c0 305f4354 524c2030 78663830 31393030  0_CTRL 0xf801900
 89d0 30002e2e 2f636f6d 6d6f6e2f 73746172  0.../common/star
 89e0 742e5300 474e5520 41532032 2e333200  t.S.GNU AS 2.32.
 89f0 2e2e2f63 6f6d6d6f 6e2f7472 61702e53  ../common/trap.S
 8a00 00                                   .               
Contents of section .comment:
 0000 4743433a 20287850 61636b20 474e5520  GCC: (xPack GNU 
 0010 52495343 2d562045 6d626564 64656420  RISC-V Embedded 
 0020 4743432c 2036342d 62697429 20382e33  GCC, 64-bit) 8.3
 0030 2e3000                               .0.             
Contents of section .debug_frame:
 0000 0c000000 ffffffff 0100017c 010d0200  ...........|....
 0010 0c000000 00000000 f80000f9 10000000  ................
 0020 20000000 00000000 080100f9 3c000000   ...........<...
 0030 440e104c 81018802 89035cc1 44c844c9  D..L......\.D.D.
 0040 440e0000 0c000000 00000000 440100f9  D...........D...
 0050 34000000 18000000 00000000 780100f9  4...........x...
 0060 20000000 440e1044 810150c1 440e0000   ...D..D..P.D...
 0070 1c000000 00000000 980100f9 34000000  ............4...
 0080 440e1048 81018802 5cc144c8 440e0000  D..H....\.D.D...
 0090 20000000 00000000 cc0100f9 54000000   ...........T...
 00a0 440e104c 81018802 890374c1 44c844c9  D..L......t.D.D.
 00b0 440e0000 20000000 00000000 200200f9  D... ....... ...
 00c0 54000000 440e104c 81018802 890374c1  T...D..L......t.
 00d0 44c844c9 440e0000 18000000 00000000  D.D.D...........
 00e0 740200f9 1c000000 440e1044 81014cc1  t.......D..D..L.
 00f0 440e0000 18000000 00000000 900200f9  D...............
 0100 18000000 440e1044 810148c1 440e0000  ....D..D..H.D...
 0110 20000000 00000000 a80200f9 80000000   ...............
 0120 440e304c 81018802 89030260 c144c844  D.0L.......`.D.D
 0130 c9440e00 18000000 00000000 280300f9  .D..........(...
 0140 40000000 440e1044 810170c1 440e0000  @...D..D..p.D...
 0150 18000000 00000000 680300f9 40000000  ........h...@...
 0160 440e1044 810170c1 440e0000 0c000000  D..D..p.D.......
 0170 00000000 a80300f9 10000000 0c000000  ................
 0180 00000000 b80300f9 4c000000 0c000000  ........L.......
 0190 00000000 040400f9 18000000 0c000000  ................
 01a0 00000000 1c0400f9 1c000000 0c000000  ................
 01b0 00000000 380400f9 1c000000 24000000  ....8.......$...
 01c0 00000000 540400f9 38010000 440e404c  ....T...8...D.@L
 01d0 8109880a 890b0318 01c144c8 44c9440e  ..........D.D.D.
 01e0 00000000 18000000 00000000 8c0500f9  ................
 01f0 80000000 440e1044 81010270 c1440e00  ....D..D...p.D..
 0200 14000000 00000000 0c0600f9 18000000  ................
 0210 440e1044 81010000 1c000000 00000000  D..D............
 0220 240600f9 5c000000 440e1048 81018802  $...\...D..H....
 0230 0244c144 c8440e00 1c000000 00000000  .D.D.D..........
 0240 800600f9 34000000 440e1044 81015c0a  ....4...D..D..\.
 0250 c1440e00 440b0000 14000000 00000000  .D..D...........
 0260 b40600f9 a8000000 440e1048 81018802  ........D..H....
 0270 0c000000 ffffffff 0100017c 010d0200  ...........|....
 0280 28000000 70020000 640000f9 94000000  (...p...d.......
 0290 440e1048 88029204 5c810189 030258c1  D..H....\.....X.
 02a0 44c844c9 44d2440e 00000000           D.D.D.D.....    

Disassembly of section .rom_section.init:

f9000000 <_start>:

_start:
#ifdef USE_GP
.option push
.option norelax
	la gp, __global_pointer$
f9000000:	00081197          	auipc	gp,0x81
f9000004:	97018193          	addi	gp,gp,-1680 # f9080970 <__global_pointer$>

f9000008 <init>:
	sw a0, smp_lottery_lock, a1
    ret
#endif

init:
	la sp, _sp
f9000008:	00082117          	auipc	sp,0x82
f900000c:	18810113          	addi	sp,sp,392 # f9082190 <__freertos_irq_stack_top>

	/* Load data section */
	la a0, _data_lma
f9000010:	00080517          	auipc	a0,0x80
f9000014:	ff050513          	addi	a0,a0,-16 # f9080000 <__init_array_end>
	la a1, _data
f9000018:	00080597          	auipc	a1,0x80
f900001c:	fe858593          	addi	a1,a1,-24 # f9080000 <__init_array_end>
	la a2, _edata
f9000020:	81c18613          	addi	a2,gp,-2020 # f908018c <__bss_start>
	bgeu a1, a2, 2f
f9000024:	00c5fc63          	bgeu	a1,a2,f900003c <init+0x34>
1:
	lw t0, (a0)
f9000028:	00052283          	lw	t0,0(a0)
	sw t0, (a1)
f900002c:	0055a023          	sw	t0,0(a1)
	addi a0, a0, 4
f9000030:	00450513          	addi	a0,a0,4
	addi a1, a1, 4
f9000034:	00458593          	addi	a1,a1,4
	bltu a1, a2, 1b
f9000038:	fec5e8e3          	bltu	a1,a2,f9000028 <init+0x20>
2:

	/* Clear bss section */
	la a0, __bss_start
f900003c:	81c18513          	addi	a0,gp,-2020 # f908018c <__bss_start>
	la a1, _end
f9000040:	82018593          	addi	a1,gp,-2016 # f9080190 <_end>
	bgeu a0, a1, 2f
f9000044:	00b57863          	bgeu	a0,a1,f9000054 <init+0x4c>
1:
	sw zero, (a0)
f9000048:	00052023          	sw	zero,0(a0)
	addi a0, a0, 4
f900004c:	00450513          	addi	a0,a0,4
	bltu a0, a1, 1b
f9000050:	feb56ce3          	bltu	a0,a1,f9000048 <init+0x40>
2:

#ifndef NO_LIBC_INIT_ARRAY
	call __libc_init_array
f9000054:	010000ef          	jal	ra,f9000064 <__libc_init_array>
#endif

	call main
f9000058:	65c000ef          	jal	ra,f90006b4 <main>

f900005c <mainDone>:
mainDone:
    j mainDone
f900005c:	0000006f          	j	f900005c <mainDone>

f9000060 <_init>:


	.globl _init
_init:
    ret
f9000060:	00008067          	ret

Disassembly of section .rom_section.text:

f9000064 <__libc_init_array>:
f9000064:	ff010113          	addi	sp,sp,-16
f9000068:	00812423          	sw	s0,8(sp)
f900006c:	01212023          	sw	s2,0(sp)
f9000070:	00080417          	auipc	s0,0x80
f9000074:	f9040413          	addi	s0,s0,-112 # f9080000 <__init_array_end>
f9000078:	00080917          	auipc	s2,0x80
f900007c:	f8890913          	addi	s2,s2,-120 # f9080000 <__init_array_end>
f9000080:	40890933          	sub	s2,s2,s0
f9000084:	00112623          	sw	ra,12(sp)
f9000088:	00912223          	sw	s1,4(sp)
f900008c:	40295913          	srai	s2,s2,0x2
f9000090:	00090e63          	beqz	s2,f90000ac <__libc_init_array+0x48>
f9000094:	00000493          	li	s1,0
f9000098:	00042783          	lw	a5,0(s0)
f900009c:	00148493          	addi	s1,s1,1
f90000a0:	00440413          	addi	s0,s0,4
f90000a4:	000780e7          	jalr	a5
f90000a8:	fe9918e3          	bne	s2,s1,f9000098 <__libc_init_array+0x34>
f90000ac:	00080417          	auipc	s0,0x80
f90000b0:	f5440413          	addi	s0,s0,-172 # f9080000 <__init_array_end>
f90000b4:	00080917          	auipc	s2,0x80
f90000b8:	f4c90913          	addi	s2,s2,-180 # f9080000 <__init_array_end>
f90000bc:	40890933          	sub	s2,s2,s0
f90000c0:	40295913          	srai	s2,s2,0x2
f90000c4:	00090e63          	beqz	s2,f90000e0 <__libc_init_array+0x7c>
f90000c8:	00000493          	li	s1,0
f90000cc:	00042783          	lw	a5,0(s0)
f90000d0:	00148493          	addi	s1,s1,1
f90000d4:	00440413          	addi	s0,s0,4
f90000d8:	000780e7          	jalr	a5
f90000dc:	fe9918e3          	bne	s2,s1,f90000cc <__libc_init_array+0x68>
f90000e0:	00c12083          	lw	ra,12(sp)
f90000e4:	00812403          	lw	s0,8(sp)
f90000e8:	00412483          	lw	s1,4(sp)
f90000ec:	00012903          	lw	s2,0(sp)
f90000f0:	01010113          	addi	sp,sp,16
f90000f4:	00008067          	ret

f90000f8 <uart_writeAvailability>:
#include "type.h"
#include "soc.h"


    static inline u32 read_u32(u32 address){
        return *((volatile u32*) address);
f90000f8:	00452503          	lw	a0,4(a0)
        enum UartStop stop;
        u32 clockDivider;
    } Uart_Config;
    
    static u32 uart_writeAvailability(u32 reg){
        return (read_u32(reg + UART_STATUS) >> 16) & 0xFF;
f90000fc:	01055513          	srli	a0,a0,0x10
    }
f9000100:	0ff57513          	andi	a0,a0,255
f9000104:	00008067          	ret

f9000108 <uart_write>:
    static u32 uart_readOccupancy(u32 reg){
        return read_u32(reg + UART_STATUS) >> 24;
    }
    
    static void uart_write(u32 reg, char data){
f9000108:	ff010113          	addi	sp,sp,-16
f900010c:	00112623          	sw	ra,12(sp)
f9000110:	00812423          	sw	s0,8(sp)
f9000114:	00912223          	sw	s1,4(sp)
f9000118:	00050413          	mv	s0,a0
f900011c:	00058493          	mv	s1,a1
        while(uart_writeAvailability(reg) == 0);
f9000120:	00040513          	mv	a0,s0
f9000124:	fd5ff0ef          	jal	ra,f90000f8 <uart_writeAvailability>
f9000128:	fe050ce3          	beqz	a0,f9000120 <uart_write+0x18>
    }
    
    static inline void write_u32(u32 data, u32 address){
        *((volatile u32*) address) = data;
f900012c:	00942023          	sw	s1,0(s0)
        write_u32(data, reg + UART_DATA);
    }
f9000130:	00c12083          	lw	ra,12(sp)
f9000134:	00812403          	lw	s0,8(sp)
f9000138:	00412483          	lw	s1,4(sp)
f900013c:	01010113          	addi	sp,sp,16
f9000140:	00008067          	ret

f9000144 <clint_uDelay>:
    
        return (((u64)hi) << 32) | lo;
    }
    
    static void clint_uDelay(u32 usec, u32 hz, u32 reg){
        u32 mTimePerUsec = hz/1000000;
f9000144:	000f47b7          	lui	a5,0xf4
f9000148:	24078793          	addi	a5,a5,576 # f4240 <__stack_size+0xf2240>
f900014c:	02f5d5b3          	divu	a1,a1,a5
    readReg_u32 (clint_getTimeLow , CLINT_TIME_ADDR)
f9000150:	0000c7b7          	lui	a5,0xc
f9000154:	ff878793          	addi	a5,a5,-8 # bff8 <__stack_size+0x9ff8>
f9000158:	00f60633          	add	a2,a2,a5
        return *((volatile u32*) address);
f900015c:	00062783          	lw	a5,0(a2)
        u32 limit = clint_getTimeLow(reg) + usec*mTimePerUsec;
f9000160:	02a58533          	mul	a0,a1,a0
f9000164:	00f50533          	add	a0,a0,a5
f9000168:	00062783          	lw	a5,0(a2)
        while((int32_t)(limit-(clint_getTimeLow(reg))) >= 0);
f900016c:	40f507b3          	sub	a5,a0,a5
f9000170:	fe07dce3          	bgez	a5,f9000168 <clint_uDelay+0x24>
    }
f9000174:	00008067          	ret

f9000178 <_putchar>:
// use bsp_printf_full as bsp_printf
#define ENABLE_BRIDGE_FULL_TO_LITE          1 // If this is enabled, bsp_printf_full can be called with bsp_printf. Enabling both ENABLE_BSP_PRINTF and ENABLE_BSP_PRINTF_FULL, bsp_printf_full will be remained as bsp_printf_full. Default: Enable
#define ENABLE_PRINTF_WARNING               1 // Print warning when the specifier not supported. Default: Enable


    static void _putchar(char character){
f9000178:	ff010113          	addi	sp,sp,-16
f900017c:	00112623          	sw	ra,12(sp)
        #if (ENABLE_SEMIHOSTING_PRINT == 1)
            sh_writec(character);
        #else
            bsp_putChar(character);
f9000180:	00050593          	mv	a1,a0
f9000184:	f8010537          	lui	a0,0xf8010
f9000188:	f81ff0ef          	jal	ra,f9000108 <uart_write>
        #endif // (ENABLE_SEMIHOSTING_PRINT == 1)
    }
f900018c:	00c12083          	lw	ra,12(sp)
f9000190:	01010113          	addi	sp,sp,16
f9000194:	00008067          	ret

f9000198 <_putchar_s>:

    static void _putchar_s(char *p)
    {
f9000198:	ff010113          	addi	sp,sp,-16
f900019c:	00112623          	sw	ra,12(sp)
f90001a0:	00812423          	sw	s0,8(sp)
f90001a4:	00050413          	mv	s0,a0
    #if (ENABLE_SEMIHOSTING_PRINT == 1)
        sh_write0(p);
    #else
        while (*p)
f90001a8:	00044503          	lbu	a0,0(s0)
f90001ac:	00050863          	beqz	a0,f90001bc <_putchar_s+0x24>
            _putchar(*(p++));
f90001b0:	00140413          	addi	s0,s0,1
f90001b4:	fc5ff0ef          	jal	ra,f9000178 <_putchar>
f90001b8:	ff1ff06f          	j	f90001a8 <_putchar_s+0x10>
    #endif // (ENABLE_SEMIHOSTING_PRINT == 1)
    }
f90001bc:	00c12083          	lw	ra,12(sp)
f90001c0:	00812403          	lw	s0,8(sp)
f90001c4:	01010113          	addi	sp,sp,16
f90001c8:	00008067          	ret

f90001cc <bsp_printHex>:


    //bsp_printHex is used in BSP_PRINTF
    static void bsp_printHex(uint32_t val)
    {
f90001cc:	ff010113          	addi	sp,sp,-16
f90001d0:	00112623          	sw	ra,12(sp)
f90001d4:	00812423          	sw	s0,8(sp)
f90001d8:	00912223          	sw	s1,4(sp)
f90001dc:	00050493          	mv	s1,a0
        uint32_t digits;
        digits =8;

        for (int i = (4*digits)-4; i >= 0; i -= 4) {
f90001e0:	01c00413          	li	s0,28
f90001e4:	0240006f          	j	f9000208 <bsp_printHex+0x3c>
            _putchar("0123456789ABCDEF"[(val >> i) % 16]);
f90001e8:	0084d7b3          	srl	a5,s1,s0
f90001ec:	00f7f713          	andi	a4,a5,15
f90001f0:	f90807b7          	lui	a5,0xf9080
f90001f4:	00078793          	mv	a5,a5
f90001f8:	00e787b3          	add	a5,a5,a4
f90001fc:	0007c503          	lbu	a0,0(a5) # f9080000 <__freertos_irq_stack_top+0xffffde70>
f9000200:	f79ff0ef          	jal	ra,f9000178 <_putchar>
        for (int i = (4*digits)-4; i >= 0; i -= 4) {
f9000204:	ffc40413          	addi	s0,s0,-4
f9000208:	fe0450e3          	bgez	s0,f90001e8 <bsp_printHex+0x1c>
        }
    }
f900020c:	00c12083          	lw	ra,12(sp)
f9000210:	00812403          	lw	s0,8(sp)
f9000214:	00412483          	lw	s1,4(sp)
f9000218:	01010113          	addi	sp,sp,16
f900021c:	00008067          	ret

f9000220 <bsp_printHex_lower>:

    static void bsp_printHex_lower(uint32_t val)
        {
f9000220:	ff010113          	addi	sp,sp,-16
f9000224:	00112623          	sw	ra,12(sp)
f9000228:	00812423          	sw	s0,8(sp)
f900022c:	00912223          	sw	s1,4(sp)
f9000230:	00050493          	mv	s1,a0
            uint32_t digits;
            digits =8;

            for (int i = (4*digits)-4; i >= 0; i -= 4) {
f9000234:	01c00413          	li	s0,28
f9000238:	0240006f          	j	f900025c <bsp_printHex_lower+0x3c>
                _putchar("0123456789abcdef"[(val >> i) % 16]);
f900023c:	0084d7b3          	srl	a5,s1,s0
f9000240:	00f7f713          	andi	a4,a5,15
f9000244:	f90807b7          	lui	a5,0xf9080
f9000248:	01478793          	addi	a5,a5,20 # f9080014 <__freertos_irq_stack_top+0xffffde84>
f900024c:	00e787b3          	add	a5,a5,a4
f9000250:	0007c503          	lbu	a0,0(a5)
f9000254:	f25ff0ef          	jal	ra,f9000178 <_putchar>
            for (int i = (4*digits)-4; i >= 0; i -= 4) {
f9000258:	ffc40413          	addi	s0,s0,-4
f900025c:	fe0450e3          	bgez	s0,f900023c <bsp_printHex_lower+0x1c>

            }
        }
f9000260:	00c12083          	lw	ra,12(sp)
f9000264:	00812403          	lw	s0,8(sp)
f9000268:	00412483          	lw	s1,4(sp)
f900026c:	01010113          	addi	sp,sp,16
f9000270:	00008067          	ret

f9000274 <bsp_printf_c>:
    #endif //#if (ENABLE_FLOATING_POINT_SUPPORT)

    

    static void bsp_printf_c(int c)
    {
f9000274:	ff010113          	addi	sp,sp,-16
f9000278:	00112623          	sw	ra,12(sp)
        _putchar(c);
f900027c:	0ff57513          	andi	a0,a0,255
f9000280:	ef9ff0ef          	jal	ra,f9000178 <_putchar>
    }
f9000284:	00c12083          	lw	ra,12(sp)
f9000288:	01010113          	addi	sp,sp,16
f900028c:	00008067          	ret

f9000290 <bsp_printf_s>:

    static void bsp_printf_s(char *p)
    {
f9000290:	ff010113          	addi	sp,sp,-16
f9000294:	00112623          	sw	ra,12(sp)
        _putchar_s(p);
f9000298:	f01ff0ef          	jal	ra,f9000198 <_putchar_s>
    }
f900029c:	00c12083          	lw	ra,12(sp)
f90002a0:	01010113          	addi	sp,sp,16
f90002a4:	00008067          	ret

f90002a8 <bsp_printf_d>:



    static void bsp_printf_d(int val)
    {
f90002a8:	fd010113          	addi	sp,sp,-48
f90002ac:	02112623          	sw	ra,44(sp)
f90002b0:	02812423          	sw	s0,40(sp)
f90002b4:	02912223          	sw	s1,36(sp)
f90002b8:	00050493          	mv	s1,a0
        char buffer[32];
        char *p = buffer;
        if (val < 0) {
f90002bc:	00054663          	bltz	a0,f90002c8 <bsp_printf_d+0x20>
    {
f90002c0:	00010413          	mv	s0,sp
f90002c4:	02c0006f          	j	f90002f0 <bsp_printf_d+0x48>
            bsp_printf_c('-');
f90002c8:	02d00513          	li	a0,45
f90002cc:	fa9ff0ef          	jal	ra,f9000274 <bsp_printf_c>
            val = -val;
f90002d0:	409004b3          	neg	s1,s1
f90002d4:	fedff06f          	j	f90002c0 <bsp_printf_d+0x18>
        }
        while (val || p == buffer) {
            *(p++) = '0' + val % 10;
f90002d8:	00a00713          	li	a4,10
f90002dc:	02e4e7b3          	rem	a5,s1,a4
f90002e0:	03078793          	addi	a5,a5,48
f90002e4:	00f40023          	sb	a5,0(s0)
            val = val / 10;
f90002e8:	02e4c4b3          	div	s1,s1,a4
            *(p++) = '0' + val % 10;
f90002ec:	00140413          	addi	s0,s0,1
        while (val || p == buffer) {
f90002f0:	fe0494e3          	bnez	s1,f90002d8 <bsp_printf_d+0x30>
f90002f4:	00010793          	mv	a5,sp
f90002f8:	fef400e3          	beq	s0,a5,f90002d8 <bsp_printf_d+0x30>
f90002fc:	0100006f          	j	f900030c <bsp_printf_d+0x64>
        }
        while (p != buffer)
            bsp_printf_c(*(--p));
f9000300:	fff40413          	addi	s0,s0,-1
f9000304:	00044503          	lbu	a0,0(s0)
f9000308:	f6dff0ef          	jal	ra,f9000274 <bsp_printf_c>
        while (p != buffer)
f900030c:	00010793          	mv	a5,sp
f9000310:	fef418e3          	bne	s0,a5,f9000300 <bsp_printf_d+0x58>
    }
f9000314:	02c12083          	lw	ra,44(sp)
f9000318:	02812403          	lw	s0,40(sp)
f900031c:	02412483          	lw	s1,36(sp)
f9000320:	03010113          	addi	sp,sp,48
f9000324:	00008067          	ret

f9000328 <bsp_printf_x>:

    static void bsp_printf_x(int val)
    {
f9000328:	ff010113          	addi	sp,sp,-16
f900032c:	00112623          	sw	ra,12(sp)
        int i,digi=2;

        for(i=0;i<8;i++)
f9000330:	00000713          	li	a4,0
f9000334:	00700793          	li	a5,7
f9000338:	02e7c063          	blt	a5,a4,f9000358 <bsp_printf_x+0x30>
        {
            if((val & (0xFFFFFFF0 <<(4*i))) == 0)
f900033c:	00271693          	slli	a3,a4,0x2
f9000340:	ff000793          	li	a5,-16
f9000344:	00d797b3          	sll	a5,a5,a3
f9000348:	00f577b3          	and	a5,a0,a5
f900034c:	00078663          	beqz	a5,f9000358 <bsp_printf_x+0x30>
        for(i=0;i<8;i++)
f9000350:	00170713          	addi	a4,a4,1
f9000354:	fe1ff06f          	j	f9000334 <bsp_printf_x+0xc>
            {
                digi=i+1;
                break;
            }
        }
        bsp_printHex_lower(val);
f9000358:	ec9ff0ef          	jal	ra,f9000220 <bsp_printHex_lower>
    }
f900035c:	00c12083          	lw	ra,12(sp)
f9000360:	01010113          	addi	sp,sp,16
f9000364:	00008067          	ret

f9000368 <bsp_printf_X>:

    static void bsp_printf_X(int val)
        {
f9000368:	ff010113          	addi	sp,sp,-16
f900036c:	00112623          	sw	ra,12(sp)
            int i,digi=2;

            for(i=0;i<8;i++)
f9000370:	00000713          	li	a4,0
f9000374:	00700793          	li	a5,7
f9000378:	02e7c063          	blt	a5,a4,f9000398 <bsp_printf_X+0x30>
            {
                if((val & (0xFFFFFFF0 <<(4*i))) == 0)
f900037c:	00271693          	slli	a3,a4,0x2
f9000380:	ff000793          	li	a5,-16
f9000384:	00d797b3          	sll	a5,a5,a3
f9000388:	00f577b3          	and	a5,a0,a5
f900038c:	00078663          	beqz	a5,f9000398 <bsp_printf_X+0x30>
            for(i=0;i<8;i++)
f9000390:	00170713          	addi	a4,a4,1
f9000394:	fe1ff06f          	j	f9000374 <bsp_printf_X+0xc>
                {
                    digi=i+1;
                    break;
                }
            }
            bsp_printHex(val);
f9000398:	e35ff0ef          	jal	ra,f90001cc <bsp_printHex>
        }
f900039c:	00c12083          	lw	ra,12(sp)
f90003a0:	01010113          	addi	sp,sp,16
f90003a4:	00008067          	ret

f90003a8 <plic_set_priority>:
#define PLIC_CLAIM_BASE         0x200004
#define PLIC_ENABLE_PER_HART    0x80
#define PLIC_CONTEXT_PER_HART   0x1000

    static void plic_set_priority(u32 plic, u32 gateway, u32 priority){
        write_u32(priority, plic + PLIC_PRIORITY_BASE + gateway*4);
f90003a8:	00259593          	slli	a1,a1,0x2
f90003ac:	00a585b3          	add	a1,a1,a0
        *((volatile u32*) address) = data;
f90003b0:	00c5a023          	sw	a2,0(a1)
    }
f90003b4:	00008067          	ret

f90003b8 <plic_set_enable>:
    static u32 plic_get_priority(u32 plic, u32 gateway){
        return read_u32(plic + PLIC_PRIORITY_BASE + gateway*4);
    }
    
    static void plic_set_enable(u32 plic, u32 target,u32 gateway, u32 enable){
        u32 word = plic + PLIC_ENABLE_BASE + target * PLIC_ENABLE_PER_HART + (gateway / 32 * 4);
f90003b8:	00759593          	slli	a1,a1,0x7
f90003bc:	00a58533          	add	a0,a1,a0
f90003c0:	00565593          	srli	a1,a2,0x5
f90003c4:	00259593          	slli	a1,a1,0x2
f90003c8:	00b50533          	add	a0,a0,a1
f90003cc:	000025b7          	lui	a1,0x2
f90003d0:	00b50533          	add	a0,a0,a1
        u32 mask = 1 << (gateway % 32);
f90003d4:	00100793          	li	a5,1
f90003d8:	00c797b3          	sll	a5,a5,a2
        if (enable)
f90003dc:	00068a63          	beqz	a3,f90003f0 <plic_set_enable+0x38>
        return *((volatile u32*) address);
f90003e0:	00052603          	lw	a2,0(a0) # f8010000 <__freertos_irq_stack_top+0xfef8de70>
            write_u32(read_u32(word) | mask, word);
f90003e4:	00c7e7b3          	or	a5,a5,a2
        *((volatile u32*) address) = data;
f90003e8:	00f52023          	sw	a5,0(a0)
f90003ec:	00008067          	ret
        return *((volatile u32*) address);
f90003f0:	00052603          	lw	a2,0(a0)
        else
            write_u32(read_u32(word) & ~mask, word);
f90003f4:	fff7c793          	not	a5,a5
f90003f8:	00c7f7b3          	and	a5,a5,a2
        *((volatile u32*) address) = data;
f90003fc:	00f52023          	sw	a5,0(a0)
    }
f9000400:	00008067          	ret

f9000404 <plic_set_threshold>:
    
    static void plic_set_threshold(u32 plic, u32 target, u32 threshold){
        write_u32(threshold, plic + PLIC_THRESHOLD_BASE + target*PLIC_CONTEXT_PER_HART);
f9000404:	00c59593          	slli	a1,a1,0xc
f9000408:	00a585b3          	add	a1,a1,a0
f900040c:	00200537          	lui	a0,0x200
f9000410:	00a585b3          	add	a1,a1,a0
f9000414:	00c5a023          	sw	a2,0(a1) # 2000 <__stack_size>
    }
f9000418:	00008067          	ret

f900041c <plic_claim>:
    static u32 plic_get_threshold(u32 plic, u32 target){
        return read_u32(plic + PLIC_THRESHOLD_BASE + target*PLIC_CONTEXT_PER_HART);
    }
    
    static u32 plic_claim(u32 plic, u32 target){
        return read_u32(plic + PLIC_CLAIM_BASE + target*PLIC_CONTEXT_PER_HART);
f900041c:	00c59593          	slli	a1,a1,0xc
f9000420:	00a585b3          	add	a1,a1,a0
f9000424:	00200537          	lui	a0,0x200
f9000428:	00450513          	addi	a0,a0,4 # 200004 <__stack_size+0x1fe004>
f900042c:	00a585b3          	add	a1,a1,a0
        return *((volatile u32*) address);
f9000430:	0005a503          	lw	a0,0(a1)
    }
f9000434:	00008067          	ret

f9000438 <plic_release>:
    
    static void plic_release(u32 plic, u32 target, u32 gateway){
        write_u32(gateway,plic + PLIC_CLAIM_BASE + target*PLIC_CONTEXT_PER_HART);
f9000438:	00c59593          	slli	a1,a1,0xc
f900043c:	00a585b3          	add	a1,a1,a0
f9000440:	00200537          	lui	a0,0x200
f9000444:	00450513          	addi	a0,a0,4 # 200004 <__stack_size+0x1fe004>
f9000448:	00a585b3          	add	a1,a1,a0
        *((volatile u32*) address) = data;
f900044c:	00c5a023          	sw	a2,0(a1)
    }
f9000450:	00008067          	ret

f9000454 <bsp_printf>:
#if (ENABLE_SEMIHOSTING_PRINT == 0)
    static void bsp_printf(const char *format, ...)
    {
f9000454:	fc010113          	addi	sp,sp,-64
f9000458:	00112e23          	sw	ra,28(sp)
f900045c:	00812c23          	sw	s0,24(sp)
f9000460:	00912a23          	sw	s1,20(sp)
f9000464:	00050493          	mv	s1,a0
f9000468:	02b12223          	sw	a1,36(sp)
f900046c:	02c12423          	sw	a2,40(sp)
f9000470:	02d12623          	sw	a3,44(sp)
f9000474:	02e12823          	sw	a4,48(sp)
f9000478:	02f12a23          	sw	a5,52(sp)
f900047c:	03012c23          	sw	a6,56(sp)
f9000480:	03112e23          	sw	a7,60(sp)
        int i;
        va_list ap;

        va_start(ap, format);
f9000484:	02410793          	addi	a5,sp,36
f9000488:	00f12623          	sw	a5,12(sp)

        for (i = 0; format[i]; i++)
f900048c:	00000413          	li	s0,0
f9000490:	01c0006f          	j	f90004ac <bsp_printf+0x58>
            if (format[i] == '%') {
                while (format[++i]) {
                    if (format[i] == 'c') {
                        bsp_printf_c(va_arg(ap,int));
f9000494:	00c12783          	lw	a5,12(sp)
f9000498:	00478713          	addi	a4,a5,4
f900049c:	00e12623          	sw	a4,12(sp)
f90004a0:	0007a503          	lw	a0,0(a5)
f90004a4:	dd1ff0ef          	jal	ra,f9000274 <bsp_printf_c>
        for (i = 0; format[i]; i++)
f90004a8:	00140413          	addi	s0,s0,1
f90004ac:	008487b3          	add	a5,s1,s0
f90004b0:	0007c503          	lbu	a0,0(a5)
f90004b4:	0c050263          	beqz	a0,f9000578 <bsp_printf+0x124>
            if (format[i] == '%') {
f90004b8:	02500793          	li	a5,37
f90004bc:	06f50663          	beq	a0,a5,f9000528 <bsp_printf+0xd4>
                        break;
                    }
#endif //#if (ENABLE_FLOATING_POINT_SUPPORT)
                }
            } else
                bsp_printf_c(format[i]);
f90004c0:	db5ff0ef          	jal	ra,f9000274 <bsp_printf_c>
f90004c4:	fe5ff06f          	j	f90004a8 <bsp_printf+0x54>
                        bsp_printf_s(va_arg(ap,char*));
f90004c8:	00c12783          	lw	a5,12(sp)
f90004cc:	00478713          	addi	a4,a5,4
f90004d0:	00e12623          	sw	a4,12(sp)
f90004d4:	0007a503          	lw	a0,0(a5)
f90004d8:	db9ff0ef          	jal	ra,f9000290 <bsp_printf_s>
                        break;
f90004dc:	fcdff06f          	j	f90004a8 <bsp_printf+0x54>
                        bsp_printf_d(va_arg(ap,int));
f90004e0:	00c12783          	lw	a5,12(sp)
f90004e4:	00478713          	addi	a4,a5,4
f90004e8:	00e12623          	sw	a4,12(sp)
f90004ec:	0007a503          	lw	a0,0(a5)
f90004f0:	db9ff0ef          	jal	ra,f90002a8 <bsp_printf_d>
                        break;
f90004f4:	fb5ff06f          	j	f90004a8 <bsp_printf+0x54>
                        bsp_printf_X(va_arg(ap,int));
f90004f8:	00c12783          	lw	a5,12(sp)
f90004fc:	00478713          	addi	a4,a5,4
f9000500:	00e12623          	sw	a4,12(sp)
f9000504:	0007a503          	lw	a0,0(a5)
f9000508:	e61ff0ef          	jal	ra,f9000368 <bsp_printf_X>
                        break;
f900050c:	f9dff06f          	j	f90004a8 <bsp_printf+0x54>
                        bsp_printf_x(va_arg(ap,int));
f9000510:	00c12783          	lw	a5,12(sp)
f9000514:	00478713          	addi	a4,a5,4
f9000518:	00e12623          	sw	a4,12(sp)
f900051c:	0007a503          	lw	a0,0(a5)
f9000520:	e09ff0ef          	jal	ra,f9000328 <bsp_printf_x>
                        break;
f9000524:	f85ff06f          	j	f90004a8 <bsp_printf+0x54>
                while (format[++i]) {
f9000528:	00140413          	addi	s0,s0,1
f900052c:	008487b3          	add	a5,s1,s0
f9000530:	0007c783          	lbu	a5,0(a5)
f9000534:	f6078ae3          	beqz	a5,f90004a8 <bsp_printf+0x54>
                    if (format[i] == 'c') {
f9000538:	06300713          	li	a4,99
f900053c:	f4e78ce3          	beq	a5,a4,f9000494 <bsp_printf+0x40>
                    else if (format[i] == 's') {
f9000540:	07300713          	li	a4,115
f9000544:	f8e782e3          	beq	a5,a4,f90004c8 <bsp_printf+0x74>
                    else if (format[i] == 'd') {
f9000548:	06400713          	li	a4,100
f900054c:	f8e78ae3          	beq	a5,a4,f90004e0 <bsp_printf+0x8c>
                    else if (format[i] == 'X') {
f9000550:	05800713          	li	a4,88
f9000554:	fae782e3          	beq	a5,a4,f90004f8 <bsp_printf+0xa4>
                    else if (format[i] == 'x') {
f9000558:	07800713          	li	a4,120
f900055c:	fae78ae3          	beq	a5,a4,f9000510 <bsp_printf+0xbc>
                    else if (format[i] == 'f') {
f9000560:	06600713          	li	a4,102
f9000564:	fce792e3          	bne	a5,a4,f9000528 <bsp_printf+0xd4>
                        bsp_printf_s("<Floating point printing not enable. Please Enable it at bsp.h first...>");
f9000568:	f9080537          	lui	a0,0xf9080
f900056c:	02850513          	addi	a0,a0,40 # f9080028 <__freertos_irq_stack_top+0xffffde98>
f9000570:	d21ff0ef          	jal	ra,f9000290 <bsp_printf_s>
                        break;
f9000574:	f35ff06f          	j	f90004a8 <bsp_printf+0x54>

        va_end(ap);
    }
f9000578:	01c12083          	lw	ra,28(sp)
f900057c:	01812403          	lw	s0,24(sp)
f9000580:	01412483          	lw	s1,20(sp)
f9000584:	04010113          	addi	sp,sp,64
f9000588:	00008067          	ret

f900058c <init>:
void trap();
void crash();
void trap_entry();
void externalInterrupt();

void init(){
f900058c:	ff010113          	addi	sp,sp,-16
f9000590:	00112623          	sw	ra,12(sp)
    //configure PLIC
    //cpu 0 accept all interrupts with priority above 0
    plic_set_threshold(BSP_PLIC, BSP_PLIC_CPU_0, 0); 
f9000594:	00000613          	li	a2,0
f9000598:	00000593          	li	a1,0
f900059c:	f8c00537          	lui	a0,0xf8c00
f90005a0:	e65ff0ef          	jal	ra,f9000404 <plic_set_threshold>
    plic_set_enable(BSP_PLIC, BSP_PLIC_CPU_0, SYSTEM_PLIC_SYSTEM_GPIO_0_IO_INTERRUPTS_0, 1);
f90005a4:	00100693          	li	a3,1
f90005a8:	00c00613          	li	a2,12
f90005ac:	00000593          	li	a1,0
f90005b0:	f8c00537          	lui	a0,0xf8c00
f90005b4:	e05ff0ef          	jal	ra,f90003b8 <plic_set_enable>
    plic_set_priority(BSP_PLIC, SYSTEM_PLIC_SYSTEM_GPIO_0_IO_INTERRUPTS_0, 1);
f90005b8:	00100613          	li	a2,1
f90005bc:	00c00593          	li	a1,12
f90005c0:	f8c00537          	lui	a0,0xf8c00
f90005c4:	de5ff0ef          	jal	ra,f90003a8 <plic_set_priority>
f90005c8:	f80167b7          	lui	a5,0xf8016
f90005cc:	00100713          	li	a4,1
f90005d0:	02e7a023          	sw	a4,32(a5) # f8016020 <__freertos_irq_stack_top+0xfef93e90>
    //Enable rising edge interrupts
    gpio_setInterruptRiseEnable(GPIO0, 1); 
    //enable interrupts
    //Set the machine trap vector (../common/trap.S)
    csr_write(mtvec, trap_entry); 
f90005d4:	f90007b7          	lui	a5,0xf9000
f90005d8:	75c78793          	addi	a5,a5,1884 # f900075c <__freertos_irq_stack_top+0xfff7e5cc>
f90005dc:	30579073          	csrw	mtvec,a5
    //Enable external interrupts
    csr_set(mie, MIE_MEIE); 
f90005e0:	000017b7          	lui	a5,0x1
f90005e4:	80078793          	addi	a5,a5,-2048 # 800 <regnum_t6+0x7e1>
f90005e8:	3047a073          	csrs	mie,a5
    csr_write(mstatus, csr_read(mstatus) | MSTATUS_MPP | MSTATUS_MIE);
f90005ec:	300027f3          	csrr	a5,mstatus
f90005f0:	00002737          	lui	a4,0x2
f90005f4:	80870713          	addi	a4,a4,-2040 # 1808 <regnum_t6+0x17e9>
f90005f8:	00e7e7b3          	or	a5,a5,a4
f90005fc:	30079073          	csrw	mstatus,a5
}
f9000600:	00c12083          	lw	ra,12(sp)
f9000604:	01010113          	addi	sp,sp,16
f9000608:	00008067          	ret

f900060c <crash>:
        plic_release(BSP_PLIC, BSP_PLIC_CPU_0, claim); 
    }
}

//Used on unexpected trap/interrupt codes
void crash(){
f900060c:	ff010113          	addi	sp,sp,-16
f9000610:	00112623          	sw	ra,12(sp)
    bsp_printf("\r\n*** CRASH ***\r\n");
f9000614:	f9080537          	lui	a0,0xf9080
f9000618:	07450513          	addi	a0,a0,116 # f9080074 <__freertos_irq_stack_top+0xffffdee4>
f900061c:	e39ff0ef          	jal	ra,f9000454 <bsp_printf>
    while(1);
f9000620:	0000006f          	j	f9000620 <crash+0x14>

f9000624 <externalInterrupt>:
void externalInterrupt(){
f9000624:	ff010113          	addi	sp,sp,-16
f9000628:	00112623          	sw	ra,12(sp)
f900062c:	00812423          	sw	s0,8(sp)
    while(claim = plic_claim(BSP_PLIC, BSP_PLIC_CPU_0)){
f9000630:	00000593          	li	a1,0
f9000634:	f8c00537          	lui	a0,0xf8c00
f9000638:	de5ff0ef          	jal	ra,f900041c <plic_claim>
f900063c:	00050413          	mv	s0,a0
f9000640:	02050863          	beqz	a0,f9000670 <externalInterrupt+0x4c>
        switch(claim){
f9000644:	00c00793          	li	a5,12
f9000648:	02f41263          	bne	s0,a5,f900066c <externalInterrupt+0x48>
        case SYSTEM_PLIC_SYSTEM_GPIO_0_IO_INTERRUPTS_0: bsp_printf("gpio 0 interrupt routine \r\n"); break;
f900064c:	f9080537          	lui	a0,0xf9080
f9000650:	08850513          	addi	a0,a0,136 # f9080088 <__freertos_irq_stack_top+0xffffdef8>
f9000654:	e01ff0ef          	jal	ra,f9000454 <bsp_printf>
        plic_release(BSP_PLIC, BSP_PLIC_CPU_0, claim); 
f9000658:	00040613          	mv	a2,s0
f900065c:	00000593          	li	a1,0
f9000660:	f8c00537          	lui	a0,0xf8c00
f9000664:	dd5ff0ef          	jal	ra,f9000438 <plic_release>
f9000668:	fc9ff06f          	j	f9000630 <externalInterrupt+0xc>
        default: crash(); break;
f900066c:	fa1ff0ef          	jal	ra,f900060c <crash>
}
f9000670:	00c12083          	lw	ra,12(sp)
f9000674:	00812403          	lw	s0,8(sp)
f9000678:	01010113          	addi	sp,sp,16
f900067c:	00008067          	ret

f9000680 <trap>:
void trap(){
f9000680:	ff010113          	addi	sp,sp,-16
f9000684:	00112623          	sw	ra,12(sp)
    int32_t mcause = csr_read(mcause);
f9000688:	342027f3          	csrr	a5,mcause
    if(interrupt){
f900068c:	0207d263          	bgez	a5,f90006b0 <trap+0x30>
f9000690:	00f7f713          	andi	a4,a5,15
        switch(cause){
f9000694:	00b00793          	li	a5,11
f9000698:	00f71a63          	bne	a4,a5,f90006ac <trap+0x2c>
        case CAUSE_MACHINE_EXTERNAL: externalInterrupt(); break;
f900069c:	f89ff0ef          	jal	ra,f9000624 <externalInterrupt>
}
f90006a0:	00c12083          	lw	ra,12(sp)
f90006a4:	01010113          	addi	sp,sp,16
f90006a8:	00008067          	ret
        default: crash(); break;
f90006ac:	f61ff0ef          	jal	ra,f900060c <crash>
        crash();
f90006b0:	f5dff0ef          	jal	ra,f900060c <crash>

f90006b4 <main>:
}

void main() {
f90006b4:	ff010113          	addi	sp,sp,-16
f90006b8:	00112623          	sw	ra,12(sp)
f90006bc:	00812423          	sw	s0,8(sp)
    bsp_init();
    bsp_printf("gpio 0 demo ! \r\n");
f90006c0:	f9080537          	lui	a0,0xf9080
f90006c4:	0a450513          	addi	a0,a0,164 # f90800a4 <__freertos_irq_stack_top+0xffffdf14>
f90006c8:	d8dff0ef          	jal	ra,f9000454 <bsp_printf>
    bsp_printf("onboard LEDs blinking \r\n");
f90006cc:	f9080537          	lui	a0,0xf9080
f90006d0:	0b850513          	addi	a0,a0,184 # f90800b8 <__freertos_irq_stack_top+0xffffdf28>
f90006d4:	d81ff0ef          	jal	ra,f9000454 <bsp_printf>
f90006d8:	f80167b7          	lui	a5,0xf8016
f90006dc:	00e00713          	li	a4,14
f90006e0:	00e7a423          	sw	a4,8(a5) # f8016008 <__freertos_irq_stack_top+0xfef93e78>
f90006e4:	0007a223          	sw	zero,4(a5)
    //configure 4 bits gpio 0
    gpio_setOutputEnable(GPIO0, 0xe);
    gpio_setOutput(GPIO0, 0x0);
    for (int i=0; i<50; i=i+1) {
f90006e8:	00000413          	li	s0,0
f90006ec:	0300006f          	j	f900071c <main+0x68>
        return *((volatile u32*) address);
f90006f0:	f8016737          	lui	a4,0xf8016
f90006f4:	00472783          	lw	a5,4(a4) # f8016004 <__freertos_irq_stack_top+0xfef93e74>
        gpio_setOutput(GPIO0, gpio_getOutput(GPIO0) ^ 0xe);
f90006f8:	00e7c793          	xori	a5,a5,14
        *((volatile u32*) address) = data;
f90006fc:	00f72223          	sw	a5,4(a4)
        bsp_uDelay(LOOP_UDELAY);
f9000700:	f8b00637          	lui	a2,0xf8b00
f9000704:	047875b7          	lui	a1,0x4787
f9000708:	8c058593          	addi	a1,a1,-1856 # 47868c0 <__stack_size+0x47848c0>
f900070c:	00018537          	lui	a0,0x18
f9000710:	6a050513          	addi	a0,a0,1696 # 186a0 <__stack_size+0x166a0>
f9000714:	a31ff0ef          	jal	ra,f9000144 <clint_uDelay>
    for (int i=0; i<50; i=i+1) {
f9000718:	00140413          	addi	s0,s0,1
f900071c:	03100793          	li	a5,49
f9000720:	fc87d8e3          	bge	a5,s0,f90006f0 <main+0x3c>
    }   
    bsp_printf("gpio 0 interrupt demo ! \r\n");
f9000724:	f9080537          	lui	a0,0xf9080
f9000728:	0d450513          	addi	a0,a0,212 # f90800d4 <__freertos_irq_stack_top+0xffffdf44>
f900072c:	d29ff0ef          	jal	ra,f9000454 <bsp_printf>
    bsp_printf("Ti180 press and release onboard button sw4 \r\n");
f9000730:	f9080537          	lui	a0,0xf9080
f9000734:	0f050513          	addi	a0,a0,240 # f90800f0 <__freertos_irq_stack_top+0xffffdf60>
f9000738:	d1dff0ef          	jal	ra,f9000454 <bsp_printf>
    bsp_printf("Ti60 press and release onboard button sw6 \r\n");
f900073c:	f9080537          	lui	a0,0xf9080
f9000740:	12050513          	addi	a0,a0,288 # f9080120 <__freertos_irq_stack_top+0xffffdf90>
f9000744:	d11ff0ef          	jal	ra,f9000454 <bsp_printf>
    bsp_printf("T120 press and release onboard button sw7 \r\n");
f9000748:	f9080537          	lui	a0,0xf9080
f900074c:	15050513          	addi	a0,a0,336 # f9080150 <__freertos_irq_stack_top+0xffffdfc0>
f9000750:	d05ff0ef          	jal	ra,f9000454 <bsp_printf>
    init();
f9000754:	e39ff0ef          	jal	ra,f900058c <init>
    while(1); 
f9000758:	0000006f          	j	f9000758 <main+0xa4>

f900075c <trap_entry>:
.global  trap_entry
.align(2) //mtvec require 32 bits allignement
trap_entry:
  addi sp,sp, -16*4
f900075c:	fc010113          	addi	sp,sp,-64
  sw x1,   0*4(sp)
f9000760:	00112023          	sw	ra,0(sp)
  sw x5,   1*4(sp)
f9000764:	00512223          	sw	t0,4(sp)
  sw x6,   2*4(sp)
f9000768:	00612423          	sw	t1,8(sp)
  sw x7,   3*4(sp)
f900076c:	00712623          	sw	t2,12(sp)
  sw x10,  4*4(sp)
f9000770:	00a12823          	sw	a0,16(sp)
  sw x11,  5*4(sp)
f9000774:	00b12a23          	sw	a1,20(sp)
  sw x12,  6*4(sp)
f9000778:	00c12c23          	sw	a2,24(sp)
  sw x13,  7*4(sp)
f900077c:	00d12e23          	sw	a3,28(sp)
  sw x14,  8*4(sp)
f9000780:	02e12023          	sw	a4,32(sp)
  sw x15,  9*4(sp)
f9000784:	02f12223          	sw	a5,36(sp)
  sw x16, 10*4(sp)
f9000788:	03012423          	sw	a6,40(sp)
  sw x17, 11*4(sp)
f900078c:	03112623          	sw	a7,44(sp)
  sw x28, 12*4(sp)
f9000790:	03c12823          	sw	t3,48(sp)
  sw x29, 13*4(sp)
f9000794:	03d12a23          	sw	t4,52(sp)
  sw x30, 14*4(sp)
f9000798:	03e12c23          	sw	t5,56(sp)
  sw x31, 15*4(sp)
f900079c:	03f12e23          	sw	t6,60(sp)
  call trap
f90007a0:	ee1ff0ef          	jal	ra,f9000680 <trap>
  lw x1 ,  0*4(sp)
f90007a4:	00012083          	lw	ra,0(sp)
  lw x5,   1*4(sp)
f90007a8:	00412283          	lw	t0,4(sp)
  lw x6,   2*4(sp)
f90007ac:	00812303          	lw	t1,8(sp)
  lw x7,   3*4(sp)
f90007b0:	00c12383          	lw	t2,12(sp)
  lw x10,  4*4(sp)
f90007b4:	01012503          	lw	a0,16(sp)
  lw x11,  5*4(sp)
f90007b8:	01412583          	lw	a1,20(sp)
  lw x12,  6*4(sp)
f90007bc:	01812603          	lw	a2,24(sp)
  lw x13,  7*4(sp)
f90007c0:	01c12683          	lw	a3,28(sp)
  lw x14,  8*4(sp)
f90007c4:	02012703          	lw	a4,32(sp)
  lw x15,  9*4(sp)
f90007c8:	02412783          	lw	a5,36(sp)
  lw x16, 10*4(sp)
f90007cc:	02812803          	lw	a6,40(sp)
  lw x17, 11*4(sp)
f90007d0:	02c12883          	lw	a7,44(sp)
  lw x28, 12*4(sp)
f90007d4:	03012e03          	lw	t3,48(sp)
  lw x29, 13*4(sp)
f90007d8:	03412e83          	lw	t4,52(sp)
  lw x30, 14*4(sp)
f90007dc:	03812f03          	lw	t5,56(sp)
  lw x31, 15*4(sp)
f90007e0:	03c12f83          	lw	t6,60(sp)
  addi sp,sp, 16*4
f90007e4:	04010113          	addi	sp,sp,64
  mret
f90007e8:	30200073          	mret
