
build/bootloader_Trinita.elf:     file format elf32-littleriscv

Contents of section .rom_section.init:
 f9007800 97010800 9381017f 138101c2 13850181  ................
 f9007810 93850181 1386c181 63fcc500 83220500  ........c...."..
 f9007820 23a05500 13054500 93854500 e3e8c5fe  #.U...E...E.....
 f9007830 1385c181 93850182 6378b500 23200500  ........cx..# ..
 f9007840 13054500 e36cb5fe ef000001 ef008054  ..E..l.........T
 f9007850 6f000000 67800000                    o...g...        
Contents of section .rom_section.text:
 f9007858 130101ff 23248100 23202101 13840181  ....#$..# !.....
 f9007868 13890181 33098940 23261100 23229100  ....3..@#&..#"..
 f9007878 13592940 630e0900 93040000 83270400  .Y)@c........'..
 f9007888 93841400 13044400 e7800700 e31899fe  ......D.........
 f9007898 13840181 13890181 33098940 13592940  ........3..@.Y)@
 f90078a8 630e0900 93040000 83270400 93841400  c........'......
 f90078b8 13044400 e7800700 e31899fe 8320c100  ..D.......... ..
 f90078c8 03248100 83244100 03290100 13010101  .$...$A..)......
 f90078d8 67800000 b7470f00 93870724 b3d5f502  g....G.....$....
 f90078e8 b7c70000 938787ff 3306f600 83270600  ........3....'..
 f90078f8 3385a502 3305f500 83270600 b307f540  3...3....'.....@
 f9007908 e3dc07fe 67800000 03254500 13150501  ....g....%E.....
 f9007918 13550501 67800000 03254500 13550501  .U..g....%E..U..
 f9007928 67800000 130101ff 23261100 23248100  g.......#&..#$..
 f9007938 23229100 13040500 93840500 13050400  #"..............
 f9007948 eff09ffc e30c05fe 93e40410 23209400  ............# ..
 f9007958 8320c100 03248100 83244100 13010101  . ...$...$A.....
 f9007968 67800000 130101ff 23261100 23248100  g.......#&..#$..
 f9007978 13040500 13050400 eff01ff9 e30c05fe  ................
 f9007988 93070020 2320f400 13050400 eff0dff8  ... # ..........
 f9007998 e30c05fe 03250400 1375f50f 8320c100  .....%...u... ..
 f90079a8 03248100 13010101 67800000 130101ff  .$......g.......
 f90079b8 23261100 23248100 23229100 13040500  #&..#$..#"......
 f90079c8 93840500 13050400 eff01ff4 e30c05fe  ................
 f90079d8 b7170000 93870788 b3e4f400 23209400  ............# ..
 f90079e8 8320c100 03248100 83244100 13010101  . ...$...$A.....
 f90079f8 67800000 130101ff 23261100 23248100  g.......#&..#$..
 f9007a08 23229100 13040500 93840500 13050400  #"..............
 f9007a18 eff09fef e30c05fe b7170000 93870780  ................
 f9007a28 b3e4f400 23209400 8320c100 03248100  ....# ... ...$..
 f9007a38 83244100 13010101 67800000 83a70500  .$A.....g.......
 f9007a48 03a74500 13171700 b3e7e700 03a78500  ..E.............
 f9007a58 13174700 b3e7e700 2324f500 83a7c500  ..G.....#$......
 f9007a68 2320f502 83a70501 2322f502 83a74501  # ......#"....E.
 f9007a78 2324f502 83a78501 2326f502 67800000  #$......#&..g...
 f9007a88 130101ff 23261100 23248100 13040500  ....#&..#$......
 f9007a98 3706b0f8 b7757804 9385058c 13051000  7....ux.........
 f9007aa8 eff05fe3 13050400 eff01fe6 93070010  .._.............
 f9007ab8 e31af5fe 8320c100 03248100 13010101  ..... ...$......
 f9007ac8 67800000 130101ff 23261100 eff01fee  g.......#&......
 f9007ad8 8320c100 13010101 67800000 130101ff  . ......g.......
 f9007ae8 23261100 eff01ff1 8320c100 13010101  #&....... ......
 f9007af8 67800000 130101fd 23261102 23248102  g.......#&..#$..
 f9007b08 13040500 23220100 23240100 23260100  ....#"..#$..#&..
 f9007b18 93072000 2328f100 232af100 232cf100  .. .#(..#*..#,..
 f9007b28 232ef100 93054100 eff05ff1 13050400  #.....A..._.....
 f9007b38 eff01ff5 8320c102 03248102 13010103  ..... ...$......
 f9007b48 67800000 130101ff 23261100 23248100  g.......#&..#$..
 f9007b58 23229100 13040500 93840500 eff09ff9  #"..............
 f9007b68 93850400 13050400 eff05ff7 8320c100  .........._.. ..
 f9007b78 03248100 83244100 13010101 67800000  .$...$A.....g...
 f9007b88 130101ff 23261100 9305b00a eff09fd9  ....#&..........
 f9007b98 8320c100 13010101 67800000 130101ff  . ......g.......
 f9007ba8 23261100 23248100 23229100 13040500  #&..#$..#"......
 f9007bb8 93840500 eff01ff1 13050400 eff05ffc  .............._.
 f9007bc8 93850400 13050400 eff05ff1 13050400  .........._.....
 f9007bd8 eff01feb 8320c100 03248100 83244100  ..... ...$...$A.
 f9007be8 13010101 67800000 130101fe 232e1100  ....g.......#...
 f9007bf8 232c8100 232a9100 23282101 23263101  #,..#*..#(!.#&1.
 f9007c08 13090500 93840500 13040600 93890600  ................
 f9007c18 9305b000 eff01fd1 93d50401 93f5f50f  ................
 f9007c28 13050900 eff01fd0 93d58400 93f5f50f  ................
 f9007c38 13050900 eff01fcf 93f5f40f 13050900  ................
 f9007c48 eff05fce 93050000 13050900 eff09fcd  .._.............
 f9007c58 93040000 63fe3401 13050900 eff09fd0  ....c.4.........
 f9007c68 2300a400 93841400 13041400 6ff09ffe  #...........o...
 f9007c78 8320c101 03248101 83244101 03290101  . ...$...$A..)..
 f9007c88 8329c100 13010102 67800000 130101fe  .)......g.......
 f9007c98 232e1100 232c8100 232a9100 23282101  #...#,..#*..#(!.
 f9007ca8 23263101 23244101 13040500 93840500  #&1.#$A.........
 f9007cb8 13090600 93890600 130a0700 eff09fe0  ................
 f9007cc8 93060a00 13860900 93050900 13050400  ................
 f9007cd8 eff09ff1 93850400 13050400 eff01fe0  ................
 f9007ce8 8320c101 03248101 83244101 03290101  . ...$...$A..)..
 f9007cf8 8329c100 032a8100 13010102 67800000  .)...*......g...
 f9007d08 130101ff 23261100 23248100 93050000  ....#&..#$......
 f9007d18 374501f8 eff01fe3 93050000 374501f8  7E..........7E..
 f9007d28 eff0dfe7 37840000 13070480 b70600f9  ....7...........
 f9007d38 37061000 93050000 374501f8 eff01ff5  7.......7E......
 f9007d48 13070480 b70608f9 37061800 93050000  ........7.......
 f9007d58 374501f8 eff09ff3 0f100000 13000000  7E..............
 f9007d68 13000000 13000000 13000000 13000000  ................
 f9007d78 13000000 b70700f9 e7800700 8320c100  ............. ..
 f9007d88 03248100 13010101 67800000 130101ff  .$......g.......
 f9007d98 23261100 eff0dff6 8320c100 13010101  #&....... ......
 f9007da8 67800000                             g...            
Contents of section .ram_section.data:
 f9087800 00000000 00000000 0000               ..........      
Contents of section .debug_info:
 0000 31140000 04000000 00000401 9d590000  1............Y..
 0010 0cf62000 00945c00 00dc7800 f9d00400  .. ...\...x.....
 0020 00000000 00000000 00020106 98070000  ................
 0030 03683100 00072b18 3c000000 020108fe  .h1...+.<.......
 0040 50000002 02056708 00000202 07a85f00  P.....g......._.
 0050 00034a82 0000074d 185d0000 00020405  ..J....M.]......
 0060 a3860000 03f84300 00074f19 70000000  ......C...O.p...
 0070 02040766 18000002 08055347 00000208  ...f......SG....
 0080 078d6d00 00040405 696e7400 02040744  ..m.....int....D
 0090 1f000003 6a310000 08181330 00000003  ....j1.....0....
 00a0 4c820000 082c1351 00000003 fa430000  L....,.Q.....C..
 00b0 08301464 00000005 75333200 091e15ab  .0.d....u32.....
 00c0 00000005 75380009 22159300 00000210  ....u8..".......
 00d0 04840300 00067121 00000a65 01178c00  ......q!...e....
 00e0 00000332 7e00000b 2e0e5d00 0000035a  ...2~.....]....Z
 00f0 5a00000b 740e5d00 00000351 7400000b  Z...t.]....Qt...
 0100 93178500 00000704 0ba50328 01000008  ...........(....
 0110 bd0f0000 0ba70cd5 00000008 a1190000  ................
 0120 0ba81328 01000000 093c0000 00380100  ...(.....<...8..
 0130 000a8c00 00000300 0b080ba2 095c0100  .............\..
 0140 000c3354 00000ba4 07850000 00000cd8  ..3T............
 0150 0200000b a9050601 00000400 03596600  .............Yf.
 0160 000baa03 38010000 0d0403bb 7a00000c  ....8.......z...
 0170 16197000 000003b2 3c00000d 0c0d8500  ..p.....<.......
 0180 000003e5 1600000c 231b7601 00000e4a  ........#.v....J
 0190 40000018 0c3408e8 0100000c da510000  @....4.......Q..
 01a0 0c3613e8 01000000 0f5f6b00 0c370785  .6......._k..7..
 01b0 00000004 0cab7300 000c370b 85000000  ......s...7.....
 01c0 080cea49 00000c37 14850000 000c0c42  ...I...7.......B
 01d0 3300000c 371b8500 0000100f 5f78000c  3...7......._x..
 01e0 380bee01 00001400 10048e01 0000096a  8..............j
 01f0 010000fe 0100000a 8c000000 00000e24  ...............$
 0200 08000024 0c3c0881 0200000c 40080000  ...$.<......@...
 0210 0c3e0985 00000000 0cd18700 000c3f09  .>............?.
 0220 85000000 040c787f 00000c40 09850000  ......x....@....
 0230 00080c61 5000000c 41098500 00000c0c  ...aP...A.......
 0240 e0180000 0c420985 00000010 0c2f7400  .....B......./t.
 0250 000c4309 85000000 140ccc55 00000c44  ..C........U...D
 0260 09850000 00180c8d 5600000c 45098500  ........V...E...
 0270 00001c0c d1830000 0c460985 00000020  .........F..... 
 0280 00118011 00000801 0c4f08c6 0200000c  .........O......
 0290 ab830000 0c500ac6 02000000 0cf75e00  .....P........^.
 02a0 000c5109 c6020000 8012c517 00000c53  ..Q............S
 02b0 0a6a0100 00000112 bd780000 0c560a6a  .j.......x...V.j
 02c0 01000004 01000968 010000d6 0200000a  .......h........
 02d0 8c000000 1f0011bb 52000090 010c6208  ........R.....b.
 02e0 19030000 0cda5100 000c6312 19030000  ......Q...c.....
 02f0 000c5677 00000c64 06850000 00040c75  ..Vw...d.......u
 0300 2500000c 66091f03 0000080c 80110000  %...f...........
 0310 0c671e81 02000088 001004d6 02000009  .g..............
 0320 2f030000 2f030000 0a8c0000 001f0010  /.../...........
 0330 04350300 00130e1b 17000008 0c7a085e  .5...........z.^
 0340 0300000c 08620000 0c7b115e 03000000  .....b...{.^....
 0350 0c250a00 000c7c06 85000000 04001004  .%....|.........
 0360 3c000000 0ec17f00 00680cba 08a70400  <........h......
 0370 000f5f70 000cbb12 5e030000 000f5f72  .._p....^....._r
 0380 000cbc07 85000000 040f5f77 000cbd07  .........._w....
 0390 85000000 080cf751 00000cbe 09430000  .......Q.....C..
 03a0 000c0c2f 1100000c bf094300 00000e0f  .../......C.....
 03b0 5f626600 0cc01136 03000010 0ce27600  _bf....6......v.
 03c0 000cc107 85000000 180c8032 00000cc8  ...........2....
 03d0 0a680100 001c0c7b 5a00000c ca1d2b06  .h.....{Z.....+.
 03e0 0000200c b80e0000 0ccc1d55 06000024  .. ........U...$
 03f0 0c5f5900 000ccf0d 79060000 280c6a26  ._Y.....y...(.j&
 0400 00000cd0 09930600 002c0f5f 7562000c  .........,._ub..
 0410 d3113603 0000300f 5f757000 0cd4125e  ..6...0._up....^
 0420 03000038 0f5f7572 000cd507 85000000  ...8._ur........
 0430 3c0cab50 00000cd8 11990600 00400c3a  <..P.........@.:
 0440 0800000c d911a906 0000430f 5f6c6200  ..........C._lb.
 0450 0cdc1136 03000044 0c7d6100 000cdf07  ...6...D.}a.....
 0460 85000000 4c0c7135 00000ce0 0ae20000  ....L.q5........
 0470 00500c3f 6800000c e312c504 0000540c  .P.?h.........T.
 0480 c80a0000 0ce70c82 01000058 0c5e5100  ...........X.^Q.
 0490 000ce90e 5c010000 5c0cf94b 00000cea  ....\...\..K....
 04a0 09850000 00640014 fa000000 c5040000  .....d..........
 04b0 15c50400 00156801 00001519 06000015  ......h.........
 04c0 85000000 001004d0 04000016 c5040000  ................
 04d0 17fc2100 0028040c 65020819 06000018  ..!..(..e.......
 04e0 c94e0000 0c670207 85000000 0018320a  .N...g........2.
 04f0 00000c6c 020b0507 00000418 ab1d0000  ...l............
 0500 0c6c0214 05070000 08180c51 00000c6c  .l.........Q...l
 0510 021e0507 00000c18 bd230000 0c6e0208  .........#...n..
 0520 85000000 10180344 00000c6f 02080509  .......D...o....
 0530 00001418 51210000 0c720207 85000000  ....Q!...r......
 0540 3018b37a 00000c73 02161a09 00003418  0..z...s......4.
 0550 c83a0000 0c750207 85000000 38183941  .:...u......8.9A
 0560 00000c77 020a2b09 00003c18 5d7c0000  ...w..+...<.]|..
 0570 0c7a0213 e8010000 40187b14 00000c7b  .z......@.{....{
 0580 02078500 00004418 fa390000 0c7c0213  ......D..9...|..
 0590 e8010000 48181a49 00000c7d 02143109  ....H..I...}..1.
 05a0 00004c18 1a060000 0c800207 85000000  ..L.............
 05b0 5018a235 00000c81 02091906 00005418  P..5..........T.
 05c0 8c500000 0ca40207 e0080000 5819bb52  .P..........X..R
 05d0 00000ca8 02131903 00004801 195b4100  ..........H..[A.
 05e0 000ca902 12d60200 004c0119 2d340000  .........L..-4..
 05f0 0cad020c 42090000 dc02196a 8300000c  ....B......j....
 0600 b20210c6 060000e0 02194003 00000cb4  ..........@.....
 0610 020a4e09 0000ec02 0010041f 06000002  ..N.............
 0620 01089f07 0000161f 06000010 04a70400  ................
 0630 0014fa00 00004f06 000015c5 04000015  ......O.........
 0640 68010000 154f0600 00158500 00000010  h....O..........
 0650 04260600 00100431 06000014 ee000000  .&.....1........
 0660 79060000 15c50400 00156801 000015ee  y.........h.....
 0670 00000015 85000000 0010045b 06000014  ...........[....
 0680 85000000 93060000 15c50400 00156801  ..............h.
 0690 00000010 047f0600 00093c00 0000a906  ..........<.....
 06a0 00000a8c 00000002 00093c00 0000b906  ..........<.....
 06b0 00000a8c 00000000 00068665 00000c24  ...........e...$
 06c0 011a6403 00001ae4 4900000c 0c280108  ..d.....I....(..
 06d0 ff060000 18da5100 000c2a01 11ff0600  ......Q...*.....
 06e0 00001876 4500000c 2b010785 00000004  ...vE...+.......
 06f0 18e63500 000c2c01 0b050700 00080010  ..5...,.........
 0700 04c60600 001004b9 0600001a 575f0000  ............W_..
 0710 0e0c4401 08440700 0018c358 00000c45  ..D..D.....X...E
 0720 01124407 00000018 860c0000 0c460112  ..D..........F..
 0730 44070000 0618147f 00000c47 01124a00  D..........G..J.
 0740 00000c00 094a0000 00540700 000a8c00  .....J...T......
 0750 00000200 1bd00c85 02076908 0000186c  ..........i....l
 0760 1b00000c 8702188c 00000000 186f1300  .............o..
 0770 000c8802 12190600 000418f6 0500000c  ................
 0780 89021069 08000008 18a91600 000c8a02  ...i............
 0790 17fe0100 002418dd 4600000c 8b020f85  .....$..F.......
 07a0 00000048 18d55100 000c8c02 2c7e0000  ...H..Q.....,~..
 07b0 005018c2 6600000c 8d021a0b 07000058  .P..f..........X
 07c0 18ba6e00 000c8e02 165c0100 00681845  ..n......\...h.E
 07d0 5b00000c 8f02165c 01000070 18365100  [......\...p.6Q.
 07e0 000c9002 165c0100 007818ba 0800000c  .....\...x......
 07f0 91021079 08000080 18203f00 000c9202  ...y..... ?.....
 0800 10890800 00881879 0c00000c 93020f85  .......y........
 0810 000000a0 18c91300 000c9402 165c0100  .............\..
 0820 00a4183d 2600000c 9502165c 010000ac  ...=&......\....
 0830 18748100 000c9602 165c0100 00b41827  .t.......\.....'
 0840 5000000c 9702165c 010000bc 18290800  P......\.....)..
 0850 000c9802 165c0100 00c418c7 4e00000c  .....\......N...
 0860 99020885 000000cc 00091f06 00007908  ..............y.
 0870 00000a8c 00000019 00091f06 00008908  ................
 0880 00000a8c 00000007 00091f06 00009908  ................
 0890 00000a8c 00000017 001bf00c 9e0207c0  ................
 08a0 08000018 20790000 0ca1021b c0080000  .... y..........
 08b0 00186046 00000ca2 0218d008 00007800  ..`F..........x.
 08c0 095e0300 00d00800 000a8c00 00001d00  .^..............
 08d0 098c0000 00e00800 000a8c00 00001d00  ................
 08e0 1cf00c83 02030509 00001dfc 2100000c  ............!...
 08f0 9a020b54 0700001d 67230000 0ca3020b  ...T....g#......
 0900 99080000 00091f06 00001509 00000a8c  ................
 0910 00000018 001ee145 00001004 15090000  .......E........
 0920 1f2b0900 0015c504 00000010 04200900  .+........... ..
 0930 001004e8 0100001f 42090000 15850000  ........B.......
 0940 00001004 48090000 10043709 000009b9  ....H.....7.....
 0950 0600005e 0900000a 8c000000 02002088  ...^.......... .
 0960 1000000c 330317c5 04000020 d1730000  ....3...... .s..
 0970 0c34031d cb040000 21d07200 000e670e  .4......!.r...g.
 0980 19060000 0204045c 7f000002 08048903  .......\........
 0990 00002225 44000005 04850000 000f5f02  .."%D........._.
 09a0 06b20900 0023c424 00007f24 0f240000  .....#.$...$.$..
 09b0 000020f6 3b00000f 68022392 0900000b  .. .;...h.#.....
 09c0 1c03340d 240a0000 0cb02f00 0003350d  ..4.$...../...5.
 09d0 b7000000 000c8a0d 00000336 0db70000  ...........6....
 09e0 00040c00 70000003 370db700 0000080c  ....p...7.......
 09f0 a2870000 03380db7 0000000c 0c935800  .....8........X.
 0a00 0003390d b7000000 100cd655 0000033a  ..9........U...:
 0a10 0db70000 00140c56 46000003 3b0db700  .......VF...;...
 0a20 00001800 03075800 00033c07 bf090000  ......X...<.....
 0a30 25881700 00061c06 947d00f9 18000000  %........}......
 0a40 019c500a 000026a0 7d00f950 0a000000  ..P...&.}..P....
 0a50 250d5600 00052906 087d00f9 8c000000  %.V...)..}......
 0a60 019c1e0b 000027d1 11000005 3209250b  ......'.....2.%.
 0a70 00008080 80482820 7d00f9f2 0d000092  .....H( }.......
 0a80 0a000029 015a0511 80808540 29015b01  ...).Z.....@).[.
 0a90 3000282c 7d00f926 0d0000ae 0a000029  0.(,}..&.......)
 0aa0 015a0511 80808540 29015b01 30002848  .Z.....@).[.0.(H
 0ab0 7d00f92b 0b0000e0 0a000029 015a0511  }..+.......).Z..
 0ac0 80808540 29015b01 3029015c 03404024  ...@).[.0).\.@@$
 0ad0 29015d04 4c46241f 29015e03 78807000  ).].LF$.).^.x.p.
 0ae0 28607d00 f92b0b00 00130b00 0029015a  (`}..+.......).Z
 0af0 05118080 85402901 5b013029 015c0348  .....@).[.0).\.H
 0b00 40242901 5d051180 80a04829 015e0378  @$).].....H).^.x
 0b10 8070002a 847d00f9 044c4624 1f002b25  .p.*.}...LF$..+%
 0b20 0b00002c 0010041e 0b00002d c7660000  ...,.......-.f..
 0b30 04870111 947c00f9 74000000 019ced0b  .....|..t.......
 0b40 00002e73 70690004 870122b7 00000000  ...spi....".....
 0b50 0000002e 63730004 87012bb7 0000002c  ....cs....+....,
 0b60 0000002f 803f0000 04870133 b7000000  .../.?.....3....
 0b70 58000000 2fce3700 00048701 45b70000  X.../.7.....E...
 0b80 00840000 002f260a 00000487 0158b700  ...../&......X..
 0b90 0000b000 000028c8 7c00f900 0f0000b0  ......(.|.......
 0ba0 0b000029 015a0278 0029015b 02790000  ...).Z.x.).[.y..
 0bb0 28dc7c00 f9ed0b00 00d60b00 0029015a  (.|..........).Z
 0bc0 02780029 015b0282 0029015c 02830029  .x.).[...).\...)
 0bd0 015d0284 000030e8 7c00f9b2 0e000029  .]....0.|......)
 0be0 015a0278 0029015b 02790000 002dca02  .Z.x.).[.y...-..
 0bf0 00000407 0111f07b 00f9a400 0000019c  .......{........
 0c00 200d0000 2e737069 00040701 23b70000   ....spi....#...
 0c10 00dc0000 002f803f 00000407 012cb700  ...../.?.....,..
 0c20 00000801 00002fce 37000004 07013eb7  ....../.7.....>.
 0c30 00000034 0100002f 260a0000 04070151  ...4.../&......Q
 0c40 b7000000 60010000 3172616d 00040d01  ....`...1ram....
 0c50 12200d00 008c0100 0032587c 00f92000  . .......2X|.. .
 0c60 00009f0c 00003169 64780004 0e0111b7  ......1idx......
 0c70 000000b7 01000033 00000000 34da0200  .......3....4...
 0c80 00040f01 10c30000 00d60100 0030687c  .............0h|
 0c90 00f97e11 00002901 5a028200 00000028  ..~...).Z......(
 0ca0 207c00f9 10120000 b80c0000 29015a02   |..........).Z.
 0cb0 82002901 5b013b00 28307c00 f9101200  ..).[.;.(0|.....
 0cc0 00d40c00 0029015a 02820029 015b0479  .....).Z...).[.y
 0cd0 00402500 28407c00 f9101200 00f00c00  .@%.(@|.........
 0ce0 0029015a 02820029 015b0479 00382500  .).Z...).[.y.8%.
 0cf0 284c7c00 f9101200 000a0d00 0029015a  (L|..........).Z
 0d00 02820029 015b0279 00003058 7c00f910  ...).[.y..0X|...
 0d10 12000029 015a0282 0029015b 01300000  ...).Z...).[.0..
 0d20 10049300 000035e4 01000004 b011a47b  ......5........{
 0d30 00f94c00 0000019c b40d0000 36737069  ..L.........6spi
 0d40 0004b023 b7000000 e9010000 36637300  ...#........6cs.
 0d50 04b02cb7 00000015 02000028 c07b00f9  ..,........(.{..
 0d60 000f0000 750d0000 29015a02 78002901  ....u...).Z.x.).
 0d70 5b027900 0028c87b 00f9b40d 0000890d  [.y..(.{........
 0d80 00002901 5a027800 0028d47b 00f9b20e  ..).Z.x..(.{....
 0d90 0000a30d 00002901 5a027800 29015b02  ......).Z.x.).[.
 0da0 79000030 dc7b00f9 4e0f0000 29015a02  y..0.{..N...).Z.
 0db0 78000000 358d1a00 00049311 887b00f9  x...5........{..
 0dc0 1c000000 019cf20d 00003673 70690004  ..........6spi..
 0dd0 9324b700 00004102 00003098 7b00f910  .$....A...0.{...
 0de0 12000029 015a03f3 015a2901 5b0209ab  ...).Z...Z).[...
 0df0 00003551 45000004 85114c7b 00f93c00  ..5QE.....L{..<.
 0e00 0000019c 520e0000 36737069 00048523  ....R...6spi...#
 0e10 b7000000 62020000 36637300 04852cb7  ....b...6cs...,.
 0e20 0000008e 02000028 687b00f9 520e0000  .......(h{..R...
 0e30 3b0e0000 29015a02 78000030 747b00f9  ;...).Z.x..0t{..
 0e40 b20e0000 29015a02 78002901 5b027900  ....).Z.x.).[.y.
 0e50 00003503 5f000004 5111fc7a 00f95000  ..5._...Q..z..P.
 0e60 0000019c b20e0000 36737069 00045124  ........6spi..Q$
 0e70 b7000000 ba020000 37885f00 00045214  ........7._...R.
 0e80 240a0000 02915428 347b00f9 aa0f0000  $.....T(4{......
 0e90 a10e0000 29015a02 78002901 5b029154  ....).Z.x.).[..T
 0ea0 00303c7b 00f94e0f 00002901 5a027800  .0<{..N...).Z.x.
 0eb0 00003581 5a000004 4811e47a 00f91800  ..5.Z...H..z....
 0ec0 0000019c 000f0000 36737069 00044827  ........6spi..H'
 0ed0 b7000000 e6020000 36637300 044830b7  ........6cs..H0.
 0ee0 00000007 03000030 f07a00f9 a2100000  .......0.z......
 0ef0 29015a03 f3015a29 015b03f3 015b0000  ).Z...Z).[...[..
 0f00 35b66c00 00043e11 cc7a00f9 18000000  5.l...>..z......
 0f10 019c4e0f 00003673 70690004 3e25b700  ..N...6spi..>%..
 0f20 00002803 00003663 7300043e 2eb70000  ..(...6cs..>....
 0f30 00490300 0030d87a 00f91011 00002901  .I...0.z......).
 0f40 5a03f301 5a29015b 03f3015b 0000350c  Z...Z).[...[..5.
 0f50 28000003 8211887a 00f94400 0000019c  (......z..D.....
 0f60 aa0f0000 36726567 00038226 b7000000  ....6reg...&....
 0f70 6a030000 28ac7a00 f9081300 00990f00  j...(.z.........
 0f80 0029015a 01312901 5b050cc0 68780429  .).Z.1).[...hx.)
 0f90 015c0511 8080c045 0030b47a 00f9c312  .\.....E.0.z....
 0fa0 00002901 5a027800 000035d7 13000003  ..).Z.x...5.....
 0fb0 7511447a 00f94400 0000019c 9c100000  u.Dz..D.........
 0fc0 38726567 00037525 b7000000 015a392b  8reg..u%.....Z9+
 0fd0 0a000003 75369c10 0000015b 3af41300  ....u6.....[:...
 0fe0 00607a00 f9040000 00037609 03100000  .`z.......v.....
 0ff0 3b0d1400 00960300 003b0114 0000ab03  ;........;......
 1000 0000003a f4130000 687a00f9 04000000  ...:....hz......
 1010 0377092a 1000003b 0d140000 be030000  .w.*...;........
 1020 3b011400 00d30300 00003af4 13000070  ;.........:....p
 1030 7a00f904 00000003 78095110 00003b0d  z.......x.Q...;.
 1040 140000e6 0300003b 01140000 fb030000  .......;........
 1050 003af413 0000787a 00f90400 00000379  .:....xz.......y
 1060 09781000 003b0d14 00000e04 00003b01  .x...;........;.
 1070 14000023 04000000 3cf41300 00807a00  ...#....<.....z.
 1080 f9040000 00037a09 3b0d1400 00360400  ......z.;....6..
 1090 003b0114 00004b04 00000000 1004240a  .;....K.......$.
 10a0 000035ec 58000003 7011fc79 00f94800  ..5.X...p..y..H.
 10b0 0000019c 10110000 36726567 00037022  ........6reg..p"
 10c0 b7000000 5e040000 3d055600 0003702b  ....^...=.V...p+
 10d0 b7000000 8a040000 3af41300 002c7a00  ........:....,z.
 10e0 f9040000 00037209 ff100000 3b0d1400  ......r.....;...
 10f0 00b60400 003b0114 0000c904 00000030  .....;.........0
 1100 1c7a00f9 c3120000 29015a02 78000000  .z......).Z.x...
 1110 35014100 00036b11 b47900f9 48000000  5.A...k..y..H...
 1120 019c7e11 00003672 65670003 6b20b700  ..~...6reg..k ..
 1130 0000dc04 00003d05 56000003 6b29b700  ......=.V...k)..
 1140 00000805 00003af4 130000e4 7900f904  ......:.....y...
 1150 00000003 6d096d11 00003b0d 14000034  ....m.m...;....4
 1160 0500003b 01140000 47050000 0030d479  ...;....G....0.y
 1170 00f9c312 00002901 5a027800 00003e78  ......).Z.x...>x
 1180 5a000003 4a0fc300 00006c79 00f94800  Z...J.....ly..H.
 1190 0000019c 10120000 36726567 00034a1c  ........6reg..J.
 11a0 b7000000 5a050000 3af41300 00887900  ....Z...:.....y.
 11b0 f9080000 00034c09 cd110000 3b0d1400  ......L.....;...
 11c0 00860500 003f0114 00000002 003a1a14  .....?.......:..
 11d0 00009c79 00f90400 0000034e 10eb1100  ...y.......N....
 11e0 003b2714 0000a705 00000028 847900f9  .;'........(.y..
 11f0 c3120000 ff110000 29015a02 78000030  ........).Z.x..0
 1200 987900f9 7e120000 29015a02 78000000  .y..~...).Z.x...
 1210 35b50e00 00034511 2c7900f9 40000000  5.....E.,y..@...
 1220 019c7e12 00003672 65670003 451fb700  ..~...6reg..E...
 1230 0000ba05 00003d40 68000003 4527c300  ......=@h...E'..
 1240 0000e605 00003af4 13000054 7900f904  ......:....Ty...
 1250 00000003 47096d12 00003b0d 14000007  ....G.m...;.....
 1260 0600003b 01140000 1a060000 00304c79  ...;.........0Ly
 1270 00f9c312 00002901 5a027800 00003ec9  ......).Z.x...>.
 1280 7f000003 4110b700 00002079 00f90c00  ....A..... y....
 1290 0000019c c3120000 36726567 00034125  ........6reg..A%
 12a0 b7000000 2d060000 3c1a1400 00207900  ....-...<.... y.
 12b0 f9040000 00034210 3b271400 004e0600  ......B.;'...N..
 12c0 0000003e 4c2a0000 033e10b7 00000010  ...>L*...>......
 12d0 7900f910 00000001 9c081300 00367265  y............6re
 12e0 6700033e 28b70000 00630600 003c1a14  g..>(....c...<..
 12f0 00001079 00f90400 0000033f 103b2714  ...y.......?.;'.
 1300 00008406 00000000 35a32f00 00013711  ........5./...7.
 1310 dc7800f9 34000000 019cd613 00003deb  .x..4.........=.
 1320 54000001 3722b700 00009906 00003668  T...7"........6h
 1330 7a000137 2cb70000 00ba0600 00367265  z..7,........6re
 1340 67000137 34b70000 00db0600 00378151  g..74........7.Q
 1350 00000138 0db70000 00015b37 90300000  ...8......[7.0..
 1360 01390db7 00000001 5a3ad613 0000e878  .9......Z:.....x
 1370 00f91000 00000139 15a11300 003be713  .......9.....;..
 1380 0000fd06 00003c1a 140000f4 7800f904  ......<.....x...
 1390 00000001 21053b27 1400001f 07000000  ....!.;'........
 13a0 003cd613 00000079 00f90400 0000013a  .<.....y.......:
 13b0 203be713 00003207 00003c1a 14000000   ;....2...<.....
 13c0 7900f904 00000001 21053b27 14000049  y.......!.;'...I
 13d0 07000000 00004025 27000001 2105b700  ......@%'...!...
 13e0 000003f4 13000041 72656700 012105b7  .......Areg..!..
 13f0 00000000 42620c00 00022218 031a1400  ....Bb....".....
 1400 00434068 00000222 26b70000 0043133b  .C@h..."&....C.;
 1410 00000222 30b70000 000044e9 7b000002  ..."0.....D.{...
 1420 1e17b700 00000343 133b0000 021e24b7  .......C.;....$.
 1430 00000000 00220000 000200ea 03000004  ....."..........
 1440 014a0a00 00007800 f9587800 f9db8b00  .J....x..Xx.....
 1450 00945c00 00ed8b00 000180             ..\........     
Contents of section .debug_abbrev:
 0000 01110125 0e130b03 0e1b0e11 01120610  ...%............
 0010 17994217 00000224 000b0b3e 0b030e00  ..B....$...>....
 0020 00031600 030e3a0b 3b0b390b 49130000  ......:.;.9.I...
 0030 0424000b 0b3e0b03 08000005 16000308  .$...>..........
 0040 3a0b3b0b 390b4913 00000616 00030e3a  :.;.9.I........:
 0050 0b3b0539 0b491300 00071701 0b0b3a0b  .;.9.I........:.
 0060 3b0b390b 01130000 080d0003 0e3a0b3b  ;.9..........:.;
 0070 0b390b49 13000009 01014913 01130000  .9.I......I.....
 0080 0a210049 132f0b00 000b1301 0b0b3a0b  .!.I./........:.
 0090 3b0b390b 01130000 0c0d0003 0e3a0b3b  ;.9..........:.;
 00a0 0b390b49 13380b00 000d0f00 0b0b0000  .9.I.8..........
 00b0 0e130103 0e0b0b3a 0b3b0b39 0b011300  .......:.;.9....
 00c0 000f0d00 03083a0b 3b0b390b 4913380b  ......:.;.9.I.8.
 00d0 0000100f 000b0b49 13000011 1301030e  .......I........
 00e0 0b053a0b 3b0b390b 01130000 120d0003  ..:.;.9.........
 00f0 0e3a0b3b 0b390b49 13380500 00131500  .:.;.9.I.8......
 0100 27190000 14150127 19491301 13000015  '......'.I......
 0110 05004913 00001626 00491300 00171301  ..I....&.I......
 0120 030e0b05 3a0b3b05 390b0113 0000180d  ....:.;.9.......
 0130 00030e3a 0b3b0539 0b491338 0b000019  ...:.;.9.I.8....
 0140 0d00030e 3a0b3b05 390b4913 38050000  ....:.;.9.I.8...
 0150 1a130103 0e0b0b3a 0b3b0539 0b011300  .......:.;.9....
 0160 001b1301 0b0b3a0b 3b05390b 01130000  ......:.;.9.....
 0170 1c17010b 0b3a0b3b 05390b01 1300001d  .....:.;.9......
 0180 0d00030e 3a0b3b05 390b4913 00001e13  ....:.;.9.I.....
 0190 00030e3c 1900001f 15012719 01130000  ...<......'.....
 01a0 20340003 0e3a0b3b 05390b49 133f193c   4...:.;.9.I.?.<
 01b0 19000021 3400030e 3a0b3b0b 390b4913  ...!4...:.;.9.I.
 01c0 3f193c19 00002204 01030e3e 0b0b0b49  ?.<..."....>...I
 01d0 133a0b3b 05390b01 13000023 2800030e  .:.;.9.....#(...
 01e0 1c0d0000 24280003 0e1c0b00 00252e01  ....$(.......%..
 01f0 3f19030e 3a0b3b0b 390b1101 12064018  ?...:.;.9.....@.
 0200 97421901 13000026 89820100 11013113  .B.....&......1.
 0210 00002734 00030e3a 0b3b0b39 0b49131c  ..'4...:.;.9.I..
 0220 0d000028 89820101 11013113 01130000  ...(......1.....
 0230 298a8201 00021891 42180000 2a898201  ).......B...*...
 0240 00110193 42180000 2b150101 1300002c  ....B...+......,
 0250 18000000 2d2e0103 0e3a0b3b 05390b27  ....-....:.;.9.'
 0260 19110112 06401897 42190113 00002e05  .....@..B.......
 0270 0003083a 0b3b0539 0b491302 1700002f  ...:.;.9.I...../
 0280 0500030e 3a0b3b05 390b4913 02170000  ....:.;.9.I.....
 0290 30898201 01110131 13000031 34000308  0......1...14...
 02a0 3a0b3b05 390b4913 02170000 320b0111  :.;.9.I.....2...
 02b0 01120601 13000033 0b015517 00003434  .......3..U...44
 02c0 00030e3a 0b3b0539 0b491302 17000035  ...:.;.9.I.....5
 02d0 2e01030e 3a0b3b0b 390b2719 11011206  ....:.;.9.'.....
 02e0 40189742 19011300 00360500 03083a0b  @..B.....6....:.
 02f0 3b0b390b 49130217 00003734 00030e3a  ;.9.I.....74...:
 0300 0b3b0b39 0b491302 18000038 05000308  .;.9.I.....8....
 0310 3a0b3b0b 390b4913 02180000 39050003  :.;.9.I.....9...
 0320 0e3a0b3b 0b390b49 13021800 003a1d01  .:.;.9.I.....:..
 0330 31131101 1206580b 590b570b 01130000  1.....X.Y.W.....
 0340 3b050031 13021700 003c1d01 31131101  ;..1.....<..1...
 0350 1206580b 590b570b 00003d05 00030e3a  ..X.Y.W...=....:
 0360 0b3b0b39 0b491302 1700003e 2e01030e  .;.9.I.....>....
 0370 3a0b3b0b 390b2719 49131101 12064018  :.;.9.'.I.....@.
 0380 97421901 1300003f 05003113 1c050000  .B.....?..1.....
 0390 402e0103 0e3a0b3b 0b390b27 19491320  @....:.;.9.'.I. 
 03a0 0b011300 00410500 03083a0b 3b0b390b  .....A....:.;.9.
 03b0 49130000 422e0103 0e3a0b3b 0b390b27  I...B....:.;.9.'
 03c0 19200b01 13000043 0500030e 3a0b3b0b  . .....C....:.;.
 03d0 390b4913 0000442e 01030e3a 0b3b0b39  9.I...D....:.;.9
 03e0 0b271949 13200b00 00000111 00100611  .'.I. ..........
 03f0 01120103 0e1b0e25 0e130500 0000      .......%......  
Contents of section .debug_loc:
 0000 b8030000 eb030000 01005aeb 03000014  ..........Z.....
 0010 04000001 00581404 00002c04 00000400  .....X....,.....
 0020 f3015a9f 00000000 00000000 b8030000  ..Z.............
 0030 eb030000 01005beb 03000018 04000001  ......[.........
 0040 00591804 00002c04 00000400 f3015b9f  .Y....,.......[.
 0050 00000000 00000000 b8030000 eb030000  ................
 0060 01005ceb 0300001c 04000001 00621c04  ..\..........b..
 0070 00002c04 00000400 f3015c9f 00000000  ..,.......\.....
 0080 00000000 b8030000 eb030000 01005deb  ..............].
 0090 03000020 04000001 00632004 00002c04  ... .....c ...,.
 00a0 00000400 f3015d9f 00000000 00000000  ......].........
 00b0 b8030000 eb030000 01005eeb 03000024  ..........^....$
 00c0 04000001 00642404 00002c04 00000400  .....d$...,.....
 00d0 f3015e9f 00000000 00000000 14030000  ..^.............
 00e0 43030000 01005a43 030000ac 03000001  C.....ZC........
 00f0 0062ac03 0000b803 00000400 f3015a9f  .b............Z.
 0100 00000000 00000000 14030000 40030000  ............@...
 0110 01005b40 03000080 03000001 00598003  ..[@.........Y..
 0120 0000b803 00000400 f3015b9f 00000000  ..........[.....
 0130 00000000 14030000 43030000 01005c43  ........C.....\C
 0140 03000080 03000001 00588003 0000b803  .........X......
 0150 00000400 f3015c9f 00000000 00000000  ......\.........
 0160 14030000 43030000 01005d43 030000b0  ....C.....]C....
 0170 03000001 0063b003 0000b803 00000400  .....c..........
 0180 f3015d9f 00000000 00000000 7c030000  ..].........|...
 0190 8c030000 0100588c 03000098 03000003  ......X.........
 01a0 0078019f 98030000 a4030000 01005800  .x............X.
 01b0 00000000 0000007c 03000080 03000002  .......|........
 01c0 00309f80 030000a8 03000001 00590000  .0...........Y..
 01d0 00000000 00008c03 00009c03 00000100  ................
 01e0 5a000000 00000000 00c80200 00e30200  Z...............
 01f0 0001005a e3020000 08030000 01005808  ...Z..........X.
 0200 03000014 03000004 00f3015a 9f000000  ...........Z....
 0210 00000000 00c80200 00e30200 0001005b  ...............[
 0220 e3020000 0c030000 0100590c 03000014  ..........Y.....
 0230 03000004 00f3015b 9f000000 00000000  .......[........
 0240 00ac0200 00bb0200 0001005a bb020000  ...........Z....
 0250 c8020000 0400f301 5a9f0000 00000000  ........Z.......
 0260 00007002 00008b02 00000100 5a8b0200  ..p.........Z...
 0270 00a00200 00010058 a0020000 ac020000  .......X........
 0280 0400f301 5a9f0000 00000000 00007002  ....Z.........p.
 0290 00008b02 00000100 5b8b0200 00a40200  ........[.......
 02a0 00010059 a4020000 ac020000 0400f301  ...Y............
 02b0 5b9f0000 00000000 00002002 00005702  [......... ...W.
 02c0 00000100 5a570200 00680200 00010058  ....ZW...h.....X
 02d0 68020000 70020000 0400f301 5a9f0000  h...p.......Z...
 02e0 00000000 00000802 00001302 00000100  ................
 02f0 5a130200 00200200 000400f3 015a9f00  Z.... .......Z..
 0300 00000000 00000008 02000013 02000001  ................
 0310 005b1302 00002002 00000400 f3015b9f  .[.... .......[.
 0320 00000000 00000000 f0010000 fb010000  ................
 0330 01005afb 01000008 02000004 00f3015a  ..Z............Z
 0340 9f000000 00000000 00f00100 00fb0100  ................
 0350 0001005b fb010000 08020000 0400f301  ...[............
 0360 5b9f0000 00000000 0000ac01 0000cc01  [...............
 0370 00000100 5acc0100 00e80100 00010058  ....Z..........X
 0380 e8010000 f0010000 0400f301 5a9f0000  ............Z...
 0390 00000000 00008401 00008801 00000300  ................
 03a0 7a089f00 00000000 00000084 01000088  z...............
 03b0 01000001 005f0000 00000000 00008c01  ....._..........
 03c0 00009001 00000300 7a209f00 00000000  ........z ......
 03d0 0000008c 01000090 01000001 005f0000  ............._..
 03e0 00000000 00009401 00009801 00000300  ................
 03f0 7a249f00 00000000 00000094 01000098  z$..............
 0400 01000001 005f0000 00000000 00009c01  ....._..........
 0410 0000a001 00000300 7a289f00 00000000  ........z(......
 0420 0000009c 010000a0 01000001 005f0000  ............._..
 0430 00000000 0000a401 0000a801 00000300  ................
 0440 7a2c9f00 00000000 000000a4 010000a8  z,..............
 0450 01000001 005f0000 00000000 00002001  ....._........ .
 0460 00003801 00000100 5a380100 005c0100  ..8.....Z8...\..
 0470 00010058 5c010000 68010000 0400f301  ...X\...h.......
 0480 5a9f0000 00000000 00002001 00003801  Z......... ...8.
 0490 00000100 5b380100 00500100 00010059  ....[8...P.....Y
 04a0 50010000 68010000 0400f301 5b9f0000  P...h.......[...
 04b0 00000000 00005001 00005401 00000100  ......P...T.....
 04c0 58000000 00000000 00500100 00540100  X........P...T..
 04d0 00010059 00000000 00000000 d8000000  ...Y............
 04e0 f0000000 01005af0 00000014 01000001  ......Z.........
 04f0 00581401 00002001 00000400 f3015a9f  .X.... .......Z.
 0500 00000000 00000000 d8000000 f0000000  ................
 0510 01005bf0 00000008 01000001 00590801  ..[..........Y..
 0520 00002001 00000400 f3015b9f 00000000  .. .......[.....
 0530 00000000 08010000 0c010000 01005800  ..............X.
 0540 00000000 00000008 0100000c 01000001  ................
 0550 00590000 00000000 00009000 0000a000  .Y..............
 0560 00000100 5aa00000 00d00000 00010058  ....Z..........X
 0570 d0000000 d8000000 0400f301 5a9f0000  ............Z...
 0580 00000000 0000ac00 0000d000 00000100  ................
 0590 58d00000 00d80000 000400f3 015a9f00  X............Z..
 05a0 00000000 000000c0 000000c4 00000001  ................
 05b0 00580000 00000000 00005000 00006800  .X........P...h.
 05c0 00000100 5a680000 00840000 00010058  ....Zh.........X
 05d0 84000000 90000000 0400f301 5a9f0000  ............Z...
 05e0 00000000 00005000 00006800 00000100  ......P...h.....
 05f0 5b680000 00900000 000400f3 015b9f00  [h...........[..
 0600 00000000 00000078 0000007c 00000001  .......x...|....
 0610 00580000 00000000 00007800 00007c00  .X........x...|.
 0620 00000100 59000000 00000000 00440000  ....Y........D..
 0630 00480000 0001005a 48000000 50000000  .H.....ZH...P...
 0640 0400f301 5a9f0000 00000000 00004400  ....Z.........D.
 0650 00004800 00000300 7a049f00 00000000  ..H.....z.......
 0660 00000034 00000038 00000001 005a3800  ...4...8.....Z8.
 0670 00004400 00000400 f3015a9f 00000000  ..D.......Z.....
 0680 00000000 34000000 38000000 03007a04  ....4...8.....z.
 0690 9f000000 00000000 00000000 00200000  ............. ..
 06a0 0001005a 20000000 34000000 0400f301  ...Z ...4.......
 06b0 5a9f0000 00000000 00000000 00000c00  Z...............
 06c0 00000100 5b0c0000 00340000 000400f3  ....[....4......
 06d0 015b9f00 00000000 00000000 00000018  .[..............
 06e0 00000001 005c1800 00003400 00000500  .....\....4.....
 06f0 7c88807d 9f000000 00000000 000c0000  |..}............
 0700 00180000 0001005c 18000000 1c000000  .......\........
 0710 05007c88 807d9f00 00000000 00000018  ..|..}..........
 0720 0000001c 00000001 005c0000 00000000  .........\......
 0730 00002400 00002800 00000500 7c88807d  ..$...(.....|..}
 0740 9f000000 00000000 00240000 00280000  .........$...(..
 0750 0001005c 00000000 00000000           ...\........    
Contents of section .debug_aranges:
 0000 1c000000 02000000 00000400 00000000  ................
 0010 dc7800f9 d0040000 00000000 00000000  .x..............
 0020 1c000000 02003514 00000400 00000000  ......5.........
 0030 007800f9 58000000 00000000 00000000  .x..X...........
Contents of section .debug_ranges:
 0000 84030000 90030000 94030000 9c030000  ................
 0010 00000000 00000000                    ........        
Contents of section .debug_macro:
 0000 04000200 00000007 f1010000 03000603  ................
 0010 1809031a 10050a65 0e000003 0c070506  .......e........
 0020 f0540000 03081105 16ac2300 00031c12  .T........#.....
 0030 07510900 00040773 09000004 07010a00  .Q.....s........
 0040 0004030d 1307520a 00000403 0e080755  ......R........U
 0050 0b000004 07bf0b00 0004079e 0d000004  ................
 0060 03191403 2c150762 0e000004 032d1603  ....,..b.....-..
 0070 1b02031b 150407ec 0f000004 07fc0f00  ................
 0080 0004032e 01071810 00000403 31170529  ............1..)
 0090 4e860000 032d1803 1b19072e 10000004  N....-..........
 00a0 07e61100 00040530 18550000 0407fc11  .......0.U......
 00b0 000003a4 011a032a 1b07ae12 00000403  .......*........
 00c0 2b0e0508 3a6a0000 030a1c07 06130000  +...:j..........
 00d0 04030b1d 0508024b 0000030a 1e071f13  .......K........
 00e0 00000403 0b1f0502 8b460000 03041c04  .........F......
 00f0 07711300 000407a5 13000004 07d91300  .q..............
 0100 0003100a 07ef1300 00040312 0c050b09  ................
 0110 4f000003 0d1d0403 0e0a07fd 14000004  O...............
 0120 030f0b07 8a150000 03180a07 a0150000  ................
 0130 04031b20 05066278 00000407 e3150000  ... ..bx........
 0140 04071716 00000322 0d072716 00000407  ......."..'.....
 0150 79160000 04031321 052b7820 0000032f  y......!.+x .../
 0160 0a0407fb 17000004 03142205 02c22300  .........."...#.
 0170 00040316 2307341b 00000407 4a1b0000  ....#.4.....J...
 0180 04032d0f 0503a262 00000307 1c040773  ..-....b.......s
 0190 1b000004 032e2407 1c1d0000 03110a07  ......$.........
 01a0 321d0000 04031425 05049a05 00000403  2......%........
 01b0 1826051e 246a0000 0403af01 27050dfe  .&..$j......'...
 01c0 7d000004 04040403 1a05031c 04031b03  }...............
 01d0 07671d00 0004031c 2807e91d 00000407  .g......(.......
 01e0 171e0000 04031d29 0407271e 00000404  .......)..'.....
 01f0 00040000 05008150 00000500 171e0000  .......P........
 0200 05000708 00000500 711f0000 05006559  ........q.....eY
 0210 00000500 263a0000 05006b68 00000500  ....&:....kh....
 0220 db1c0000 0500877a 00000500 3e710000  .......z....>q..
 0230 0500e320 00000500 d35b0000 0500613f  ... .....[....a?
 0240 00000500 61860000 0500f904 00000500  ....a...........
 0250 f03f0000 0500cb60 00000500 567b0000  .?.....`....V{..
 0260 0500b71e 00000500 df050000 05003523  ..............5#
 0270 00000500 41730000 05005c19 00000500  ....As....\.....
 0280 e2780000 05005c6d 00000500 fa4e0000  .x....\m.....N..
 0290 0500bb26 00000500 6f770000 0500b90d  ...&....ow......
 02a0 00000500 0c070000 0500c84a 00000500  ...........J....
 02b0 b1500000 05006b16 00000500 26070000  .P....k.....&...
 02c0 05004c5e 00000500 ef4a0000 0500534b  ..L^.....J....SK
 02d0 00000500 53690000 05008d17 00000500  ....Si..........
 02e0 985f0000 05005618 00000500 1a7d0000  ._....V......}..
 02f0 05008a07 00000500 58080000 05009486  ........X.......
 0300 00000500 44470000 0500ef50 00000500  ....DG.....P....
 0310 313a0000 0500ba79 00000500 7d6d0000  1:.....y....}m..
 0320 05007486 00000500 f57e0000 0500275b  ..t......~....'[
 0330 00000500 d90f0000 05004c13 00000500  ..........L.....
 0340 5f5f0000 0500a668 00000500 d43d0000  __.....h.....=..
 0350 05003415 00000500 125f0000 0500b93f  ..4......_.....?
 0360 00000500 390a0000 0500a43b 00000500  ....9......;....
 0370 f87c0000 05002f1f 00000500 b6250000  .|..../......%..
 0380 0500d040 00000500 986c0000 05007537  ...@.....l....u7
 0390 00000500 ea2b0000 0500ad2a 00000500  .....+.....*....
 03a0 654f0000 0500f65d 00000500 40890000  eO.....]....@...
 03b0 0500cd81 00000500 38560000 05007a25  ........8V....z%
 03c0 00000500 f12f0000 0500615e 00000500  ...../....a^....
 03d0 227e0000 05004503 00000500 4c810000  "~....E.....L...
 03e0 05003b10 00000500 c3510000 0500ed74  ..;......Q.....t
 03f0 00000500 df410000 05005f45 00000500  .....A...._E....
 0400 45830000 05003247 00000500 b3830000  E.....2G........
 0410 0500c87d 00000500 01040000 0500c58b  ...}............
 0420 00000500 8b880000 05003d16 00000500  ..........=.....
 0430 ea060000 05000572 00000500 72310000  .......r....r1..
 0440 05000b76 00000500 58390000 05005a74  ...v....X9....Zt
 0450 00000500 673c0000 05009940 00000500  ....g<.....@....
 0460 d5280000 05005789 00000500 ac3a0000  .(....W......:..
 0470 0500c135 00000500 c5360000 05005157  ...5.....6....QW
 0480 00000500 b47e0000 0500eb4f 00000500  .....~.....O....
 0490 8f830000 05006033 00000500 f0490000  ......`3.....I..
 04a0 0500a50d 00000500 70190000 0500d33c  ........p......<
 04b0 00000500 701c0000 0500bc38 00000500  ....p......8....
 04c0 de310000 05004908 00000500 8f1d0000  .1....I.........
 04d0 0500a46f 00000500 dc370000 0500442c  ...o.....7....D,
 04e0 00000500 645b0000 0500bd3d 00000500  ....d[.....=....
 04f0 e4770000 0500784f 00000500 e2600000  .w....xO.....`..
 0500 05006910 00000500 c5200000 05007578  ..i...... ....ux
 0510 00000500 1d140000 0500f00c 00000500  ................
 0520 5d0f0000 05003511 00000500 c0180000  ].....5.........
 0530 0500a95b 00000500 97110000 05002346  ...[..........#F
 0540 00000500 0e620000 05005150 00000500  .....b....QP....
 0550 ff390000 0500184f 00000500 f23a0000  .9.....O.....:..
 0560 05009c33 00000500 b2440000 05008d3f  ...3.....D.....?
 0570 00000500 b94e0000 0500824c 00000500  .....N.....L....
 0580 ab1a0000 0500e918 00000500 ff1f0000  ................
 0590 0500311b 00000500 2e4f0000 0500647e  ..1......O....d~
 05a0 00000500 fd280000 05009854 00000500  .....(.....T....
 05b0 75070000 05003a21 00000500 c31c0000  u.....:!........
 05c0 0500b188 00000500 206d0000 05007b58  ........ m....{X
 05d0 00000500 d1860000 05003e3f 00000500  ..........>?....
 05e0 03060000 05009473 00000500 88320000  .......s.....2..
 05f0 05007667 00000500 0a590000 05002587  ..vg.....Y....%.
 0600 00000500 e0290000 0500e171 00000500  .....).....q....
 0610 466a0000 05005b55 00000500 8a870000  Fj....[U........
 0620 05000380 00000500 ce680000 0500c322  .........h....."
 0630 00000500 a8190000 05003209 00000500  ..........2.....
 0640 763a0000 0500ec46 00000500 be7c0000  v:.....F.....|..
 0650 0500e681 00000500 ce170000 0500625a  ..............bZ
 0660 00000500 78300000 05002c45 00000500  ....x0....,E....
 0670 6f3d0000 05004f59 00000500 0c0c0000  o=....OY........
 0680 05000654 00000500 72170000 0500330b  ...T....r.....3.
 0690 00000500 d5070000 0500bc57 00000500  ...........W....
 06a0 da0a0000 0500a11f 00000500 b81b0000  ................
 06b0 05000178 00000500 c2440000 05001430  ...x.....D.....0
 06c0 00000500 da7f0000 0500397e 00000500  ..........9~....
 06d0 b46f0000 0500a60c 00000500 69460000  .o..........iF..
 06e0 05009e1e 00000500 81040000 0500585c  ..............X\
 06f0 00000500 52400000 0500a46d 00000500  ....R@.....m....
 0700 fd5b0000 0500a24e 00000500 8c6a0000  .[.....N.....j..
 0710 0500994c 00000500 68750000 05003f57  ...L....hu....?W
 0720 00000500 80150000 0500e100 00000500  ................
 0730 042b0000 05003650 00000500 ee610000  .+....6P.....a..
 0740 05007b79 00000500 1e240000 05009b4f  ..{y.....$.....O
 0750 00000500 696b0000 05006f7a 00000500  ....ik....oz....
 0760 8f5b0000 0500450e 00000500 20830000  .[....E..... ...
 0770 0500f65f 00000500 59520000 0500e440  ..._....YR.....@
 0780 00000500 5d370000 0500b230 00000500  ....]7.....0....
 0790 45140000 0500644e 00000500 935a0000  E.....dN.....Z..
 07a0 0500a969 00000500 3e1e0000 05004a78  ...i....>.....Jx
 07b0 00000500 b2120000 05008514 00000500  ................
 07c0 3b3e0000 05003d05 00000500 250c0000  ;>....=.....%...
 07d0 05008e3a 00000500 ed700000 05002010  ...:.....p.... .
 07e0 00000500 ed070000 0500e708 00000500  ................
 07f0 b8670000 05004f05 00000500 35580000  .g....O.....5X..
 0800 05000317 00000500 3a320000 05002457  ........:2....$W
 0810 00000500 d6540000 05006a27 00000500  .....T....j'....
 0820 d33a0000 0500d406 00000500 96300000  .:...........0..
 0830 0500860f 00000500 25040000 0500245d  ........%.....$]
 0840 00000500 f7310000 05004107 00000500  .....1....A.....
 0850 6c730000 05005a1a 00000500 4a7e0000  ls....Z.....J~..
 0860 05003734 00000500 e0510000 05000815  ..74.....Q......
 0870 00000500 60200000 0500d30d 00000500  ....` ..........
 0880 26200000 0500ff00 00000500 db6c0000  & ...........l..
 0890 0500c66c 00000500 aa350000 0500091c  ...l.....5......
 08a0 00000500 9a010000 0500c716 00000500  ................
 08b0 8a520000 0500653e 00000500 f11c0000  .R....e>........
 08c0 05006101 00000500 e12c0000 05007169  ..a......,....qi
 08d0 00000500 b2430000 05003746 00000500  .....C....7F....
 08e0 7f2f0000 05000e11 00000500 ca390000  ./...........9..
 08f0 05009524 00000500 d0470000 05004277  ...$.....G....Bw
 0900 00000500 ce6f0000 0500b600 00000500  .....o..........
 0910 6f740000 05002219 00000500 1d050000  ot....".........
 0920 05008661 00000500 1a010000 05000b46  ...a...........F
 0930 00000500 d52f0000 0500aa05 00000500  ...../..........
 0940 360f0000 0500fd18 00000500 5f310000  6..........._1..
 0950 00040000 0504327d 00000506 8d780000  ......2}.....x..
 0960 0507801a 00000508 334c0000 0509405c  ........3L....@\
 0970 00000004 00000521 26120000 05282376  .......!&....(#v
 0980 00000683 01327a00 00058401 463d0000  .....2z.....F=..
 0990 06880154 3a000005 8901ae7c 0000068a  ...T:......|....
 09a0 017b8800 00058b01 3f5f0000 069e0106  .{......?_......
 09b0 36000005 9f01654a 000005f7 01a85200  6.....eJ......R.
 09c0 0005fd01 fd470000 05850292 5e000005  .....G......^...
 09d0 8a024b54 00000595 02441a00 00059902  ..KT.....D......
 09e0 325a0000 059f025a 06000005 af028d00  2Z.....Z........
 09f0 000005bf 02427500 0005ca02 34400000  .....Bu.....4@..
 0a00 00040000 050f924a 0000051a 00610000  .......J.....a..
 0a10 0521b373 0000052f e6390000 053de828  .!.s.../.9...=.(
 0a20 00000553 c8460000 056dee16 0000058c  ...S.F...m......
 0a30 01915000 0005a601 d6140000 05bc013f  ..P............?
 0a40 35000005 ce018449 000006f4 01545a00  5......I.....TZ.
 0a50 00000400 00050ad9 7b000005 10764a00  ........{....vJ.
 0a60 00062bfe 55000006 2cb16e00 00062d9f  ..+.U...,.n...-.
 0a70 07000006 2e8e6900 00022f69 6e740006  ......i.../int..
 0a80 309a8700 00063190 05000006 32d50900  0.....1.....2...
 0a90 00053376 3f000005 34743f00 000535d8  ..3v?...4t?...5.
 0aa0 6b000005 36c88300 0005378e 40000005  k...6.....7.@...
 0ab0 38026500 0005391b 3b000005 3a428200  8.e...9.;...:B..
 0ac0 0005434d 37000005 4add8000 00055226  ..CM7...J.....R&
 0ad0 09000005 5d8f4f00 00056827 79000005  ....].O...h'y...
 0ae0 71011100 000578fe 74000005 8101221a  q.....x.t.....".
 0af0 00000588 01017600 00059301 533f0000  ......v.....S?..
 0b00 0597011d 2b000005 a201cb7e 000005ad  ....+......~....
 0b10 01f31000 0005b601 71550000 06b801fe  ........qU......
 0b20 55000006 b901b16e 000006ba 019f0700  U......n........
 0b30 0006bb01 8e690000 02bc0169 6e740006  .....i.....int..
 0b40 bd01d509 000006c2 019a8700 0006c301  ................
 0b50 90050000 00040000 050a600e 00000515  ..........`.....
 0b60 247b0000 0519791b 0000051b e7390000  ${....y......9..
 0b70 0521ca32 00000525 2f6d0000 0527e928  .!.2...%/m...'.(
 0b80 0000052d 21400000 0531ed03 00000533  ...-!@...1.....3
 0b90 c9460000 05394065 0000053d 1a180000  .F...9@e...=....
 0ba0 053fef16 00000544 002d0000 05492a5f  .?.....D.-...I*_
 0bb0 0000054e 90120000 0553b761 00000004  ...N.....S.a....
 0bc0 00000517 92500000 051dd714 00000523  .....P.........#
 0bd0 40350000 05298549 00000535 14510000  @5...).I...5.Q..
 0be0 053f6e4b 00000549 d70c0000 05537b22  .?nK...I.....S{"
 0bf0 00000580 01f18700 00058101 64700000  ............dp..
 0c00 05820154 17000005 9801ec0d 00000599  ...T............
 0c10 01920a00 00059a01 b3810000 05a201c4  ................
 0c20 03000005 a301fc0f 000005a4 01456800  .............Eh.
 0c30 0005ae01 60540000 05af018c 0c000005  ....`T..........
 0c40 b001b447 000005b8 010d4800 0005b901  ...G......H.....
 0c50 45090000 05ba011c 2c000005 c401ec36  E.......,......6
 0c60 000005c5 017c2a00 0005c601 03450000  .....|*......E..
 0c70 05d401f0 2d000005 d501922d 000005d6  ....-......-....
 0c80 01076b00 0005e601 ce700000 05e70101  ..k......p......
 0c90 4c000005 e8012372 000005f6 01551100  L.....#r.....U..
 0ca0 0005f701 700e0000 05f8017b 5d000005  ....p......{]...
 0cb0 86023d4e 00000587 02da2100 00058802  ..=N......!.....
 0cc0 ff4d0000 05960215 36000005 9702a409  .M......6.......
 0cd0 00000598 02a56a00 0005a602 cc120000  ......j.........
 0ce0 05a702ad 87000005 a802e06b 000005b6  ...........k....
 0cf0 02801600 0005b702 657c0000 05b802a5  ........e|......
 0d00 45000005 c602602a 000005c7 029b1b00  E.....`*........
 0d10 0005cf02 03220000 05d70242 06000005  .....".....B....
 0d20 dd025432 000005de 02d42600 0005e202  ..T2......&.....
 0d30 150b0000 05e60212 25000005 eb02561c  ........%.....V.
 0d40 000005f6 02734300 00058003 7d450000  .....sC.....}E..
 0d50 05850320 00000005 8c03503b 0000058d  ... ......P;....
 0d60 03547300 00059803 720d0000 05990375  .Ts.....r......u
 0d70 7b000005 a4039e00 000005a5 03ec3500  {.............5.
 0d80 0005b103 08600000 05b20308 68000005  .....`......h...
 0d90 c103d538 000005c2 03165a00 00000400  ...8......Z.....
 0da0 000525b4 82000005 26f75300 0005272a  ..%.....&.S...'*
 0db0 41000005 28722d00 0005298e 18000005  A...(r-...).....
 0dc0 2a2e0500 00052b75 72000005 2c316400  *.....+ur...,1d.
 0dd0 00052d72 50000005 2e373d00 00052f81  ..-rP....7=.../.
 0de0 2d000005 30f95800 000531cc 80000005  -...0.X...1.....
 0df0 32f27b00 0005330c 33000005 341b2e00  2.{...3.3...4...
 0e00 000535a4 07000005 36793500 0005370b  ..5.....6y5...7.
 0e10 37000005 38065d00 000539d3 82000005  7...8.]...9.....
 0e20 3a372900 00053bf3 2a000005 3cd02c00  :7)...;.*...<.,.
 0e30 00053d43 2e000005 3e435a00 00053f53  ..=C....>CZ...?S
 0e40 5b000005 402f8900 0005410c 05000005  [...@/....A.....
 0e50 42f24400 000543de 50000005 44485200  B.D...C.P...DHR.
 0e60 00000400 0005023a 2b000005 034b0b00  .......:+....K..
 0e70 000504b5 31000005 05128800 000506b2  ....1...........
 0e80 21000005 079b5800 000508e2 56000005  !.....X.....V...
 0e90 09d15a00 00050a95 66000005 0b427a00  ..Z.....f....Bz.
 0ea0 00050cbb 5f000005 0db26000 00050e91  ...._.....`.....
 0eb0 29000005 0fa25e00 0005100f 65000005  ).....^.....e...
 0ec0 118f7b00 000512d9 1e000005 13960e00  ..{.............
 0ed0 0005142c 0e000005 159f5300 000516c5  ...,......S.....
 0ee0 63000005 17857d00 000518d2 24000005  c.....}.....$...
 0ef0 19742b00 00051a3a 5d000005 1b3f7200  .t+....:]....?r.
 0f00 00051ce7 13000005 1d8a0200 00051eac  ................
 0f10 62000005 1f196300 0005202d 61000005  b.....c... -a...
 0f20 21a52800 000522b2 33000005 23d93000  !.(...".3...#.0.
 0f30 0005240e 3e000005 25f76600 000526c1  ..$.>...%.f...&.
 0f40 19000005 27946900 000528d4 3b000005  ....'.i...(.;...
 0f50 29683400 00052a9f 31000005 2b533800  )h4...*.1...+S8.
 0f60 00052c8e 51000005 2db34c00 00052efd  ..,.Q...-.L.....
 0f70 6d000005 2f048300 000530f5 12000005  m.../.....0.....
 0f80 31606100 000532bf 0e000005 33305300  1`a...2.....30S.
 0f90 00053464 6e000005 352c8100 00053610  ..4dn...5,....6.
 0fa0 4a000005 37000000 000538ca 27000005  J...7.....8.'...
 0fb0 39eb7600 00053a82 27000005 3b0f7400  9.v...:.'...;.t.
 0fc0 00053c7d 74000005 3da18b00 00053ed8  ..<}t...=.....>.
 0fd0 0b000005 3feb2700 000540d6 53000005  ....?.'...@.S...
 0fe0 41511f00 00054297 56000000 04000005  AQ....B.V.......
 0ff0 3aef3800 00053fda 22000000 04000005  :.8...?.".......
 1000 1ddc4f00 00051eda 6e000005 1f7a5e00  ..O.....n....z^.
 1010 0005202c 2e000000 04000005 1dad2200  .. ,..........".
 1020 00051e7b 0b000005 1f9b2100 00000400  ...{......!.....
 1030 00051b4d 10000005 1c467f00 00051d59  ...M.....F.....Y
 1040 23000005 1f5f5300 000520b9 56000005  #...._S... .V...
 1050 21ff3f00 00052279 33000005 23712600  !.?..."y3...#q&.
 1060 00052401 12000005 25d45f00 000526af  ..$.....%._...&.
 1070 65000005 27215400 000528fc 78000005  e...'!T...(.x...
 1080 29941000 00052a93 41000005 2b568000  ).....*.A...+V..
 1090 00052ceb 86000005 2d868200 00052eeb  ..,.....-.......
 10a0 6e000005 2f8a3500 00053041 66000005  n.../.5...0Af...
 10b0 31434100 000532dc 10000005 33962a00  1CA...2.....3.*.
 10c0 000534fa 65000005 35527500 00053640  ..4.e...5Ru...6@
 10d0 18000005 37820100 00053810 32000005  ....7.....8.2...
 10e0 39502200 00053a29 03000005 3b627f00  9P"...:)....;b..
 10f0 00053c79 53000005 3d755600 00053ee0  ..<yS...=uV...>.
 1100 02000005 3f9d3800 00054003 7c000005  ....?.8...@.|...
 1110 41085200 0005425a 35000005 432c1a00  A.R...BZ5...C,..
 1120 0005441b 4c000005 45d22300 000546cb  ..D.L...E.#...F.
 1130 45000005 47781800 00054846 43000005  E...Gx....HFC...
 1140 499d8200 00054a7a 0a000005 4b1b2100  I.....Jz....K.!.
 1150 00054ccd 59000005 4d4c6700 00054edf  ..L.Y...MLg...N.
 1160 2b000005 4f246700 0005500f 18000005  +...O$g...P.....
 1170 51b00400 00055226 47000005 53cc3000  Q.....R&G...S.0.
 1180 000554f8 71000005 55c53b00 000557d1  ..T.q...U.;...W.
 1190 05000005 59706d00 00055b47 79000005  ....Ypm...[Gy...
 11a0 5d8c1b00 00055f51 53000005 61837300  ]....._QS...a.s.
 11b0 00056306 6c000005 6b9c1500 00057387  ..c.l...k.....s.
 11c0 3e000005 7ae92e00 00058201 36440000  >...z.......6D..
 11d0 058901f2 01000005 91016b2e 000005dc  ..........k.....
 11e0 01d84c00 00000400 00051e22 17000005  ..L........"....
 11f0 212a6200 00052bdd 32000000 04000005  !*b...+.2.......
 1200 33012100 00053448 7d000005 356e8700  3.!...4H}...5n..
 1210 0005362f 67000005 37fc6900 00053a14  ..6/g...7.i...:.
 1220 2d000005 3b471b00 00053c36 27000005  -...;G....<6'...
 1230 3db64b00 00053ef5 29000005 40378300  =.K...>.)...@7..
 1240 000541a8 7b000005 42482900 0005433a  ..A.{...BH)...C:
 1250 88000005 46223b00 0005479d 37000005  ....F";...G.7...
 1260 489a4200 000549c3 52000005 4a710800  H.B...I.R...Jq..
 1270 00055107 49000005 52bc4000 000553e0  ..Q.I...R.@...S.
 1280 4b000005 544c3c00 00055722 38000005  K...TL<...W"8...
 1290 58b52f00 00055914 61000005 5a177a00  X./...Y.a...Z.z.
 12a0 00055de4 11000005 5eff7900 00000400  ..].....^.y.....
 12b0 00051fd1 3f000005 20f76700 000622ed  ....?... .g...".
 12c0 80000005 273b5400 00052f31 25000005  ....';T.../1%...
 12d0 309c7600 00053173 6f000005 34d66500  0.v...1so...4.e.
 12e0 000536d4 65000005 69708800 00056c41  ..6.e...ip....lA
 12f0 54000005 6fdf2f00 000572a4 12000005  T...o./...r.....
 1300 759e8300 00000400 0005c301 03630000  u............c..
 1310 05d10344 51000005 d4032e30 00000004  ...DQ......0....
 1320 00000508 dd360000 0512204b 00000515  .....6.... K....
 1330 02870000 05187452 0000051b db440000  ......tR.....D..
 1340 0528301e 00000532 55160000 05396722  .(0....2U....9g"
 1350 0000053c 15560000 0542d04e 00000545  ...<.V...B.N...E
 1360 5f560000 0548801d 0000054b 5b770000  _V...H.....K[w..
 1370 00040000 05533974 000005e0 01c80900  .....S9t........
 1380 0006e601 6b3a0000 05ea01a0 14000005  ....k:..........
 1390 fa012c51 000005fe 01fe5100 00058b02  ..,Q......Q.....
 13a0 3f190000 00040000 051fae01 00000520  ?.............. 
 13b0 b02b0000 05217c0f 00000525 77030000  .+...!|....%w...
 13c0 052b5171 00000545 12580000 05494b15  .+Qq...E.X...IK.
 13d0 0000054a cb6a0000 00040000 050d2b2b  ...J.j........++
 13e0 0000050e 95450000 050f2a3d 00000004  .....E....*=....
 13f0 000005bb 01741500 0005bc01 ce0a0000  .....t..........
 1400 05bd0126 89000005 be01956f 000005bf  ...&.......o....
 1410 01e83a00 0005c001 8f5f0000 05c10135  ..:......_.....5
 1420 35000005 c201f864 000005c3 01f46400  5......d......d.
 1430 0005c401 1d1f0000 05c50148 23000005  ...........H#...
 1440 c601191f 000005c7 012e1800 0005c801  ................
 1450 536e0000 05c90122 89000005 ca01316a  Sn....."......1j
 1460 000005d2 01c20c00 0006ee01 4c040000  ............L...
 1470 058b021f 45000005 8c02e074 0000058d  ....E......t....
 1480 021d5b00 00058e02 8f420000 058f027a  ..[......B.....z
 1490 12000005 90028046 00000591 02bc1600  .......F........
 14a0 00059202 b8160000 05930227 32000005  ...........'2...
 14b0 9402533e 00000595 02696600 00059602  ..S>.....if.....
 14c0 080d0000 05970264 66000005 9802195b  .......df......[
 14d0 00000599 02e74e00 0006a602 677b0000  ......N.....g{..
 14e0 06db02fd 0b000006 91034c45 00000596  ..........LE....
 14f0 03ff0200 00069c03 45450000 00040000  ........EE......
 1500 0527154b 00000528 b1240000 052a104b  .'.K...(.$...*.K
 1510 00000589 014f5500 00058a01 c42a0000  .....OU......*..
 1520 058b0106 50000005 8c016c0c 0000058d  ....P.....l.....
 1530 01a94b00 00058e01 a54b0000 058f01dc  ..K......K......
 1540 3f000005 90014b55 00000591 011f5200  ?.....KU......R.
 1550 0006a101 aa410000 06ee014c 04000006  .....A.....L....
 1560 db02fd0b 00000691 034c4500 00059603  .........LE.....
 1570 ff020000 069c0345 45000005 a103853d  .......EE......=
 1580 000005a6 03ea6900 00000400 00051417  ......i.........
 1590 3a000005 162b2b00 00051765 81000000  :....++....e....
 15a0 04000006 a101aa41 000006ee 014c0400  .......A.....L..
 15b0 0006db02 fd0b0000 05e00234 26000006  ...........4&...
 15c0 e7026a21 00000691 034c4500 00059603  ..j!.....LE.....
 15d0 ff020000 069c0345 45000005 a103853d  .......EE......=
 15e0 00000004 0000067f 7f540000 0592011c  .........T......
 15f0 37000006 9401b16e 000005b3 01891900  7......n........
 1600 0005bb01 da2a0000 05c00111 66000005  .....*......f...
 1610 c5019a3c 00000004 00000511 e4730000  ...<.........s..
 1620 0515958b 00000004 00000502 ea880000  ................
 1630 050e8055 0000050f 0b770000 05102268  ...U.....w...."h
 1640 00000511 5a040000 05124c26 00000513  ....Z.....L&....
 1650 cc640000 0514b614 00000515 663b0000  .d..........f;..
 1660 05162449 00000517 fe800000 0518367b  ..$I..........6{
 1670 00000519 7c680000 00040000 054db517  ....|h.......M..
 1680 00000569 f2330000 056ffa88 000005b7  ...i.3...o......
 1690 01644100 0005bd02 e5470000 05be02a1  .dA......G......
 16a0 3f000005 bf02d288 000005c0 02a57800  ?.............x.
 16b0 0005c102 3b690000 05c202dd 55000005  ....;i......U...
 16c0 c3027182 000005cf 02942200 0005d002  ..q.......".....
 16d0 da870000 05d1029a 04000005 a0058412  ................
 16e0 000005bc 05536500 0005bf05 6d890000  .....Se.....m...
 16f0 05ef0524 84000005 fd050a7b 000005fe  ...$.......{....
 1700 05c30f00 0005ff05 2b660000 058006ec  ........+f......
 1710 45000005 81064c6b 00000582 06015b00  E.....Lk......[.
 1720 00058306 0c410000 058506b8 2d000005  .....A......-...
 1730 86060716 00000587 06141300 00058806  ................
 1740 82080000 05890620 1c000005 8a069e63  ....... .......c
 1750 0000058b 06620000 00058c06 96610000  .....b.......a..
 1760 058d0691 0b000005 8e064560 0000058f  ..........E`....
 1770 066a6300 00059006 7b280000 05910692  .jc.....{(......
 1780 80000005 92063e36 00000593 06464c00  ......>6.....FL.
 1790 00059406 bb5e0000 05950648 49000005  .....^.....HI...
 17a0 9606f625 00000597 06884800 00059806  ...%......H.....
 17b0 bb040000 0599060a 5e000005 9a06314a  ........^.....1J
 17c0 0000059b 06067100 00059c06 827f0000  ......q.........
 17d0 05a0061a 0d000005 a806c471 000005b0  ...........q....
 17e0 06234e00 0005c006 81100000 05c306c3  .#N.............
 17f0 73000005 c906bc01 00000004 00000531  s..............1
 1800 15200000 0532175d 00000533 db490000  . ...2.]...3.I..
 1810 0536c41a 00000539 fa1b0000 053ad97e  .6.....9.....:.~
 1820 0000053c 5d430000 053d8581 0000053e  ...<]C...=.....>
 1830 f61e0000 053fec73 00000542 cc0c0000  .....?.s...B....
 1840 0543c588 00000544 9d460000 054e9f0f  .C.....D.F...N..
 1850 00000551 38550000 0557c76e 0000055e  ...Q8U...W.n...^
 1860 c43c0000 055f266e 0000056b d3770000  .<..._&n...k.w..
 1870 056cdc79 00000570 ad510000 0571da72  .l.y...p.Q...q.r
 1880 00000572 60030000 0575d466 00000578  ...r`....u.f...x
 1890 d65d0000 057f5482 00000580 01bc0b00  .]....T.........
 18a0 00058101 c5780000 058501a9 46000005  .....x......F...
 18b0 8c011d80 00000590 01e92300 00059101  ..........#.....
 18c0 df1f0000 05940123 7c000005 97014a01  .......#|.....J.
 18d0 00000598 01332a00 00059901 e56f0000  .....3*......o..
 18e0 059b019b 7e000005 9c019b7a 0000059e  ....~......z....
 18f0 014e6300 0005a001 9d180000 05b10119  .Nc.............
 1900 0e000005 b2018f0d 000005b3 01728300  .............r..
 1910 0005b401 90530000 05b5012d 7f000005  .....S.....-....
 1920 b701f96a 000005b8 01f55500 0005b901  ...j......U.....
 1930 34520000 05e601a2 27000005 f3017759  4R......'.....wY
 1940 000005f4 015f7600 0005f501 38480000  ....._v.....8H..
 1950 05f6011d 28000005 f701ac86 000005f8  ....(...........
 1960 01846e00 0005f901 70380000 05fc01a3  ..n.....p8......
 1970 5d000005 fd016b09 00000583 024b1d00  ].....k......K..
 1980 0005dc02 3e280000 05ee0281 3c000005  ....>(......<...
 1990 f4023800 000005f5 02113100 0005fc02  ..8.......1.....
 19a0 578b0000 058203fb 26000005 8803f909  W.......&.......
 19b0 00000589 035d4800 00059003 80700000  .....]H......p..
 19c0 05910307 75000005 9803412b 0000059e  ....u.....A+....
 19d0 03ba7600 0005b203 903b0000 05d30321  ..v......;.....!
 19e0 22000005 d4030053 000005db 03fc3c00  "......S......<.
 19f0 0005dc03 aa290000 05df037f 60000005  .....)......`...
 1a00 e9033231 000005ea 03847200 0005f403  ..21......r.....
 1a10 40640000 058a0405 70000005 8c045f57  @d......p....._W
 1a20 0000058e 04872000 00058f04 80750000  ...... ......u..
 1a30 0591045a 2c000005 9b04c958 000005a0  ...Z,......X....
 1a40 04710600 0005a504 de0e0000 05a804cf  .q..............
 1a50 42000005 ac04d619 000005ae 04b31d00  B...............
 1a60 0005d104 82760000 05d50443 6d000005  .....v.....Cm...
 1a70 d9042206 000005dd 04675100 0005e104  .."......gQ.....
 1a80 2f6b0000 05e5046f 23000005 e9049d74  /k.....o#......t
 1a90 000005ed 04dc8300 0005f404 da110000  ................
 1aa0 05f50419 08000005 f604bd2c 000005f7  ...........,....
 1ab0 04053f00 0005f804 e6520000 058d0502  ..?......R......
 1ac0 64000005 8e05336e 000005a0 05337900  d.....3n.....3y.
 1ad0 0005a605 897c0000 05a9057c 13000005  .....|.....|....
 1ae0 ab058c77 000005af 05614700 0005b105  ...w.....aG.....
 1af0 78360000 05b505ca 48000005 b805e834  x6......H......4
 1b00 000005ba 05c37a00 0005be05 ea680000  ......z......h..
 1b10 05c00579 71000005 c205063c 000005c6  ...yq......<....
 1b20 05851c00 0005c905 446f0000 05ca050f  ........Do......
 1b30 6f000000 04000005 08588300 00060d6b  o........X.....k
 1b40 50000005 10bb4100 00000400 00053833  P.....A.......83
 1b50 01000005 3c507600 00053d9c 1a000005  ....<Pv...=.....
 1b60 3f623a00 000543a7 4a000005 a8016c79  ?b:...C.J.....ly
 1b70 00000004 0000050d e04d0000 0513b507  .........M......
 1b80 00000517 8d650000 051b502d 0000051f  .....e....P-....
 1b90 5f140000 05234733 00000591 01da7d00  _....#G3......}.
 1ba0 00059201 e65b0000 06a80109 0e000005  .....[..........
 1bb0 ab018e11 000005ac 01178700 0005ad01  ................
 1bc0 b1260000 05ae0130 19000005 af01ed6a  .&.....0.......j
 1bd0 000005b2 01317800 0005b501 382d0000  .....1x.....8-..
 1be0 05b90101 3e000005 bc012315 000005bf  ....>.....#.....
 1bf0 01fd1a00 0005d301 84340000 05d701af  .........4......
 1c00 6b000005 da01d043 000005dd 01bc2b00  k......C......+.
 1c10 0005df01 ed590000 05f401f1 41000005  .....Y......A...
 1c20 84029003 00000585 02037300 00058602  ..........s.....
 1c30 5e6a0000 0587025d 24000005 88029f49  ^j.....]$......I
 1c40 00000589 02131d00 0005cd02 831e0000  ................
 1c50 05b4049a 26000005 b8048d43 000005bf  ....&......C....
 1c60 04187800 0005c104 0a570000 05c20483  ..x......W......
 1c70 1f000005 c304b111 000005c4 040b5500  ..............U.
 1c80 0005c504 57250000 05c60437 4b000005  ....W%.....7K...
 1c90 c7043f7c 000005c8 04874b00 0005c904  ..?|......K.....
 1ca0 aa0a0000 05ca0457 07000005 cb04cc61  .......W.......a
 1cb0 000005cc 04ad5500 0005cd04 410c0000  ......U.....A...
 1cc0 05d30412 50000005 d404e362 000005d5  ....P......b....
 1cd0 04c40800 0005d604 56300000 05d704bb  ........V0......
 1ce0 10000005 d8045b0a 000005d9 04e17500  ......[.......u.
 1cf0 0005da04 88540000 05db042c 37000005  .....T.....,7...
 1d00 e5040e44 000005e6 04e93b00 0005ea04  ...D......;.....
 1d10 bd240000 05eb0407 24000000 04000005  .$......$.......
 1d20 08036f00 00050f2b 2b000005 102a3d00  ..o....++....*=.
 1d30 00000400 0006a101 aa410000 06ee014c  .........A.....L
 1d40 04000006 db02fd0b 00000691 034c4500  .............LE.
 1d50 00059603 ff020000 069c0345 45000005  ...........EE...
 1d60 a103853d 00000004 0000051d fe060000  ...=............
 1d70 051ec382 0000051f c91e0000 0520f07f  ............. ..
 1d80 00000521 0d7e0000 05222c3f 00000523  ...!.~...",?...#
 1d90 f2720000 0524197f 00000525 57790000  .r...$.....%Wy..
 1da0 0526e36d 00000527 e2250000 0528542e  .&.m...'.%...(T.
 1db0 00000529 011e0000 052afa73 0000052b  ...).....*.s...+
 1dc0 191b0000 052c2060 0000052d 1d330000  ....., `...-.3..
 1dd0 052e7821 0000052f 93250000 0530583d  ..x!.../.%...0X=
 1de0 00000531 f1140000 00040000 051df757  ...1...........W
 1df0 0000051e 82410000 051f2865 00000520  .....A....(e... 
 1e00 e4820000 05217566 00000522 22820000  .....!uf...""...
 1e10 05235767 00000004 0000051f 99810000  .#Wg............
 1e20 0520c000 00000004 0000051f 10030000  . ..............
 1e30 0520d12a 00000522 a9700000 0523fe37  . .*...".p...#.7
 1e40 00000524 da090000 05256d80 00000526  ...$.....%m....&
 1e50 6a390000 0527b753 000000             j9...'.S...     
Contents of section .debug_line:
 0000 460a0000 0300a703 00000101 fb0e0d00  F...............
 0010 01010101 00000001 0000012e 2e2f6472  ............./dr
 0020 69766572 002e2e2f 2e2e2f2e 2e2f6273  iver.../../../bs
 0030 702f6566 696e6978 2f456678 53617070  p/efinix/EfxSapp
 0040 68697265 536f632f 61707000 73726300  hireSoc/app.src.
 0050 633a5c65 66696e69 74795c65 66696e69  c:\efinity\efini
 0060 74792d72 69736376 2d696465 2d323032  ty-riscv-ide-202
 0070 332e312e 335c746f 6f6c6368 61696e5c  3.1.3\toolchain\
 0080 72697363 762d6e6f 6e652d65 6d626564  riscv-none-embed
 0090 5c696e63 6c756465 5c6d6163 68696e65  \include\machine
 00a0 00633a5c 6566696e 6974795c 6566696e  .c:\efinity\efin
 00b0 6974792d 72697363 762d6964 652d3230  ity-riscv-ide-20
 00c0 32332e31 2e335c74 6f6f6c63 6861696e  23.1.3\toolchain
 00d0 5c726973 63762d6e 6f6e652d 656d6265  \riscv-none-embe
 00e0 645c696e 636c7564 655c7379 7300633a  d\include\sys.c:
 00f0 5c656669 6e697479 5c656669 6e697479  \efinity\efinity
 0100 2d726973 63762d69 64652d32 3032332e  -riscv-ide-2023.
 0110 312e335c 746f6f6c 63686169 6e5c6c69  1.3\toolchain\li
 0120 625c6763 635c7269 7363762d 6e6f6e65  b\gcc\riscv-none
 0130 2d656d62 65645c38 2e332e30 5c696e63  -embed\8.3.0\inc
 0140 6c756465 00633a5c 6566696e 6974795c  lude.c:\efinity\
 0150 6566696e 6974792d 72697363 762d6964  efinity-riscv-id
 0160 652d3230 32332e31 2e335c74 6f6f6c63  e-2023.1.3\toolc
 0170 6861696e 5c726973 63762d6e 6f6e652d  hain\riscv-none-
 0180 656d6265 645c696e 636c7564 65002e2e  embed\include...
 0190 2f2e2e2f 2e2e2f62 73702f65 66696e69  /../../bsp/efini
 01a0 782f4566 78536170 70686972 65536f63  x/EfxSapphireSoc
 01b0 2f696e63 6c756465 0000636c 696e742e  /include..clint.
 01c0 68000100 00696f2e 68000100 00737069  h....io.h....spi
 01d0 2e680001 00007370 69466c61 73682e68  .h....spiFlash.h
 01e0 00010000 626f6f74 6c6f6164 6572436f  ....bootloaderCo
 01f0 6e666967 2e680002 00006d61 696e2e63  nfig.h....main.c
 0200 00030000 5f646566 61756c74 5f747970  ...._default_typ
 0210 65732e68 00040000 5f737464 696e742e  es.h...._stdint.
 0220 68000500 00747970 652e6800 01000073  h....type.h....s
 0230 74646465 662e6800 0600005f 74797065  tddef.h...._type
 0240 732e6800 05000072 65656e74 2e680005  s.h....reent.h..
 0250 00006c6f 636b2e68 00050000 7374646c  ..lock.h....stdl
 0260 69622e68 00070000 6d617468 2e680007  ib.h....math.h..
 0270 00007374 64696e74 2e680007 00006665  ..stdint.h....fe
 0280 61747572 65732e68 00050000 5f6e6577  atures.h...._new
 0290 6c69625f 76657273 696f6e2e 68000700  lib_version.h...
 02a0 005f696e 74737570 2e680005 00006273  ._intsup.h....bs
 02b0 702e6800 08000073 6f632e68 00080000  p.h....soc.h....
 02c0 75617274 2e680001 00007365 6d69686f  uart.h....semiho
 02d0 7374696e 672e6800 02000076 65787269  sting.h....vexri
 02e0 7363762e 68000100 00726973 63762e68  scv.h....riscv.h
 02f0 00010000 7072696e 742e6800 02000073  ....print.h....s
 0300 74646172 672e6800 06000069 65656566  tdarg.h....ieeef
 0310 702e6800 0400005f 616e7369 2e680007  p.h...._ansi.h..
 0320 00006e65 776c6962 2e680007 0000636f  ..newlib.h....co
 0330 6e666967 2e680005 00005f74 79706573  nfig.h...._types
 0340 2e680004 00006364 6566732e 68000500  .h....cdefs.h...
 0350 00737464 6c69622e 68000400 00616c6c  .stdlib.h....all
 0360 6f63612e 68000700 00737472 696e672e  oca.h....string.
 0370 68000700 005f6c6f 63616c65 2e680005  h...._locale.h..
 0380 00007374 72696e67 732e6800 07000073  ..strings.h....s
 0390 7472696e 672e6800 05000067 70696f2e  tring.h....gpio.
 03a0 68000100 00737461 72742e68 00010000  h....start.h....
 03b0 00053800 0502dc78 00f90336 01050903  ..8....x...6....
 03c0 01090000 01050d06 03000900 00010509  ................
 03d0 06030109 0c000105 05036809 00000104  ..........h.....
 03e0 02050903 7e090c00 01051006 03000900  ....~...........
 03f0 00010401 0531031a 09040001 050d0300  .....1..........
 0400 09040001 05090603 01090400 01053d00  ..............=.
 0410 02040103 00090000 01050500 02040103  ................
 0420 67090000 01040205 09000204 01037e09  g.............~.
 0430 00000105 10000204 01060300 09000001  ................
 0440 0401051e 00020401 031b0904 0001050e  ................
 0450 00020401 03000904 00010505 03010904  ................
 0460 00010403 052c0603 03090400 01050903  .....,..........
 0470 01090000 01040203 60090000 01051006  ........`.......
 0480 03000900 00010403 05050321 09040001  ...........!....
 0490 05290603 01090c00 01050903 01090000  .)..............
 04a0 01040203 5d090000 01051006 03000900  ....]...........
 04b0 00010403 05050324 09040001 052c0603  .......$.....,..
 04c0 02090800 01050903 01091800 01052d00  ..............-.
 04d0 02040103 00090000 01050f00 02040106  ................
 04e0 03000900 0001050e 00020401 03000908  ................
 04f0 00010509 06030109 04000105 18060300  ................
 0500 09000001 04020509 06035c09 04000105  ..........\.....
 0510 24060300 09000001 04030505 03250904  $............%..
 0520 00010520 06030209 14000105 09030109  ... ............
 0530 10000105 2d000204 01030009 00000105  ....-...........
 0540 0f000204 01060300 09000001 050e0002  ................
 0550 04010300 09080001 05090603 01090400  ................
 0560 01040203 57090000 01052406 03000900  ....W.....$.....
 0570 00010403 052a0002 04010603 2a090800  .....*......*...
 0580 01050f00 02040106 03000900 0001050e  ................
 0590 00020401 03000908 00010509 06030109  ................
 05a0 04000104 02035109 00000105 10060300  ......Q.........
 05b0 09000001 04030505 03300904 00010531  .........0.....1
 05c0 06031c09 14000105 09030109 18000105  ................
 05d0 2d000204 01030009 00000105 0f000204  -...............
 05e0 01060300 09000001 050e0002 04010300  ................
 05f0 09080001 05090603 01090400 01040203  ................
 0600 b67f090c 00010524 06030009 00000104  .......$........
 0610 03050503 cb000904 00010533 06030209  ...........3....
 0620 14000105 09030109 18000105 2d000204  ............-...
 0630 01030009 00000105 0f000204 01060300  ................
 0640 09000001 050e0002 04010300 09080001  ................
 0650 05090603 01090400 01040203 b17f090c  ................
 0660 00010524 06030009 00000104 03050503  ...$............
 0670 d0000904 0001053d 06030209 14000105  .......=........
 0680 09030109 00000105 21060300 09000001  ........!.......
 0690 05300300 09040001 05370300 09040001  .0.......7......
 06a0 05270300 09040001 05460300 09040001  .'.......F......
 06b0 054d0300 09040001 05090300 09040001  .M..............
 06c0 04020603 ad7f0904 00010524 06030009  ...........$....
 06d0 00000104 03050906 03d40009 04000104  ................
 06e0 0203ac7f 09040001 05240603 00090000  .........$......
 06f0 01040305 090603d5 00090400 01040203  ................
 0700 ab7f0904 00010524 06030009 00000104  .......$........
 0710 03050906 03d60009 04000104 0203aa7f  ................
 0720 09040001 05240603 00090000 01040305  .....$..........
 0730 090603d7 00090400 01040203 a97f0904  ................
 0740 00010524 06030009 00000104 03050503  ...$............
 0750 d8000904 0001052a 06030709 04000105  .......*........
 0760 06030109 10000105 13030009 14000105  ................
 0770 06030109 00000105 2c000204 01030009  ........,.......
 0780 00000105 0c000204 01060300 09000001  ................
 0790 050b0002 04010300 09080001 05050301  ................
 07a0 09080001 04040531 0603b97f 09100001  .......1........
 07b0 05090301 09080001 05050603 01090400  ................
 07c0 01053306 0308090c 00010509 03010908  ..3.............
 07d0 00010505 06030109 04000105 28060307  ............(...
 07e0 090c0001 05090301 09100001 03010900  ................
 07f0 00010515 06030009 00000105 09060301  ................
 0800 09040001 05150603 00090000 01050906  ................
 0810 03010904 00010515 06030009 00000105  ................
 0820 09060301 09040001 051b0603 00090000  ................
 0830 01050906 03010908 00010518 06030009  ................
 0840 00000105 09060301 09040001 05170603  ................
 0850 00090000 01050906 03010904 0001051a  ................
 0860 06030009 00000105 09060301 09040001  ................
 0870 03010908 00010505 06030109 08000105  ................
 0880 2f060329 09100001 05090301 09180001  /..)............
 0890 03010904 00010505 06030109 0c000105  ................
 08a0 2806030b 09140001 05090301 09080001  (...............
 08b0 05050603 06090800 01052f06 0316090c  ........../.....
 08c0 00010509 03010918 00010301 09040001  ................
 08d0 03010908 00010301 090c0001 05050603  ................
 08e0 01090800 01055606 03d20009 14000105  ......V.........
 08f0 09030109 28000103 01090800 01052506  ....(.........%.
 0900 03000900 00010509 03000904 00010603  ................
 0910 01090c00 01052506 03000900 00010509  ......%.........
 0920 03000904 00010603 01090c00 01030109  ................
 0930 0c000103 01090c00 01030109 00000105  ................
 0940 0d030009 00000105 11060300 09000001  ................
 0950 05090002 04010300 09040001 050d0002  ................
 0960 04030603 01090400 01051800 02040306  ................
 0970 03000900 0001050d 00020403 06030109  ................
 0980 08000105 14000204 03060300 09000001  ................
 0990 05270002 0403037e 09040001 05110002  .'.....~........
 09a0 04030302 09040001 05050302 09080001  ................
 09b0 055d0603 f500091c 00010509 03010930  .].............0
 09c0 00010301 09040001 03010914 00010505  ................
 09d0 06030109 0c000104 05051006 039e7d09  ..............}.
 09e0 20000105 02030209 0c000103 01090c00   ...............
 09f0 01030109 0c000103 01091c00 01030309  ................
 0a00 18000103 01091c00 01030409 00000105  ................
 0a10 01060301 09080001 0406050d 06036509  ..............e.
 0a20 10000105 05030109 08000105 0f030009  ................
 0a30 00000105 05030109 00000105 01060301  ................
 0a40 09040001 090c0000 0101b600 00000300  ................
 0a50 28000000 0101fb0e 0d000101 01010000  (...............
 0a60 00010000 012e2e2f 636f6d6d 6f6e0000  ......./common..
 0a70 73746172 742e5300 01000000 00050200  start.S.........
 0a80 7800f903 0901032a 09080001 03030904  x......*........
 0a90 00010301 09040001 03010904 00010301  ................
 0aa0 09040001 03020904 00010301 09040001  ................
 0ab0 03010904 00010301 09040001 03010904  ................
 0ac0 00010304 09040001 03010904 00010301  ................
 0ad0 09040001 03020904 00010301 09040001  ................
 0ae0 03010904 00010304 09040001 03030904  ................
 0af0 00010302 09040001 03050904 00010904  ................
 0b00 00000101                             ....            
Contents of section .debug_str:
 0000 53595354 454d5f53 50495f30 5f494f5f  SYSTEM_SPI_0_IO_
 0010 4354524c 20307866 38303134 30303000  CTRL 0xf8014000.
 0020 57494e54 5f4d494e 20285f5f 57494e54  WINT_MIN (__WINT
 0030 5f4d494e 5f5f2900 5f5f6d61 6c6c6f63  _MIN__).__malloc
 0040 5f6c696b 65205f5f 61747472 69627574  _like __attribut
 0050 655f5f28 285f5f6d 616c6c6f 635f5f29  e__((__malloc__)
 0060 29005f52 45454e54 5f4d505f 52455355  )._REENT_MP_RESU
 0070 4c545f4b 28707472 29202828 70747229  LT_K(ptr) ((ptr)
 0080 2d3e5f72 6573756c 745f6b29 005f5f53  ->_result_k).__S
 0090 5649445f 56495349 424c4520 3100494e  VID_VISIBLE 1.IN
 00a0 5433325f 43287829 205f5f49 4e543332  T32_C(x) __INT32
 00b0 5f432878 29005f5f 72697363 76203100  _C(x).__riscv 1.
 00c0 4d583235 5f575249 54455f45 4e41424c  MX25_WRITE_ENABL
 00d0 455f4c41 5443485f 42495420 30783032  E_LATCH_BIT 0x02
 00e0 005f5f46 4c543132 385f4d49 4e5f3130  .__FLT128_MIN_10
 00f0 5f455850 5f5f2028 2d343933 3129005f  _EXP__ (-4931)._
 0100 5f444543 3132385f 45505349 4c4f4e5f  _DEC128_EPSILON_
 0110 5f203145 2d333344 4c005f5f 72697363  _ 1E-33DL.__risc
 0120 765f666c 6f61745f 6162695f 736f6674  v_float_abi_soft
 0130 2031005f 5f636f6d 7061725f 666e5f74   1.__compar_fn_t
 0140 5f646566 696e6564 20005f5f 43435f53  _defined .__CC_S
 0150 5550504f 5254535f 494e4c49 4e452031  UPPORTS_INLINE 1
 0160 005f5f47 43435f41 544f4d49 435f5743  .__GCC_ATOMIC_WC
 0170 4841525f 545f4c4f 434b5f46 52454520  HAR_T_LOCK_FREE 
 0180 31004d53 54415455 535f4d50 52562030  1.MSTATUS_MPRV 0
 0190 78303030 32303030 30005f5f 43484152  x00020000.__CHAR
 01a0 5f554e53 49474e45 445f5f20 31005f42  _UNSIGNED__ 1._B
 01b0 4547494e 5f535444 5f432000 5f474c4f  EGIN_STD_C ._GLO
 01c0 42414c5f 41544558 49542028 5f474c4f  BAL_ATEXIT (_GLO
 01d0 42414c5f 5245454e 542d3e5f 61746578  BAL_REENT->_atex
 01e0 69742900 73706946 6c617368 5f77616b  it).spiFlash_wak
 01f0 65006373 725f7265 61645f63 6c656172  e.csr_read_clear
 0200 28637372 2c76616c 2920287b 20756e73  (csr,val) ({ uns
 0210 69676e65 64206c6f 6e67205f 5f76203d  igned long __v =
 0220 2028756e 7369676e 6564206c 6f6e6729   (unsigned long)
 0230 2876616c 293b205f 5f61736d 5f5f205f  (val); __asm__ _
 0240 5f766f6c 6174696c 655f5f20 28226373  _volatile__ ("cs
 0250 72726320 25302c20 22202363 73722022  rrc %0, " #csr "
 0260 2c202531 22203a20 223d7222 20285f5f  , %1" : "=r" (__
 0270 7629203a 2022724b 2220285f 5f762929  v) : "rK" (__v))
 0280 3b205f5f 763b207d 29005359 5354454d  ; __v; }).SYSTEM
 0290 5f554152 545f305f 494f5f50 4152414d  _UART_0_IO_PARAM
 02a0 45544552 5f554152 545f4354 524c5f43  ETER_UART_CTRL_C
 02b0 4f4e4649 475f5258 5f53414d 504c455f  ONFIG_RX_SAMPLE_
 02c0 5045525f 42495420 38007370 69466c61  PER_BIT 8.spiFla
 02d0 73685f66 326d5f00 5f5f7661 6c756500  sh_f2m_.__value.
 02e0 4d535441 5455535f 55584c20 30783030  MSTATUS_UXL 0x00
 02f0 30303030 30333030 30303030 3030004e  00000300000000.N
 0300 554c4c20 2828766f 6964202a 29302900  ULL ((void *)0).
 0310 53504920 53595354 454d5f53 50495f30  SPI SYSTEM_SPI_0
 0320 5f494f5f 4354524c 004d5354 41545553  _IO_CTRL.MSTATUS
 0330 5f54564d 20307830 30313030 30303000  _TVM 0x00100000.
 0340 5f5f7366 005f5f50 54524449 46465f4d  __sf.__PTRDIFF_M
 0350 41585f5f 20307837 66666666 66666600  AX__ 0x7fffffff.
 0360 5f5f474e 55434c49 4b455f5f 5f534543  __GNUCLIKE___SEC
 0370 54494f4e 2031005f 4c4f4e47 5f444f55  TION 1._LONG_DOU
 0380 424c4520 6c6f6e67 20646f75 626c6500  BLE long double.
 0390 69736772 65617465 72285f5f 782c5f5f  isgreater(__x,__
 03a0 79292028 5f5f6275 696c7469 6e5f6973  y) (__builtin_is
 03b0 67726561 74657220 285f5f78 2c205f5f  greater (__x, __
 03c0 79292900 494e545f 4c454153 54385f4d  y)).INT_LEAST8_M
 03d0 494e2028 2d5f5f49 4e545f4c 45415354  IN (-__INT_LEAST
 03e0 385f4d41 585f5f20 2d203129 005f5549  8_MAX__ - 1)._UI
 03f0 4e543332 5f545f44 45434c41 52454420  NT32_T_DECLARED 
 0400 005f5f49 4e544d41 585f4d41 585f5f20  .__INTMAX_MAX__ 
 0410 30783766 66666666 66666666 66666666  0x7fffffffffffff
 0420 66664c4c 005f5f44 45433332 5f535542  ffLL.__DEC32_SUB
 0430 4e4f524d 414c5f4d 494e5f5f 20302e30  NORMAL_MIN__ 0.0
 0440 30303030 31452d39 35444600 5f5f6e65  00001E-95DF.__ne
 0450 65645f73 697a655f 74005f5f 6c6f636b  ed_size_t.__lock
 0460 5f696e69 745f7265 63757273 69766528  _init_recursive(
 0470 6c6f636b 29202828 766f6964 29203029  lock) ((void) 0)
 0480 005f5f46 4c543634 5f444543 494d414c  .__FLT64_DECIMAL
 0490 5f444947 5f5f2031 37005f52 45454e54  _DIG__ 17._REENT
 04a0 5f534947 4e414c5f 53495a45 20323400  _SIGNAL_SIZE 24.
 04b0 504d505f 4c203078 3830005f 5245454e  PMP_L 0x80._REEN
 04c0 545f5743 52544f4d 425f5354 41544528  T_WCRTOMB_STATE(
 04d0 70747229 20282870 7472292d 3e5f6e65  ptr) ((ptr)->_ne
 04e0 772e5f72 65656e74 2e5f7763 72746f6d  w._reent._wcrtom
 04f0 625f7374 61746529 005f5f41 544f4d49  b_state).__ATOMI
 0500 435f434f 4e53554d 45203100 4249545f  C_CONSUME 1.BIT_
 0510 32382028 31203c3c 20323829 005f5f72  28 (1 << 28).__r
 0520 69736376 5f6d756c 64697620 31004249  iscv_muldiv 1.BI
 0530 545f3520 2831203c 3c203529 005f5f46  T_5 (1 << 5).__F
 0540 4c543634 585f4449 475f5f20 3333005f  LT64X_DIG__ 33._
 0550 5f464c54 3634585f 45505349 4c4f4e5f  _FLT64X_EPSILON_
 0560 5f20312e 39323539 32393934 34333837  _ 1.925929944387
 0570 32333538 35333035 35393737 39343235  2358530559779425
 0580 38343932 37333265 2d333446 36347800  8492732e-34F64x.
 0590 5f5f696e 7432305f 5f005f53 59535f5f  __int20__._SYS__
 05a0 4c4f4341 4c455f48 20005359 5354454d  LOCALE_H .SYSTEM
 05b0 5f554152 545f415f 41504220 53595354  _UART_A_APB SYST
 05c0 454d5f55 4152545f 305f494f 5f415042  EM_UART_0_IO_APB
 05d0 00524443 59434c45 20307843 3030005f  .RDCYCLE 0xC00._
 05e0 5f53495a 454f465f 4c4f4e47 5f4c4f4e  _SIZEOF_LONG_LON
 05f0 475f5f20 38005f61 73637469 6d655f62  G__ 8._asctime_b
 0600 7566005f 5f44424c 5f4d4158 5f31305f  uf.__DBL_MAX_10_
 0610 4558505f 5f203330 38005f63 76746c65  EXP__ 308._cvtle
 0620 6e005f5f 52435349 445f534f 55524345  n.__RCSID_SOURCE
 0630 28732920 73747275 6374205f 5f686163  (s) struct __hac
 0640 6b005349 5a455f4d 41582028 5f5f5349  k.SIZE_MAX (__SI
 0650 5a455f4d 41585f5f 29005f5f 504f5349  ZE_MAX__).__POSI
 0660 585f5649 5349424c 45203230 30383039  X_VISIBLE 200809
 0670 005f5f73 74726f6e 675f7265 66657265  .__strong_refere
 0680 6e636528 73796d2c 616c6961 7373796d  nce(sym,aliassym
 0690 29206578 7465726e 205f5f74 7970656f  ) extern __typeo
 06a0 66202873 796d2920 616c6961 7373796d  f (sym) aliassym
 06b0 205f5f61 74747269 62757465 5f5f2028   __attribute__ (
 06c0 285f5f61 6c696173 5f5f2028 2373796d  (__alias__ (#sym
 06d0 29292900 5f5f4445 4333325f 4d494e5f  ))).__DEC32_MIN_
 06e0 5f203145 2d393544 46005f5f 494e544d  _ 1E-95DF.__INTM
 06f0 41585f57 49445448 5f5f2036 34005350  AX_WIDTH__ 64.SP
 0700 495f4441 54412030 78303000 5f5f4f52  I_DATA 0x00.__OR
 0710 4445525f 5044505f 454e4449 414e5f5f  DER_PDP_ENDIAN__
 0720 20333431 32005f5f 53495a45 5f545950   3412.__SIZE_TYP
 0730 455f5f20 756e7369 676e6564 20696e74  E__ unsigned int
 0740 005f5f44 45433634 5f4d4158 5f455850  .__DEC64_MAX_EXP
 0750 5f5f2033 3835004d 5f325f50 4920302e  __ 385.M_2_PI 0.
 0760 36333636 31393737 32333637 35383133  6366197723675813
 0770 34333038 005f5f46 4c545f48 41535f44  4308.__FLT_HAS_D
 0780 454e4f52 4d5f5f20 31005f5f 494e5438  ENORM__ 1.__INT8
 0790 5f545950 455f5f20 7369676e 65642063  _TYPE__ signed c
 07a0 68617200 4249545f 31362028 31203c3c  har.BIT_16 (1 <<
 07b0 20313629 00485547 455f5641 4c20285f   16).HUGE_VAL (_
 07c0 5f627569 6c74696e 5f687567 655f7661  _builtin_huge_va
 07d0 6c282929 005f5f46 4c543332 5f444543  l()).__FLT32_DEC
 07e0 494d414c 5f444947 5f5f2039 005f5f46  IMAL_DIG__ 9.__F
 07f0 4c543634 585f4445 43494d41 4c5f4449  LT64X_DECIMAL_DI
 0800 475f5f20 3336005f 5f535444 435f5554  G__ 36.__STDC_UT
 0810 465f3136 5f5f2031 005f4e75 6c6c6162  F_16__ 1._Nullab
 0820 6c652000 5f5f746d 005f7763 7372746f  le .__tm._wcsrto
 0830 6d62735f 73746174 65005f6e 62756600  mbs_state._nbuf.
 0840 5f5f746d 5f736563 005f5f55 494e5438  __tm_sec.__UINT8
 0850 5f432863 29206300 5f5f494e 5431365f  _C(c) c.__INT16_
 0860 54595045 5f5f2073 686f7274 20696e74  TYPE__ short int
 0870 00425350 5f4c4544 5f4d4153 4b203078  .BSP_LED_MASK 0x
 0880 66005f52 45454e54 5f52414e 4434385f  f._REENT_RAND48_
 0890 4d554c54 28707472 29202828 70747229  MULT(ptr) ((ptr)
 08a0 2d3e5f6e 65772e5f 7265656e 742e5f72  ->_new._reent._r
 08b0 34382e5f 6d756c74 29005f6c 3634615f  48._mult)._l64a_
 08c0 62756600 4d5f5351 52545049 20312e37  buf.M_SQRTPI 1.7
 08d0 37323435 33383530 39303535 31363032  7245385090551602
 08e0 37393239 3831005f 5f464c54 3634585f  792981.__FLT64X_
 08f0 4d41585f 5f20312e 31383937 33313439  MAX__ 1.18973149
 0900 35333537 32333137 36353038 35373539  5357231765085759
 0910 33323636 32383030 37303265 2b343933  32662800702e+493
 0920 32463634 78005f5f 494e5438 20226868  2F64x.__INT8 "hh
 0930 22005f5f 44454349 4d414c5f 4449475f  ".__DECIMAL_DIG_
 0940 5f203336 00494e54 5f4c4541 53543136  _ 36.INT_LEAST16
 0950 5f4d4158 20285f5f 494e545f 4c454153  _MAX (__INT_LEAS
 0960 5431365f 4d41585f 5f29005f 5f616c6c  T16_MAX__).__all
 0970 6f635f73 697a6532 286e2c78 29205f5f  oc_size2(n,x) __
 0980 61747472 69627574 655f5f28 285f5f61  attribute__((__a
 0990 6c6c6f63 5f73697a 655f5f28 6e2c2078  lloc_size__(n, x
 09a0 29292900 494e545f 46415354 31365f4d  ))).INT_FAST16_M
 09b0 41582028 5f5f494e 545f4641 53543136  AX (__INT_FAST16
 09c0 5f4d4158 5f5f2900 5f504f49 4e544552  _MAX__)._POINTER
 09d0 5f494e54 206c6f6e 67005553 45525f53  _INT long.USER_S
 09e0 4f465457 4152455f 53495a45 5f494e53  OFTWARE_SIZE_INS
 09f0 54203078 37383030 005f5f6e 6f6e6e75  T 0x7800.__nonnu
 0a00 6c6c2878 29205f5f 61747472 69627574  ll(x) __attribut
 0a10 655f5f28 285f5f6e 6f6e6e75 6c6c5f5f  e__((__nonnull__
 0a20 20782929 005f7369 7a650063 6f6e6669   x))._size.confi
 0a30 67005f73 7464696e 005f5f49 4e545f46  g._stdin.__INT_F
 0a40 41535436 345f5459 50455f5f 206c6f6e  AST64_TYPE__ lon
 0a50 67206c6f 6e672069 6e74004d 5f535152  g long int.M_SQR
 0a60 54332031 2e373332 30353038 30373536  T3 1.73205080756
 0a70 38383737 31393030 30005353 54415455  887719000.SSTATU
 0a80 5333325f 53442030 78383030 30303030  S32_SD 0x8000000
 0a90 3000494e 54385f4d 41582028 5f5f494e  0.INT8_MAX (__IN
 0aa0 54385f4d 41585f5f 29004d5f 315f5049  T8_MAX__).M_1_PI
 0ab0 20302e33 31383330 39383836 31383337   0.3183098861837
 0ac0 39303637 31353400 5f6c6f63 6b005f5f  9067154._lock.__
 0ad0 53495a45 5f545f5f 20005f5f 464c5433  SIZE_T__ .__FLT3
 0ae0 325f4d49 4e5f5f20 312e3137 35343934  2_MIN__ 1.175494
 0af0 33353038 32323238 37353037 39363837  3508222875079687
 0b00 33363533 37323232 32343536 38652d33  3653722224568e-3
 0b10 38463332 00505452 44494646 5f4d4158  8F32.PTRDIFF_MAX
 0b20 20285f5f 50545244 4946465f 4d41585f   (__PTRDIFF_MAX_
 0b30 5f29005f 5f464c54 33325f4d 41585f31  _).__FLT32_MAX_1
 0b40 305f4558 505f5f20 33380053 59535445  0_EXP__ 38.SYSTE
 0b50 4d5f504c 49435f53 59535445 4d5f434f  M_PLIC_SYSTEM_CO
 0b60 5245535f 305f4558 5445524e 414c5f49  RES_0_EXTERNAL_I
 0b70 4e544552 52555054 20300043 4c494e54  NTERRUPT 0.CLINT
 0b80 5f434d50 5f414444 52203078 34303030  _CMP_ADDR 0x4000
 0b90 005f5245 454e545f 4d505f46 5245454c  ._REENT_MP_FREEL
 0ba0 49535428 70747229 20282870 7472292d  IST(ptr) ((ptr)-
 0bb0 3e5f6672 65656c69 73742900 5f5f474e  >_freelist).__GN
 0bc0 55434c49 4b455f42 55494c54 494e5f53  UCLIKE_BUILTIN_S
 0bd0 54444152 47203100 53595354 454d5f55  TDARG 1.SYSTEM_U
 0be0 5345525f 54494d45 525f305f 4354524c  SER_TIMER_0_CTRL
 0bf0 5f53495a 45203078 31303030 005f5f6e  _SIZE 0x1000.__n
 0c00 6565645f 77636861 725f7400 5f5f464c  eed_wchar_t.__FL
 0c10 5433325f 4d494e5f 4558505f 5f20282d  T32_MIN_EXP__ (-
 0c20 31323529 005f5f46 4c543634 585f4d49  125).__FLT64X_MI
 0c30 4e5f4558 505f5f20 282d3136 33383129  N_EXP__ (-16381)
 0c40 004d5f53 51525431 5f322030 2e373037  .M_SQRT1_2 0.707
 0c50 31303637 38313138 36353437 35323434  1067811865475244
 0c60 30007772 6974655f 75333200 5f5f5054  0.write_u32.__PT
 0c70 52444946 465f5420 005f6765 74646174  RDIFF_T ._getdat
 0c80 655f6572 72005f6d 756c7400 494e5431  e_err._mult.INT1
 0c90 365f4d41 5820285f 5f494e54 31365f4d  6_MAX (__INT16_M
 0ca0 41585f5f 29005f5f 464c5436 345f4d49  AX__).__FLT64_MI
 0cb0 4e5f3130 5f455850 5f5f2028 2d333037  N_10_EXP__ (-307
 0cc0 29005f5f 73697a65 5f742000 5f5f626f  ).__size_t .__bo
 0cd0 756e6465 6420005f 5f696e74 5f666173  unded .__int_fas
 0ce0 7433325f 745f6465 66696e65 64203100  t32_t_defined 1.
 0cf0 5f5f494e 545f4641 53543634 5f574944  __INT_FAST64_WID
 0d00 54485f5f 20363400 5f5f5f69 6e745f77  TH__ 64.___int_w
 0d10 63686172 5f745f68 20005f52 45454e54  char_t_h ._REENT
 0d20 5f494e49 545f5054 52287661 7229207b  _INIT_PTR(var) {
 0d30 206d656d 73657428 28766172 292c2030   memset((var), 0
 0d40 2c207369 7a656f66 282a2876 61722929  , sizeof(*(var))
 0d50 293b205f 5245454e 545f494e 49545f50  ); _REENT_INIT_P
 0d60 54525f5a 45524f45 44287661 72293b20  TR_ZEROED(var); 
 0d70 7d00494e 5431365f 43287829 205f5f49  }.INT16_C(x) __I
 0d80 4e543136 5f432878 29006370 6861005f  NT16_C(x).cpha._
 0d90 5f434f4e 43415431 28782c79 29207820  _CONCAT1(x,y) x 
 0da0 23232079 005f5f49 4e543332 5f432863  ## y.__INT32_C(c
 0db0 29206320 2323204c 005f5f4f 52444552  ) c ## L.__ORDER
 0dc0 5f424947 5f454e44 49414e5f 5f203433  _BIG_ENDIAN__ 43
 0dd0 3231005f 5f444543 3132385f 4d494e5f  21.__DEC128_MIN_
 0de0 5f203145 2d363134 33444c00 494e5438  _ 1E-6143DL.INT8
 0df0 5f4d494e 20282d5f 5f494e54 385f4d41  _MIN (-__INT8_MA
 0e00 585f5f20 2d203129 00464c54 5f455641  X__ - 1).FLT_EVA
 0e10 4c5f4d45 54484f44 005f5f50 2870726f  L_METHOD.__P(pro
 0e20 746f7329 2070726f 746f7300 53595354  tos) protos.SYST
 0e30 454d5f43 4c494e54 5f485a20 37353030  EM_CLINT_HZ 7500
 0e40 30303030 005f5f46 4c543132 385f4841  0000.__FLT128_HA
 0e50 535f5155 4945545f 4e414e5f 5f203100  S_QUIET_NAN__ 1.
 0e60 5f535953 5f5f5354 44494e54 5f482000  _SYS__STDINT_H .
 0e70 494e545f 4c454153 5436345f 4d415820  INT_LEAST64_MAX 
 0e80 285f5f49 4e545f4c 45415354 36345f4d  (__INT_LEAST64_M
 0e90 41585f5f 29005359 5354454d 5f524953  AX__).SYSTEM_RIS
 0ea0 43565f49 53415f45 58545f5a 4946454e  CV_ISA_EXT_ZIFEN
 0eb0 43452031 00737069 5f777269 74650053  CE 1.spi_write.S
 0ec0 59535445 4d5f434c 494e545f 4354524c  YSTEM_CLINT_CTRL
 0ed0 5f53495a 45203078 31303030 30005f5f  _SIZE 0x10000.__
 0ee0 7765616b 5f726566 6572656e 63652873  weak_reference(s
 0ef0 796d2c61 6c696173 29205f5f 61736d5f  ym,alias) __asm_
 0f00 5f28222e 7765616b 20222023 616c6961  _(".weak " #alia
 0f10 73293b20 5f5f6173 6d5f5f28 222e6571  s); __asm__(".eq
 0f20 75202220 23616c69 61732022 2c202220  u " #alias ", " 
 0f30 2373796d 29005359 5354454d 5f475049  #sym).SYSTEM_GPI
 0f40 4f5f415f 41504220 53595354 454d5f47  O_A_APB SYSTEM_G
 0f50 50494f5f 305f494f 5f415042 005f5f55  PIO_0_IO_APB.__U
 0f60 494e545f 46415354 385f4d41 585f5f20  INT_FAST8_MAX__ 
 0f70 30786666 66666666 66665500 5f4e4f54  0xffffffffU._NOT
 0f80 48524f57 20005f5f 44454333 325f4550  HROW .__DEC32_EP
 0f90 53494c4f 4e5f5f20 31452d36 4446005f  SILON__ 1E-6DF._
 0fa0 5f686173 5f657874 656e7369 6f6e205f  _has_extension _
 0fb0 5f686173 5f666561 74757265 005f5f77  _has_feature.__w
 0fc0 6368005f 5245454e 545f4348 45434b5f  ch._REENT_CHECK_
 0fd0 4d502870 74722920 005f5f49 4e545f4c  MP(ptr) .__INT_L
 0fe0 45415354 36345f54 5950455f 5f206c6f  EAST64_TYPE__ lo
 0ff0 6e67206c 6f6e6720 696e7400 494e545f  ng long int.INT_
 1000 4c454153 54385f4d 41582028 5f5f494e  LEAST8_MAX (__IN
 1010 545f4c45 41535438 5f4d4158 5f5f2900  T_LEAST8_MAX__).
 1020 5f5f464c 54363458 5f4d4158 5f31305f  __FLT64X_MAX_10_
 1030 4558505f 5f203439 3332005f 5f534348  EXP__ 4932.__SCH
 1040 41525f57 49445448 5f5f2038 00434155  AR_WIDTH__ 8.CAU
 1050 53455f49 4c4c4547 414c5f49 4e535452  SE_ILLEGAL_INSTR
 1060 55435449 4f4e2032 005f5f49 4e545f46  UCTION 2.__INT_F
 1070 41535431 365f5749 4454485f 5f203332  AST16_WIDTH__ 32
 1080 005f5245 454e5420 5f696d70 7572655f  ._REENT _impure_
 1090 70747200 4d49455f 4d454945 20283120  ptr.MIE_MEIE (1 
 10a0 3c3c2043 41555345 5f4d4143 48494e45  << CAUSE_MACHINE
 10b0 5f455854 45524e41 4c29004d 5f4c4e32  _EXTERNAL).M_LN2
 10c0 48492036 2e393331 34373138 30333639  HI 6.93147180369
 10d0 31323338 31363439 452d3100 4d535441  12381649E-1.MSTA
 10e0 5455535f 53505020 30783030 30303031  TUS_SPP 0x000001
 10f0 3030005f 5f4c4541 53543332 20226c22  00.__LEAST32 "l"
 1100 005f5f49 4e543634 20226c6c 22005f5f  .__INT64 "ll".__
 1110 4743435f 41544f4d 49435f50 4f494e54  GCC_ATOMIC_POINT
 1120 45525f4c 4f434b5f 46524545 2031005f  ER_LOCK_FREE 1._
 1130 66696c65 005f5f55 494e545f 46415354  file.__UINT_FAST
 1140 31365f4d 41585f5f 20307866 66666666  16_MAX__ 0xfffff
 1150 66666655 00494e54 5f4c4541 53543634  fffU.INT_LEAST64
 1160 5f4d494e 20282d5f 5f494e54 5f4c4541  _MIN (-__INT_LEA
 1170 53543634 5f4d4158 5f5f202d 20312900  ST64_MAX__ - 1).
 1180 5f6f6e5f 65786974 5f617267 73004650  _on_exit_args.FP
 1190 5f4e414e 2030005f 5f494e54 5054525f  _NAN 0.__INTPTR_
 11a0 4d41585f 5f203078 37666666 66666666  MAX__ 0x7fffffff
 11b0 004d5f4c 4f473130 4520302e 34333432  .M_LOG10E 0.4342
 11c0 39343438 31393033 32353138 32373635  9448190325182765
 11d0 00757365 724d6169 6e005f4e 6f6e6e75  .userMain._Nonnu
 11e0 6c6c2000 454e4142 4c455f42 52494447  ll .ENABLE_BRIDG
 11f0 455f4655 4c4c5f54 4f5f4c49 54452031  E_FULL_TO_LITE 1
 1200 004d4944 454c4547 5f535550 45525649  .MIDELEG_SUPERVI
 1210 534f525f 534f4654 57415245 20283120  SOR_SOFTWARE (1 
 1220 3c3c2031 29005f5f 474e5543 5f505245  << 1).__GNUC_PRE
 1230 52455128 6d616a2c 6d696e29 2028285f  REQ(maj,min) ((_
 1240 5f474e55 435f5f20 3c3c2031 3629202b  _GNUC__ << 16) +
 1250 205f5f47 4e55435f 4d494e4f 525f5f20   __GNUC_MINOR__ 
 1260 3e3d2028 286d616a 29203c3c 20313629  >= ((maj) << 16)
 1270 202b2028 6d696e29 29005f54 5f574348   + (min))._T_WCH
 1280 41522000 5f4e5f4c 49535453 20333000  AR ._N_LISTS 30.
 1290 5f494e54 5054525f 545f4445 434c4152  _INTPTR_T_DECLAR
 12a0 45442000 5f56415f 4c495354 5f545f48  ED ._VA_LIST_T_H
 12b0 20005f5f 464c5433 32585f48 41535f49   .__FLT32X_HAS_I
 12c0 4e46494e 4954595f 5f203100 494e545f  NFINITY__ 1.INT_
 12d0 46415354 33325f4d 494e2028 2d5f5f49  FAST32_MIN (-__I
 12e0 4e545f46 41535433 325f4d41 585f5f20  NT_FAST32_MAX__ 
 12f0 2d203129 00535953 54454d5f 504c4943  - 1).SYSTEM_PLIC
 1300 5f435452 4c5f5349 5a452030 78343030  _CTRL_SIZE 0x400
 1310 30303000 5f524545 4e545f52 414e4434  000._REENT_RAND4
 1320 385f5345 45442870 74722920 28287074  8_SEED(ptr) ((pt
 1330 72292d3e 5f6e6577 2e5f7265 656e742e  r)->_new._reent.
 1340 5f723438 2e5f7365 65642900 5f5f5549  _r48._seed).__UI
 1350 4e545f4c 45415354 385f5459 50455f5f  NT_LEAST8_TYPE__
 1360 20756e73 69676e65 64206368 6172005f   unsigned char._
 1370 73747274 6f6b5f6c 61737400 5f5f6c6f  strtok_last.__lo
 1380 636b735f 6578636c 75736976 65282e2e  cks_exclusive(..
 1390 2e29205f 5f6c6f63 6b5f616e 6e6f7461  .) __lock_annota
 13a0 74652865 78636c75 73697665 5f6c6f63  te(exclusive_loc
 13b0 6b5f6675 6e637469 6f6e285f 5f56415f  k_function(__VA_
 13c0 41524753 5f5f2929 005f6d62 726c656e  ARGS__))._mbrlen
 13d0 5f737461 74650073 70695f61 70706c79  _state.spi_apply
 13e0 436f6e66 69670053 59535445 4d5f5541  Config.SYSTEM_UA
 13f0 52545f30 5f494f5f 50415241 4d455445  RT_0_IO_PARAMETE
 1400 525f5541 52545f43 54524c5f 434f4e46  R_UART_CTRL_CONF
 1410 49475f52 54535f47 454e2030 005f5f49  IG_RTS_GEN 0.__I
 1420 4e545f46 41535436 345f4d41 585f5f20  NT_FAST64_MAX__ 
 1430 30783766 66666666 66666666 66666666  0x7fffffffffffff
 1440 66664c4c 005f5f46 4c543332 585f4445  ffLL.__FLT32X_DE
 1450 43494d41 4c5f4449 475f5f20 31370049  CIMAL_DIG__ 17.I
 1460 4e46494e 49545920 285f5f62 75696c74  NFINITY (__built
 1470 696e5f69 6e666628 2929005f 72657375  in_inff())._resu
 1480 6c745f6b 005f5f46 4c543332 585f4841  lt_k.__FLT32X_HA
 1490 535f5155 4945545f 4e414e5f 5f203100  S_QUIET_NAN__ 1.
 14a0 5f5f5241 4e445f4d 41582030 78376666  __RAND_MAX 0x7ff
 14b0 66666666 66005f5f 6c6f636b 5f616371  fffff.__lock_acq
 14c0 75697265 286c6f63 6b292028 28766f69  uire(lock) ((voi
 14d0 64292030 29005f5f 5f696e74 5f6c6561  d) 0).___int_lea
 14e0 73743136 5f745f64 6566696e 65642031  st16_t_defined 1
 14f0 00535049 5f4d4f44 455f4350 48412028  .SPI_MODE_CPHA (
 1500 31203c3c 20312900 5f5f4445 43313238  1 << 1).__DEC128
 1510 5f4d494e 5f455850 5f5f2028 2d363134  _MIN_EXP__ (-614
 1520 3229004d 4154485f 45525245 58434550  2).MATH_ERREXCEP
 1530 54203200 5f5f494e 545f4641 5354385f  T 2.__INT_FAST8_
 1540 54595045 5f5f2069 6e74005f 4e4f494e  TYPE__ int._NOIN
 1550 4c494e45 205f5f61 74747269 62757465  LINE __attribute
 1560 5f5f2028 285f5f6e 6f696e6c 696e655f  __ ((__noinline_
 1570 5f292900 5f5f7369 7a655f74 5f5f2000  _)).__size_t__ .
 1580 5f5f464c 54313238 5f4d494e 5f455850  __FLT128_MIN_EXP
 1590 5f5f2028 2d313633 38312900 6373725f  __ (-16381).csr_
 15a0 72656164 28637372 2920287b 20726567  read(csr) ({ reg
 15b0 69737465 7220756e 7369676e 6564206c  ister unsigned l
 15c0 6f6e6720 5f5f763b 205f5f61 736d5f5f  ong __v; __asm__
 15d0 205f5f76 6f6c6174 696c655f 5f202822   __volatile__ ("
 15e0 63737272 2025302c 20222023 63737220  csrr %0, " #csr 
 15f0 3a20223d 72222028 5f5f7629 293b205f  : "=r" (__v)); _
 1600 5f763b20 7d29005f 5245454e 545f5241  _v; })._REENT_RA
 1610 4e445f4e 45585428 70747229 20282870  ND_NEXT(ptr) ((p
 1620 7472292d 3e5f6e65 772e5f72 65656e74  tr)->_new._reent
 1630 2e5f7261 6e645f6e 65787429 005f5f55  ._rand_next).__U
 1640 494e544d 41585f43 28632920 63202323  INTMAX_C(c) c ##
 1650 20554c4c 00484156 455f494e 49544649   ULL.HAVE_INITFI
 1660 4e495f41 52524159 2031005f 5f53495a  NI_ARRAY 1.__SIZ
 1670 454f465f 504f494e 5445525f 5f203400  EOF_POINTER__ 4.
 1680 494e545f 46415354 36345f4d 494e2028  INT_FAST64_MIN (
 1690 2d5f5f49 4e545f46 41535436 345f4d41  -__INT_FAST64_MA
 16a0 585f5f20 2d203129 005f6c6f 63616c74  X__ - 1)._localt
 16b0 696d655f 62756600 5f425344 5f574348  ime_buf._BSD_WCH
 16c0 41525f54 5f20005f 5f474343 5f41544f  AR_T_ .__GCC_ATO
 16d0 4d49435f 424f4f4c 5f4c4f43 4b5f4652  MIC_BOOL_LOCK_FR
 16e0 45452031 005f666c 6f636b5f 74005f5f  EE 1._flock_t.__
 16f0 5f696e74 36345f74 5f646566 696e6564  _int64_t_defined
 1700 2031005f 5f464c54 3634585f 4841535f   1.__FLT64X_HAS_
 1710 44454e4f 524d5f5f 2031005f 5f736275  DENORM__ 1.__sbu
 1720 66006461 74615f63 61636865 5f696e76  f.data_cache_inv
 1730 616c6964 6174655f 616c6c28 29206173  alidate_all() as
 1740 6d28222e 776f7264 28307835 30304629  m(".word(0x500F)
 1750 22293b00 55494e54 5054525f 4d415820  ");.UINTPTR_MAX 
 1760 285f5f55 494e5450 54525f4d 41585f5f  (__UINTPTR_MAX__
 1770 29005f5f 464c5433 325f4d41 585f4558  ).__FLT32_MAX_EX
 1780 505f5f20 31323800 6d61696e 005f5f55  P__ 128.main.__U
 1790 494e544d 41585f54 5950455f 5f206c6f  INTMAX_TYPE__ lo
 17a0 6e67206c 6f6e6720 756e7369 676e6564  ng long unsigned
 17b0 20696e74 005f4154 45584954 5f53495a   int._ATEXIT_SIZ
 17c0 45203332 005f666e 74797065 73005f5f  E 32._fntypes.__
 17d0 4c44424c 5f44454e 4f524d5f 4d494e5f  LDBL_DENORM_MIN_
 17e0 5f20362e 34373531 37353131 39343338  _ 6.475175119438
 17f0 30323531 31303932 34343338 39353832  0251109244389582
 1800 32373634 36353565 2d343936 364c0050  2764655e-4966L.P
 1810 4d505f41 20307831 38005f55 494e5436  MP_A 0x18._UINT6
 1820 345f545f 4445434c 41524544 20005f53  4_T_DECLARED ._S
 1830 495a455f 545f4445 434c4152 45442000  IZE_T_DECLARED .
 1840 4d535441 5455535f 58532030 78303030  MSTATUS_XS 0x000
 1850 31383030 30005f5f 43484152 33325f54  18000.__CHAR32_T
 1860 5950455f 5f206c6f 6e672075 6e736967  YPE__ long unsig
 1870 6e656420 696e7400 53535441 5455535f  ned int.SSTATUS_
 1880 58532030 78303030 31383030 30004249  XS 0x00018000.BI
 1890 545f3420 2831203c 3c203429 005f5f43  T_4 (1 << 4).__C
 18a0 435f5355 50504f52 54535f44 594e414d  C_SUPPORTS_DYNAM
 18b0 49435f41 52524159 5f494e49 54203100  IC_ARRAY_INIT 1.
 18c0 5f5f5549 4e545f46 41535433 325f4d41  __UINT_FAST32_MA
 18d0 585f5f20 30786666 66666666 66665500  X__ 0xffffffffU.
 18e0 5f5f746d 5f6d6f6e 005f5f46 4c545f4d  __tm_mon.__FLT_M
 18f0 41585f45 58505f5f 20313238 00535953  AX_EXP__ 128.SYS
 1900 54454d5f 4932435f 415f4150 42205359  TEM_I2C_A_APB SY
 1910 5354454d 5f493243 5f305f49 4f5f4150  STEM_I2C_0_IO_AP
 1920 42005f5f 72697363 765f6469 76203100  B.__riscv_div 1.
 1930 46505f53 55424e4f 524d414c 2033005f  FP_SUBNORMAL 3._
 1940 52454144 5f575249 54455f42 55465349  READ_WRITE_BUFSI
 1950 5a455f54 59504520 696e7400 5f5f5349  ZE_TYPE int.__SI
 1960 5a454f46 5f444f55 424c455f 5f203800  ZEOF_DOUBLE__ 8.
 1970 5f5f494e 545f4c45 41535433 325f5749  __INT_LEAST32_WI
 1980 4454485f 5f203332 005f434c 4f434b5f  DTH__ 32._CLOCK_
 1990 545f2075 6e736967 6e656420 6c6f6e67  T_ unsigned long
 19a0 005f5f77 63686200 5f5f4c44 424c5f4d  .__wchb.__LDBL_M
 19b0 41585f31 305f4558 505f5f20 34393332  AX_10_EXP__ 4932
 19c0 00535953 54454d5f 434f5245 535f305f  .SYSTEM_CORES_0_
 19d0 43465520 30005f5f 73796d5f 636f6d70  CFU 0.__sym_comp
 19e0 61742873 796d2c69 6d706c2c 76657269  at(sym,impl,veri
 19f0 6429205f 5f61736d 5f5f2822 2e73796d  d) __asm__(".sym
 1a00 76657220 22202369 6d706c20 222c2022  ver " #impl ", "
 1a10 20237379 6d202240 22202376 65726964   #sym "@" #verid
 1a20 29005f5f 46415354 31362000 53535441  ).__FAST16 .SSTA
 1a30 5455535f 55504945 20307830 30303030  TUS_UPIE 0x00000
 1a40 30313000 5f5f4c41 52474546 494c455f  010.__LARGEFILE_
 1a50 56495349 424c4520 30005f5f 44454336  VISIBLE 0.__DEC6
 1a60 345f4d41 585f5f20 392e3939 39393939  4_MAX__ 9.999999
 1a70 39393939 39393939 39453338 34444400  999999999E384DD.
 1a80 5f5f4e45 574c4942 5f5f2033 00737069  __NEWLIB__ 3.spi
 1a90 466c6173 685f7761 6b655f00 45584954  Flash_wake_.EXIT
 1aa0 5f535543 43455353 2030005f 5f464c54  _SUCCESS 0.__FLT
 1ab0 5f4d494e 5f31305f 4558505f 5f20282d  _MIN_10_EXP__ (-
 1ac0 33372900 5f5f4153 4d4e414d 4528636e  37).__ASMNAME(cn
 1ad0 616d6529 205f5f58 53545249 4e472028  ame) __XSTRING (
 1ae0 5f5f5553 45525f4c 4142454c 5f505245  __USER_LABEL_PRE
 1af0 4649585f 5f292063 6e616d65 006d6174  FIX__) cname.mat
 1b00 685f6572 7268616e 646c696e 67204d41  h_errhandling MA
 1b10 54485f45 52524e4f 00535049 5f525350  TH_ERRNO.SPI_RSP
 1b20 5f56414c 49442028 31203c3c 20333129  _VALID (1 << 31)
 1b30 005f5f46 4c545f44 4543494d 414c5f44  .__FLT_DECIMAL_D
 1b40 49475f5f 20390042 53505f4d 41434849  IG__ 9.BSP_MACHI
 1b50 4e455f54 494d4552 5f485a20 53595354  NE_TIMER_HZ SYST
 1b60 454d5f43 4c494e54 5f485a00 5f756e75  EM_CLINT_HZ._unu
 1b70 7365645f 72616e64 005f5549 4e54385f  sed_rand._UINT8_
 1b80 545f4445 434c4152 45442000 52444359  T_DECLARED .RDCY
 1b90 434c4548 20307843 38300049 4e544d41  CLEH 0xC80.INTMA
 1ba0 585f4d49 4e20282d 494e544d 41585f4d  X_MIN (-INTMAX_M
 1bb0 4158202d 20312900 5f5f464c 5433325f  AX - 1).__FLT32_
 1bc0 44454e4f 524d5f4d 494e5f5f 20312e34  DENORM_MIN__ 1.4
 1bd0 30313239 38343634 33323438 31373037  0129846432481707
 1be0 30393233 37323935 38333238 39393136  0923729583289916
 1bf0 3133652d 34354633 32005f5f 7074725f  13e-45F32.__ptr_
 1c00 7420766f 6964202a 005f5f47 4e55435f  t void *.__GNUC_
 1c10 53544443 5f494e4c 494e455f 5f203100  STDC_INLINE__ 1.
 1c20 5f524545 4e545f52 414e4434 385f4144  _REENT_RAND48_AD
 1c30 44287074 72292028 28707472 292d3e5f  D(ptr) ((ptr)->_
 1c40 6e65772e 5f726565 6e742e5f 7234382e  new._reent._r48.
 1c50 5f616464 29005743 4841525f 4d494e20  _add).WCHAR_MIN 
 1c60 285f5f57 43484152 5f4d494e 5f5f2900  (__WCHAR_MIN__).
 1c70 5f5f494e 5436345f 43286329 20632023  __INT64_C(c) c #
 1c80 23204c4c 005f5f6e 6f5f6c6f 636b5f61  # LL.__no_lock_a
 1c90 6e616c79 73697320 5f5f6c6f 636b5f61  nalysis __lock_a
 1ca0 6e6e6f74 61746528 6e6f5f74 68726561  nnotate(no_threa
 1cb0 645f7361 66657479 5f616e61 6c797369  d_safety_analysi
 1cc0 7329005f 5f464c54 5f484153 5f515549  s).__FLT_HAS_QUI
 1cd0 45545f4e 414e5f5f 2031005f 5f474e55  ET_NAN__ 1.__GNU
 1ce0 435f5041 5443484c 4556454c 5f5f2030  C_PATCHLEVEL__ 0
 1cf0 005f5f47 43435f41 544f4d49 435f4348  .__GCC_ATOMIC_CH
 1d00 41523332 5f545f4c 4f434b5f 46524545  AR32_T_LOCK_FREE
 1d10 20310069 73756e6f 72646572 6564285f   1.isunordered(_
 1d20 5f782c5f 5f792920 285f5f62 75696c74  _x,__y) (__built
 1d30 696e5f69 73756e6f 72646572 65642028  in_isunordered (
 1d40 5f5f782c 205f5f79 2929005f 5f616c6c  __x, __y)).__all
 1d50 6f635f61 6c69676e 28782920 5f5f6174  oc_align(x) __at
 1d60 74726962 7574655f 5f28285f 5f616c6c  tribute__((__all
 1d70 6f635f61 6c69676e 5f5f2878 29292900  oc_align__(x))).
 1d80 5f574944 455f4f52 49454e54 2031005f  _WIDE_ORIENT 1._
 1d90 5f55494e 545f4c45 41535431 365f4d41  _UINT_LEAST16_MA
 1da0 585f5f20 30786666 6666005f 7374646f  X__ 0xffff._stdo
 1db0 7574005f 5f73796d 5f646566 61756c74  ut.__sym_default
 1dc0 2873796d 2c696d70 6c2c7665 72696429  (sym,impl,verid)
 1dd0 205f5f61 736d5f5f 28222e73 796d7665   __asm__(".symve
 1de0 72202220 23696d70 6c20222c 20222023  r " #impl ", " #
 1df0 73796d20 22404022 20237665 72696429  sym "@@" #verid)
 1e00 00535049 5f434d44 5f524541 44202831  .SPI_CMD_READ (1
 1e10 203c3c20 3929005f 5f535444 435f5645   << 9).__STDC_VE
 1e20 5253494f 4e5f5f20 32303137 31304c00  RSION__ 201710L.
 1e30 5f4d425f 4c454e5f 4d415820 31005f5f  _MB_LEN_MAX 1.__
 1e40 464c5433 32585f44 454e4f52 4d5f4d49  FLT32X_DENORM_MI
 1e50 4e5f5f20 342e3934 30363536 34353834  N__ 4.9406564584
 1e60 31323436 35343431 37363536 38373932  1246544176568792
 1e70 38363832 32313337 32652d33 32344633  868221372e-324F3
 1e80 3278006c 6f673228 78292028 6c6f6720  2x.log2(x) (log 
 1e90 28782920 2f205f4d 5f4c4e32 29005f5f  (x) / _M_LN2).__
 1ea0 464c5436 345f4d41 585f3130 5f455850  FLT64_MAX_10_EXP
 1eb0 5f5f2033 3038005f 5f53495a 454f465f  __ 308.__SIZEOF_
 1ec0 4c4f4e47 5f5f2034 00535049 5f434f4e  LONG__ 4.SPI_CON
 1ed0 46494720 30783038 00535953 54454d5f  FIG 0x08.SYSTEM_
 1ee0 52495343 565f4953 415f4558 545f5a49  RISCV_ISA_EXT_ZI
 1ef0 43535220 31005f5f 61747472 69627574  CSR 1.__attribut
 1f00 655f666f 726d6174 5f737472 666d6f6e  e_format_strfmon
 1f10 5f5f2861 2c622920 005f4253 445f5349  __(a,b) ._BSD_SI
 1f20 5a455f54 5f444546 494e4544 5f20005f  ZE_T_DEFINED_ ._
 1f30 5f55494e 545f4641 53543332 5f545950  _UINT_FAST32_TYP
 1f40 455f5f20 756e7369 676e6564 20696e74  E__ unsigned int
 1f50 00494f5f 4150425f 534c4156 455f305f  .IO_APB_SLAVE_0_
 1f60 494e5055 54203078 66383130 30303030  INPUT 0xf8100000
 1f70 005f5f53 5444435f 5554465f 33325f5f  .__STDC_UTF_32__
 1f80 2031004d 5f4c4f47 32452031 2e343432   1.M_LOG2E 1.442
 1f90 36393530 34303838 38393633 34303734  6950408889634074
 1fa0 005f5f46 4c543332 5f455053 494c4f4e  .__FLT32_EPSILON
 1fb0 5f5f2031 2e313932 30393238 39353530  __ 1.19209289550
 1fc0 37383132 35303030 30303030 30303030  7812500000000000
 1fd0 30303030 30303030 652d3746 3332005f  00000000e-7F32._
 1fe0 5f474e55 434c494b 455f4d41 54485f42  _GNUCLIKE_MATH_B
 1ff0 55494c54 494e5f52 454c4f50 5320005f  UILTIN_RELOPS ._
 2000 5f464c54 5f4d4158 5f31305f 4558505f  _FLT_MAX_10_EXP_
 2010 5f203338 005f5f50 4d542861 72677329  _ 38.__PMT(args)
 2020 20617267 73005f5f 44454331 32385f4d   args.__DEC128_M
 2030 41585f5f 20392e39 39393939 39393939  AX__ 9.999999999
 2040 39393939 39393939 39393939 39393939  9999999999999999
 2050 39393939 39393939 45363134 34444c00  99999999E6144DL.
 2060 5f5f4445 43313238 5f4d4158 5f455850  __DEC128_MAX_EXP
 2070 5f5f2036 31343500 5f535953 5f434445  __ 6145._SYS_CDE
 2080 46535f48 5f20005f 5f666f72 6d61745f  FS_H_ .__format_
 2090 61726728 666d7461 72672920 5f5f6174  arg(fmtarg) __at
 20a0 74726962 7574655f 5f28285f 5f666f72  tribute__((__for
 20b0 6d61745f 6172675f 5f202866 6d746172  mat_arg__ (fmtar
 20c0 67292929 005f5f49 4e545f46 41535433  g))).__INT_FAST3
 20d0 325f4d41 585f5f20 30783766 66666666  2_MAX__ 0x7fffff
 20e0 6666005f 5f41544f 4d49435f 5345515f  ff.__ATOMIC_SEQ_
 20f0 43535420 35007372 632f6d61 696e2e63  CST 5.src/main.c
 2100 00425350 5f504c49 43205359 5354454d  .BSP_PLIC SYSTEM
 2110 5f504c49 435f4354 524c0053 53544154  _PLIC_CTRL.SSTAT
 2120 55535f55 584c2030 78303030 30303030  US_UXL 0x0000000
 2130 33303030 30303030 30005f5f 464c545f  300000000.__FLT_
 2140 4841535f 494e4649 4e495459 5f5f2031  HAS_INFINITY__ 1
 2150 005f756e 73706563 69666965 645f6c6f  ._unspecified_lo
 2160 63616c65 5f696e66 6f005f5f 6e656564  cale_info.__need
 2170 5f77696e 745f7400 5350495f 53544154  _wint_t.SPI_STAT
 2180 55535f43 4d445f49 4e545f46 4c414720  US_CMD_INT_FLAG 
 2190 3d202831 203c3c20 38290043 4c494e54  = (1 << 8).CLINT
 21a0 5f54494d 455f4144 44522030 78424646  _TIME_ADDR 0xBFF
 21b0 38005359 5354454d 5f504c49 435f5359  8.SYSTEM_PLIC_SY
 21c0 5354454d 5f535049 5f305f49 4f5f494e  STEM_SPI_0_IO_IN
 21d0 54455252 55505420 3400494e 545f4641  TERRUPT 4.INT_FA
 21e0 5354385f 4d415820 285f5f49 4e545f46  ST8_MAX (__INT_F
 21f0 41535438 5f4d4158 5f5f2900 5f726565  AST8_MAX__)._ree
 2200 6e740055 494e544d 41585f4d 41582028  nt.UINTMAX_MAX (
 2210 5f5f5549 4e544d41 585f4d41 585f5f29  __UINTMAX_MAX__)
 2220 005f5f70 72656469 63745f74 72756528  .__predict_true(
 2230 65787029 205f5f62 75696c74 696e5f65  exp) __builtin_e
 2240 78706563 74282865 7870292c 20312900  xpect((exp), 1).
 2250 4d535441 5455535f 4d585220 30783030  MSTATUS_MXR 0x00
 2260 30383030 3030005f 48415645 5f4c4f4e  080000._HAVE_LON
 2270 475f444f 55424c45 2031005f 5f696e74  G_DOUBLE 1.__int
 2280 5f666173 7436345f 745f6465 66696e65  _fast64_t_define
 2290 64203100 5f524545 4e545f45 4d455247  d 1._REENT_EMERG
 22a0 454e4359 5f53495a 45203235 00434c49  ENCY_SIZE 25.CLI
 22b0 4e545f49 50495f41 44445220 30783030  NT_IPI_ADDR 0x00
 22c0 3030005f 5f4c4442 4c5f4d41 585f4558  00.__LDBL_MAX_EX
 22d0 505f5f20 31363338 34007265 61645265  P__ 16384.readRe
 22e0 675f7533 32286e61 6d652c6f 66667365  g_u32(name,offse
 22f0 74292073 74617469 6320696e 6c696e65  t) static inline
 2300 20753332 206e616d 65287533 32207265   u32 name(u32 re
 2310 67297b20 72657475 726e2072 6561645f  g){ return read_
 2320 75333228 72656720 2b206f66 66736574  u32(reg + offset
 2330 293b207d 005f5f53 495a454f 465f5348  ); }.__SIZEOF_SH
 2340 4f52545f 5f203200 5f53495a 455f545f  ORT__ 2._SIZE_T_
 2350 44454649 4e454420 00434155 53455f53  DEFINED .CAUSE_S
 2360 43414c4c 2039005f 756e7573 6564005f  CALL 9._unused._
 2370 5f444543 4f4e5354 28747970 652c7661  _DECONST(type,va
 2380 72292028 28747970 6529285f 5f75696e  r) ((type)(__uin
 2390 74707472 5f742928 636f6e73 7420766f  tptr_t)(const vo
 23a0 6964202a 29287661 72292900 5f535953  id *)(var))._SYS
 23b0 5f464541 54555245 535f4820 005f696e  _FEATURES_H ._in
 23c0 63005f4d 41434853 54444c49 425f485f  c._MACHSTDLIB_H_
 23d0 20005353 54415455 535f5350 50203078   .SSTATUS_SPP 0x
 23e0 30303030 30313030 005f5f47 4e55434c  00000100.__GNUCL
 23f0 494b455f 4255494c 54494e5f 4e455854  IKE_BUILTIN_NEXT
 2400 5f415247 2031005f 504f5349 585f205f  _ARG 1._POSIX_ _
 2410 5f66646c 69626d5f 706f7369 78005f5f  _fdlibm_posix.__
 2420 464c5431 32385f4d 494e5f5f 20332e33  FLT128_MIN__ 3.3
 2430 36323130 33313433 31313230 39333530  6210314311209350
 2440 36323632 36373738 31373332 31373532  6262677817321752
 2450 3630652d 34393332 46313238 0069736c  60e-4932F128.isl
 2460 65737365 7175616c 285f5f78 2c5f5f79  essequal(__x,__y
 2470 2920285f 5f627569 6c74696e 5f69736c  ) (__builtin_isl
 2480 65737365 7175616c 20285f5f 782c205f  essequal (__x, _
 2490 5f792929 005f5f50 5241474d 415f5245  _y)).__PRAGMA_RE
 24a0 44454649 4e455f45 58544e41 4d452031  DEFINE_EXTNAME 1
 24b0 005f5354 44444546 5f485f20 005f4945  ._STDDEF_H_ ._IE
 24c0 45455f20 5f5f6664 6c69626d 5f696565  EE_ __fdlibm_iee
 24d0 65005359 5354454d 5f554152 545f305f  e.SYSTEM_UART_0_
 24e0 494f5f50 4152414d 45544552 5f554152  IO_PARAMETER_UAR
 24f0 545f4354 524c5f43 4f4e4649 475f5052  T_CTRL_CONFIG_PR
 2500 455f5341 4d504c49 4e475f53 495a4520  E_SAMPLING_SIZE 
 2510 31005054 52444946 465f4d49 4e20282d  1.PTRDIFF_MIN (-
 2520 50545244 4946465f 4d415820 2d203129  PTRDIFF_MAX - 1)
 2530 0076615f 73746172 7428762c 6c29205f  .va_start(v,l) _
 2540 5f627569 6c74696e 5f76615f 73746172  _builtin_va_star
 2550 7428762c 6c29004d 5f4c4e31 3020322e  t(v,l).M_LN10 2.
 2560 33303235 38353039 32393934 30343536  3025850929940456
 2570 38343032 005f666e 73005f5f 57434841  8402._fns.__WCHA
 2580 525f4d41 585f5f20 30783766 66666666  R_MAX__ 0x7fffff
 2590 66660053 50495f53 54415455 535f5253  ff.SPI_STATUS_RS
 25a0 505f494e 545f464c 4147203d 20283120  P_INT_FLAG = (1 
 25b0 3c3c2039 29005f5f 55494e54 5f464153  << 9).__UINT_FAS
 25c0 5436345f 54595045 5f5f206c 6f6e6720  T64_TYPE__ long 
 25d0 6c6f6e67 20756e73 69676e65 6420696e  long unsigned in
 25e0 74005350 495f5245 41445f4c 41524745  t.SPI_READ_LARGE
 25f0 20307835 38005f52 45454e54 5f4d4252   0x58._REENT_MBR
 2600 544f5743 5f535441 54452870 74722920  TOWC_STATE(ptr) 
 2610 28287074 72292d3e 5f6e6577 2e5f7265  ((ptr)->_new._re
 2620 656e742e 5f6d6272 746f7763 5f737461  ent._mbrtowc_sta
 2630 74652900 5f57494e 545f5420 005f6d62  te)._WINT_T ._mb
 2640 72746f77 635f7374 61746500 5f5f6c6f  rtowc_state.__lo
 2650 636b5f63 6c6f7365 286c6f63 6b292028  ck_close(lock) (
 2660 28766f69 64292030 29005f63 6c6f7365  (void) 0)._close
 2670 004d4544 454c4547 5f555345 525f454e  .MEDELEG_USER_EN
 2680 5649524f 4e4e454d 454e545f 43414c4c  VIRONNEMENT_CALL
 2690 20283120 3c3c2038 29007369 676e6761   (1 << 8).signga
 26a0 6d20282a 5f5f7369 676e6761 6d282929  m (*__signgam())
 26b0 0046505f 5a45524f 2032005f 5f424947  .FP_ZERO 2.__BIG
 26c0 47455354 5f414c49 474e4d45 4e545f5f  GEST_ALIGNMENT__
 26d0 20313600 5349475f 41544f4d 49435f4d   16.SIG_ATOMIC_M
 26e0 41582028 5f5f5354 44494e54 5f455850  AX (__STDINT_EXP
 26f0 28494e54 5f4d4158 2929005f 5f6e6f69  (INT_MAX)).__noi
 2700 6e6c696e 65205f5f 61747472 69627574  nline __attribut
 2710 655f5f20 28285f5f 6e6f696e 6c696e65  e__ ((__noinline
 2720 5f5f2929 00636c69 6e745f67 65745469  __)).clint_getTi
 2730 6d654c6f 77006d61 6368696e 6554696d  meLow.machineTim
 2740 65725f73 6574436d 7028702c 636d7029  er_setCmp(p,cmp)
 2750 20636c69 6e745f73 6574436d 7028702c   clint_setCmp(p,
 2760 20636d70 2c203029 3b005f5f 44454333   cmp, 0);.__DEC3
 2770 325f4d49 4e5f4558 505f5f20 282d3934  2_MIN_EXP__ (-94
 2780 29005359 5354454d 5f493243 5f315f49  ).SYSTEM_I2C_1_I
 2790 4f5f4354 524c5f53 495a4520 30783130  O_CTRL_SIZE 0x10
 27a0 30005f5f 7765616b 5f73796d 626f6c20  0.__weak_symbol 
 27b0 5f5f6174 74726962 7574655f 5f28285f  __attribute__((_
 27c0 5f776561 6b5f5f29 29005359 5354454d  _weak__)).SYSTEM
 27d0 5f535049 5f305f49 4f5f4354 524c5f53  _SPI_0_IO_CTRL_S
 27e0 495a4520 30783130 30300053 59535445  IZE 0x1000.SYSTE
 27f0 4d5f4750 494f5f30 5f494f5f 4354524c  M_GPIO_0_IO_CTRL
 2800 20307866 38303136 30303000 7370695f   0xf8016000.spi_
 2810 77616974 58666572 42757379 005f5f75  waitXferBusy.__u
 2820 73656420 5f5f6174 74726962 7574655f  sed __attribute_
 2830 5f28285f 5f757365 645f5f29 29005f5f  _((__used__)).__
 2840 67656e65 72696328 65787072 2c742c79  generic(expr,t,y
 2850 65732c6e 6f29205f 47656e65 72696328  es,no) _Generic(
 2860 65787072 2c20743a 20796573 2c206465  expr, t: yes, de
 2870 6661756c 743a206e 6f29005f 5245454e  fault: no)._REEN
 2880 545f454d 45524745 4e435928 70747229  T_EMERGENCY(ptr)
 2890 20282870 7472292d 3e5f656d 65726765   ((ptr)->_emerge
 28a0 6e637929 00535953 54454d5f 55415254  ncy).SYSTEM_UART
 28b0 5f305f49 4f5f5041 52414d45 5445525f  _0_IO_PARAMETER_
 28c0 494e4954 5f434f4e 4649475f 53544f50  INIT_CONFIG_STOP
 28d0 204f4e45 005f5f55 494e5438 5f4d4158   ONE.__UINT8_MAX
 28e0 5f5f2030 78666600 5f5f5f69 6e743136  __ 0xff.___int16
 28f0 5f745f64 6566696e 65642031 005f5f46  _t_defined 1.__F
 2900 4c545f45 5053494c 4f4e5f5f 20312e31  LT_EPSILON__ 1.1
 2910 39323039 32383935 35303738 31323530  9209289550781250
 2920 30303030 30303030 30303030 30303030  0000000000000000
 2930 3030652d 37460042 49545f32 31202831  00e-7F.BIT_21 (1
 2940 203c3c20 32312900 6273705f 7544656c   << 21).bsp_uDel
 2950 61792875 73656329 20636c69 6e745f75  ay(usec) clint_u
 2960 44656c61 79287573 65632c20 53595354  Delay(usec, SYST
 2970 454d5f43 4c494e54 5f485a2c 20535953  EM_CLINT_HZ, SYS
 2980 54454d5f 434c494e 545f4354 524c293b  TEM_CLINT_CTRL);
 2990 00535953 54454d5f 52495343 565f4953  .SYSTEM_RISCV_IS
 29a0 415f4558 545f4120 30005f5f 6578706f  A_EXT_A 0.__expo
 29b0 72746564 205f5f61 74747269 62757465  rted __attribute
 29c0 5f5f2828 5f5f7669 73696269 6c697479  __((__visibility
 29d0 5f5f2822 64656661 756c7422 29292900  __("default"))).
 29e0 5f5f4442 4c5f4841 535f4445 4e4f524d  __DBL_HAS_DENORM
 29f0 5f5f2031 006d6163 68696e65 54696d65  __ 1.machineTime
 2a00 725f7544 656c6179 28757365 632c687a  r_uDelay(usec,hz
 2a10 2c726567 2920636c 696e745f 7544656c  ,reg) clint_uDel
 2a20 61792875 7365632c 20687a2c 20726567  ay(usec, hz, reg
 2a30 293b005f 5f43435f 53555050 4f525453  );.__CC_SUPPORTS
 2a40 5f5f5f49 4e4c494e 45203100 7370695f  ___INLINE 1.spi_
 2a50 636d6441 7661696c 6162696c 69747900  cmdAvailability.
 2a60 494e544d 41585f4d 41582028 5f5f494e  INTMAX_MAX (__IN
 2a70 544d4158 5f4d4158 5f5f2900 494e5433  TMAX_MAX__).INT3
 2a80 325f4d41 5820285f 5f494e54 33325f4d  2_MAX (__INT32_M
 2a90 41585f5f 29004d53 54415455 535f4850  AX__).MSTATUS_HP
 2aa0 50203078 30303030 30363030 005f5f47  P 0x00000600.__G
 2ab0 58585f41 42495f56 45525349 4f4e2031  XX_ABI_VERSION 1
 2ac0 30313300 5f545f50 54524449 46465f20  013._T_PTRDIFF_ 
 2ad0 00535049 5f435320 30005f54 494d455f  .SPI_CS 0._TIME_
 2ae0 545f205f 5f696e74 5f6c6561 73743634  T_ __int_least64
 2af0 5f740042 49545f32 32202831 203c3c20  _t.BIT_22 (1 << 
 2b00 32322900 5f5f464c 54313238 5f4d4158  22).__FLT128_MAX
 2b10 5f455850 5f5f2031 36333834 005f5f4c  _EXP__ 16384.__L
 2b20 45415354 38202268 6822005f 5f6e6565  EAST8 "hh".__nee
 2b30 645f7369 7a655f74 2000534f 435f4820  d_size_t .SOC_H 
 2b40 005f5f72 65747572 6e735f74 77696365  .__returns_twice
 2b50 205f5f61 74747269 62757465 5f5f2828   __attribute__((
 2b60 5f5f7265 7475726e 735f7477 6963655f  __returns_twice_
 2b70 5f292900 53595354 454d5f55 4152545f  _)).SYSTEM_UART_
 2b80 305f494f 5f504152 414d4554 45525f55  0_IO_PARAMETER_U
 2b90 4152545f 4354524c 5f434f4e 4649475f  ART_CTRL_CONFIG_
 2ba0 53414d50 4c494e47 5f53495a 45203500  SAMPLING_SIZE 5.
 2bb0 5f454e44 5f535444 5f432000 69736e61  _END_STD_C .isna
 2bc0 6e285f5f 78292028 5f5f6275 696c7469  n(__x) (__builti
 2bd0 6e5f6973 6e616e20 285f5f78 29290050  n_isnan (__x)).P
 2be0 4d505f57 20307830 32005f5f 6861735f  MP_W 0x02.__has_
 2bf0 696e636c 7564655f 6e657874 28535452  include_next(STR
 2c00 29205f5f 6861735f 696e636c 7564655f  ) __has_include_
 2c10 6e657874 5f5f2853 54522900 55494e54  next__(STR).UINT
 2c20 5f4c4541 53543136 5f4d4158 20285f5f  _LEAST16_MAX (__
 2c30 55494e54 5f4c4541 53543136 5f4d4158  UINT_LEAST16_MAX
 2c40 5f5f2900 5f5f5549 4e543332 5f432863  __).__UINT32_C(c
 2c50 29206320 23232055 4c005f5f 73747266  ) c ## UL.__strf
 2c60 74696d65 6c696b65 28666d74 6172672c  timelike(fmtarg,
 2c70 66697273 74766172 61726729 205f5f61  firstvararg) __a
 2c80 74747269 62757465 5f5f2828 5f5f666f  ttribute__((__fo
 2c90 726d6174 5f5f2028 5f5f7374 72667469  rmat__ (__strfti
 2ca0 6d655f5f 2c20666d 74617267 2c206669  me__, fmtarg, fi
 2cb0 72737476 61726172 67292929 005f4e75  rstvararg)))._Nu
 2cc0 6c6c5f75 6e737065 63696669 65642000  ll_unspecified .
 2cd0 4249545f 32332028 31203c3c 20323329  BIT_23 (1 << 23)
 2ce0 005f5f47 43435f41 544f4d49 435f5348  .__GCC_ATOMIC_SH
 2cf0 4f52545f 4c4f434b 5f465245 45203100  ORT_LOCK_FREE 1.
 2d00 5f494e54 4d41585f 545f4445 434c4152  _INTMAX_T_DECLAR
 2d10 45442000 4253505f 4d414348 494e455f  ED .BSP_MACHINE_
 2d20 54494d45 52205359 5354454d 5f434c49  TIMER SYSTEM_CLI
 2d30 4e545f43 54524c00 46505f49 4c4f4742  NT_CTRL.FP_ILOGB
 2d40 4e414e20 5f5f494e 545f4d41 585f5f00  NAN __INT_MAX__.
 2d50 48554745 5f56414c 4c20285f 5f627569  HUGE_VALL (__bui
 2d60 6c74696e 5f687567 655f7661 6c6c2829  ltin_huge_vall()
 2d70 29004249 545f3320 2831203c 3c203329  ).BIT_3 (1 << 3)
 2d80 00424954 5f313020 2831203c 3c203130  .BIT_10 (1 << 10
 2d90 2900494e 545f4c45 41535433 325f4d41  ).INT_LEAST32_MA
 2da0 5820285f 5f494e54 5f4c4541 53543332  X (__INT_LEAST32
 2db0 5f4d4158 5f5f2900 5f524545 4e545f53  _MAX__)._REENT_S
 2dc0 49474e47 414d2870 74722920 28287074  IGNGAM(ptr) ((pt
 2dd0 72292d3e 5f6e6577 2e5f7265 656e742e  r)->_new._reent.
 2de0 5f67616d 6d615f73 69676e67 616d2900  _gamma_signgam).
 2df0 494e545f 4c454153 5433325f 4d494e20  INT_LEAST32_MIN 
 2e00 282d5f5f 494e545f 4c454153 5433325f  (-__INT_LEAST32_
 2e10 4d41585f 5f202d20 31290042 49545f31  MAX__ - 1).BIT_1
 2e20 35202831 203c3c20 31352900 55415254  5 (1 << 15).UART
 2e30 5f465241 4d455f43 4f4e4649 47203078  _FRAME_CONFIG 0x
 2e40 30430042 49545f32 34202831 203c3c20  0C.BIT_24 (1 << 
 2e50 32342900 5350495f 434d445f 57524954  24).SPI_CMD_WRIT
 2e60 45202831 203c3c20 38290063 73725f63  E (1 << 8).csr_c
 2e70 6c656172 28637372 2c76616c 2920287b  lear(csr,val) ({
 2e80 20756e73 69676e65 64206c6f 6e67205f   unsigned long _
 2e90 5f76203d 2028756e 7369676e 6564206c  _v = (unsigned l
 2ea0 6f6e6729 2876616c 293b205f 5f61736d  ong)(val); __asm
 2eb0 5f5f205f 5f766f6c 6174696c 655f5f20  __ __volatile__ 
 2ec0 28226373 72632022 20236373 7220222c  ("csrc " #csr ",
 2ed0 20253022 203a203a 2022724b 2220285f   %0" : : "rK" (_
 2ee0 5f762929 3b207d29 00637372 5f726561  _v)); }).csr_rea
 2ef0 645f7365 74286373 722c7661 6c292028  d_set(csr,val) (
 2f00 7b20756e 7369676e 6564206c 6f6e6720  { unsigned long 
 2f10 5f5f7620 3d202875 6e736967 6e656420  __v = (unsigned 
 2f20 6c6f6e67 29287661 6c293b20 5f5f6173  long)(val); __as
 2f30 6d5f5f20 5f5f766f 6c617469 6c655f5f  m__ __volatile__
 2f40 20282263 73727273 2025302c 20222023   ("csrrs %0, " #
 2f50 63737220 222c2025 3122203a 20223d72  csr ", %1" : "=r
 2f60 2220285f 5f762920 3a202272 4b222028  " (__v) : "rK" (
 2f70 5f5f7629 293b205f 5f763b20 7d29005f  __v)); __v; })._
 2f80 5f474343 5f41544f 4d49435f 54455354  _GCC_ATOMIC_TEST
 2f90 5f414e44 5f534554 5f545255 4556414c  _AND_SET_TRUEVAL
 2fa0 20310063 6c696e74 5f754465 6c617900   1.clint_uDelay.
 2fb0 63706f6c 00454e41 424c455f 46505f45  cpol.ENABLE_FP_E
 2fc0 58504f4e 454e5449 414c5f53 5550504f  XPONENTIAL_SUPPO
 2fd0 52542030 005f5f45 4c465f5f 2031005f  RT 0.__ELF__ 1._
 2fe0 56415f4c 4953545f 44454649 4e454420  VA_LIST_DEFINED 
 2ff0 005f5f57 43484152 5f4d494e 5f5f2028  .__WCHAR_MIN__ (
 3000 2d5f5f57 43484152 5f4d4158 5f5f202d  -__WCHAR_MAX__ -
 3010 20312900 5f5f464c 5433325f 4841535f   1).__FLT32_HAS_
 3020 51554945 545f4e41 4e5f5f20 31005f5f  QUIET_NAN__ 1.__
 3030 4f42534f 4c455445 5f4d4154 48205f5f  OBSOLETE_MATH __
 3040 4f42534f 4c455445 5f4d4154 485f4445  OBSOLETE_MATH_DE
 3050 4641554c 54004d5f 4c4e324c 4f20312e  FAULT.M_LN2LO 1.
 3060 39303832 31343932 39323730 35383737  9082149292705877
 3070 30303045 2d313000 5f5f4c44 424c5f48  000E-10.__LDBL_H
 3080 41535f49 4e46494e 4954595f 5f203100  AS_INFINITY__ 1.
 3090 6c696d69 74005f5f 44454333 325f4d41  limit.__DEC32_MA
 30a0 585f5f20 392e3939 39393939 45393644  X__ 9.999999E96D
 30b0 46005f5f 464c5433 32585f4d 41585f31  F.__FLT32X_MAX_1
 30c0 305f4558 505f5f20 33303800 504d505f  0_EXP__ 308.PMP_
 30d0 544f5220 30783038 00535953 54454d5f  TOR 0x08.SYSTEM_
 30e0 55415254 5f305f49 4f5f5041 52414d45  UART_0_IO_PARAME
 30f0 5445525f 4255535f 43414e5f 57524954  TER_BUS_CAN_WRIT
 3100 455f4652 414d455f 434f4e46 49472031  E_FRAME_CONFIG 1
 3110 005f5f70 75726520 5f5f6174 74726962  .__pure __attrib
 3120 7574655f 5f28285f 5f707572 655f5f29  ute__((__pure__)
 3130 29005f5f 6f666673 65746f66 28747970  ).__offsetof(typ
 3140 652c6669 656c6429 206f6666 7365746f  e,field) offseto
 3150 66287479 70652c20 6669656c 64290055  f(type, field).U
 3160 53455f47 50203100 5f5f7569 6e74385f  SE_GP 1.__uint8_
 3170 74005f5f 5349475f 41544f4d 49435f4d  t.__SIG_ATOMIC_M
 3180 494e5f5f 20282d5f 5f534947 5f41544f  IN__ (-__SIG_ATO
 3190 4d49435f 4d41585f 5f202d20 31290053  MIC_MAX__ - 1).S
 31a0 59535445 4d5f4252 49444745 5f424d42  YSTEM_BRIDGE_BMB
 31b0 20307830 00535953 54454d5f 504c4943   0x0.SYSTEM_PLIC
 31c0 5f535953 54454d5f 55415254 5f305f49  _SYSTEM_UART_0_I
 31d0 4f5f494e 54455252 55505420 31005f5f  O_INTERRUPT 1.__
 31e0 55494e54 5f4c4541 5354385f 4d41585f  UINT_LEAST8_MAX_
 31f0 5f203078 6666005f 5f444543 36345f4d  _ 0xff.__DEC64_M
 3200 494e5f45 58505f5f 20282d33 38322900  IN_EXP__ (-382).
 3210 4d535441 5455535f 53554d20 30783030  MSTATUS_SUM 0x00
 3220 30343030 3030005f 57434841 525f545f  040000._WCHAR_T_
 3230 44454649 4e45445f 20005f5f 464c5436  DEFINED_ .__FLT6
 3240 34585f48 41535f49 4e46494e 4954595f  4X_HAS_INFINITY_
 3250 5f203100 5349475f 41544f4d 49435f4d  _ 1.SIG_ATOMIC_M
 3260 494e2028 2d5f5f53 5444494e 545f4558  IN (-__STDINT_EX
 3270 5028494e 545f4d41 5829202d 20312900  P(INT_MAX) - 1).
 3280 5f636f6f 6b696500 5f5f4442 4c5f4d41  _cookie.__DBL_MA
 3290 585f5f20 2828646f 75626c65 29312e37  X__ ((double)1.7
 32a0 39373639 33313334 38363233 31353730  9769313486231570
 32b0 38313435 32373432 33373331 37303433  8145274237317043
 32c0 3537652b 3330384c 29005f49 4e543136  57e+308L)._INT16
 32d0 5f545f44 45434c41 52454420 00696e73  _T_DECLARED .ins
 32e0 74727563 74696f6e 5f636163 68655f69  truction_cache_i
 32f0 6e76616c 69646174 65282920 61736d28  nvalidate() asm(
 3300 2266656e 63652e69 22293b00 4249545f  "fence.i");.BIT_
 3310 31342028 31203c3c 20313429 00535049  14 (1 << 14).SPI
 3320 5f535441 5455535f 5253505f 494e545f  _STATUS_RSP_INT_
 3330 454e4142 4c45203d 20283120 3c3c2031  ENABLE = (1 << 1
 3340 29005f77 6473004e 414e2028 5f5f6275  )._wds.NAN (__bu
 3350 696c7469 6e5f6e61 6e662822 22292900  iltin_nanf("")).
 3360 5f5f494e 545f4c45 41535431 365f5749  __INT_LEAST16_WI
 3370 4454485f 5f203136 004d4544 454c4547  DTH__ 16.MEDELEG
 3380 5f53544f 52455f50 4147455f 4641554c  _STORE_PAGE_FAUL
 3390 54202831 203c3c20 31352900 5f5f4445  T (1 << 15).__DE
 33a0 435f4556 414c5f4d 4554484f 445f5f20  C_EVAL_METHOD__ 
 33b0 32005359 5354454d 5f554152 545f305f  2.SYSTEM_UART_0_
 33c0 494f5f50 4152414d 45544552 5f425553  IO_PARAMETER_BUS
 33d0 5f43414e 5f575249 54455f43 4c4f434b  _CAN_WRITE_CLOCK
 33e0 5f444956 49444552 5f434f4e 46494720  _DIVIDER_CONFIG 
 33f0 31005f41 54455849 545f494e 4954207b  1._ATEXIT_INIT {
 3400 5f4e554c 4c2c2030 2c207b5f 4e554c4c  _NULL, 0, {_NULL
 3410 7d2c207b 7b5f4e55 4c4c7d2c 207b5f4e  }, {{_NULL}, {_N
 3420 554c4c7d 2c20302c 20307d7d 005f7369  ULL}, 0, 0}}._si
 3430 675f6675 6e63005f 5f444543 36345f53  g_func.__DEC64_S
 3440 55424e4f 524d414c 5f4d494e 5f5f2030  UBNORMAL_MIN__ 0
 3450 2e303030 30303030 30303030 30303031  .000000000000001
 3460 452d3338 33444400 53595354 454d5f43  E-383DD.SYSTEM_C
 3470 4f524553 5f305f53 55504552 5649534f  ORES_0_SUPERVISO
 3480 52203000 6670636c 61737369 6679285f  R 0.fpclassify(_
 3490 5f782920 285f5f62 75696c74 696e5f66  _x) (__builtin_f
 34a0 70636c61 73736966 79202846 505f4e41  pclassify (FP_NA
 34b0 4e2c2046 505f494e 46494e49 54452c20  N, FP_INFINITE, 
 34c0 46505f4e 4f524d41 4c2c2046 505f5355  FP_NORMAL, FP_SU
 34d0 424e4f52 4d414c2c 2046505f 5a45524f  BNORMAL, FP_ZERO
 34e0 2c205f5f 78292900 5f5f6173 73657274  , __x)).__assert
 34f0 735f6578 636c7573 69766528 2e2e2e29  s_exclusive(...)
 3500 205f5f6c 6f636b5f 616e6e6f 74617465   __lock_annotate
 3510 28617373 6572745f 6578636c 75736976  (assert_exclusiv
 3520 655f6c6f 636b285f 5f56415f 41524753  e_lock(__VA_ARGS
 3530 5f5f2929 005f5f53 495a455f 5420005f  __)).__SIZE_T ._
 3540 5f5f696e 745f6c65 61737433 325f745f  __int_least32_t_
 3550 64656669 6e656420 31005353 54415455  defined 1.SSTATU
 3560 535f5349 45203078 30303030 30303032  S_SIE 0x00000002
 3570 005f6f66 66736574 00424954 5f313720  ._offset.BIT_17 
 3580 2831203c 3c203137 29004d53 54415455  (1 << 17).MSTATU
 3590 535f5350 49452030 78303030 30303032  S_SPIE 0x0000002
 35a0 30005f63 76746275 66005f5f 55534552  0._cvtbuf.__USER
 35b0 5f4c4142 454c5f50 52454649 585f5f20  _LABEL_PREFIX__ 
 35c0 005f5f55 494e5436 345f4d41 585f5f20  .__UINT64_MAX__ 
 35d0 30786666 66666666 66666666 66666666  0xffffffffffffff
 35e0 6666554c 4c005f69 6f627300 55494e54  ffULL._iobs.UINT
 35f0 33325f43 28782920 5f5f5549 4e543332  32_C(x) __UINT32
 3600 5f432878 29005f41 5446494c 455f534f  _C(x)._ATFILE_SO
 3610 55524345 00494e54 5f464153 5431365f  URCE.INT_FAST16_
 3620 4d494e20 282d5f5f 494e545f 46415354  MIN (-__INT_FAST
 3630 31365f4d 41585f5f 202d2031 29005f52  16_MAX__ - 1)._R
 3640 45454e54 5f4d424c 454e5f53 54415445  EENT_MBLEN_STATE
 3650 28707472 29202828 70747229 2d3e5f6e  (ptr) ((ptr)->_n
 3660 65772e5f 7265656e 742e5f6d 626c656e  ew._reent._mblen
 3670 5f737461 74652900 5f5f7472 796c6f63  _state).__tryloc
 3680 6b735f73 68617265 64282e2e 2e29205f  ks_shared(...) _
 3690 5f6c6f63 6b5f616e 6e6f7461 74652873  _lock_annotate(s
 36a0 68617265 645f7472 796c6f63 6b5f6675  hared_trylock_fu
 36b0 6e637469 6f6e285f 5f56415f 41524753  nction(__VA_ARGS
 36c0 5f5f2929 005f5f49 4e545f4c 45415354  __)).__INT_LEAST
 36d0 385f4d41 585f5f20 30783766 005f5f4e  8_MAX__ 0x7f.__N
 36e0 45574c49 425f485f 5f203100 494e5433  EWLIB_H__ 1.INT3
 36f0 325f4d49 4e20282d 5f5f494e 5433325f  2_MIN (-__INT32_
 3700 4d41585f 5f202d20 31290042 49545f31  MAX__ - 1).BIT_1
 3710 38202831 203c3c20 31382900 756e7369  8 (1 << 18).unsi
 3720 676e6564 20736967 6e656400 4d5f494e  gned signed.M_IN
 3730 564c4e32 20312e34 34323639 35303430  VLN2 1.442695040
 3740 38383839 36333338 37304530 005f494e  8889633870E0._IN
 3750 54505452 5f45515f 494e5420 005f5f46  TPTR_EQ_INT .__F
 3760 4c543332 585f4d41 585f4558 505f5f20  LT32X_MAX_EXP__ 
 3770 31303234 005f5f68 61735f69 6e636c75  1024.__has_inclu
 3780 64652853 54522920 5f5f6861 735f696e  de(STR) __has_in
 3790 636c7564 655f5f28 53545229 00636f6e  clude__(STR).con
 37a0 6669674d 54494d45 434d505f 42415345  figMTIMECMP_BASE
 37b0 5f414444 52455353 20284253 505f434c  _ADDRESS (BSP_CL
 37c0 494e5420 2b203078 34303030 29006d65  INT + 0x4000).me
 37d0 6d6f7279 41646472 65737300 5f5f5549  moryAddress.__UI
 37e0 4e545f4c 45415354 33325f4d 41585f5f  NT_LEAST32_MAX__
 37f0 20307866 66666666 66666655 4c005553   0xffffffffUL.US
 3800 45525f53 4f465457 4152455f 464c4153  ER_SOFTWARE_FLAS
 3810 485f494e 53542030 78303031 30303030  H_INST 0x0010000
 3820 3000454e 41424c45 5f464c4f 4154494e  0.ENABLE_FLOATIN
 3830 475f504f 494e545f 53555050 4f525420  G_POINT_SUPPORT 
 3840 53595354 454d5f43 4f524553 5f305f46  SYSTEM_CORES_0_F
 3850 50550053 59535445 4d5f5241 4d5f415f  PU.SYSTEM_RAM_A_
 3860 4354524c 20307866 39303030 30303000  CTRL 0xf9000000.
 3870 5f5f7365 6374696f 6e287829 205f5f61  __section(x) __a
 3880 74747269 62757465 5f5f2828 5f5f7365  ttribute__((__se
 3890 6374696f 6e5f5f28 78292929 004d5354  ction__(x))).MST
 38a0 41545553 5f53584c 20307830 30303030  ATUS_SXL 0x00000
 38b0 30304330 30303030 30303000 5f5f494e  00C00000000.__IN
 38c0 545f4c45 41535436 345f5749 4454485f  T_LEAST64_WIDTH_
 38d0 5f203634 00494e54 4d41585f 43287829  _ 64.INTMAX_C(x)
 38e0 205f5f49 4e544d41 585f4328 78290077   __INTMAX_C(x).w
 38f0 72697465 5265675f 75333228 6e616d65  riteReg_u32(name
 3900 2c6f6666 73657429 20737461 74696320  ,offset) static 
 3910 696e6c69 6e652076 6f696420 6e616d65  inline void name
 3920 28753332 20726567 2c207533 32207661  (u32 reg, u32 va
 3930 6c756529 7b207772 6974655f 75333228  lue){ write_u32(
 3940 76616c75 652c2072 6567202b 206f6666  value, reg + off
 3950 73657429 3b207d00 5f5f494e 54385f4d  set); }.__INT8_M
 3960 41585f5f 20307837 66005553 45525f53  AX__ 0x7f.USER_S
 3970 4f465457 4152455f 464c4153 485f4441  OFTWARE_FLASH_DA
 3980 54412030 78303031 30303030 30202b20  TA 0x00100000 + 
 3990 28205553 45525f53 4f465457 4152455f  ( USER_SOFTWARE_
 39a0 4d454d4f 52595f44 41544120 2d205553  MEMORY_DATA - US
 39b0 45525f53 4f465457 4152455f 4d454d4f  ER_SOFTWARE_MEMO
 39c0 52595f49 4e535420 29005f5f 4743435f  RY_INST ).__GCC_
 39d0 48415645 5f445741 5246325f 4346495f  HAVE_DWARF2_CFI_
 39e0 41534d20 31005f5f 5f696e74 385f745f  ASM 1.___int8_t_
 39f0 64656669 6e656420 31005f70 3573005f  defined 1._p5s._
 3a00 5f474343 5f494543 5f353539 5f434f4d  _GCC_IEC_559_COM
 3a10 504c4558 2030005f 5359535f 5f545950  PLEX 0._SYS__TYP
 3a20 45535f48 20005f5f 474e5543 5f5f2038  ES_H .__GNUC__ 8
 3a30 005f5f55 494e5431 365f5459 50455f5f  .__UINT16_TYPE__
 3a40 2073686f 72742075 6e736967 6e656420   short unsigned 
 3a50 696e7400 5f504f53 49585f53 4f555243  int._POSIX_SOURC
 3a60 45005241 4e445f4d 4158205f 5f52414e  E.RAND_MAX __RAN
 3a70 445f4d41 58005f5f 4c44424c 5f444543  D_MAX.__LDBL_DEC
 3a80 494d414c 5f444947 5f5f2033 36005f5f  IMAL_DIG__ 36.__
 3a90 464c5436 34585f4d 494e5f31 305f4558  FLT64X_MIN_10_EX
 3aa0 505f5f20 282d3439 33312900 5f5f5549  P__ (-4931).__UI
 3ab0 4e543332 5f4d4158 5f5f2030 78666666  NT32_MAX__ 0xfff
 3ac0 66666666 66554c00 5f5f7364 6964696e  fffffUL.__sdidin
 3ad0 6974005f 5f444543 33325f4d 41585f45  it.__DEC32_MAX_E
 3ae0 58505f5f 20393700 5f545f53 495a455f  XP__ 97._T_SIZE_
 3af0 20005f5f 464c545f 4556414c 5f4d4554   .__FLT_EVAL_MET
 3b00 484f445f 54535f31 38363631 5f335f5f  HOD_TS_18661_3__
 3b10 20300061 64647265 73730069 6e74202b   0.address.int +
 3b20 3200636f 6e666967 4d54494d 455f4241  2.configMTIME_BA
 3b30 53455f41 44445245 53532028 4253505f  SE_ADDRESS (BSP_
 3b40 434c494e 54202b20 30784246 46382900  CLINT + 0xBFF8).
 3b50 494e5438 5f432878 29205f5f 494e5438  INT8_C(x) __INT8
 3b60 5f432878 29005f5f 6c6f636b 5f616371  _C(x).__lock_acq
 3b70 75697265 5f726563 75727369 7665286c  uire_recursive(l
 3b80 6f636b29 20282876 6f696429 20302900  ock) ((void) 0).
 3b90 5f5f7265 73747269 63742072 65737472  __restrict restr
 3ba0 69637400 5f5f5549 4e545f46 41535438  ict.__UINT_FAST8
 3bb0 5f545950 455f5f20 756e7369 676e6564  _TYPE__ unsigned
 3bc0 20696e74 00504d50 5f4e4150 4f542030   int.PMP_NAPOT 0
 3bd0 78313800 53595354 454d5f43 4f524553  x18.SYSTEM_CORES
 3be0 5f305f4d 4d552030 005f4c49 425f5645  _0_MMU 0._LIB_VE
 3bf0 5253494f 4e205f5f 66646c69 625f7665  RSION __fdlib_ve
 3c00 7273696f 6e005f5f 72657175 69726573  rsion.__requires
 3c10 5f756e6c 6f636b65 64282e2e 2e29205f  _unlocked(...) _
 3c20 5f6c6f63 6b5f616e 6e6f7461 7465286c  _lock_annotate(l
 3c30 6f636b73 5f657863 6c756465 64285f5f  ocks_excluded(__
 3c40 56415f41 5247535f 5f292900 454e4142  VA_ARGS__)).ENAB
 3c50 4c455f53 454d4948 4f535449 4e475f50  LE_SEMIHOSTING_P
 3c60 52494e54 2030005f 5f494e54 33325f4d  RINT 0.__INT32_M
 3c70 41585f5f 20307837 66666666 6666664c  AX__ 0x7fffffffL
 3c80 005f5f6d 696e5f73 697a6528 78292073  .__min_size(x) s
 3c90 74617469 63202878 29005f54 494d4552  tatic (x)._TIMER
 3ca0 5f545f20 756e7369 676e6564 206c6f6e  _T_ unsigned lon
 3cb0 67005f4c 4f434b5f 52454355 52534956  g._LOCK_RECURSIV
 3cc0 455f5400 5f5f4245 47494e5f 4445434c  E_T.__BEGIN_DECL
 3cd0 5320005f 5f494e54 5f4c4541 53543634  S .__INT_LEAST64
 3ce0 5f4d4158 5f5f2030 78376666 66666666  _MAX__ 0x7ffffff
 3cf0 66666666 66666666 664c4c00 5f5f6e75  fffffffffLL.__nu
 3d00 6c6c5f73 656e7469 6e656c20 5f5f6174  ll_sentinel __at
 3d10 74726962 7574655f 5f28285f 5f73656e  tribute__((__sen
 3d20 74696e65 6c5f5f29 29005f5f 6e656564  tinel__)).__need
 3d30 5f4e554c 4c200042 49545f39 20283120  _NULL .BIT_9 (1 
 3d40 3c3c2039 29005f44 45464155 4c545f53  << 9)._DEFAULT_S
 3d50 4f555243 45203100 5350495f 4d4f4445  OURCE 1.SPI_MODE
 3d60 5f43504f 4c202831 203c3c20 3029005f  _CPOL (1 << 0)._
 3d70 5f464c54 33325f4d 414e545f 4449475f  _FLT32_MANT_DIG_
 3d80 5f203234 006f6666 7365746f 66285459  _ 24.offsetof(TY
 3d90 50452c4d 454d4245 5229205f 5f627569  PE,MEMBER) __bui
 3da0 6c74696e 5f6f6666 7365746f 66202854  ltin_offsetof (T
 3db0 5950452c 204d454d 42455229 005f5f55  YPE, MEMBER).__U
 3dc0 494e5436 345f4328 63292063 20232320  INT64_C(c) c ## 
 3dd0 554c4c00 5f5f5549 4e545f4c 45415354  ULL.__UINT_LEAST
 3de0 36345f54 5950455f 5f206c6f 6e67206c  64_TYPE__ long l
 3df0 6f6e6720 756e7369 676e6564 20696e74  ong unsigned int
 3e00 004d4154 485f4552 524e4f20 31005359  .MATH_ERRNO 1.SY
 3e10 5354454d 5f554152 545f305f 494f5f50  STEM_UART_0_IO_P
 3e20 4152414d 45544552 5f54585f 4649464f  ARAMETER_TX_FIFO
 3e30 5f444550 54482031 3238005f 5f464c54  _DEPTH 128.__FLT
 3e40 3634585f 4d414e54 5f444947 5f5f2031  64X_MANT_DIG__ 1
 3e50 3133005f 57434841 525f545f 44454649  13._WCHAR_T_DEFI
 3e60 4e454420 005f5f47 43435f41 544f4d49  NED .__GCC_ATOMI
 3e70 435f4348 41523136 5f545f4c 4f434b5f  C_CHAR16_T_LOCK_
 3e80 46524545 20310063 73725f77 72697465  FREE 1.csr_write
 3e90 28637372 2c76616c 2920287b 20756e73  (csr,val) ({ uns
 3ea0 69676e65 64206c6f 6e67205f 5f76203d  igned long __v =
 3eb0 2028756e 7369676e 6564206c 6f6e6729   (unsigned long)
 3ec0 2876616c 293b205f 5f61736d 5f5f205f  (val); __asm__ _
 3ed0 5f766f6c 6174696c 655f5f20 28226373  _volatile__ ("cs
 3ee0 72772022 20236373 7220222c 20253022  rw " #csr ", %0"
 3ef0 203a203a 2022724b 2220285f 5f762929   : : "rK" (__v))
 3f00 3b207d29 005f5f4e 554c4c41 42494c49  ; }).__NULLABILI
 3f10 54595f50 5241474d 415f5055 53482000  TY_PRAGMA_PUSH .
 3f20 5f736967 6e616c5f 62756600 5350495f  _signal_buf.SPI_
 3f30 53535f53 45545550 20307832 34005f5f  SS_SETUP 0x24.__
 3f40 44424c5f 4d41585f 4558505f 5f203130  DBL_MAX_EXP__ 10
 3f50 3234005f 5f464153 54363420 226c6c22  24.__FAST64 "ll"
 3f60 005f5f41 544f4d49 435f5245 4c454153  .__ATOMIC_RELEAS
 3f70 45203300 756e7369 676e6564 202b3000  E 3.unsigned +0.
 3f80 666c6173 68416464 72657373 005f5f46  flashAddress.__F
 3f90 4c545f4d 414e545f 4449475f 5f203234  LT_MANT_DIG__ 24
 3fa0 005f5241 4e443438 5f534545 445f3120  ._RAND48_SEED_1 
 3fb0 28307861 62636429 005f5f49 4e545f46  (0xabcd).__INT_F
 3fc0 41535433 325f5459 50455f5f 20696e74  AST32_TYPE__ int
 3fd0 005f5354 44415247 5f482000 5f5f5f69  ._STDARG_H .___i
 3fe0 6e745f70 74726469 66665f74 5f682000  nt_ptrdiff_t_h .
 3ff0 5f5f4f50 54494d49 5a455f5f 2031004d  __OPTIMIZE__ 1.M
 4000 4544454c 45475f4c 4f41445f 50414745  EDELEG_LOAD_PAGE
 4010 5f464155 4c542028 31203c3c 20313329  _FAULT (1 << 13)
 4020 005f494e 5433325f 545f4445 434c4152  ._INT32_T_DECLAR
 4030 45442000 5f5f5353 505f464f 52544946  ED .__SSP_FORTIF
 4040 595f4c45 56454c20 30005f42 6967696e  Y_LEVEL 0._Bigin
 4050 74005f5f 464c5436 345f4d49 4e5f5f20  t.__FLT64_MIN__ 
 4060 322e3232 35303733 38353835 30373230  2.22507385850720
 4070 31333833 30393032 33323731 37333332  1383090232717332
 4080 34303430 36652d33 30384636 34005f5f  40406e-308F64.__
 4090 696e7432 30202b32 005f5f49 4e543634  int20 +2.__INT64
 40a0 5f4d4158 5f5f2030 78376666 66666666  _MAX__ 0x7ffffff
 40b0 66666666 66666666 664c4c00 454e4142  fffffffffLL.ENAB
 40c0 4c455f42 53505f50 52494e54 46203100  LE_BSP_PRINTF 1.
 40d0 5f5f494e 54505452 5f545950 455f5f20  __INTPTR_TYPE__ 
 40e0 696e7400 5f5f464c 54333258 5f4d494e  int.__FLT32X_MIN
 40f0 5f31305f 4558505f 5f20282d 33303729  _10_EXP__ (-307)
 4100 00737069 5f73656c 65637400 5f524545  .spi_select._REE
 4110 4e545f43 4845434b 5f534947 4e414c5f  NT_CHECK_SIGNAL_
 4120 42554628 70747229 20004249 545f3220  BUF(ptr) .BIT_2 
 4130 2831203c 3c203229 005f5f63 6c65616e  (1 << 2).__clean
 4140 7570004d 53544154 55535f4d 50494520  up.MSTATUS_MPIE 
 4150 30783030 30303030 3830005f 61746578  0x00000080._atex
 4160 69743000 5f524545 4e545f53 4d414c4c  it0._REENT_SMALL
 4170 5f434845 434b5f49 4e495428 70747229  _CHECK_INIT(ptr)
 4180 20004750 494f5f4f 55545055 54203078   .GPIO_OUTPUT 0x
 4190 3034004d 53544154 55535f55 49452030  04.MSTATUS_UIE 0
 41a0 78303030 30303030 31005f5f 6e656564  x00000001.__need
 41b0 5f707472 64696666 5f740061 6c6c6f63  _ptrdiff_t.alloc
 41c0 61287369 7a652920 5f5f6275 696c7469  a(size) __builti
 41d0 6e5f616c 6c6f6361 2873697a 6529005f  n_alloca(size)._
 41e0 5f4c4f4e 475f5749 4454485f 5f203332  _LONG_WIDTH__ 32
 41f0 00736967 6e626974 285f5f78 29202828  .signbit(__x) ((
 4200 73697a65 6f66285f 5f782920 3d3d2073  sizeof(__x) == s
 4210 697a656f 6628666c 6f617429 29203f20  izeof(float)) ? 
 4220 5f5f6275 696c7469 6e5f7369 676e6269  __builtin_signbi
 4230 7466285f 5f782920 3a202873 697a656f  tf(__x) : (sizeo
 4240 66285f5f 7829203d 3d207369 7a656f66  f(__x) == sizeof
 4250 28646f75 626c6529 29203f20 5f5f6275  (double)) ? __bu
 4260 696c7469 6e5f7369 676e6269 7420285f  iltin_signbit (_
 4270 5f782920 3a205f5f 6275696c 74696e5f  _x) : __builtin_
 4280 7369676e 6269746c 285f5f78 2929005f  signbitl(__x))._
 4290 545f5743 4841525f 2000636f 6e666967  T_WCHAR_ .config
 42a0 4350555f 434c4f43 4b5f485a 20282028  CPU_CLOCK_HZ ( (
 42b0 2075696e 7433325f 74202920 28204253   uint32_t ) ( BS
 42c0 505f434c 494e545f 485a2029 2029005f  P_CLINT_HZ ) )._
 42d0 5f776172 6e5f7265 66657265 6e636573  _warn_references
 42e0 2873796d 2c6d7367 29205f5f 61736d5f  (sym,msg) __asm_
 42f0 5f28222e 73656374 696f6e20 2e676e75  _(".section .gnu
 4300 2e776172 6e696e67 2e222023 73796d29  .warning." #sym)
 4310 3b205f5f 61736d5f 5f28222e 61736369  ; __asm__(".asci
 4320 7a205c22 22206d73 6720225c 2222293b  z \"" msg "\"");
 4330 205f5f61 736d5f5f 28222e70 72657669   __asm__(".previ
 4340 6f757322 29005353 54415455 535f5355  ous").SSTATUS_SU
 4350 4d203078 30303034 30303030 005f5f61  M 0x00040000.__a
 4360 74747269 62757465 5f6d616c 6c6f635f  ttribute_malloc_
 4370 5f200057 43484152 5f4d4158 20285f5f  _ .WCHAR_MAX (__
 4380 57434841 525f4d41 585f5f29 005f5f73  WCHAR_MAX__).__s
 4390 69676e67 616d5f72 28707472 29205f52  igngam_r(ptr) _R
 43a0 45454e54 5f534947 4e47414d 28707472  EENT_SIGNGAM(ptr
 43b0 29005f5f 4743435f 41544f4d 49435f4c  ).__GCC_ATOMIC_L
 43c0 4f4e475f 4c4f434b 5f465245 45203100  ONG_LOCK_FREE 1.
 43d0 6973696e 66285f5f 78292028 5f5f6275  isinf(__x) (__bu
 43e0 696c7469 6e5f6973 696e665f 7369676e  iltin_isinf_sign
 43f0 20285f5f 78292900 5f5f7569 6e743332   (__x)).__uint32
 4400 5f74005f 656d6572 67656e63 79005f4c  _t._emergency._L
 4410 49425f56 45525349 4f4e5f54 59504520  IB_VERSION_TYPE 
 4420 656e756d 205f5f66 646c6962 6d5f7665  enum __fdlibm_ve
 4430 7273696f 6e006373 725f7365 74286373  rsion.csr_set(cs
 4440 722c7661 6c292028 7b20756e 7369676e  r,val) ({ unsign
 4450 6564206c 6f6e6720 5f5f7620 3d202875  ed long __v = (u
 4460 6e736967 6e656420 6c6f6e67 29287661  nsigned long)(va
 4470 6c293b20 5f5f6173 6d5f5f20 5f5f766f  l); __asm__ __vo
 4480 6c617469 6c655f5f 20282263 73727320  latile__ ("csrs 
 4490 22202363 73722022 2c202530 22203a20  " #csr ", %0" : 
 44a0 3a202272 4b222028 5f5f7629 293b207d  : "rK" (__v)); }
 44b0 29005f5f 464c545f 52414449 585f5f20  ).__FLT_RADIX__ 
 44c0 32005f5f 464c5433 325f4841 535f494e  2.__FLT32_HAS_IN
 44d0 46494e49 54595f5f 2031005f 57414e54  FINITY__ 1._WANT
 44e0 5f494f5f 4c4f4e47 5f444f55 424c4520  _IO_LONG_DOUBLE 
 44f0 31004249 545f3239 20283120 3c3c2032  1.BIT_29 (1 << 2
 4500 39290055 494e5433 325f4d41 5820285f  9).UINT32_MAX (_
 4510 5f55494e 5433325f 4d41585f 5f29005f  _UINT32_MAX__)._
 4520 5f776368 61725f74 5f5f2000 5f5f4c44  _wchar_t__ .__LD
 4530 424c5f48 41535f51 55494554 5f4e414e  BL_HAS_QUIET_NAN
 4540 5f5f2031 005f5f6e 6565645f 4e554c4c  __ 1.__need_NULL
 4550 00737069 466c6173 685f696e 6974005f  .spiFlash_init._
 4560 5f4c4f4e 475f4c4f 4e475f57 49445448  _LONG_LONG_WIDTH
 4570 5f5f2036 34005f6e 696f6273 0057494e  __ 64._niobs.WIN
 4580 545f4d41 5820285f 5f57494e 545f4d41  T_MAX (__WINT_MA
 4590 585f5f29 005f5f6e 6565645f 77636861  X__).__need_wcha
 45a0 725f7420 0055494e 545f4641 53543634  r_t .UINT_FAST64
 45b0 5f4d4158 20285f5f 55494e54 5f464153  _MAX (__UINT_FAS
 45c0 5436345f 4d41585f 5f290053 53544154  T64_MAX__).SSTAT
 45d0 55535f46 53203078 30303030 36303030  US_FS 0x00006000
 45e0 005f5f6c 6f63616c 655f7400 5f524545  .__locale_t._REE
 45f0 4e545f43 4845434b 5f415343 54494d45  NT_CHECK_ASCTIME
 4600 5f425546 28707472 2920005f 5f726973  _BUF(ptr) .__ris
 4610 63765f63 6d6f6465 6c5f6d65 646c6f77  cv_cmodel_medlow
 4620 2031005f 5f494e54 5054525f 57494454   1.__INTPTR_WIDT
 4630 485f5f20 3332005f 5f474343 5f41544f  H__ 32.__GCC_ATO
 4640 4d49435f 4c4c4f4e 475f4c4f 434b5f46  MIC_LLONG_LOCK_F
 4650 52454520 31007373 44697361 626c6500  REE 1.ssDisable.
 4660 5f6e6d61 6c6c6f63 005f5f46 4c543634  _nmalloc.__FLT64
 4670 5f4d4158 5f455850 5f5f2031 30323400  _MAX_EXP__ 1024.
 4680 5f5f5743 4841525f 5420005f 5f535953  __WCHAR_T .__SYS
 4690 5f434f4e 4649475f 485f5f20 005f5f70  _CONFIG_H__ .__p
 46a0 74727661 6c756520 005f5f47 4e55435f  trvalue .__GNUC_
 46b0 56415f4c 4953545f 434f4d50 41544942  VA_LIST_COMPATIB
 46c0 494c4954 59203100 5f5f5f69 6e743332  ILITY 1.___int32
 46d0 5f745f64 6566696e 65642031 005f6761  _t_defined 1._ga
 46e0 6d6d615f 7369676e 67616d00 5f5f4c44  mma_signgam.__LD
 46f0 424c5f4d 41585f5f 20312e31 38393733  BL_MAX__ 1.18973
 4700 31343935 33353732 33313736 35303835  1495357231765085
 4710 37353933 32363632 38303037 3032652b  75932662800702e+
 4720 34393332 4c00504d 505f5348 49465420  4932L.PMP_SHIFT 
 4730 32005f5f 57494e54 5f574944 54485f5f  2.__WINT_WIDTH__
 4740 20333200 5f5f494e 5436345f 54595045   32.__INT64_TYPE
 4750 5f5f206c 6f6e6720 6c6f6e67 20696e74  __ long long int
 4760 005f5f74 72796c6f 636b735f 6578636c  .__trylocks_excl
 4770 75736976 65282e2e 2e29205f 5f6c6f63  usive(...) __loc
 4780 6b5f616e 6e6f7461 74652865 78636c75  k_annotate(exclu
 4790 73697665 5f747279 6c6f636b 5f66756e  sive_trylock_fun
 47a0 6374696f 6e285f5f 56415f41 5247535f  ction(__VA_ARGS_
 47b0 5f292900 55494e54 31365f4d 41582028  _)).UINT16_MAX (
 47c0 5f5f5549 4e543136 5f4d4158 5f5f2900  __UINT16_MAX__).
 47d0 5f5f5349 5a454f46 5f574348 41525f54  __SIZEOF_WCHAR_T
 47e0 5f5f2034 005f5241 4e443438 5f534545  __ 4._RAND48_SEE
 47f0 445f3020 28307833 33306529 005f5f42  D_0 (0x330e).__B
 4800 53445f56 49534942 4c452031 00494e54  SD_VISIBLE 1.INT
 4810 5f4c4541 53543136 5f4d494e 20282d5f  _LEAST16_MIN (-_
 4820 5f494e54 5f4c4541 53543136 5f4d4158  _INT_LEAST16_MAX
 4830 5f5f202d 20312900 5f5f756e 75736564  __ - 1).__unused
 4840 205f5f61 74747269 62757465 5f5f2828   __attribute__((
 4850 5f5f756e 75736564 5f5f2929 005f5f6e  __unused__)).__n
 4860 6f6e6e75 6c6c5f61 6c6c205f 5f617474  onnull_all __att
 4870 72696275 74655f5f 28285f5f 6e6f6e6e  ribute__((__nonn
 4880 756c6c5f 5f292900 5f524545 4e545f4d  ull__))._REENT_M
 4890 42535254 4f574353 5f535441 54452870  BSRTOWCS_STATE(p
 48a0 74722920 28287074 72292d3e 5f6e6577  tr) ((ptr)->_new
 48b0 2e5f7265 656e742e 5f6d6273 72746f77  ._reent._mbsrtow
 48c0 63735f73 74617465 29005f5f 756e6c6f  cs_state).__unlo
 48d0 636b7328 2e2e2e29 205f5f6c 6f636b5f  cks(...) __lock_
 48e0 616e6e6f 74617465 28756e6c 6f636b5f  annotate(unlock_
 48f0 66756e63 74696f6e 285f5f56 415f4152  function(__VA_AR
 4900 47535f5f 29290045 4e41424c 455f4253  GS__)).ENABLE_BS
 4910 505f5052 494e5420 31005f66 7265656c  P_PRINT 1._freel
 4920 69737400 5f5f6c6f 636b5f74 72795f61  ist.__lock_try_a
 4930 63717569 7265286c 6f636b29 20282876  cquire(lock) ((v
 4940 6f696429 20302900 5f524545 4e545f4d  oid) 0)._REENT_M
 4950 42524c45 4e5f5354 41544528 70747229  BRLEN_STATE(ptr)
 4960 20282870 7472292d 3e5f6e65 772e5f72   ((ptr)->_new._r
 4970 65656e74 2e5f6d62 726c656e 5f737461  eent._mbrlen_sta
 4980 74652900 5f5f5f69 6e745f6c 65617374  te).___int_least
 4990 36345f74 5f646566 696e6564 20310069  64_t_defined 1.i
 49a0 736c6573 73677265 61746572 285f5f78  slessgreater(__x
 49b0 2c5f5f79 2920285f 5f627569 6c74696e  ,__y) (__builtin
 49c0 5f69736c 65737367 72656174 65722028  _islessgreater (
 49d0 5f5f782c 205f5f79 2929005f 5f544852  __x, __y)).__THR
 49e0 4f572000 5f676c75 65005f73 69676e00  OW ._glue._sign.
 49f0 5f5f494e 545f4c45 41535433 325f4d41  __INT_LEAST32_MA
 4a00 585f5f20 30783766 66666666 66664c00  X__ 0x7fffffffL.
 4a10 53595354 454d5f53 50495f31 5f494f5f  SYSTEM_SPI_1_IO_
 4a20 4354524c 5f53495a 45203078 31303030  CTRL_SIZE 0x1000
 4a30 005f5245 454e545f 4c363441 5f425546  ._REENT_L64A_BUF
 4a40 28707472 29202828 70747229 2d3e5f6e  (ptr) ((ptr)->_n
 4a50 65772e5f 7265656e 742e5f6c 3634615f  ew._reent._l64a_
 4a60 62756629 005f4154 46494c45 5f534f55  buf)._ATFILE_SOU
 4a70 52434520 31005f5f 53544449 4e545f45  RCE 1.__STDINT_E
 4a80 58502878 29205f5f 20232378 2023235f  XP(x) __ ##x ##_
 4a90 5f005f5f 45585028 7829205f 5f202323  _.__EXP(x) __ ##
 4aa0 78202323 5f5f004d 425f4355 525f4d41  x ##__.MB_CUR_MA
 4ab0 58205f5f 6c6f6361 6c655f6d 625f6375  X __locale_mb_cu
 4ac0 725f6d61 78282900 5f5f4259 54455f4f  r_max().__BYTE_O
 4ad0 52444552 5f5f205f 5f4f5244 45525f4c  RDER__ __ORDER_L
 4ae0 4954544c 455f454e 4449414e 5f5f005f  ITTLE_ENDIAN__._
 4af0 5f574348 41525f54 5950455f 5f20696e  _WCHAR_TYPE__ in
 4b00 74005f41 4e534944 45434c5f 485f2000  t._ANSIDECL_H_ .
 4b10 5f414e53 495f5354 44444546 5f482000  _ANSI_STDDEF_H .
 4b20 5f57414e 545f494f 5f433939 5f464f52  _WANT_IO_C99_FOR
 4b30 4d415453 2031004d 5f504920 332e3134  MATS 1.M_PI 3.14
 4b40 31353932 36353335 38393739 33323338  1592653589793238
 4b50 3436005f 5f57494e 545f5459 50455f5f  46.__WINT_TYPE__
 4b60 20756e73 69676e65 6420696e 74005f5f   unsigned int.__
 4b70 696e745f 66617374 31365f74 5f646566  int_fast16_t_def
 4b80 696e6564 2031004d 5f50495f 3420302e  ined 1.M_PI_4 0.
 4b90 37383533 39383136 33333937 34343833  7853981633974483
 4ba0 30393632 005f4253 445f5054 52444946  0962._BSD_PTRDIF
 4bb0 465f545f 20006d61 6368696e 6554696d  F_T_ .machineTim
 4bc0 65725f67 65745469 6d652870 2920636c  er_getTime(p) cl
 4bd0 696e745f 67657454 696d6528 70293b00  int_getTime(p);.
 4be0 454e4142 4c455f42 53505f50 52494e54  ENABLE_BSP_PRINT
 4bf0 465f4655 4c4c2030 005f666c 61677332  F_FULL 0._flags2
 4c00 00494e54 36345f4d 41582028 5f5f494e  .INT64_MAX (__IN
 4c10 5436345f 4d41585f 5f290053 53544154  T64_MAX__).SSTAT
 4c20 55535f53 50494520 30783030 30303030  US_SPIE 0x000000
 4c30 3230005f 5f4e4557 4c49425f 4d494e4f  20.__NEWLIB_MINO
 4c40 525f5f20 31005f52 45454e54 5f4d4254  R__ 1._REENT_MBT
 4c50 4f57435f 53544154 45287074 72292028  OWC_STATE(ptr) (
 4c60 28707472 292d3e5f 6e65772e 5f726565  (ptr)->_new._ree
 4c70 6e742e5f 6d62746f 77635f73 74617465  nt._mbtowc_state
 4c80 29005f5f 464c545f 4d494e5f 4558505f  ).__FLT_MIN_EXP_
 4c90 5f20282d 31323529 005f5f46 4c543634  _ (-125).__FLT64
 4ca0 5f484153 5f515549 45545f4e 414e5f5f  _HAS_QUIET_NAN__
 4cb0 20310053 59535445 4d5f424d 425f5045   1.SYSTEM_BMB_PE
 4cc0 52495048 4552414c 5f424d42 20307866  RIPHERAL_BMB 0xf
 4cd0 38303030 30303000 6f70636f 64655f52  8000000.opcode_R
 4ce0 286f7063 6f64652c 66756e63 332c6675  (opcode,func3,fu
 4cf0 6e63372c 7273312c 72733229 20287b20  nc7,rs1,rs2) ({ 
 4d00 72656769 73746572 20756e73 69676e65  register unsigne
 4d10 64206c6f 6e67205f 5f763b20 61736d20  d long __v; asm 
 4d20 766f6c61 74696c65 2820222e 776f7264  volatile( ".word
 4d30 20282822 20236f70 636f6465 20222920   ((" #opcode ") 
 4d40 7c202872 65676e75 6d5f2530 203c3c20  | (regnum_%0 << 
 4d50 3729207c 20287265 676e756d 5f253120  7) | (regnum_%1 
 4d60 3c3c2031 3529207c 20287265 676e756d  << 15) | (regnum
 4d70 5f253220 3c3c2032 3029207c 20282822  _%2 << 20) | (("
 4d80 20236675 6e633320 2229203c 3c203132   #func3 ") << 12
 4d90 29207c20 28282220 2366756e 63372022  ) | ((" #func7 "
 4da0 29203c3c 20323529 293b2220 3a205b72  ) << 25));" : [r
 4db0 645d2022 3d722220 285f5f76 29203a20  d] "=r" (__v) : 
 4dc0 22722220 28727331 292c2022 72222028  "r" (rs1), "r" (
 4dd0 72733229 20293b20 5f5f763b 207d2900  rs2) ); __v; }).
 4de0 5f4d5f4c 4e322030 2e363933 31343731  _M_LN2 0.6931471
 4df0 38303535 39393435 33303934 31370055  80559945309417.U
 4e00 494e545f 46415354 385f4d41 5820285f  INT_FAST8_MAX (_
 4e10 5f55494e 545f4641 5354385f 4d41585f  _UINT_FAST8_MAX_
 4e20 5f29005f 5f415454 52494255 54455f49  _).__ATTRIBUTE_I
 4e30 4d505552 455f5054 525f5f20 00494e54  MPURE_PTR__ .INT
 4e40 5f464153 54385f4d 494e2028 2d5f5f49  _FAST8_MIN (-__I
 4e50 4e545f46 41535438 5f4d4158 5f5f202d  NT_FAST8_MAX__ -
 4e60 20312900 5f5f464c 54333258 5f4d4158   1).__FLT32X_MAX
 4e70 5f5f2031 2e373937 36393331 33343836  __ 1.79769313486
 4e80 32333135 37303831 34353237 34323337  2315708145274237
 4e90 33313730 34333537 652b3330 38463332  31704357e+308F32
 4ea0 78005f5f 464c5436 345f4841 535f4445  x.__FLT64_HAS_DE
 4eb0 4e4f524d 5f5f2031 005f5f46 4c545f44  NORM__ 1.__FLT_D
 4ec0 49475f5f 2036005f 685f6572 726e6f00  IG__ 6._h_errno.
 4ed0 5f465657 52495445 5f494e5f 53545245  _FVWRITE_IN_STRE
 4ee0 414d494f 2031005f 57434841 525f545f  AMIO 1._WCHAR_T_
 4ef0 4445434c 41524544 20005f5f 43484152  DECLARED .__CHAR
 4f00 5f424954 5f5f2038 005f5359 535f5245  _BIT__ 8._SYS_RE
 4f10 454e545f 485f2000 5f5f464c 545f4556  ENT_H_ .__FLT_EV
 4f20 414c5f4d 4554484f 445f5f20 30005f5f  AL_METHOD__ 0.__
 4f30 464c545f 4d41585f 5f20332e 34303238  FLT_MAX__ 3.4028
 4f40 32333436 36333835 32383835 39383131  2346638528859811
 4f50 37303431 38333438 34353136 39323565  704183484516925e
 4f60 2b333846 005f5f53 43484152 5f4d4158  +38F.__SCHAR_MAX
 4f70 5f5f2030 78376600 5f5f494e 545f4641  __ 0x7f.__INT_FA
 4f80 5354385f 57494454 485f5f20 3332005f  ST8_WIDTH__ 32._
 4f90 5f494e54 31362022 6822005f 5f464c54  _INT16 "h".__FLT
 4fa0 3132385f 45505349 4c4f4e5f 5f20312e  128_EPSILON__ 1.
 4fb0 39323539 32393934 34333837 32333538  9259299443872358
 4fc0 35333035 35393737 39343235 38343932  5305597794258492
 4fd0 37333265 2d333446 31323800 55415254  732e-34F128.UART
 4fe0 5f444154 41203078 3030005f 5f494e54  _DATA 0x00.__INT
 4ff0 5f4c4541 53543136 5f4d4158 5f5f2030  _LEAST16_MAX__ 0
 5000 78376666 66005f54 5f505452 44494646  x7fff._T_PTRDIFF
 5010 20004d5f 54574f50 4920284d 5f504920   .M_TWOPI (M_PI 
 5020 2a20322e 3029005f 77637274 6f6d625f  * 2.0)._wcrtomb_
 5030 73746174 65005f5f 464c5431 32385f4d  state.__FLT128_M
 5040 41585f31 305f4558 505f5f20 34393332  AX_10_EXP__ 4932
 5050 005f5f47 43435f49 45435f35 35392030  .__GCC_IEC_559 0
 5060 005f5f74 6d5f6d64 61790061 6c6c6f63  .__tm_mday.alloc
 5070 61004249 545f3820 2831203c 3c203829  a.BIT_8 (1 << 8)
 5080 005f5f53 5444435f 5f203100 5f6e6577  .__STDC__ 1._new
 5090 005f5f5f 696e745f 6c656173 74385f74  .___int_least8_t
 50a0 5f646566 696e6564 2031005f 75627566  _defined 1._ubuf
 50b0 005f5f46 4c4f4154 5f574f52 445f4f52  .__FLOAT_WORD_OR
 50c0 4445525f 5f205f5f 4f524445 525f4c49  DER__ __ORDER_LI
 50d0 54544c45 5f454e44 49414e5f 5f004249  TTLE_ENDIAN__.BI
 50e0 545f3330 20283120 3c3c2033 3029005f  T_30 (1 << 30)._
 50f0 5f55494e 54385f54 5950455f 5f20756e  _UINT8_TYPE__ un
 5100 7369676e 65642063 68617200 5f737464  signed char._std
 5110 65727200 5f5f696e 745f6661 7374385f  err.__int_fast8_
 5120 745f6465 66696e65 64203100 5f5f4558  t_defined 1.__EX
 5130 504f5254 20005f77 63746f6d 625f7374  PORT ._wctomb_st
 5140 61746500 5f5f4f42 534f4c45 54455f4d  ate.__OBSOLETE_M
 5150 4154485f 44454641 554c5420 31005f6d  ATH_DEFAULT 1._m
 5160 62737461 7465005f 5f534343 53494428  bstate.__SCCSID(
 5170 73292073 74727563 74205f5f 6861636b  s) struct __hack
 5180 006d5469 6d655065 72557365 63005359  .mTimePerUsec.SY
 5190 5354454d 5f52414d 5f415f43 54524c5f  STEM_RAM_A_CTRL_
 51a0 53495a45 20307831 30303030 005f5f47  SIZE 0x10000.__G
 51b0 4e55434c 494b455f 5f5f5459 50454f46  NUCLIKE___TYPEOF
 51c0 2031005f 5f534852 545f5749 4454485f   1.__SHRT_WIDTH_
 51d0 5f203136 005f7261 6e645f6e 65787400  _ 16._rand_next.
 51e0 5f5f4445 43313238 5f4d414e 545f4449  __DEC128_MANT_DI
 51f0 475f5f20 3334005f 666c6167 73005f5f  G__ 34._flags.__
 5200 494d504f 52542000 53535441 5455535f  IMPORT .SSTATUS_
 5210 55494520 30783030 30303030 3031005f  UIE 0x00000001._
 5220 50545244 4946465f 545f4445 434c4152  PTRDIFF_T_DECLAR
 5230 45442000 5f5f766f 6c617469 6c652076  ED .__volatile v
 5240 6f6c6174 696c6500 4249545f 33312028  olatile.BIT_31 (
 5250 31203c3c 20333129 005f5f46 4c543332  1 << 31).__FLT32
 5260 585f4d49 4e5f4558 505f5f20 282d3130  X_MIN_EXP__ (-10
 5270 32312900 5f57414e 545f5245 47495354  21)._WANT_REGIST
 5280 45525f46 494e4920 31005f5f 4743435f  ER_FINI 1.__GCC_
 5290 41544f4d 49435f43 4841525f 4c4f434b  ATOMIC_CHAR_LOCK
 52a0 5f465245 45203100 5f5f4154 46494c45  _FREE 1.__ATFILE
 52b0 5f564953 49424c45 2031005f 61746578  _VISIBLE 1._atex
 52c0 69740042 53505f4c 45445f47 50494f20  it.BSP_LED_GPIO 
 52d0 53595354 454d5f47 50494f5f 305f494f  SYSTEM_GPIO_0_IO
 52e0 5f435452 4c005f5f 4e554c4c 4142494c  _CTRL.__NULLABIL
 52f0 4954595f 50524147 4d415f50 4f502000  ITY_PRAGMA_POP .
 5300 5f5f7072 65646963 745f6661 6c736528  __predict_false(
 5310 65787029 205f5f62 75696c74 696e5f65  exp) __builtin_e
 5320 78706563 74282865 7870292c 20302900  xpect((exp), 0).
 5330 53595354 454d5f55 4152545f 305f494f  SYSTEM_UART_0_IO
 5340 5f435452 4c203078 66383031 30303030  _CTRL 0xf8010000
 5350 00524454 494d4548 20307843 38310043  .RDTIMEH 0xC81.C
 5360 41555345 5f4d4143 48494e45 5f455854  AUSE_MACHINE_EXT
 5370 45524e41 4c203131 004d5354 41545553  ERNAL 11.MSTATUS
 5380 5f545352 20307830 30343030 30303000  _TSR 0x00400000.
 5390 5f5f5354 52494e47 28782920 23780053  __STRING(x) #x.S
 53a0 59535445 4d5f5241 4d5f415f 53495a45  YSTEM_RAM_A_SIZE
 53b0 20363535 33360055 5345525f 534f4654   65536.USER_SOFT
 53c0 57415245 5f53495a 455f4441 54412030  WARE_SIZE_DATA 0
 53d0 78373830 30005359 5354454d 5f475049  x7800.SYSTEM_GPI
 53e0 4f5f305f 494f5f43 54524c5f 53495a45  O_0_IO_CTRL_SIZE
 53f0 20307831 30300042 49545f31 20283120   0x100.BIT_1 (1 
 5400 3c3c2031 29005f5f 464c5433 325f4d49  << 1).__FLT32_MI
 5410 4e5f3130 5f455850 5f5f2028 2d333729  N_10_EXP__ (-37)
 5420 004d4950 5f535449 50202831 203c3c20  .MIP_STIP (1 << 
 5430 3529005f 5f636f75 6e74005f 5f474e55  5).__count.__GNU
 5440 435f5641 5f4c4953 5420005f 5f49534f  C_VA_LIST .__ISO
 5450 5f435f56 49534942 4c452032 30313100  _C_VISIBLE 2011.
 5460 494e5431 365f4d49 4e20282d 5f5f494e  INT16_MIN (-__IN
 5470 5431365f 4d41585f 5f202d20 3129005f  T16_MAX__ - 1)._
 5480 5f73697a 655f7400 4d5f4c4f 47325f45  _size_t.M_LOG2_E
 5490 205f4d5f 4c4e3200 5f5f464c 545f4445   _M_LN2.__FLT_DE
 54a0 4e4f524d 5f4d494e 5f5f2031 2e343031  NORM_MIN__ 1.401
 54b0 32393834 36343332 34383137 30373039  2984643248170709
 54c0 32333732 39353833 32383939 31363133  2372958328991613
 54d0 652d3435 46005f5f 44454333 325f4d41  e-45F.__DEC32_MA
 54e0 4e545f44 49475f5f 20370075 73656300  NT_DIG__ 7.usec.
 54f0 5f4d4143 48494e45 5f5f4445 4641554c  _MACHINE__DEFAUL
 5500 545f5459 5045535f 4820004d 5f4c4e32  T_TYPES_H .M_LN2
 5510 205f4d5f 4c4e3200 52495343 565f5345   _M_LN2.RISCV_SE
 5520 4d49484f 5354494e 475f4341 4c4c5f4e  MIHOSTING_CALL_N
 5530 554d4245 52203700 5f5f6861 735f6665  UMBER 7.__has_fe
 5540 61747572 65287829 2030005f 4743435f  ature(x) 0._GCC_
 5550 50545244 4946465f 5420005f 5f4c4442  PTRDIFF_T .__LDB
 5560 4c5f4d41 4e545f44 49475f5f 20313133  L_MANT_DIG__ 113
 5570 005f5f4c 45415354 36342022 6c6c2200  .__LEAST64 "ll".
 5580 5f5f4c4f 434b5f49 4e495428 636c6173  __LOCK_INIT(clas
 5590 732c6c6f 636b2920 73746174 69632069  s,lock) static i
 55a0 6e74206c 6f636b20 3d20303b 004d5f53  nt lock = 0;.M_S
 55b0 51525432 20312e34 31343231 33353632  QRT2 1.414213562
 55c0 33373330 39353034 38383000 5f5f746d  37309504880.__tm
 55d0 5f776461 79007373 486f6c64 005f5241  _wday.ssHold._RA
 55e0 4e443438 5f4d554c 545f3220 28307830  ND48_MULT_2 (0x0
 55f0 30303529 005f5f73 69676e65 64207369  005).__signed si
 5600 676e6564 00736c61 76654964 00627370  gned.slaveId.bsp
 5610 4d61696e 005f4841 56455f43 435f494e  Main._HAVE_CC_IN
 5620 48494249 545f4c4f 4f505f54 4f5f4c49  HIBIT_LOOP_TO_LI
 5630 4243414c 4c203100 5f5f4c4f 4e475f4c  BCALL 1.__LONG_L
 5640 4f4e475f 4d41585f 5f203078 37666666  ONG_MAX__ 0x7fff
 5650 66666666 66666666 66666666 4c4c005f  ffffffffffffLL._
 5660 46534545 4b5f4f50 54494d49 5a415449  FSEEK_OPTIMIZATI
 5670 4f4e2031 004d5354 41545553 33325f53  ON 1.MSTATUS32_S
 5680 44203078 38303030 30303030 005f5f74  D 0x80000000.__t
 5690 6d5f7964 61790049 4f5f4150 425f534c  m_yday.IO_APB_SL
 56a0 4156455f 305f494e 5055545f 53495a45  AVE_0_INPUT_SIZE
 56b0 20307831 30303030 004d4544 454c4547   0x10000.MEDELEG
 56c0 5f494e53 54525543 54494f4e 5f504147  _INSTRUCTION_PAG
 56d0 455f4641 554c5420 2831203c 3c203132  E_FAULT (1 << 12
 56e0 29005359 5354454d 5f504c49 435f5359  ).SYSTEM_PLIC_SY
 56f0 5354454d 5f493243 5f305f49 4f5f494e  STEM_I2C_0_IO_IN
 5700 54455252 55505420 38004d5f 4520322e  TERRUPT 8.M_E 2.
 5710 37313832 38313832 38343539 30343532  7182818284590452
 5720 33353400 5f5f464c 54363458 5f484153  354.__FLT64X_HAS
 5730 5f515549 45545f4e 414e5f5f 2031005f  _QUIET_NAN__ 1._
 5740 5f464c54 3132385f 4449475f 5f203333  _FLT128_DIG__ 33
 5750 005f5f49 4e54385f 43286329 2063005f  .__INT8_C(c) c._
 5760 5f736361 6e666c69 6b652866 6d746172  _scanflike(fmtar
 5770 672c6669 72737476 61726172 6729205f  g,firstvararg) _
 5780 5f617474 72696275 74655f5f 28285f5f  _attribute__((__
 5790 666f726d 61745f5f 20285f5f 7363616e  format__ (__scan
 57a0 665f5f2c 20666d74 6172672c 20666972  f__, fmtarg, fir
 57b0 73747661 72617267 29292900 5f5f464c  stvararg))).__FL
 57c0 5433325f 4d41585f 5f20332e 34303238  T32_MAX__ 3.4028
 57d0 32333436 36333835 32383835 39383131  2346638528859811
 57e0 37303431 38333438 34353136 39323565  704183484516925e
 57f0 2b333846 33320047 50494f5f 494e5055  +38F32.GPIO_INPU
 5800 54203078 30300053 70695f43 6f6e6669  T 0x00.Spi_Confi
 5810 67005f45 4c494441 424c455f 494e4c49  g._ELIDABLE_INLI
 5820 4e452073 74617469 63205f5f 696e6c69  NE static __inli
 5830 6e655f5f 005f5f46 4c543634 585f4445  ne__.__FLT64X_DE
 5840 4e4f524d 5f4d494e 5f5f2036 2e343735  NORM_MIN__ 6.475
 5850 31373531 31393433 38303235 31313039  1751194380251109
 5860 32343433 38393538 32323736 34363535  2443895822764655
 5870 652d3439 36364636 3478005f 5f44424c  e-4966F64x.__DBL
 5880 5f4d494e 5f455850 5f5f2028 2d313032  _MIN_EXP__ (-102
 5890 31290073 73536574 75700053 59535445  1).ssSetup.SYSTE
 58a0 4d5f504c 49435f53 59535445 4d5f4932  M_PLIC_SYSTEM_I2
 58b0 435f315f 494f5f49 4e544552 52555054  C_1_IO_INTERRUPT
 58c0 2039005f 73656564 005f5f70 72696e74   9._seed.__print
 58d0 66306c69 6b652866 6d746172 672c6669  f0like(fmtarg,fi
 58e0 72737476 61726172 67292000 7370695f  rstvararg) .spi_
 58f0 64697365 6c656374 00424954 5f313120  diselect.BIT_11 
 5900 2831203c 3c203131 29005f5f 44424c5f  (1 << 11).__DBL_
 5910 45505349 4c4f4e5f 5f202828 646f7562  EPSILON__ ((doub
 5920 6c652932 2e323230 34343630 34393235  le)2.22044604925
 5930 30333133 30383038 34373236 33333336  0313080847263336
 5940 31383136 34303632 652d3136 4c29005f  18164062e-16L)._
 5950 5f464c54 33325f44 49475f5f 2036005f  _FLT32_DIG__ 6._
 5960 7365656b 005f5f53 5444435f 484f5354  seek.__STDC_HOST
 5970 45445f5f 2031005f 5f646561 6432205f  ED__ 1.__dead2 _
 5980 5f617474 72696275 74655f5f 28285f5f  _attribute__((__
 5990 6e6f7265 7475726e 5f5f2929 00474e55  noreturn__)).GNU
 59a0 20433137 20382e33 2e30202d 6d617263   C17 8.3.0 -marc
 59b0 683d7276 3332696d 202d6d61 62693d69  h=rv32im -mabi=i
 59c0 6c703332 202d6733 202d4f67 00535354  lp32 -g3 -Og.SST
 59d0 41545553 36345f53 44203078 38303030  ATUS64_SD 0x8000
 59e0 30303030 30303030 30303030 0069736e  000000000000.isn
 59f0 6f726d61 6c285f5f 78292028 5f5f6275  ormal(__x) (__bu
 5a00 696c7469 6e5f6973 6e6f726d 616c2028  iltin_isnormal (
 5a10 5f5f7829 29005549 4e544d41 585f4328  __x)).UINTMAX_C(
 5a20 7829205f 5f55494e 544d4158 5f432878  x) __UINTMAX_C(x
 5a30 29005f5f 4d495343 5f564953 49424c45  ).__MISC_VISIBLE
 5a40 20310042 49545f32 35202831 203c3c20   1.BIT_25 (1 << 
 5a50 32352900 5f5f4558 50005f66 706f735f  25).__EXP._fpos_
 5a60 74005f5f 4c44424c 5f484153 5f44454e  t.__LDBL_HAS_DEN
 5a70 4f524d5f 5f203100 7370695f 72656164  ORM__ 1.spi_read
 5a80 00737069 466c6173 685f6469 73656c65  .spiFlash_disele
 5a90 6374005f 5f464c54 3332585f 4d494e5f  ct.__FLT32X_MIN_
 5aa0 5f20322e 32323530 37333835 38353037  _ 2.225073858507
 5ab0 32303133 38333039 30323332 37313733  2013830902327173
 5ac0 33323430 34303665 2d333038 46333278  3240406e-308F32x
 5ad0 00535953 54454d5f 504c4943 5f535953  .SYSTEM_PLIC_SYS
 5ae0 54454d5f 55534552 5f54494d 45525f30  TEM_USER_TIMER_0
 5af0 5f494e54 45525255 5054535f 30203139  _INTERRUPTS_0 19
 5b00 005f5245 454e545f 43484543 4b5f4d49  ._REENT_CHECK_MI
 5b10 53432870 74722920 005f4743 435f5743  SC(ptr) ._GCC_WC
 5b20 4841525f 5420005f 5f494e54 5f4c4541  HAR_T .__INT_LEA
 5b30 53543332 5f545950 455f5f20 6c6f6e67  ST32_TYPE__ long
 5b40 20696e74 005f6d62 746f7763 5f737461   int._mbtowc_sta
 5b50 74650042 49545f32 36202831 203c3c20  te.BIT_26 (1 << 
 5b60 32362900 5f5f5549 4e545f4c 45415354  26).__UINT_LEAST
 5b70 36345f4d 41585f5f 20307866 66666666  64_MAX__ 0xfffff
 5b80 66666666 66666666 66666655 4c4c005f  fffffffffffULL._
 5b90 5f464c54 3132385f 4841535f 494e4649  _FLT128_HAS_INFI
 5ba0 4e495459 5f5f2031 005f5f55 494e545f  NITY__ 1.__UINT_
 5bb0 46415354 36345f4d 41585f5f 20307866  FAST64_MAX__ 0xf
 5bc0 66666666 66666666 66666666 66666655  fffffffffffffffU
 5bd0 4c4c005f 5f41544f 4d49435f 41435155  LL.__ATOMIC_ACQU
 5be0 49524520 32005f5f 544d505f 464c545f  IRE 2.__TMP_FLT_
 5bf0 4556414c 5f4d4554 484f4420 005f5f46  EVAL_METHOD .__F
 5c00 4c543634 5f44454e 4f524d5f 4d494e5f  LT64_DENORM_MIN_
 5c10 5f20342e 39343036 35363435 38343132  _ 4.940656458412
 5c20 34363534 34313736 35363837 39323836  4654417656879286
 5c30 38323231 33373265 2d333234 46363400  8221372e-324F64.
 5c40 5f5f4e45 574c4942 5f504154 43484c45  __NEWLIB_PATCHLE
 5c50 56454c5f 5f203000 5f5f464c 5436345f  VEL__ 0.__FLT64_
 5c60 4d41585f 5f20312e 37393736 39333133  MAX__ 1.79769313
 5c70 34383632 33313537 30383134 35323734  4862315708145274
 5c80 32333733 31373034 33353765 2b333038  23731704357e+308
 5c90 46363400 443a5c5f 756e6f5c 32343033  F64.D:\_uno\2403
 5ca0 2d476974 4875625c 74657374 2d726570  -GitHub\test-rep
 5cb0 6f5c6578 616d706c 655f7469 36305f31  o\example_ti60_1
 5cc0 7374675f 626f6f74 6c6f6164 65725c65  stg_bootloader\e
 5cd0 6d626564 6465645f 73775c73 61705c73  mbedded_sw\sap\s
 5ce0 6f667477 6172655c 7374616e 64616c6f  oftware\standalo
 5cf0 6e655c62 6f6f746c 6f616465 725f5472  ne\bootloader_Tr
 5d00 696e6974 61004249 545f3139 20283120  inita.BIT_19 (1 
 5d10 3c3c2031 3929005f 5f444f54 53202c20  << 19).__DOTS , 
 5d20 2e2e2e00 5f5f4445 4336345f 4d414e54  ....__DEC64_MANT
 5d30 5f444947 5f5f2031 36005359 5354454d  _DIG__ 16.SYSTEM
 5d40 5f554152 545f305f 494f5f50 4152414d  _UART_0_IO_PARAM
 5d50 45544552 5f554152 545f4354 524c5f43  ETER_UART_CTRL_C
 5d60 4f4e4649 475f504f 53545f53 414d504c  ONFIG_POST_SAMPL
 5d70 494e475f 53495a45 20320055 494e545f  ING_SIZE 2.UINT_
 5d80 4c454153 5436345f 4d415820 285f5f55  LEAST64_MAX (__U
 5d90 494e545f 4c454153 5436345f 4d41585f  INT_LEAST64_MAX_
 5da0 5f29005f 5f616c6c 6f635f73 697a6528  _).__alloc_size(
 5db0 7829205f 5f617474 72696275 74655f5f  x) __attribute__
 5dc0 28285f5f 616c6c6f 635f7369 7a655f5f  ((__alloc_size__
 5dd0 28782929 29005f5f 474e5543 4c494b45  (x))).__GNUCLIKE
 5de0 5f425549 4c54494e 5f434f4e 5354414e  _BUILTIN_CONSTAN
 5df0 545f5020 31005f5f 53485254 5f4d4158  T_P 1.__SHRT_MAX
 5e00 5f5f2030 78376666 66005f52 45454e54  __ 0x7fff._REENT
 5e10 5f574353 52544f4d 42535f53 54415445  _WCSRTOMBS_STATE
 5e20 28707472 29202828 70747229 2d3e5f6e  (ptr) ((ptr)->_n
 5e30 65772e5f 7265656e 742e5f77 63737274  ew._reent._wcsrt
 5e40 6f6d6273 5f737461 74652900 5f5f5054  ombs_state).__PT
 5e50 52444946 465f5459 50455f5f 20696e74  RDIFF_TYPE__ int
 5e60 005f5f57 494e545f 4d41585f 5f203078  .__WINT_MAX__ 0x
 5e70 66666666 66666666 55005541 52545f43  ffffffffU.UART_C
 5e80 4c4f434b 5f444956 49444552 20307830  LOCK_DIVIDER 0x0
 5e90 38005f5f 474e555f 56495349 424c4520  8.__GNU_VISIBLE 
 5ea0 30005359 5354454d 5f524953 43565f49  0.SYSTEM_RISCV_I
 5eb0 53415f45 58545f43 2030005f 5245454e  SA_EXT_C 0._REEN
 5ec0 545f5743 544f4d42 5f535441 54452870  T_WCTOMB_STATE(p
 5ed0 74722920 28287074 72292d3e 5f6e6577  tr) ((ptr)->_new
 5ee0 2e5f7265 656e742e 5f776374 6f6d625f  ._reent._wctomb_
 5ef0 73746174 6529005f 64736f5f 68616e64  state)._dso_hand
 5f00 6c650073 7069466c 6173685f 696e6974  le.spiFlash_init
 5f10 5f005f5f 494e545f 46415354 31365f54  _.__INT_FAST16_T
 5f20 5950455f 5f20696e 74005f55 494e544d  YPE__ int._UINTM
 5f30 41585f54 5f444543 4c415245 4420005f  AX_T_DECLARED ._
 5f40 504f5349 585f435f 534f5552 43452032  POSIX_C_SOURCE 2
 5f50 30303830 394c005f 72616e64 3438005f  00809L._rand48._
 5f60 5f55494e 545f4c45 41535431 365f5459  _UINT_LEAST16_TY
 5f70 50455f5f 2073686f 72742075 6e736967  PE__ short unsig
 5f80 6e656420 696e7400 73706943 6667005f  ned int.spiCfg._
 5f90 545f5349 5a452000 5f5f4348 41523136  T_SIZE .__CHAR16
 5fa0 5f545950 455f5f20 73686f72 7420756e  _TYPE__ short un
 5fb0 7369676e 65642069 6e740053 59535445  signed int.SYSTE
 5fc0 4d5f5249 5343565f 4953415f 52563332  M_RISCV_ISA_RV32
 5fd0 49203100 4d494445 4c45475f 53555045  I 1.MIDELEG_SUPE
 5fe0 52564953 4f525f54 494d4552 20283120  RVISOR_TIMER (1 
 5ff0 3c3c2035 29005f5f 464c5433 32585f44  << 5).__FLT32X_D
 6000 49475f5f 20313500 494e5436 345f4328  IG__ 15.INT64_C(
 6010 7829205f 5f494e54 36345f43 28782900  x) __INT64_C(x).
 6020 5350495f 53544154 55535f43 4d445f49  SPI_STATUS_CMD_I
 6030 4e545f45 4e41424c 45203d20 2831203c  NT_ENABLE = (1 <
 6040 3c203029 005f5245 454e545f 41534354  < 0)._REENT_ASCT
 6050 494d455f 42554628 70747229 20282870  IME_BUF(ptr) ((p
 6060 7472292d 3e5f6e65 772e5f72 65656e74  tr)->_new._reent
 6070 2e5f6173 6374696d 655f6275 6629005f  ._asctime_buf)._
 6080 5f686964 64656e20 5f5f6174 74726962  _hidden __attrib
 6090 7574655f 5f28285f 5f766973 6962696c  ute__((__visibil
 60a0 6974795f 5f282268 69646465 6e222929  ity__("hidden"))
 60b0 29005359 5354454d 5f524953 43565f49  ).SYSTEM_RISCV_I
 60c0 53415f45 58545f4d 2031005f 5f46494e  SA_EXT_M 1.__FIN
 60d0 4954455f 4d415448 5f4f4e4c 595f5f20  ITE_MATH_ONLY__ 
 60e0 30005f5f 494e545f 46415354 31365f4d  0.__INT_FAST16_M
 60f0 41585f5f 20307837 66666666 66666600  AX__ 0x7fffffff.
 6100 5f5f6861 76655f6c 6f6e676c 6f6e6736  __have_longlong6
 6110 34203100 454e4142 4c455f50 54524449  4 1.ENABLE_PTRDI
 6120 46465f53 5550504f 52542030 00535953  FF_SUPPORT 0.SYS
 6130 54454d5f 55415254 5f305f49 4f5f5041  TEM_UART_0_IO_PA
 6140 52414d45 5445525f 494e4954 5f434f4e  RAMETER_INIT_CON
 6150 4649475f 50415249 5459204e 4f4e4500  FIG_PARITY NONE.
 6160 53595354 454d5f43 4c494e54 5f435452  SYSTEM_CLINT_CTR
 6170 4c203078 66386230 30303030 005f626c  L 0xf8b00000._bl
 6180 6b73697a 65005f5f 72697363 765f786c  ksize.__riscv_xl
 6190 656e2033 32005f52 45454e54 5f4d505f  en 32._REENT_MP_
 61a0 50355328 70747229 20282870 7472292d  P5S(ptr) ((ptr)-
 61b0 3e5f7035 7329005f 55494e54 5054525f  >_p5s)._UINTPTR_
 61c0 545f4445 434c4152 45442000 4d5f325f  T_DECLARED .M_2_
 61d0 53515254 50492031 2e313238 33373931  SQRTPI 1.1283791
 61e0 36373039 35353132 35373339 30005f5f  6709551257390.__
 61f0 464c5431 32385f44 4543494d 414c5f44  FLT128_DECIMAL_D
 6200 49475f5f 20333600 5f626173 65005f5f  IG__ 36._base.__
 6210 55494e54 5054525f 4d41585f 5f203078  UINTPTR_MAX__ 0x
 6220 66666666 66666666 55006461 74615f63  ffffffffU.data_c
 6230 61636865 5f696e76 616c6964 6174655f  ache_invalidate_
 6240 61646472 65737328 61646472 65737329  address(address)
 6250 20287b20 61736d20 766f6c61 74696c65   ({ asm volatile
 6260 2820222e 776f7264 20282830 78353030  ( ".word ((0x500
 6270 4629207c 20287265 676e756d 5f253020  F) | (regnum_%0 
 6280 3c3c2031 3529293b 22203a20 3a202272  << 15));" : : "r
 6290 22202861 64647265 73732920 293b207d  " (address) ); }
 62a0 29005f4d 4154485f 485f2000 53595354  )._MATH_H_ .SYST
 62b0 454d5f55 4152545f 305f494f 5f504152  EM_UART_0_IO_PAR
 62c0 414d4554 45525f49 4e49545f 434f4e46  AMETER_INIT_CONF
 62d0 49475f42 41554452 41544520 31313532  IG_BAUDRATE 1152
 62e0 3030004d 5f335049 5f342032 2e333536  00.M_3PI_4 2.356
 62f0 31393434 39303139 32333434 38333730  1944901923448370
 6300 4530005f 5f494545 455f4c49 54544c45  E0.__IEEE_LITTLE
 6310 5f454e44 49414e20 00535953 54454d5f  _ENDIAN .SYSTEM_
 6320 55415254 5f305f49 4f5f5041 52414d45  UART_0_IO_PARAME
 6330 5445525f 494e4954 5f434f4e 4649475f  TER_INIT_CONFIG_
 6340 44415441 5f4c454e 47544820 37005f5f  DATA_LENGTH 7.__
 6350 43435f53 5550504f 5254535f 56415241  CC_SUPPORTS_VARA
 6360 4449435f 58585820 31005f52 45454e54  DIC_XXX 1._REENT
 6370 5f544d28 70747229 20282628 70747229  _TM(ptr) (&(ptr)
 6380 2d3e5f6e 65772e5f 7265656e 742e5f6c  ->_new._reent._l
 6390 6f63616c 74696d65 5f627566 29005f52  ocaltime_buf)._R
 63a0 45454e54 5f4d505f 52455355 4c542870  EENT_MP_RESULT(p
 63b0 74722920 28287074 72292d3e 5f726573  tr) ((ptr)->_res
 63c0 756c7429 00535953 54454d5f 55415254  ult).SYSTEM_UART
 63d0 5f305f49 4f5f5041 52414d45 5445525f  _0_IO_PARAMETER_
 63e0 55415254 5f435452 4c5f434f 4e464947  UART_CTRL_CONFIG
 63f0 5f444154 415f5749 4454485f 4d415820  _DATA_WIDTH_MAX 
 6400 38005f5f 6172675f 74797065 5f746167  8.__arg_type_tag
 6410 28617267 5f6b696e 642c6172 675f6964  (arg_kind,arg_id
 6420 782c7479 70655f74 61675f69 64782920  x,type_tag_idx) 
 6430 00424954 5f372028 31203c3c 20372900  .BIT_7 (1 << 7).
 6440 5f5f636f 6e746169 6e65726f 6628782c  __containerof(x,
 6450 732c6d29 20287b20 636f6e73 7420766f  s,m) ({ const vo
 6460 6c617469 6c65205f 5f747970 656f6628  latile __typeof(
 6470 28287320 2a293029 2d3e6d29 202a5f5f  ((s *)0)->m) *__
 6480 78203d20 2878293b 205f5f44 45515541  x = (x); __DEQUA
 6490 4c494659 2873202a 2c202863 6f6e7374  LIFY(s *, (const
 64a0 20766f6c 6174696c 65206368 6172202a   volatile char *
 64b0 295f5f78 202d205f 5f6f6666 7365746f  )__x - __offseto
 64c0 6628732c 206d2929 3b7d2900 5f5f6c6f  f(s, m));}).__lo
 64d0 636b5f63 6c6f7365 5f726563 75727369  ck_close_recursi
 64e0 7665286c 6f636b29 20282876 6f696429  ve(lock) ((void)
 64f0 20302900 5f425344 5f53495a 455f545f   0)._BSD_SIZE_T_
 6500 20005f5f 696e7432 305f5f20 2b320053   .__int20__ +2.S
 6510 59535445 4d5f5249 5343565f 4953415f  YSTEM_RISCV_ISA_
 6520 4558545f 46203000 4750494f 5f4f5554  EXT_F 0.GPIO_OUT
 6530 5055545f 454e4142 4c452030 78303800  PUT_ENABLE 0x08.
 6540 5f494e54 36345f54 5f444543 4c415245  _INT64_T_DECLARE
 6550 4420005f 5245454e 545f5354 44494f5f  D ._REENT_STDIO_
 6560 53545245 414d2876 61722c69 6e646578  STREAM(var,index
 6570 29202628 76617229 2d3e5f5f 73665b69  ) &(var)->__sf[i
 6580 6e646578 5d005f5f 46494c45 00485547  ndex].__FILE.HUG
 6590 455f5641 4c462028 5f5f6275 696c7469  E_VALF (__builti
 65a0 6e5f6875 67655f76 616c6628 2929004d  n_huge_valf()).M
 65b0 4944454c 45475f53 55504552 5649534f  IDELEG_SUPERVISO
 65c0 525f4558 5445524e 414c2028 31203c3c  R_EXTERNAL (1 <<
 65d0 20392900 5f5f7661 5f636f70 7928642c   9).__va_copy(d,
 65e0 7329205f 5f627569 6c74696e 5f76615f  s) __builtin_va_
 65f0 636f7079 28642c73 29004d53 54415455  copy(d,s).MSTATU
 6600 535f4d50 50203078 30303030 31383030  S_MPP 0x00001800
 6610 005f434c 4f434b49 445f545f 20756e73  ._CLOCKID_T_ uns
 6620 69676e65 64206c6f 6e67005f 5245454e  igned long._REEN
 6630 545f4348 45434b5f 544d2870 74722920  T_CHECK_TM(ptr) 
 6640 004d5354 41545553 5f485049 45203078  .MSTATUS_HPIE 0x
 6650 30303030 30303430 005f6d62 73746174  00000040._mbstat
 6660 655f7400 5f5f494e 545f5743 4841525f  e_t.__INT_WCHAR_
 6670 545f4820 00475049 4f5f494e 54455252  T_H .GPIO_INTERR
 6680 5550545f 46414c4c 5f454e41 424c4520  UPT_FALL_ENABLE 
 6690 30783234 00535953 54454d5f 504c4943  0x24.SYSTEM_PLIC
 66a0 5f535953 54454d5f 4750494f 5f305f49  _SYSTEM_GPIO_0_I
 66b0 4f5f494e 54455252 55505453 5f302031  O_INTERRUPTS_0 1
 66c0 32005f72 34380073 7069466c 6173685f  2._r48.spiFlash_
 66d0 66326d00 5f5f474e 55434c49 4b455f43  f2m.__GNUCLIKE_C
 66e0 544f525f 53454354 494f4e5f 48414e44  TOR_SECTION_HAND
 66f0 4c494e47 20310053 59535445 4d5f5541  LING 1.SYSTEM_UA
 6700 52545f30 5f494f5f 50415241 4d455445  RT_0_IO_PARAMETE
 6710 525f5258 5f464946 4f5f4445 50544820  R_RX_FIFO_DEPTH 
 6720 31323800 504d505f 58203078 30340042  128.PMP_X 0x04.B
 6730 53505f43 4c494e54 5f485a20 53595354  SP_CLINT_HZ SYST
 6740 454d5f43 4c494e54 5f485a00 504d505f  EM_CLINT_HZ.PMP_
 6750 52203078 30310047 50494f5f 494e5445  R 0x01.GPIO_INTE
 6760 52525550 545f4c4f 575f454e 41424c45  RRUPT_LOW_ENABLE
 6770 20307832 63005f5f 44424c5f 4d494e5f   0x2c.__DBL_MIN_
 6780 5f202828 646f7562 6c652932 2e323235  _ ((double)2.225
 6790 30373338 35383530 37323031 33383330  0738585072013830
 67a0 39303233 32373137 33333234 30343036  9023271733240406
 67b0 652d3330 384c2900 5f5f464c 54363458  e-308L).__FLT64X
 67c0 5f4d494e 5f5f2033 2e333632 31303331  _MIN__ 3.3621031
 67d0 34333131 32303933 35303632 36323637  4311209350626267
 67e0 37383137 33323137 35323630 652d3439  781732175260e-49
 67f0 33324636 3478005f 414e5349 5f535444  32F64x._ANSI_STD
 6800 4152475f 485f2000 55494e54 36345f43  ARG_H_ .UINT64_C
 6810 28782920 5f5f5549 4e543634 5f432878  (x) __UINT64_C(x
 6820 29005f5f 6c6f636b 5f696e69 74286c6f  ).__lock_init(lo
 6830 636b2920 2828766f 69642920 3029005f  ck) ((void) 0)._
 6840 64617461 0055494e 545f4c45 41535438  data.UINT_LEAST8
 6850 5f4d4158 20285f5f 55494e54 5f4c4541  _MAX (__UINT_LEA
 6860 5354385f 4d41585f 5f29005f 5f474e55  ST8_MAX__).__GNU
 6870 435f4d49 4e4f525f 5f203300 5f5f6c6f  C_MINOR__ 3.__lo
 6880 636b5f72 656c6561 73655f72 65637572  ck_release_recur
 6890 73697665 286c6f63 6b292028 28766f69  sive(lock) ((voi
 68a0 64292030 29005f5f 55494e54 5f4c4541  d) 0).__UINT_LEA
 68b0 53543332 5f545950 455f5f20 6c6f6e67  ST32_TYPE__ long
 68c0 20756e73 69676e65 6420696e 74005f5f   unsigned int.__
 68d0 4c44424c 5f4d494e 5f31305f 4558505f  LDBL_MIN_10_EXP_
 68e0 5f20282d 34393331 29005f5f 72657175  _ (-4931).__requ
 68f0 69726573 5f657863 6c757369 7665282e  ires_exclusive(.
 6900 2e2e2920 5f5f6c6f 636b5f61 6e6e6f74  ..) __lock_annot
 6910 61746528 6578636c 75736976 655f6c6f  ate(exclusive_lo
 6920 636b735f 72657175 69726564 285f5f56  cks_required(__V
 6930 415f4152 47535f5f 2929005f 52414e44  A_ARGS__))._RAND
 6940 34385f4d 554c545f 31202830 78646565  48_MULT_1 (0xdee
 6950 6329005f 5f494e54 4d41585f 54595045  c).__INTMAX_TYPE
 6960 5f5f206c 6f6e6720 6c6f6e67 20696e74  __ long long int
 6970 005f5f47 43435f41 544f4d49 435f494e  .__GCC_ATOMIC_IN
 6980 545f4c4f 434b5f46 52454520 31007368  T_LOCK_FREE 1.sh
 6990 6f727400 53595354 454d5f43 4f524553  ort.SYSTEM_CORES
 69a0 5f305f46 50552030 005f5f46 4c543332  _0_FPU 0.__FLT32
 69b0 585f4550 53494c4f 4e5f5f20 322e3232  X_EPSILON__ 2.22
 69c0 30343436 30343932 35303331 33303830  0446049250313080
 69d0 38343732 36333333 36313831 36343036  8472633361816406
 69e0 32652d31 36463332 78005f47 43435f4d  2e-16F32x._GCC_M
 69f0 41585f41 4c49474e 5f542000 4253505f  AX_ALIGN_T .BSP_
 6a00 55415254 5f544552 4d494e41 4c205359  UART_TERMINAL SY
 6a10 5354454d 5f554152 545f305f 494f5f43  STEM_UART_0_IO_C
 6a20 54524c00 5f535452 494e4753 5f485f20  TRL._STRINGS_H_ 
 6a30 005f5349 5a45545f 20005f53 54444c49  ._SIZET_ ._STDLI
 6a40 425f485f 20005f5f 44424c5f 4841535f  B_H_ .__DBL_HAS_
 6a50 51554945 545f4e41 4e5f5f20 31006973  QUIET_NAN__ 1.is
 6a60 6c657373 285f5f78 2c5f5f79 2920285f  less(__x,__y) (_
 6a70 5f627569 6c74696e 5f69736c 65737320  _builtin_isless 
 6a80 285f5f78 2c205f5f 79292900 5f5f464c  (__x, __y)).__FL
 6a90 5436345f 4841535f 494e4649 4e495459  T64_HAS_INFINITY
 6aa0 5f5f2031 0055494e 545f4641 53543136  __ 1.UINT_FAST16
 6ab0 5f4d4158 20285f5f 55494e54 5f464153  _MAX (__UINT_FAS
 6ac0 5431365f 4d41585f 5f29005f 4e4f494e  T16_MAX__)._NOIN
 6ad0 4c494e45 5f535441 54494320 5f4e4f49  LINE_STATIC _NOI
 6ae0 4e4c494e 45207374 61746963 0046505f  NLINE static.FP_
 6af0 4e4f524d 414c2034 005f5f63 6f6e7374  NORMAL 4.__const
 6b00 20636f6e 73740055 494e545f 4c454153   const.UINT_LEAS
 6b10 5433325f 4d415820 285f5f55 494e545f  T32_MAX (__UINT_
 6b20 4c454153 5433325f 4d41585f 5f29005f  LEAST32_MAX__)._
 6b30 5f434f50 59524947 48542873 29207374  _COPYRIGHT(s) st
 6b40 72756374 205f5f68 61636b00 5f524545  ruct __hack._REE
 6b50 4e545f43 4845434b 5f454d45 5247454e  NT_CHECK_EMERGEN
 6b60 43592870 74722920 005f5f46 4c543132  CY(ptr) .__FLT12
 6b70 385f4445 4e4f524d 5f4d494e 5f5f2036  8_DENORM_MIN__ 6
 6b80 2e343735 31373531 31393433 38303235  .475175119438025
 6b90 31313039 32343433 38393538 32323736  1109244389582276
 6ba0 34363535 652d3439 36364631 32380069  4655e-4966F128.i
 6bb0 7366696e 69746528 5f5f7829 20285f5f  sfinite(__x) (__
 6bc0 6275696c 74696e5f 69736669 6e697465  builtin_isfinite
 6bd0 20285f5f 78292900 63686172 202b3000   (__x)).char +0.
 6be0 55494e54 5f464153 5433325f 4d415820  UINT_FAST32_MAX 
 6bf0 285f5f55 494e545f 46415354 33325f4d  (__UINT_FAST32_M
 6c00 41585f5f 29006373 725f7377 61702863  AX__).csr_swap(c
 6c10 73722c76 616c2920 287b2075 6e736967  sr,val) ({ unsig
 6c20 6e656420 6c6f6e67 205f5f76 203d2028  ned long __v = (
 6c30 756e7369 676e6564 206c6f6e 67292876  unsigned long)(v
 6c40 616c293b 205f5f61 736d5f5f 205f5f76  al); __asm__ __v
 6c50 6f6c6174 696c655f 5f202822 63737272  olatile__ ("csrr
 6c60 77202530 2c202220 23637372 20222c20  w %0, " #csr ", 
 6c70 25312220 3a20223d 72222028 5f5f7629  %1" : "=r" (__v)
 6c80 203a2022 724b2220 285f5f76 29293b20   : "rK" (__v)); 
 6c90 5f5f763b 207d2900 5f5f5549 4e545054  __v; }).__UINTPT
 6ca0 525f5459 50455f5f 20756e73 69676e65  R_TYPE__ unsigne
 6cb0 6420696e 74007370 69466c61 73685f73  d int.spiFlash_s
 6cc0 656c6563 74005f5f 52454749 53544552  elect.__REGISTER
 6cd0 5f505245 4649585f 5f20005f 5f444543  _PREFIX__ .__DEC
 6ce0 3132385f 5355424e 4f524d41 4c5f4d49  128_SUBNORMAL_MI
 6cf0 4e5f5f20 302e3030 30303030 30303030  N__ 0.0000000000
 6d00 30303030 30303030 30303030 30303030  0000000000000000
 6d10 30303030 30303145 2d363134 33444c00  0000001E-6143DL.
 6d20 5f5f4442 4c5f4449 475f5f20 3135005f  __DBL_DIG__ 15._
 6d30 55494e54 31365f54 5f444543 4c415245  UINT16_T_DECLARE
 6d40 4420005f 5f524353 49442873 29207374  D .__RCSID(s) st
 6d50 72756374 205f5f68 61636b00 5f5f5349  ruct __hack.__SI
 6d60 5a454f46 5f53495a 455f545f 5f203400  ZEOF_SIZE_T__ 4.
 6d70 52445449 4d452030 78433031 005f5f55  RDTIME 0xC01.__U
 6d80 494e5436 345f5459 50455f5f 206c6f6e  INT64_TYPE__ lon
 6d90 67206c6f 6e672075 6e736967 6e656420  g long unsigned 
 6da0 696e7400 5f5f464c 5436345f 45505349  int.__FLT64_EPSI
 6db0 4c4f4e5f 5f20322e 32323034 34363034  LON__ 2.22044604
 6dc0 39323530 33313330 38303834 37323633  9250313080847263
 6dd0 33333631 38313634 30363265 2d313646  33618164062e-16F
 6de0 36340053 50495f52 4541445f 57524954  64.SPI_READ_WRIT
 6df0 455f4c41 52474520 30783534 00535953  E_LARGE 0x54.SYS
 6e00 54454d5f 424d425f 50455249 50484552  TEM_BMB_PERIPHER
 6e10 414c5f42 4d425f53 495a4520 30783130  AL_BMB_SIZE 0x10
 6e20 30303030 30005f5f 454e445f 4445434c  00000.__END_DECL
 6e30 5320005f 5f646174 61747970 655f7479  S .__datatype_ty
 6e40 70655f74 6167286b 696e642c 74797065  pe_tag(kind,type
 6e50 2920005f 5f5f696e 745f7369 7a655f74  ) .___int_size_t
 6e60 5f682000 53595354 454d5f55 4152545f  _h .SYSTEM_UART_
 6e70 305f494f 5f435452 4c5f5349 5a452030  0_IO_CTRL_SIZE 0
 6e80 78343000 5f5f616c 69676e65 64287829  x40.__aligned(x)
 6e90 205f5f61 74747269 62757465 5f5f2828   __attribute__((
 6ea0 5f5f616c 69676e65 645f5f28 78292929  __aligned__(x)))
 6eb0 00756e73 69676e65 64005f6d 626c656e  .unsigned._mblen
 6ec0 5f737461 7465005f 5f686173 5f627569  _state.__has_bui
 6ed0 6c74696e 28782920 30005541 52545f53  ltin(x) 0.UART_S
 6ee0 54415455 53203078 3034004d 53544154  TATUS 0x04.MSTAT
 6ef0 55535f55 50494520 30783030 30303030  US_UPIE 0x000000
 6f00 3130005f 53545249 4e475f48 5f20005f  10._STRING_H_ ._
 6f10 5f70745f 67756172 6465645f 62792878  _pt_guarded_by(x
 6f20 29205f5f 6c6f636b 5f616e6e 6f746174  ) __lock_annotat
 6f30 65287074 5f677561 72646564 5f627928  e(pt_guarded_by(
 6f40 78292900 5f5f6775 61726465 645f6279  x)).__guarded_by
 6f50 28782920 5f5f6c6f 636b5f61 6e6e6f74  (x) __lock_annot
 6f60 61746528 67756172 6465645f 62792878  ate(guarded_by(x
 6f70 29290076 615f6172 6728762c 6c29205f  )).va_arg(v,l) _
 6f80 5f627569 6c74696e 5f76615f 61726728  _builtin_va_arg(
 6f90 762c6c29 005f5359 535f5349 5a455f54  v,l)._SYS_SIZE_T
 6fa0 5f482000 5f5f5549 4e543136 5f432863  _H .__UINT16_C(c
 6fb0 29206300 5f5f464c 5436345f 4d494e5f  ) c.__FLT64_MIN_
 6fc0 4558505f 5f20282d 31303231 29005f5f  EXP__ (-1021).__
 6fd0 53495a45 4f465f50 54524449 46465f54  SIZEOF_PTRDIFF_T
 6fe0 5f5f2034 005f5f43 435f5355 50504f52  __ 4.__CC_SUPPOR
 6ff0 54535f5f 5f494e4c 494e455f 5f203100  TS___INLINE__ 1.
 7000 6d6f6465 005f5f70 72696e74 666c696b  mode.__printflik
 7010 6528666d 74617267 2c666972 73747661  e(fmtarg,firstva
 7020 72617267 29205f5f 61747472 69627574  rarg) __attribut
 7030 655f5f28 285f5f66 6f726d61 745f5f20  e__((__format__ 
 7040 285f5f70 72696e74 665f5f2c 20666d74  (__printf__, fmt
 7050 6172672c 20666972 73747661 72617267  arg, firstvararg
 7060 29292900 494e5450 54525f4d 41582028  ))).INTPTR_MAX (
 7070 5f5f494e 54505452 5f4d4158 5f5f2900  __INTPTR_MAX__).
 7080 5f5f6661 73746361 6c6c205f 5f617474  __fastcall __att
 7090 72696275 74655f5f 28285f5f 66617374  ribute__((__fast
 70a0 63616c6c 5f5f2929 00555345 525f534f  call__)).USER_SO
 70b0 46545741 52455f4d 454d4f52 595f494e  FTWARE_MEMORY_IN
 70c0 53542030 78463930 30303030 3000494e  ST 0xF9000000.IN
 70d0 5436345f 4d494e20 282d5f5f 494e5436  T64_MIN (-__INT6
 70e0 345f4d41 585f5f20 2d203129 005f5f46  4_MAX__ - 1).__F
 70f0 4c543634 585f4d41 585f4558 505f5f20  LT64X_MAX_EXP__ 
 7100 31363338 34005f52 45454e54 5f534947  16384._REENT_SIG
 7110 4e414c5f 42554628 70747229 20282870  NAL_BUF(ptr) ((p
 7120 7472292d 3e5f6e65 772e5f72 65656e74  tr)->_new._reent
 7130 2e5f7369 676e616c 5f627566 29005f5f  ._signal_buf).__
 7140 41544f4d 49435f52 454c4158 45442030  ATOMIC_RELAXED 0
 7150 005f4154 54524942 55544528 61747472  ._ATTRIBUTE(attr
 7160 7329205f 5f617474 72696275 74655f5f  s) __attribute__
 7170 20286174 74727329 005f5f72 65717569   (attrs).__requi
 7180 7265735f 73686172 6564282e 2e2e2920  res_shared(...) 
 7190 5f5f6c6f 636b5f61 6e6e6f74 61746528  __lock_annotate(
 71a0 73686172 65645f6c 6f636b73 5f726571  shared_locks_req
 71b0 75697265 64285f5f 56415f41 5247535f  uired(__VA_ARGS_
 71c0 5f292900 5f4b6d61 78202873 697a656f  _))._Kmax (sizeo
 71d0 66202873 697a655f 7429203c 3c203329  f (size_t) << 3)
 71e0 005f5f44 424c5f48 41535f49 4e46494e  .__DBL_HAS_INFIN
 71f0 4954595f 5f203100 504d505f 4e413420  ITY__ 1.PMP_NA4 
 7200 30783130 005f5f53 49475f41 544f4d49  0x10.__SIG_ATOMI
 7210 435f4d41 585f5f20 30783766 66666666  C_MAX__ 0x7fffff
 7220 66660055 494e5436 345f4d41 5820285f  ff.UINT64_MAX (_
 7230 5f55494e 5436345f 4d41585f 5f290053  _UINT64_MAX__).S
 7240 59535445 4d5f5541 52545f30 5f494f5f  YSTEM_UART_0_IO_
 7250 50415241 4d455445 525f5541 52545f43  PARAMETER_UART_C
 7260 54524c5f 434f4e46 49475f43 54535f47  TRL_CONFIG_CTS_G
 7270 454e2030 00424954 5f362028 31203c3c  EN 0.BIT_6 (1 <<
 7280 20362900 5f5f7261 6e67656f 66287479   6).__rangeof(ty
 7290 70652c73 74617274 2c656e64 2920285f  pe,start,end) (_
 72a0 5f6f6666 7365746f 66287479 70652c20  _offsetof(type, 
 72b0 656e6429 202d205f 5f6f6666 7365746f  end) - __offseto
 72c0 66287479 70652c20 73746172 74292900  f(type, start)).
 72d0 7375626f 70746172 67005f5f 474e5543  suboptarg.__GNUC
 72e0 4c494b45 5f5f5f4f 46465345 544f4620  LIKE___OFFSETOF 
 72f0 31005350 495f5353 5f484f4c 44203078  1.SPI_SS_HOLD 0x
 7300 32380069 73677265 61746572 65717561  28.isgreaterequa
 7310 6c285f5f 782c5f5f 79292028 5f5f6275  l(__x,__y) (__bu
 7320 696c7469 6e5f6973 67726561 74657265  iltin_isgreatere
 7330 7175616c 20285f5f 782c205f 5f792929  qual (__x, __y))
 7340 005f5f53 495a454f 465f464c 4f41545f  .__SIZEOF_FLOAT_
 7350 5f203400 55494e54 385f4328 7829205f  _ 4.UINT8_C(x) _
 7360 5f55494e 54385f43 28782900 5f5f4445  _UINT8_C(x).__DE
 7370 4336345f 4d494e5f 5f203145 2d333833  C64_MIN__ 1E-383
 7380 44440052 44494e53 54524554 48203078  DD.RDINSTRETH 0x
 7390 43383200 5f5f4442 4c5f4445 43494d41  C82.__DBL_DECIMA
 73a0 4c5f4449 475f5f20 3137005f 6d617877  L_DIG__ 17._maxw
 73b0 6473005f 5f686176 655f6c6f 6e673332  ds.__have_long32
 73c0 2031005f 474c4f42 414c5f52 45454e54   1._GLOBAL_REENT
 73d0 205f676c 6f62616c 5f696d70 7572655f   _global_impure_
 73e0 70747200 5f4e554c 4c203000 5f5f666c  ptr._NULL 0.__fl
 73f0 65786172 72205b30 5d005350 495f434d  exarr [0].SPI_CM
 7400 445f5353 20283120 3c3c2031 31290053  D_SS (1 << 11).S
 7410 59535445 4d5f4932 435f305f 494f5f43  YSTEM_I2C_0_IO_C
 7420 54524c20 30786638 30313730 3030005f  TRL 0xf8017000._
 7430 5f746d5f 79656172 005f5245 41445f57  _tm_year._READ_W
 7440 52495445 5f524554 55524e5f 54595045  RITE_RETURN_TYPE
 7450 205f7373 697a655f 74005f5f 494e5431   _ssize_t.__INT1
 7460 365f4d41 585f5f20 30783766 6666005f  6_MAX__ 0x7fff._
 7470 5f726973 63765f6d 756c2031 00535953  _riscv_mul 1.SYS
 7480 54454d5f 4932435f 305f494f 5f435452  TEM_I2C_0_IO_CTR
 7490 4c5f5349 5a452030 78313030 005f5f44  L_SIZE 0x100.__D
 74a0 45564f4c 4154494c 45287479 70652c76  EVOLATILE(type,v
 74b0 61722920 28287479 70652928 5f5f7569  ar) ((type)(__ui
 74c0 6e747074 725f7429 28766f6c 6174696c  ntptr_t)(volatil
 74d0 6520766f 6964202a 29287661 72292900  e void *)(var)).
 74e0 5f5f5743 4841525f 545f5f20 005f5f49  __WCHAR_T__ .__I
 74f0 4e545f57 49445448 5f5f2033 32005f5f  NT_WIDTH__ 32.__
 7500 46415354 3820005f 5f726573 756c745f  FAST8 .__result_
 7510 7573655f 63686563 6b205f5f 61747472  use_check __attr
 7520 69627574 655f5f28 285f5f77 61726e5f  ibute__((__warn_
 7530 756e7573 65645f72 6573756c 745f5f29  unused_result__)
 7540 29005f5f 5853495f 56495349 424c4520  ).__XSI_VISIBLE 
 7550 30004d53 54415455 535f4653 20307830  0.MSTATUS_FS 0x0
 7560 30303036 30303000 5f5f464c 54313238  0006000.__FLT128
 7570 5f4d414e 545f4449 475f5f20 31313300  _MANT_DIG__ 113.
 7580 5f5f7374 72666d6f 6e6c696b 6528666d  __strfmonlike(fm
 7590 74617267 2c666972 73747661 72617267  targ,firstvararg
 75a0 29205f5f 61747472 69627574 655f5f28  ) __attribute__(
 75b0 285f5f66 6f726d61 745f5f20 285f5f73  (__format__ (__s
 75c0 7472666d 6f6e5f5f 2c20666d 74617267  trfmon__, fmtarg
 75d0 2c206669 72737476 61726172 67292929  , firstvararg)))
 75e0 004d5f49 564c4e31 3020302e 34333432  .M_IVLN10 0.4342
 75f0 39343438 31393033 32353138 32373635  9448190325182765
 7600 005f5f46 41535433 3220005f 5f534947  .__FAST32 .__SIG
 7610 5f41544f 4d49435f 57494454 485f5f20  _ATOMIC_WIDTH__ 
 7620 3332005f 5f474e55 435f5052 45524551  32.__GNUC_PREREQ
 7630 5f5f286d 612c6d69 29205f5f 474e5543  __(ma,mi) __GNUC
 7640 5f505245 52455128 6d612c20 6d692900  _PREREQ(ma, mi).
 7650 45584954 5f464149 4c555245 2031005f  EXIT_FAILURE 1._
 7660 5f707572 6532205f 5f617474 72696275  _pure2 __attribu
 7670 74655f5f 28285f5f 636f6e73 745f5f29  te__((__const__)
 7680 29005f5f 46425344 49442873 29207374  ).__FBSDID(s) st
 7690 72756374 205f5f68 61636b00 76615f65  ruct __hack.va_e
 76a0 6e642876 29205f5f 6275696c 74696e5f  nd(v) __builtin_
 76b0 76615f65 6e642876 29005f5f 756e7265  va_end(v).__unre
 76c0 61636861 626c6528 29205f5f 6275696c  achable() __buil
 76d0 74696e5f 756e7265 61636861 626c6528  tin_unreachable(
 76e0 29005f6c 62667369 7a650053 59535445  )._lbfsize.SYSTE
 76f0 4d5f4932 435f315f 494f5f43 54524c20  M_I2C_1_IO_CTRL 
 7700 30786638 30313830 3030005f 5f4c4f43  0xf8018000.__LOC
 7710 4b5f494e 49545f52 45435552 53495645  K_INIT_RECURSIVE
 7720 28636c61 73732c6c 6f636b29 20737461  (class,lock) sta
 7730 74696320 696e7420 6c6f636b 203d2030  tic int lock = 0
 7740 3b005f5f 53495a45 4f465f57 494e545f  ;.__SIZEOF_WINT_
 7750 545f5f20 34005f69 6e64005f 554e4255  T__ 4._ind._UNBU
 7760 465f5354 5245414d 5f4f5054 2031005f  F_STREAM_OPT 1._
 7770 5f4f5244 45525f4c 4954544c 455f454e  _ORDER_LITTLE_EN
 7780 4449414e 5f5f2031 32333400 5f5f6c6f  DIAN__ 1234.__lo
 7790 636b735f 73686172 6564282e 2e2e2920  cks_shared(...) 
 77a0 5f5f6c6f 636b5f61 6e6e6f74 61746528  __lock_annotate(
 77b0 73686172 65645f6c 6f636b5f 66756e63  shared_lock_func
 77c0 74696f6e 285f5f56 415f4152 47535f5f  tion(__VA_ARGS__
 77d0 2929005f 5f474e55 434c494b 455f4153  )).__GNUCLIKE_AS
 77e0 4d203300 5f5f494e 545f4641 5354385f  M 3.__INT_FAST8_
 77f0 4d41585f 5f203078 37666666 66666666  MAX__ 0x7fffffff
 7800 005f5f46 4c543332 5f484153 5f44454e  .__FLT32_HAS_DEN
 7810 4f524d5f 5f203100 4d415846 4c4f4154  ORM__ 1.MAXFLOAT
 7820 20332e34 30323832 33343765 2b333846   3.40282347e+38F
 7830 0046505f 494c4f47 42302028 2d5f5f49  .FP_ILOGB0 (-__I
 7840 4e545f4d 41585f5f 29005f5f 464c5433  NT_MAX__).__FLT3
 7850 32585f48 41535f44 454e4f52 4d5f5f20  2X_HAS_DENORM__ 
 7860 31005f4d 41434849 4e455f5f 54595045  1._MACHINE__TYPE
 7870 535f4820 005f5f49 4e545f46 41535433  S_H .__INT_FAST3
 7880 325f5749 4454485f 5f203332 005f4e45  2_WIDTH__ 32._NE
 7890 574c4942 5f564552 53494f4e 2022332e  WLIB_VERSION "3.
 78a0 312e3022 005f5241 4e443438 5f4d554c  1.0"._RAND48_MUL
 78b0 545f3020 28307865 36366429 005f6973  T_0 (0xe66d)._is
 78c0 5f637861 005f5f47 4e55434c 494b455f  _cxa.__GNUCLIKE_
 78d0 4255494c 54494e5f 5641414c 49535420  BUILTIN_VAALIST 
 78e0 31005f5f 53495a45 4f465f4c 4f4e475f  1.__SIZEOF_LONG_
 78f0 444f5542 4c455f5f 20313600 4d49455f  DOUBLE__ 16.MIE_
 7900 4d544945 20283120 3c3c2043 41555345  MTIE (1 << CAUSE
 7910 5f4d4143 48494e45 5f54494d 45522900  _MACHINE_TIMER).
 7920 5f6e6578 7466005f 5f494e54 33322022  _nextf.__INT32 "
 7930 6c22005f 5f6c6f63 6b5f616e 6e6f7461  l".__lock_annota
 7940 74652878 29200052 44494e53 54524554  te(x) .RDINSTRET
 7950 20307843 30320053 50495f57 52495445   0xC02.SPI_WRITE
 7960 5f4c4152 47452030 78353000 73747274  _LARGE 0x50.strt
 7970 6f646620 73747274 6f66005f 5f464c54  odf strtof.__FLT
 7980 3132385f 4d41585f 5f20312e 31383937  128_MAX__ 1.1897
 7990 33313439 35333537 32333137 36353038  3149535723176508
 79a0 35373539 33323636 32383030 37303265  575932662800702e
 79b0 2b343933 32463132 38005f5f 55494e54  +4932F128.__UINT
 79c0 33325f54 5950455f 5f206c6f 6e672075  32_TYPE__ long u
 79d0 6e736967 6e656420 696e7400 5f5f474e  nsigned int.__GN
 79e0 55434c49 4b455f4d 4154485f 4255494c  UCLIKE_MATH_BUIL
 79f0 54494e5f 434f4e53 54414e54 53200045  TIN_CONSTANTS .E
 7a00 4e41424c 455f5052 494e5446 5f574152  NABLE_PRINTF_WAR
 7a10 4e494e47 20310045 4e41424c 455f4c4f  NING 1.ENABLE_LO
 7a20 4e475f4c 4f4e475f 53555050 4f525420  NG_LONG_SUPPORT 
 7a30 30005f44 45464155 4c545f53 4f555243  0._DEFAULT_SOURC
 7a40 45005359 5354454d 5f504c49 435f5359  E.SYSTEM_PLIC_SY
 7a50 5354454d 5f475049 4f5f305f 494f5f49  STEM_GPIO_0_IO_I
 7a60 4e544552 52555054 535f3120 3133005f  NTERRUPTS_1 13._
 7a70 5f464c54 3132385f 4841535f 44454e4f  _FLT128_HAS_DENO
 7a80 524d5f5f 2031005f 5f564552 53494f4e  RM__ 1.__VERSION
 7a90 5f5f2022 382e332e 3022005f 5f43435f  __ "8.3.0".__CC_
 7aa0 53555050 4f525453 5f574152 4e494e47  SUPPORTS_WARNING
 7ab0 2031005f 6c6f6361 6c65005f 5f554c6f   1._locale.__ULo
 7ac0 6e67005f 5f617373 65727473 5f736861  ng.__asserts_sha
 7ad0 72656428 2e2e2e29 205f5f6c 6f636b5f  red(...) __lock_
 7ae0 616e6e6f 74617465 28617373 6572745f  annotate(assert_
 7af0 73686172 65645f6c 6f636b28 5f5f5641  shared_lock(__VA
 7b00 5f415247 535f5f29 29005f52 45454e54  _ARGS__))._REENT
 7b10 5f434845 434b5f52 414e4434 38287074  _CHECK_RAND48(pt
 7b20 72292000 5f494e54 385f545f 4445434c  r) ._INT8_T_DECL
 7b30 41524544 20005f5f 6c6f636b 5f72656c  ARED .__lock_rel
 7b40 65617365 286c6f63 6b292028 28766f69  ease(lock) ((voi
 7b50 64292030 29005f5f 53495a45 4f465f49  d) 0).__SIZEOF_I
 7b60 4e545f5f 2034005f 4253445f 57434841  NT__ 4._BSD_WCHA
 7b70 525f545f 0055494e 5431365f 43287829  R_T_.UINT16_C(x)
 7b80 205f5f55 494e5431 365f4328 78290053   __UINT16_C(x).S
 7b90 59535445 4d5f5249 5343565f 4953415f  YSTEM_RISCV_ISA_
 7ba0 4558545f 44203000 6273705f 70757443  EXT_D 0.bsp_putC
 7bb0 68617228 63292075 6172745f 77726974  har(c) uart_writ
 7bc0 65284253 505f5541 52545f54 45524d49  e(BSP_UART_TERMI
 7bd0 4e414c2c 2063293b 005f5359 535f5f49  NAL, c);._SYS__I
 7be0 4e545355 505f4820 00726561 645f7533  NTSUP_H .read_u3
 7bf0 32004249 545f3133 20283120 3c3c2031  2.BIT_13 (1 << 1
 7c00 3329004d 53544154 55533634 5f534420  3).MSTATUS64_SD 
 7c10 30783830 30303030 30303030 30303030  0x80000000000000
 7c20 3030005f 5f474e55 434c494b 455f4255  00.__GNUCLIKE_BU
 7c30 494c5449 4e5f4d45 4d435059 2031004d  ILTIN_MEMCPY 1.M
 7c40 5f50495f 3220312e 35373037 39363332  _PI_2 1.57079632
 7c50 36373934 38393636 31393233 005f7265  679489661923._re
 7c60 73756c74 00494e54 5f464153 5436345f  sult.INT_FAST64_
 7c70 4d415820 285f5f49 4e545f46 41535436  MAX (__INT_FAST6
 7c80 345f4d41 585f5f29 005f5f6c 6f636b61  4_MAX__).__locka
 7c90 626c6520 5f5f6c6f 636b5f61 6e6e6f74  ble __lock_annot
 7ca0 61746528 6c6f636b 61626c65 29005f50  ate(lockable)._P
 7cb0 4f534958 5f534f55 52434520 31005f5f  OSIX_SOURCE 1.__
 7cc0 4c44424c 5f4d494e 5f5f2033 2e333632  LDBL_MIN__ 3.362
 7cd0 31303331 34333131 32303933 35303632  1031431120935062
 7ce0 36323637 37383137 33323137 35323630  6267781732175260
 7cf0 652d3439 33324c00 5f5f5549 4e545f46  e-4932L.__UINT_F
 7d00 41535431 365f5459 50455f5f 20756e73  AST16_TYPE__ uns
 7d10 69676e65 6420696e 74005f5f 5349475f  igned int.__SIG_
 7d20 41544f4d 49435f54 5950455f 5f20696e  ATOMIC_TYPE__ in
 7d30 74005f4e 45574c49 425f5645 5253494f  t._NEWLIB_VERSIO
 7d40 4e5f485f 5f203100 4253505f 504c4943  N_H__ 1.BSP_PLIC
 7d50 5f435055 5f302053 59535445 4d5f504c  _CPU_0 SYSTEM_PL
 7d60 49435f53 59535445 4d5f434f 5245535f  IC_SYSTEM_CORES_
 7d70 305f4558 5445524e 414c5f49 4e544552  0_EXTERNAL_INTER
 7d80 52555054 00535953 54454d5f 55415254  RUPT.SYSTEM_UART
 7d90 5f305f49 4f5f5041 52414d45 5445525f  _0_IO_PARAMETER_
 7da0 55415254 5f435452 4c5f434f 4e464947  UART_CTRL_CONFIG
 7db0 5f434c4f 434b5f44 49564944 45525f57  _CLOCK_DIVIDER_W
 7dc0 49445448 20323000 5f5f5349 5a455f57  IDTH 20.__SIZE_W
 7dd0 49445448 5f5f2033 3200464c 545f4556  IDTH__ 32.FLT_EV
 7de0 414c5f4d 4554484f 44205f5f 464c545f  AL_METHOD __FLT_
 7df0 4556414c 5f4d4554 484f445f 5f005f53  EVAL_METHOD__._S
 7e00 59535f53 5452494e 475f4820 00535049  YS_STRING_H .SPI
 7e10 5f434c4b 5f444956 49444552 20307832  _CLK_DIVIDER 0x2
 7e20 30005f5f 57494e54 5f4d494e 5f5f2030  0.__WINT_MIN__ 0
 7e30 55005f6f 66665f74 005f5f46 4c543634  U._off_t.__FLT64
 7e40 5f444947 5f5f2031 35005f5f 44454336  _DIG__ 15.__DEC6
 7e50 345f4550 53494c4f 4e5f5f20 31452d31  4_EPSILON__ 1E-1
 7e60 35444400 5f5f464c 545f4d49 4e5f5f20  5DD.__FLT_MIN__ 
 7e70 312e3137 35343934 33353038 32323238  1.17549435082228
 7e80 37353037 39363837 33363533 37323232  7507968736537222
 7e90 32343536 38652d33 3846005f 5f43435f  24568e-38F.__CC_
 7ea0 53555050 4f525453 5f5f5f46 554e435f  SUPPORTS___FUNC_
 7eb0 5f203100 5f5f494e 545f4c45 41535438  _ 1.__INT_LEAST8
 7ec0 5f574944 54485f5f 2038005f 5f4c4541  _WIDTH__ 8.__LEA
 7ed0 53543136 20226822 005f5f6c 6f6e675f  ST16 "h".__long_
 7ee0 646f7562 6c655f74 206c6f6e 6720646f  double_t long do
 7ef0 75626c65 005f5f49 4e545f4c 45415354  uble.__INT_LEAST
 7f00 31365f54 5950455f 5f207368 6f727420  16_TYPE__ short 
 7f10 696e7400 5f616464 00535049 5f53535f  int._add.SPI_SS_
 7f20 44495341 424c4520 30783243 005f5f58  DISABLE 0x2C.__X
 7f30 53545249 4e472878 29205f5f 53545249  STRING(x) __STRI
 7f40 4e472878 29004341 5553455f 4d414348  NG(x).CAUSE_MACH
 7f50 494e455f 54494d45 52203700 666c6f61  INE_TIMER 7.floa
 7f60 74004d53 54415455 535f5457 20307830  t.MSTATUS_TW 0x0
 7f70 30323030 30303000 5f5f746d 5f686f75  0200000.__tm_hou
 7f80 72005f52 45454e54 5f474554 44415445  r._REENT_GETDATE
 7f90 5f455252 5f502870 74722920 28262828  _ERR_P(ptr) (&((
 7fa0 70747229 2d3e5f6e 65772e5f 7265656e  ptr)->_new._reen
 7fb0 742e5f67 65746461 74655f65 72722929  t._getdate_err))
 7fc0 005f5f73 46494c45 00737069 5f727370  .__sFILE.spi_rsp
 7fd0 4f636375 70616e63 79005f5f 464c5436  Occupancy.__FLT6
 7fe0 345f4d41 4e545f44 49475f5f 20353300  4_MANT_DIG__ 53.
 7ff0 5350495f 494e5445 52525550 54203078  SPI_INTERRUPT 0x
 8000 3043005f 5f4c4442 4c5f4d49 4e5f4558  0C.__LDBL_MIN_EX
 8010 505f5f20 282d3136 33383129 005f5f63  P__ (-16381).__c
 8020 6f6d7069 6c65725f 6d656d62 61722829  ompiler_membar()
 8030 205f5f61 736d205f 5f766f6c 6174696c   __asm __volatil
 8040 65282220 22203a20 3a203a20 226d656d  e(" " : : : "mem
 8050 6f727922 29004d53 54415455 535f5349  ory").MSTATUS_SI
 8060 45203078 30303030 30303032 00555345  E 0x00000002.USE
 8070 525f534f 46545741 52455f4d 454d4f52  R_SOFTWARE_MEMOR
 8080 595f4441 54412030 78463930 38303030  Y_DATA 0xF908000
 8090 30005f52 45454e54 5f535452 544f4b5f  0._REENT_STRTOK_
 80a0 4c415354 28707472 29202828 70747229  LAST(ptr) ((ptr)
 80b0 2d3e5f6e 65772e5f 7265656e 742e5f73  ->_new._reent._s
 80c0 7472746f 6b5f6c61 73742900 4249545f  trtok_last).BIT_
 80d0 31322028 31203c3c 20313229 005f494e  12 (1 << 12)._IN
 80e0 5433325f 45515f4c 4f4e4720 005f5f6e  T32_EQ_LONG .__n
 80f0 6565645f 5f5f7661 5f6c6973 74005f5f  eed___va_list.__
 8100 6c6f636b 5f747279 5f616371 75697265  lock_try_acquire
 8110 5f726563 75727369 7665286c 6f636b29  _recursive(lock)
 8120 20282876 6f696429 20302900 53595354   ((void) 0).SYST
 8130 454d5f53 50495f31 5f494f5f 4354524c  EM_SPI_1_IO_CTRL
 8140 20307866 38303135 30303000 5f5f5349   0xf8015000.__SI
 8150 5a455f4d 41585f5f 20307866 66666666  ZE_MAX__ 0xfffff
 8160 66666655 005f5f6e 6565645f 77696e74  fffU.__need_wint
 8170 5f742000 5f6d6273 72746f77 63735f73  _t ._mbsrtowcs_s
 8180 74617465 005f5f61 74747269 62757465  tate.__attribute
 8190 5f707572 655f5f20 004d5832 355f5155  _pure__ .MX25_QU
 81a0 41445f45 4e41424c 455f4249 54203078  AD_ENABLE_BIT 0x
 81b0 34300055 494e5438 5f4d4158 20285f5f  40.UINT8_MAX (__
 81c0 55494e54 385f4d41 585f5f29 005f5f4c  UINT8_MAX__).__L
 81d0 4f4e475f 4d41585f 5f203078 37666666  ONG_MAX__ 0x7fff
 81e0 66666666 4c005f5f 4c44424c 5f455053  ffffL.__LDBL_EPS
 81f0 494c4f4e 5f5f2031 2e393235 39323939  ILON__ 1.9259299
 8200 34343338 37323335 38353330 35353937  4438723585305597
 8210 37393432 35383439 32373332 652d3334  794258492732e-34
 8220 4c004750 494f5f49 4e544552 52555054  L.GPIO_INTERRUPT
 8230 5f484947 485f454e 41424c45 20307832  _HIGH_ENABLE 0x2
 8240 38006c6f 6e67202b 34005f5f 696e7433  8.long +4.__int3
 8250 325f7400 5f5f474e 55434c49 4b455f42  2_t.__GNUCLIKE_B
 8260 55494c54 494e5f56 41524152 47532031  UILTIN_VARARGS 1
 8270 005f5241 4e443438 5f414444 20283078  ._RAND48_ADD (0x
 8280 30303062 29004d53 54415455 535f4d49  000b).MSTATUS_MI
 8290 45203078 30303030 30303038 00535354  E 0x00000008.SST
 82a0 41545553 5f4d5852 20307830 30303830  ATUS_MXR 0x00080
 82b0 30303000 4249545f 30202831 203c3c20  000.BIT_0 (1 << 
 82c0 30290053 50495f42 55464645 52203078  0).SPI_BUFFER 0x
 82d0 30340042 49545f32 30202831 203c3c20  04.BIT_20 (1 << 
 82e0 32302900 4750494f 5f494e54 45525255  20).GPIO_INTERRU
 82f0 50545f52 4953455f 454e4142 4c452030  PT_RISE_ENABLE 0
 8300 78323000 53595354 454d5f50 4c49435f  x20.SYSTEM_PLIC_
 8310 4354524c 20307866 38633030 30303000  CTRL 0xf8c00000.
 8320 5f5f464c 54333258 5f4d414e 545f4449  __FLT32X_MANT_DI
 8330 475f5f20 35330062 73705f69 6e697428  G__ 53.bsp_init(
 8340 29207b7d 005f5f57 43484152 5f574944  ) {}.__WCHAR_WID
 8350 54485f5f 20333200 5f4e4557 4c49425f  TH__ 32._NEWLIB_
 8360 414c4c4f 43415f48 20005f5f 73676c75  ALLOCA_H .__sglu
 8370 65005f5f 434f4e43 41542878 2c792920  e.__CONCAT(x,y) 
 8380 5f5f434f 4e434154 3128782c 7929005f  __CONCAT1(x,y)._
 8390 5f494e54 31365f43 28632920 63005f5f  _INT16_C(c) c.__
 83a0 76615f6c 6973745f 5f20005f 666e6172  va_list__ ._fnar
 83b0 6773005f 5f505452 44494646 5f574944  gs.__PTRDIFF_WID
 83c0 54485f5f 20333200 73686f72 74202b31  TH__ 32.short +1
 83d0 005f5f74 6d5f6973 64737400 5f5f4445  .__tm_isdst.__DE
 83e0 5155414c 49465928 74797065 2c766172  QUALIFY(type,var
 83f0 29202828 74797065 29285f5f 75696e74  ) ((type)(__uint
 8400 7074725f 74292863 6f6e7374 20766f6c  ptr_t)(const vol
 8410 6174696c 6520766f 6964202a 29287661  atile void *)(va
 8420 72292900 5f524545 4e545f49 4e49545f  r))._REENT_INIT_
 8430 5054525f 5a45524f 45442876 61722920  PTR_ZEROED(var) 
 8440 7b202876 6172292d 3e5f7374 64696e20  { (var)->_stdin 
 8450 3d205f52 45454e54 5f535444 494f5f53  = _REENT_STDIO_S
 8460 54524541 4d287661 722c2030 293b2028  TREAM(var, 0); (
 8470 76617229 2d3e5f73 74646f75 74203d20  var)->_stdout = 
 8480 5f524545 4e545f53 5444494f 5f535452  _REENT_STDIO_STR
 8490 45414d28 7661722c 2031293b 20287661  EAM(var, 1); (va
 84a0 72292d3e 5f737464 65727220 3d205f52  r)->_stderr = _R
 84b0 45454e54 5f535444 494f5f53 54524541  EENT_STDIO_STREA
 84c0 4d287661 722c2032 293b2028 76617229  M(var, 2); (var)
 84d0 2d3e5f6e 65772e5f 7265656e 742e5f72  ->_new._reent._r
 84e0 616e645f 6e657874 203d2031 3b202876  and_next = 1; (v
 84f0 6172292d 3e5f6e65 772e5f72 65656e74  ar)->_new._reent
 8500 2e5f7234 382e5f73 6565645b 305d203d  ._r48._seed[0] =
 8510 205f5241 4e443438 5f534545 445f303b   _RAND48_SEED_0;
 8520 20287661 72292d3e 5f6e6577 2e5f7265   (var)->_new._re
 8530 656e742e 5f723438 2e5f7365 65645b31  ent._r48._seed[1
 8540 5d203d20 5f52414e 4434385f 53454544  ] = _RAND48_SEED
 8550 5f313b20 28766172 292d3e5f 6e65772e  _1; (var)->_new.
 8560 5f726565 6e742e5f 7234382e 5f736565  _reent._r48._see
 8570 645b325d 203d205f 52414e44 34385f53  d[2] = _RAND48_S
 8580 4545445f 323b2028 76617229 2d3e5f6e  EED_2; (var)->_n
 8590 65772e5f 7265656e 742e5f72 34382e5f  ew._reent._r48._
 85a0 6d756c74 5b305d20 3d205f52 414e4434  mult[0] = _RAND4
 85b0 385f4d55 4c545f30 3b202876 6172292d  8_MULT_0; (var)-
 85c0 3e5f6e65 772e5f72 65656e74 2e5f7234  >_new._reent._r4
 85d0 382e5f6d 756c745b 315d203d 205f5241  8._mult[1] = _RA
 85e0 4e443438 5f4d554c 545f313b 20287661  ND48_MULT_1; (va
 85f0 72292d3e 5f6e6577 2e5f7265 656e742e  r)->_new._reent.
 8600 5f723438 2e5f6d75 6c745b32 5d203d20  _r48._mult[2] = 
 8610 5f52414e 4434385f 4d554c54 5f323b20  _RAND48_MULT_2; 
 8620 28766172 292d3e5f 6e65772e 5f726565  (var)->_new._ree
 8630 6e742e5f 7234382e 5f616464 203d205f  nt._r48._add = _
 8640 52414e44 34385f41 44443b20 7d004546  RAND48_ADD; }.EF
 8650 585f5345 4d49484f 5354494e 475f4820  X_SEMIHOSTING_H 
 8660 005f5f41 544f4d49 435f4143 515f5245  .__ATOMIC_ACQ_RE
 8670 4c203400 5f5f494e 545f4c45 41535438  L 4.__INT_LEAST8
 8680 5f545950 455f5f20 7369676e 65642063  _TYPE__ signed c
 8690 68617200 5f5f494e 5433325f 54595045  har.__INT32_TYPE
 86a0 5f5f206c 6f6e6720 696e7400 5f5f7061  __ long int.__pa
 86b0 636b6564 205f5f61 74747269 62757465  cked __attribute
 86c0 5f5f2828 5f5f7061 636b6564 5f5f2929  __((__packed__))
 86d0 005f5f44 424c5f4d 494e5f31 305f4558  .__DBL_MIN_10_EX
 86e0 505f5f20 282d3330 3729004d 53544154  P__ (-307).MSTAT
 86f0 55535f48 49452030 78303030 30303030  US_HIE 0x0000000
 8700 34005f57 414e545f 494f5f4c 4f4e475f  4._WANT_IO_LONG_
 8710 4c4f4e47 20310046 505f494e 46494e49  LONG 1.FP_INFINI
 8720 54452031 005f5f44 424c5f44 454e4f52  TE 1.__DBL_DENOR
 8730 4d5f4d49 4e5f5f20 2828646f 75626c65  M_MIN__ ((double
 8740 29342e39 34303635 36343538 34313234  )4.9406564584124
 8750 36353434 31373635 36383739 32383638  6544176568792868
 8760 32323133 3732652d 3332344c 29004253  221372e-324L).BS
 8770 505f434c 494e5420 53595354 454d5f43  P_CLINT SYSTEM_C
 8780 4c494e54 5f435452 4c005f5f 4c44424c  LINT_CTRL.__LDBL
 8790 5f444947 5f5f2033 33005f5f 696e7432  _DIG__ 33.__int2
 87a0 3000636c 6b446976 69646572 00494e54  0.clkDivider.INT
 87b0 5f464153 5433325f 4d415820 285f5f49  _FAST32_MAX (__I
 87c0 4e545f46 41535433 325f4d41 585f5f29  NT_FAST32_MAX__)
 87d0 005f5f74 6d5f6d69 6e005f52 45454e54  .__tm_min._REENT
 87e0 5f415343 54494d45 5f53495a 45203236  _ASCTIME_SIZE 26
 87f0 00494e54 5054525f 4d494e20 282d5f5f  .INTPTR_MIN (-__
 8800 494e5450 54525f4d 41585f5f 202d2031  INTPTR_MAX__ - 1
 8810 29005359 5354454d 5f504c49 435f5359  ).SYSTEM_PLIC_SY
 8820 5354454d 5f535049 5f315f49 4f5f494e  STEM_SPI_1_IO_IN
 8830 54455252 55505420 35006273 705f7075  TERRUPT 5.bsp_pu
 8840 74537472 696e6728 73292075 6172745f  tString(s) uart_
 8850 77726974 65537472 28425350 5f554152  writeStr(BSP_UAR
 8860 545f5445 524d494e 414c2c20 73293b00  T_TERMINAL, s);.
 8870 5f56415f 4c495354 5f20005f 504f5349  _VA_LIST_ ._POSI
 8880 585f435f 534f5552 4345005f 5f55494e  X_C_SOURCE.__UIN
 8890 544d4158 5f4d4158 5f5f2030 78666666  TMAX_MAX__ 0xfff
 88a0 66666666 66666666 66666666 66554c4c  fffffffffffffULL
 88b0 005f5f44 424c5f4d 414e545f 4449475f  .__DBL_MANT_DIG_
 88c0 5f203533 005f5f75 6e626f75 6e646564  _ 53.__unbounded
 88d0 20005f52 414e4434 385f5345 45445f32   ._RAND48_SEED_2
 88e0 20283078 31323334 29005f5f 5359535f   (0x1234).__SYS_
 88f0 4c4f434b 5f485f5f 20005f52 45454e54  LOCK_H__ ._REENT
 8900 5f494e49 545f4154 45584954 205f4e55  _INIT_ATEXIT _NU
 8910 4c4c2c20 5f415445 5849545f 494e4954  LL, _ATEXIT_INIT
 8920 2c005f47 43435f53 495a455f 54200042  ,._GCC_SIZE_T .B
 8930 49545f32 37202831 203c3c20 32372900  IT_27 (1 << 27).
 8940 5f5f494e 545f4d41 585f5f20 30783766  __INT_MAX__ 0x7f
 8950 66666666 6666005f 5f55494e 5431365f  ffffff.__UINT16_
 8960 4d41585f 5f203078 66666666 005f5245  MAX__ 0xffff._RE
 8970 454e545f 494e4954 28766172 29207b20  ENT_INIT(var) { 
 8980 302c205f 5245454e 545f5354 44494f5f  0, _REENT_STDIO_
 8990 53545245 414d2826 28766172 292c2030  STREAM(&(var), 0
 89a0 292c205f 5245454e 545f5354 44494f5f  ), _REENT_STDIO_
 89b0 53545245 414d2826 28766172 292c2031  STREAM(&(var), 1
 89c0 292c205f 5245454e 545f5354 44494f5f  ), _REENT_STDIO_
 89d0 53545245 414d2826 28766172 292c2032  STREAM(&(var), 2
 89e0 292c2030 2c202222 2c20302c 205f4e55  ), 0, "", 0, _NU
 89f0 4c4c2c20 302c205f 4e554c4c 2c205f4e  LL, 0, _NULL, _N
 8a00 554c4c2c 20302c20 5f4e554c 4c2c205f  ULL, 0, _NULL, _
 8a10 4e554c4c 2c20302c 205f4e55 4c4c2c20  NULL, 0, _NULL, 
 8a20 7b207b20 302c205f 4e554c4c 2c202222  { { 0, _NULL, ""
 8a30 2c207b30 2c20302c 20302c20 302c2030  , {0, 0, 0, 0, 0
 8a40 2c20302c 20302c20 302c2030 7d2c2030  , 0, 0, 0, 0}, 0
 8a50 2c20312c 207b207b 5f52414e 4434385f  , 1, { {_RAND48_
 8a60 53454544 5f302c20 5f52414e 4434385f  SEED_0, _RAND48_
 8a70 53454544 5f312c20 5f52414e 4434385f  SEED_1, _RAND48_
 8a80 53454544 5f327d2c 207b5f52 414e4434  SEED_2}, {_RAND4
 8a90 385f4d55 4c545f30 2c205f52 414e4434  8_MULT_0, _RAND4
 8aa0 385f4d55 4c545f31 2c205f52 414e4434  8_MULT_1, _RAND4
 8ab0 385f4d55 4c545f32 7d2c205f 52414e44  8_MULT_2}, _RAND
 8ac0 34385f41 4444207d 2c207b30 2c207b30  48_ADD }, {0, {0
 8ad0 7d7d2c20 7b302c20 7b307d7d 2c207b30  }}, {0, {0}}, {0
 8ae0 2c207b30 7d7d2c20 22222c20 22222c20  , {0}}, "", "", 
 8af0 302c207b 302c207b 307d7d2c 207b302c  0, {0, {0}}, {0,
 8b00 207b307d 7d2c207b 302c207b 307d7d2c   {0}}, {0, {0}},
 8b10 207b302c 207b307d 7d2c207b 302c207b   {0, {0}}, {0, {
 8b20 307d7d20 7d207d2c 205f5245 454e545f  0}} } }, _REENT_
 8b30 494e4954 5f415445 58495420 5f4e554c  INIT_ATEXIT _NUL
 8b40 4c2c207b 5f4e554c 4c2c2030 2c205f4e  L, {_NULL, 0, _N
 8b50 554c4c7d 207d005f 5f616c77 6179735f  ULL} }.__always_
 8b60 696e6c69 6e65205f 5f696e6c 696e655f  inline __inline_
 8b70 5f205f5f 61747472 69627574 655f5f28  _ __attribute__(
 8b80 285f5f61 6c776179 735f696e 6c696e65  (__always_inline
 8b90 5f5f2929 005f5f4c 6f6e6720 6c6f6e67  __)).__Long long
 8ba0 00535953 54454d5f 55534552 5f54494d  .SYSTEM_USER_TIM
 8bb0 45525f30 5f435452 4c203078 66383031  ER_0_CTRL 0xf801
 8bc0 39303030 005f5f49 4e544d41 585f4328  9000.__INTMAX_C(
 8bd0 63292063 20232320 4c4c002e 2e2f636f  c) c ## LL.../co
 8be0 6d6d6f6e 2f737461 72742e53 00474e55  mmon/start.S.GNU
 8bf0 20415320 322e3332 00                  AS 2.32.       
Contents of section .comment:
 0000 4743433a 20287850 61636b20 474e5520  GCC: (xPack GNU 
 0010 52495343 2d562045 6d626564 64656420  RISC-V Embedded 
 0020 4743432c 2036342d 62697429 20382e33  GCC, 64-bit) 8.3
 0030 2e3000                               .0.             
Contents of section .debug_frame:
 0000 0c000000 ffffffff 0100017c 010d0200  ...........|....
 0010 0c000000 00000000 dc7800f9 34000000  .........x..4...
 0020 0c000000 00000000 107900f9 10000000  .........y......
 0030 0c000000 00000000 207900f9 0c000000  ........ y......
 0040 20000000 00000000 2c7900f9 40000000   .......,y..@...
 0050 440e104c 81018802 890360c1 44c844c9  D..L......`.D.D.
 0060 440e0000 1c000000 00000000 6c7900f9  D...........ly..
 0070 48000000 440e1048 81018802 70c144c8  H...D..H....p.D.
 0080 440e0000 20000000 00000000 b47900f9  D... ........y..
 0090 48000000 440e104c 81018802 890368c1  H...D..L......h.
 00a0 44c844c9 440e0000 20000000 00000000  D.D.D... .......
 00b0 fc7900f9 48000000 440e104c 81018802  .y..H...D..L....
 00c0 890368c1 44c844c9 440e0000 0c000000  ..h.D.D.D.......
 00d0 00000000 447a00f9 44000000 1c000000  ....Dz..D.......
 00e0 00000000 887a00f9 44000000 440e1048  .....z..D...D..H
 00f0 81018802 6cc144c8 440e0000 18000000  ....l.D.D.......
 0100 00000000 cc7a00f9 18000000 440e1044  .....z......D..D
 0110 810148c1 440e0000 18000000 00000000  ..H.D...........
 0120 e47a00f9 18000000 440e1044 810148c1  .z......D..D..H.
 0130 440e0000 1c000000 00000000 fc7a00f9  D............z..
 0140 50000000 440e3048 81018802 0238c144  P...D.0H.....8.D
 0150 c8440e00 20000000 00000000 4c7b00f9  .D.. .......L{..
 0160 3c000000 440e104c 81018802 89035cc1  <...D..L......\.
 0170 44c844c9 440e0000 18000000 00000000  D.D.D...........
 0180 887b00f9 1c000000 440e1044 81014cc1  .{......D..D..L.
 0190 440e0000 20000000 00000000 a47b00f9  D... ........{..
 01a0 4c000000 440e104c 81018802 89036cc1  L...D..L......l.
 01b0 44c844c9 440e0000 28000000 00000000  D.D.D...(.......
 01c0 f07b00f9 a4000000 440e2054 81018802  .{......D. T....
 01d0 89039204 93050274 c144c844 c944d244  .......t.D.D.D.D
 01e0 d3440e00 2c000000 00000000 947c00f9  .D..,........|..
 01f0 74000000 440e2058 81018802 89039204  t...D. X........
 0200 93059406 023cc144 c844c944 d244d344  .....<.D.D.D.D.D
 0210 d4440e00 1c000000 00000000 087d00f9  .D...........}..
 0220 8c000000 440e1048 81018802 0274c144  ....D..H.....t.D
 0230 c8440e00 18000000 00000000 947d00f9  .D...........}..
 0240 18000000 440e1044 810148c1 440e0000  ....D..D..H.D...
 0250 0c000000 ffffffff 0100017c 010d0200  ...........|....
 0260 28000000 50020000 587800f9 84000000  (...P...Xx......
 0270 440e1048 88029204 54810189 030250c1  D..H....T.....P.
 0280 44c844c9 44d2440e 00000000           D.D.D.D.....    

Disassembly of section .rom_section.init:

f9007800 <_start>:

_start:
#ifdef USE_GP
.option push
.option norelax
	la gp, __global_pointer$
f9007800:	00080197          	auipc	gp,0x80
f9007804:	7f018193          	addi	gp,gp,2032 # f9087ff0 <__global_pointer$>

f9007808 <init>:
	sw a0, smp_lottery_lock, a1
    ret
#endif

init:
	la sp, _sp
f9007808:	c2018113          	addi	sp,gp,-992 # f9087c10 <__freertos_irq_stack_top>

	/* Load data section */
	la a0, _data_lma
f900780c:	81018513          	addi	a0,gp,-2032 # f9087800 <__init_array_end>
	la a1, _data
f9007810:	81018593          	addi	a1,gp,-2032 # f9087800 <__init_array_end>
	la a2, _edata
f9007814:	81c18613          	addi	a2,gp,-2020 # f908780c <__bss_start>
	bgeu a1, a2, 2f
f9007818:	00c5fc63          	bgeu	a1,a2,f9007830 <init+0x28>
1:
	lw t0, (a0)
f900781c:	00052283          	lw	t0,0(a0)
	sw t0, (a1)
f9007820:	0055a023          	sw	t0,0(a1)
	addi a0, a0, 4
f9007824:	00450513          	addi	a0,a0,4
	addi a1, a1, 4
f9007828:	00458593          	addi	a1,a1,4
	bltu a1, a2, 1b
f900782c:	fec5e8e3          	bltu	a1,a2,f900781c <init+0x14>
2:

	/* Clear bss section */
	la a0, __bss_start
f9007830:	81c18513          	addi	a0,gp,-2020 # f908780c <__bss_start>
	la a1, _end
f9007834:	82018593          	addi	a1,gp,-2016 # f9087810 <_end>
	bgeu a0, a1, 2f
f9007838:	00b57863          	bgeu	a0,a1,f9007848 <init+0x40>
1:
	sw zero, (a0)
f900783c:	00052023          	sw	zero,0(a0)
	addi a0, a0, 4
f9007840:	00450513          	addi	a0,a0,4
	bltu a0, a1, 1b
f9007844:	feb56ce3          	bltu	a0,a1,f900783c <init+0x34>
2:

#ifndef NO_LIBC_INIT_ARRAY
	call __libc_init_array
f9007848:	010000ef          	jal	ra,f9007858 <__libc_init_array>
#endif

	call main
f900784c:	548000ef          	jal	ra,f9007d94 <main>

f9007850 <mainDone>:
mainDone:
    j mainDone
f9007850:	0000006f          	j	f9007850 <mainDone>

f9007854 <_init>:


	.globl _init
_init:
    ret
f9007854:	00008067          	ret

Disassembly of section .rom_section.text:

f9007858 <__libc_init_array>:
f9007858:	ff010113          	addi	sp,sp,-16
f900785c:	00812423          	sw	s0,8(sp)
f9007860:	01212023          	sw	s2,0(sp)
f9007864:	81018413          	addi	s0,gp,-2032 # f9087800 <__init_array_end>
f9007868:	81018913          	addi	s2,gp,-2032 # f9087800 <__init_array_end>
f900786c:	40890933          	sub	s2,s2,s0
f9007870:	00112623          	sw	ra,12(sp)
f9007874:	00912223          	sw	s1,4(sp)
f9007878:	40295913          	srai	s2,s2,0x2
f900787c:	00090e63          	beqz	s2,f9007898 <__libc_init_array+0x40>
f9007880:	00000493          	li	s1,0
f9007884:	00042783          	lw	a5,0(s0)
f9007888:	00148493          	addi	s1,s1,1
f900788c:	00440413          	addi	s0,s0,4
f9007890:	000780e7          	jalr	a5
f9007894:	fe9918e3          	bne	s2,s1,f9007884 <__libc_init_array+0x2c>
f9007898:	81018413          	addi	s0,gp,-2032 # f9087800 <__init_array_end>
f900789c:	81018913          	addi	s2,gp,-2032 # f9087800 <__init_array_end>
f90078a0:	40890933          	sub	s2,s2,s0
f90078a4:	40295913          	srai	s2,s2,0x2
f90078a8:	00090e63          	beqz	s2,f90078c4 <__libc_init_array+0x6c>
f90078ac:	00000493          	li	s1,0
f90078b0:	00042783          	lw	a5,0(s0)
f90078b4:	00148493          	addi	s1,s1,1
f90078b8:	00440413          	addi	s0,s0,4
f90078bc:	000780e7          	jalr	a5
f90078c0:	fe9918e3          	bne	s2,s1,f90078b0 <__libc_init_array+0x58>
f90078c4:	00c12083          	lw	ra,12(sp)
f90078c8:	00812403          	lw	s0,8(sp)
f90078cc:	00412483          	lw	s1,4(sp)
f90078d0:	00012903          	lw	s2,0(sp)
f90078d4:	01010113          	addi	sp,sp,16
f90078d8:	00008067          	ret

f90078dc <clint_uDelay>:
    
        return (((u64)hi) << 32) | lo;
    }
    
    static void clint_uDelay(u32 usec, u32 hz, u32 reg){
        u32 mTimePerUsec = hz/1000000;
f90078dc:	000f47b7          	lui	a5,0xf4
f90078e0:	24078793          	addi	a5,a5,576 # f4240 <__stack_size+0xf3e40>
f90078e4:	02f5d5b3          	divu	a1,a1,a5
    readReg_u32 (clint_getTimeLow , CLINT_TIME_ADDR)
f90078e8:	0000c7b7          	lui	a5,0xc
f90078ec:	ff878793          	addi	a5,a5,-8 # bff8 <__stack_size+0xbbf8>
f90078f0:	00f60633          	add	a2,a2,a5
#include "type.h"
#include "soc.h"


    static inline u32 read_u32(u32 address){
        return *((volatile u32*) address);
f90078f4:	00062783          	lw	a5,0(a2)
        u32 limit = clint_getTimeLow(reg) + usec*mTimePerUsec;
f90078f8:	02a58533          	mul	a0,a1,a0
f90078fc:	00f50533          	add	a0,a0,a5
f9007900:	00062783          	lw	a5,0(a2)
        while((int32_t)(limit-(clint_getTimeLow(reg))) >= 0);
f9007904:	40f507b3          	sub	a5,a0,a5
f9007908:	fe07dce3          	bgez	a5,f9007900 <clint_uDelay+0x24>
    }
f900790c:	00008067          	ret

f9007910 <spi_cmdAvailability>:
f9007910:	00452503          	lw	a0,4(a0)
        u32 ssDisable;
    } Spi_Config;
    
    static u32 spi_cmdAvailability(u32 reg){
        return read_u32(reg + SPI_BUFFER) & 0xFFFF;
    }
f9007914:	01051513          	slli	a0,a0,0x10
f9007918:	01055513          	srli	a0,a0,0x10
f900791c:	00008067          	ret

f9007920 <spi_rspOccupancy>:
f9007920:	00452503          	lw	a0,4(a0)
    static u32 spi_rspOccupancy(u32 reg){
        return read_u32(reg + SPI_BUFFER) >> 16;
    }
f9007924:	01055513          	srli	a0,a0,0x10
f9007928:	00008067          	ret

f900792c <spi_write>:
    
    static void spi_write(u32 reg, u8 data){
f900792c:	ff010113          	addi	sp,sp,-16
f9007930:	00112623          	sw	ra,12(sp)
f9007934:	00812423          	sw	s0,8(sp)
f9007938:	00912223          	sw	s1,4(sp)
f900793c:	00050413          	mv	s0,a0
f9007940:	00058493          	mv	s1,a1
        while(spi_cmdAvailability(reg) == 0);
f9007944:	00040513          	mv	a0,s0
f9007948:	fc9ff0ef          	jal	ra,f9007910 <spi_cmdAvailability>
f900794c:	fe050ce3          	beqz	a0,f9007944 <spi_write+0x18>
        write_u32(data | SPI_CMD_WRITE, reg + SPI_DATA);
f9007950:	1004e493          	ori	s1,s1,256
    }
    
    static inline void write_u32(u32 data, u32 address){
        *((volatile u32*) address) = data;
f9007954:	00942023          	sw	s1,0(s0)
    }
f9007958:	00c12083          	lw	ra,12(sp)
f900795c:	00812403          	lw	s0,8(sp)
f9007960:	00412483          	lw	s1,4(sp)
f9007964:	01010113          	addi	sp,sp,16
f9007968:	00008067          	ret

f900796c <spi_read>:
    
    static u8 spi_read(u32 reg){
f900796c:	ff010113          	addi	sp,sp,-16
f9007970:	00112623          	sw	ra,12(sp)
f9007974:	00812423          	sw	s0,8(sp)
f9007978:	00050413          	mv	s0,a0
        while(spi_cmdAvailability(reg) == 0);
f900797c:	00040513          	mv	a0,s0
f9007980:	f91ff0ef          	jal	ra,f9007910 <spi_cmdAvailability>
f9007984:	fe050ce3          	beqz	a0,f900797c <spi_read+0x10>
f9007988:	20000793          	li	a5,512
f900798c:	00f42023          	sw	a5,0(s0)
        write_u32(SPI_CMD_READ, reg + SPI_DATA);
        while(spi_rspOccupancy(reg) == 0);
f9007990:	00040513          	mv	a0,s0
f9007994:	f8dff0ef          	jal	ra,f9007920 <spi_rspOccupancy>
f9007998:	fe050ce3          	beqz	a0,f9007990 <spi_read+0x24>
        return *((volatile u32*) address);
f900799c:	00042503          	lw	a0,0(s0)
        return read_u32(reg + SPI_DATA);
    }
f90079a0:	0ff57513          	andi	a0,a0,255
f90079a4:	00c12083          	lw	ra,12(sp)
f90079a8:	00812403          	lw	s0,8(sp)
f90079ac:	01010113          	addi	sp,sp,16
f90079b0:	00008067          	ret

f90079b4 <spi_select>:
        write_u32(SPI_CMD_READ, reg + SPI_DATA);
        while(spi_rspOccupancy(reg) == 0);
        return read_u32(reg + SPI_READ_LARGE);
    }
    
    static void spi_select(u32 reg, u32 slaveId){
f90079b4:	ff010113          	addi	sp,sp,-16
f90079b8:	00112623          	sw	ra,12(sp)
f90079bc:	00812423          	sw	s0,8(sp)
f90079c0:	00912223          	sw	s1,4(sp)
f90079c4:	00050413          	mv	s0,a0
f90079c8:	00058493          	mv	s1,a1
        while(spi_cmdAvailability(reg) == 0);
f90079cc:	00040513          	mv	a0,s0
f90079d0:	f41ff0ef          	jal	ra,f9007910 <spi_cmdAvailability>
f90079d4:	fe050ce3          	beqz	a0,f90079cc <spi_select+0x18>
        write_u32(slaveId | 0x80 | SPI_CMD_SS, reg + SPI_DATA);
f90079d8:	000017b7          	lui	a5,0x1
f90079dc:	88078793          	addi	a5,a5,-1920 # 880 <__stack_size+0x480>
f90079e0:	00f4e4b3          	or	s1,s1,a5
        *((volatile u32*) address) = data;
f90079e4:	00942023          	sw	s1,0(s0)
    }
f90079e8:	00c12083          	lw	ra,12(sp)
f90079ec:	00812403          	lw	s0,8(sp)
f90079f0:	00412483          	lw	s1,4(sp)
f90079f4:	01010113          	addi	sp,sp,16
f90079f8:	00008067          	ret

f90079fc <spi_diselect>:
    
    static void spi_diselect(u32 reg, u32 slaveId){
f90079fc:	ff010113          	addi	sp,sp,-16
f9007a00:	00112623          	sw	ra,12(sp)
f9007a04:	00812423          	sw	s0,8(sp)
f9007a08:	00912223          	sw	s1,4(sp)
f9007a0c:	00050413          	mv	s0,a0
f9007a10:	00058493          	mv	s1,a1
        while(spi_cmdAvailability(reg) == 0);
f9007a14:	00040513          	mv	a0,s0
f9007a18:	ef9ff0ef          	jal	ra,f9007910 <spi_cmdAvailability>
f9007a1c:	fe050ce3          	beqz	a0,f9007a14 <spi_diselect+0x18>
        write_u32(slaveId | 0x00 | SPI_CMD_SS, reg + SPI_DATA);
f9007a20:	000017b7          	lui	a5,0x1
f9007a24:	80078793          	addi	a5,a5,-2048 # 800 <__stack_size+0x400>
f9007a28:	00f4e4b3          	or	s1,s1,a5
f9007a2c:	00942023          	sw	s1,0(s0)
    }
f9007a30:	00c12083          	lw	ra,12(sp)
f9007a34:	00812403          	lw	s0,8(sp)
f9007a38:	00412483          	lw	s1,4(sp)
f9007a3c:	01010113          	addi	sp,sp,16
f9007a40:	00008067          	ret

f9007a44 <spi_applyConfig>:
    
    static void spi_applyConfig(u32 reg, Spi_Config *config){
        write_u32((config->cpol << 0) | (config->cpha << 1) | (config->mode << 4), reg + SPI_CONFIG);
f9007a44:	0005a783          	lw	a5,0(a1)
f9007a48:	0045a703          	lw	a4,4(a1)
f9007a4c:	00171713          	slli	a4,a4,0x1
f9007a50:	00e7e7b3          	or	a5,a5,a4
f9007a54:	0085a703          	lw	a4,8(a1)
f9007a58:	00471713          	slli	a4,a4,0x4
f9007a5c:	00e7e7b3          	or	a5,a5,a4
f9007a60:	00f52423          	sw	a5,8(a0)
        write_u32(config->clkDivider, reg + SPI_CLK_DIVIDER);
f9007a64:	00c5a783          	lw	a5,12(a1)
f9007a68:	02f52023          	sw	a5,32(a0)
        write_u32(config->ssSetup, reg + SPI_SS_SETUP);
f9007a6c:	0105a783          	lw	a5,16(a1)
f9007a70:	02f52223          	sw	a5,36(a0)
        write_u32(config->ssHold, reg + SPI_SS_HOLD);
f9007a74:	0145a783          	lw	a5,20(a1)
f9007a78:	02f52423          	sw	a5,40(a0)
        write_u32(config->ssDisable, reg + SPI_SS_DISABLE);
f9007a7c:	0185a783          	lw	a5,24(a1)
f9007a80:	02f52623          	sw	a5,44(a0)
    }
f9007a84:	00008067          	ret

f9007a88 <spi_waitXferBusy>:
    /**
    * Wait for SPI Transfer to complete
    * 
    * @param reg SPI base address 
    */
    static void spi_waitXferBusy(u32 reg){
f9007a88:	ff010113          	addi	sp,sp,-16
f9007a8c:	00112623          	sw	ra,12(sp)
f9007a90:	00812423          	sw	s0,8(sp)
f9007a94:	00050413          	mv	s0,a0
    	bsp_uDelay(1);
f9007a98:	f8b00637          	lui	a2,0xf8b00
f9007a9c:	047875b7          	lui	a1,0x4787
f9007aa0:	8c058593          	addi	a1,a1,-1856 # 47868c0 <__stack_size+0x47864c0>
f9007aa4:	00100513          	li	a0,1
f9007aa8:	e35ff0ef          	jal	ra,f90078dc <clint_uDelay>
    	while(spi_cmdAvailability(reg) != 256);
f9007aac:	00040513          	mv	a0,s0
f9007ab0:	e61ff0ef          	jal	ra,f9007910 <spi_cmdAvailability>
f9007ab4:	10000793          	li	a5,256
f9007ab8:	fef51ae3          	bne	a0,a5,f9007aac <spi_waitXferBusy+0x24>
    }
f9007abc:	00c12083          	lw	ra,12(sp)
f9007ac0:	00812403          	lw	s0,8(sp)
f9007ac4:	01010113          	addi	sp,sp,16
f9007ac8:	00008067          	ret

f9007acc <spiFlash_select>:
    * Set SPI Flash device Chip Select
    * 
    * @param spi SPI port base address 
    * @param cs 32-bit bitwise setting. Set 1 to enable particular bit. 
    */
    static void spiFlash_select(u32 spi, u32 cs){
f9007acc:	ff010113          	addi	sp,sp,-16
f9007ad0:	00112623          	sw	ra,12(sp)
        spi_select(spi, cs);
f9007ad4:	ee1ff0ef          	jal	ra,f90079b4 <spi_select>
    }
f9007ad8:	00c12083          	lw	ra,12(sp)
f9007adc:	01010113          	addi	sp,sp,16
f9007ae0:	00008067          	ret

f9007ae4 <spiFlash_diselect>:
    * Clear SPI Flash device Chip Select
    * 
    * @param spi SPI port base address 
    * @param cs 32-bit bitwise setting. Set 1 to disable particular bit. 
    */ 
    static void spiFlash_diselect(u32 spi, u32 cs){
f9007ae4:	ff010113          	addi	sp,sp,-16
f9007ae8:	00112623          	sw	ra,12(sp)
        spi_diselect(spi, cs);
f9007aec:	f11ff0ef          	jal	ra,f90079fc <spi_diselect>
    }
f9007af0:	00c12083          	lw	ra,12(sp)
f9007af4:	01010113          	addi	sp,sp,16
f9007af8:	00008067          	ret

f9007afc <spiFlash_init_>:
    /**
    * Initialize SPI port with default settings 
    * 
    * @param spi SPI port base address
    */
    static void spiFlash_init_(u32 spi){
f9007afc:	fd010113          	addi	sp,sp,-48
f9007b00:	02112623          	sw	ra,44(sp)
f9007b04:	02812423          	sw	s0,40(sp)
f9007b08:	00050413          	mv	s0,a0
        Spi_Config spiCfg;
        spiCfg.cpol = 0;
f9007b0c:	00012223          	sw	zero,4(sp)
        spiCfg.cpha = 0;
f9007b10:	00012423          	sw	zero,8(sp)
        spiCfg.mode = 0;
f9007b14:	00012623          	sw	zero,12(sp)
        spiCfg.clkDivider = 2;
f9007b18:	00200793          	li	a5,2
f9007b1c:	00f12823          	sw	a5,16(sp)
        spiCfg.ssSetup = 2;
f9007b20:	00f12a23          	sw	a5,20(sp)
        spiCfg.ssHold = 2;
f9007b24:	00f12c23          	sw	a5,24(sp)
        spiCfg.ssDisable = 2;
f9007b28:	00f12e23          	sw	a5,28(sp)
        spi_applyConfig(spi, &spiCfg);
f9007b2c:	00410593          	addi	a1,sp,4
f9007b30:	f15ff0ef          	jal	ra,f9007a44 <spi_applyConfig>
        spi_waitXferBusy(spi); 
f9007b34:	00040513          	mv	a0,s0
f9007b38:	f51ff0ef          	jal	ra,f9007a88 <spi_waitXferBusy>
    }
f9007b3c:	02c12083          	lw	ra,44(sp)
f9007b40:	02812403          	lw	s0,40(sp)
f9007b44:	03010113          	addi	sp,sp,48
f9007b48:	00008067          	ret

f9007b4c <spiFlash_init>:
    * 
    * @param spi SPI port base address
    * @param gpio GPIO port base address 
    * @param cs 32-bit bitwise chip select setting.
    */
    static void spiFlash_init(u32 spi, u32 cs){
f9007b4c:	ff010113          	addi	sp,sp,-16
f9007b50:	00112623          	sw	ra,12(sp)
f9007b54:	00812423          	sw	s0,8(sp)
f9007b58:	00912223          	sw	s1,4(sp)
f9007b5c:	00050413          	mv	s0,a0
f9007b60:	00058493          	mv	s1,a1
        spiFlash_init_(spi);
f9007b64:	f99ff0ef          	jal	ra,f9007afc <spiFlash_init_>
        spiFlash_diselect(spi, cs);
f9007b68:	00048593          	mv	a1,s1
f9007b6c:	00040513          	mv	a0,s0
f9007b70:	f75ff0ef          	jal	ra,f9007ae4 <spiFlash_diselect>
    }
f9007b74:	00c12083          	lw	ra,12(sp)
f9007b78:	00812403          	lw	s0,8(sp)
f9007b7c:	00412483          	lw	s1,4(sp)
f9007b80:	01010113          	addi	sp,sp,16
f9007b84:	00008067          	ret

f9007b88 <spiFlash_wake_>:
    * Define DEFAULT_ADDRESS_BYTE to include command to return
    * to 3-byte addressing mode. 
    * 
    * @param spi SPI port base address
    */
    static void spiFlash_wake_(u32 spi){
f9007b88:	ff010113          	addi	sp,sp,-16
f9007b8c:	00112623          	sw	ra,12(sp)
        spi_write(spi, 0xAB);
f9007b90:	0ab00593          	li	a1,171
f9007b94:	d99ff0ef          	jal	ra,f900792c <spi_write>
#if defined(DEFAULT_ADDRESS_BYTE) || defined(MX25_FLASH)
        //return to 3-byte addressing
        bsp_uDelay(300);
        spi_write(spi, 0xE9);
#endif
    }
f9007b98:	00c12083          	lw	ra,12(sp)
f9007b9c:	01010113          	addi	sp,sp,16
f9007ba0:	00008067          	ret

f9007ba4 <spiFlash_wake>:
    * Wake up the Spi Flash with chip select
    * 
    * @param spi SPI port base address
    * @param cs 32-bit bitwise chip select setting.
    */
    static void spiFlash_wake(u32 spi, u32 cs){
f9007ba4:	ff010113          	addi	sp,sp,-16
f9007ba8:	00112623          	sw	ra,12(sp)
f9007bac:	00812423          	sw	s0,8(sp)
f9007bb0:	00912223          	sw	s1,4(sp)
f9007bb4:	00050413          	mv	s0,a0
f9007bb8:	00058493          	mv	s1,a1
        spiFlash_select(spi,cs);
f9007bbc:	f11ff0ef          	jal	ra,f9007acc <spiFlash_select>
        spiFlash_wake_(spi);
f9007bc0:	00040513          	mv	a0,s0
f9007bc4:	fc5ff0ef          	jal	ra,f9007b88 <spiFlash_wake_>
        spiFlash_diselect(spi,cs);
f9007bc8:	00048593          	mv	a1,s1
f9007bcc:	00040513          	mv	a0,s0
f9007bd0:	f15ff0ef          	jal	ra,f9007ae4 <spiFlash_diselect>
        spi_waitXferBusy(spi);
f9007bd4:	00040513          	mv	a0,s0
f9007bd8:	eb1ff0ef          	jal	ra,f9007a88 <spi_waitXferBusy>
    }
f9007bdc:	00c12083          	lw	ra,12(sp)
f9007be0:	00812403          	lw	s0,8(sp)
f9007be4:	00412483          	lw	s1,4(sp)
f9007be8:	01010113          	addi	sp,sp,16
f9007bec:	00008067          	ret

f9007bf0 <spiFlash_f2m_>:
    * @param spi SPI port base address
    * @param flashAddress The flash address to read the data
    * @param memoryAddress The RAM address to write the data
    * @param size The size of data to copy
    */
    static void spiFlash_f2m_(u32 spi, u32 flashAddress, u32 memoryAddress, u32 size){
f9007bf0:	fe010113          	addi	sp,sp,-32
f9007bf4:	00112e23          	sw	ra,28(sp)
f9007bf8:	00812c23          	sw	s0,24(sp)
f9007bfc:	00912a23          	sw	s1,20(sp)
f9007c00:	01212823          	sw	s2,16(sp)
f9007c04:	01312623          	sw	s3,12(sp)
f9007c08:	00050913          	mv	s2,a0
f9007c0c:	00058493          	mv	s1,a1
f9007c10:	00060413          	mv	s0,a2
f9007c14:	00068993          	mv	s3,a3
        spi_write(spi, 0x0B);
f9007c18:	00b00593          	li	a1,11
f9007c1c:	d11ff0ef          	jal	ra,f900792c <spi_write>
        spi_write(spi, flashAddress >> 16);
f9007c20:	0104d593          	srli	a1,s1,0x10
f9007c24:	0ff5f593          	andi	a1,a1,255
f9007c28:	00090513          	mv	a0,s2
f9007c2c:	d01ff0ef          	jal	ra,f900792c <spi_write>
        spi_write(spi, flashAddress >>  8);
f9007c30:	0084d593          	srli	a1,s1,0x8
f9007c34:	0ff5f593          	andi	a1,a1,255
f9007c38:	00090513          	mv	a0,s2
f9007c3c:	cf1ff0ef          	jal	ra,f900792c <spi_write>
        spi_write(spi, flashAddress >>  0);
f9007c40:	0ff4f593          	andi	a1,s1,255
f9007c44:	00090513          	mv	a0,s2
f9007c48:	ce5ff0ef          	jal	ra,f900792c <spi_write>
        spi_write(spi, 0);
f9007c4c:	00000593          	li	a1,0
f9007c50:	00090513          	mv	a0,s2
f9007c54:	cd9ff0ef          	jal	ra,f900792c <spi_write>
        uint8_t *ram = (uint8_t *) memoryAddress;
        for(u32 idx = 0;idx < size;idx++){
f9007c58:	00000493          	li	s1,0
f9007c5c:	0134fe63          	bgeu	s1,s3,f9007c78 <spiFlash_f2m_+0x88>
            u8 value = spi_read(spi);
f9007c60:	00090513          	mv	a0,s2
f9007c64:	d09ff0ef          	jal	ra,f900796c <spi_read>
            *ram++ = value;
f9007c68:	00a40023          	sb	a0,0(s0)
        for(u32 idx = 0;idx < size;idx++){
f9007c6c:	00148493          	addi	s1,s1,1
            *ram++ = value;
f9007c70:	00140413          	addi	s0,s0,1
f9007c74:	fe9ff06f          	j	f9007c5c <spiFlash_f2m_+0x6c>
        }
    }
f9007c78:	01c12083          	lw	ra,28(sp)
f9007c7c:	01812403          	lw	s0,24(sp)
f9007c80:	01412483          	lw	s1,20(sp)
f9007c84:	01012903          	lw	s2,16(sp)
f9007c88:	00c12983          	lw	s3,12(sp)
f9007c8c:	02010113          	addi	sp,sp,32
f9007c90:	00008067          	ret

f9007c94 <spiFlash_f2m>:
    * @param cs 32-bit bitwise chip select setting
    * @param flashAddress The flash address to read the data
    * @param memoryAddress The RAM address to write the data
    * @param size The size of data to copy
    */ 
    static void spiFlash_f2m(u32 spi, u32 cs, u32 flashAddress, u32 memoryAddress, u32 size){
f9007c94:	fe010113          	addi	sp,sp,-32
f9007c98:	00112e23          	sw	ra,28(sp)
f9007c9c:	00812c23          	sw	s0,24(sp)
f9007ca0:	00912a23          	sw	s1,20(sp)
f9007ca4:	01212823          	sw	s2,16(sp)
f9007ca8:	01312623          	sw	s3,12(sp)
f9007cac:	01412423          	sw	s4,8(sp)
f9007cb0:	00050413          	mv	s0,a0
f9007cb4:	00058493          	mv	s1,a1
f9007cb8:	00060913          	mv	s2,a2
f9007cbc:	00068993          	mv	s3,a3
f9007cc0:	00070a13          	mv	s4,a4
        spiFlash_select(spi,cs);
f9007cc4:	e09ff0ef          	jal	ra,f9007acc <spiFlash_select>
        spiFlash_f2m_(spi, flashAddress, memoryAddress, size);
f9007cc8:	000a0693          	mv	a3,s4
f9007ccc:	00098613          	mv	a2,s3
f9007cd0:	00090593          	mv	a1,s2
f9007cd4:	00040513          	mv	a0,s0
f9007cd8:	f19ff0ef          	jal	ra,f9007bf0 <spiFlash_f2m_>
        spiFlash_diselect(spi,cs);
f9007cdc:	00048593          	mv	a1,s1
f9007ce0:	00040513          	mv	a0,s0
f9007ce4:	e01ff0ef          	jal	ra,f9007ae4 <spiFlash_diselect>
    }
f9007ce8:	01c12083          	lw	ra,28(sp)
f9007cec:	01812403          	lw	s0,24(sp)
f9007cf0:	01412483          	lw	s1,20(sp)
f9007cf4:	01012903          	lw	s2,16(sp)
f9007cf8:	00c12983          	lw	s3,12(sp)
f9007cfc:	00812a03          	lw	s4,8(sp)
f9007d00:	02010113          	addi	sp,sp,32
f9007d04:	00008067          	ret

f9007d08 <bspMain>:
#define USER_SOFTWARE_SIZE_INST   0x7800
#define USER_SOFTWARE_MEMORY_DATA 0xF9080000
#define USER_SOFTWARE_FLASH_DATA  0x00100000 + ( USER_SOFTWARE_MEMORY_DATA - USER_SOFTWARE_MEMORY_INST )
#define USER_SOFTWARE_SIZE_DATA   0x7800

void bspMain() {
f9007d08:	ff010113          	addi	sp,sp,-16
f9007d0c:	00112623          	sw	ra,12(sp)
f9007d10:	00812423          	sw	s0,8(sp)
#ifndef SIM
	spiFlash_init(SPI, SPI_CS);
f9007d14:	00000593          	li	a1,0
f9007d18:	f8014537          	lui	a0,0xf8014
f9007d1c:	e31ff0ef          	jal	ra,f9007b4c <spiFlash_init>
	spiFlash_wake(SPI, SPI_CS);
f9007d20:	00000593          	li	a1,0
f9007d24:	f8014537          	lui	a0,0xf8014
f9007d28:	e7dff0ef          	jal	ra,f9007ba4 <spiFlash_wake>
	spiFlash_f2m(SPI, SPI_CS, USER_SOFTWARE_FLASH_INST, USER_SOFTWARE_MEMORY_INST, USER_SOFTWARE_SIZE_INST);
f9007d2c:	00008437          	lui	s0,0x8
f9007d30:	80040713          	addi	a4,s0,-2048 # 7800 <__stack_size+0x7400>
f9007d34:	f90006b7          	lui	a3,0xf9000
f9007d38:	00100637          	lui	a2,0x100
f9007d3c:	00000593          	li	a1,0
f9007d40:	f8014537          	lui	a0,0xf8014
f9007d44:	f51ff0ef          	jal	ra,f9007c94 <spiFlash_f2m>
	spiFlash_f2m(SPI, SPI_CS, USER_SOFTWARE_FLASH_DATA, USER_SOFTWARE_MEMORY_DATA, USER_SOFTWARE_SIZE_DATA);
f9007d48:	80040713          	addi	a4,s0,-2048
f9007d4c:	f90806b7          	lui	a3,0xf9080
f9007d50:	00180637          	lui	a2,0x180
f9007d54:	00000593          	li	a1,0
f9007d58:	f8014537          	lui	a0,0xf8014
f9007d5c:	f39ff0ef          	jal	ra,f9007c94 <spiFlash_f2m>
#endif

	asm("fence.i; nop; nop; nop; nop; nop; nop"); 
f9007d60:	0000100f          	fence.i
f9007d64:	00000013          	nop
f9007d68:	00000013          	nop
f9007d6c:	00000013          	nop
f9007d70:	00000013          	nop
f9007d74:	00000013          	nop
f9007d78:	00000013          	nop
	void (*userMain)() = (void (*)())USER_SOFTWARE_MEMORY_INST;
#ifdef SMP
    smp_unlock(userMain);
#endif
	userMain();
f9007d7c:	f90007b7          	lui	a5,0xf9000
f9007d80:	000780e7          	jalr	a5 # f9000000 <__global_pointer$+0xfff78010>
}
f9007d84:	00c12083          	lw	ra,12(sp)
f9007d88:	00812403          	lw	s0,8(sp)
f9007d8c:	01010113          	addi	sp,sp,16
f9007d90:	00008067          	ret

f9007d94 <main>:
///////////////////////////////////////////////////////////////////////////////////
#include "type.h"
#include "bsp.h"
#include "bootloaderConfig.h"

void main() {
f9007d94:	ff010113          	addi	sp,sp,-16
f9007d98:	00112623          	sw	ra,12(sp)
    bsp_init();
    bspMain();
f9007d9c:	f6dff0ef          	jal	ra,f9007d08 <bspMain>
}
f9007da0:	00c12083          	lw	ra,12(sp)
f9007da4:	01010113          	addi	sp,sp,16
f9007da8:	00008067          	ret
