
build/gpioDemo_Trinita.elf:     file format elf32-littleriscv

Contents of section .rom_section.init:
 f9000000 97110800 93810197 17210800 13018118  .........!......
 f9000010 17050800 130505ff 97050800 938585fe  ................
 f9000020 1386c181 63fcc500 83220500 23a05500  ....c...."..#.U.
 f9000030 13054500 93854500 e3e8c5fe 1385c181  ..E...E.........
 f9000040 93850182 6378b500 23200500 13054500  ....cx..# ....E.
 f9000050 e36cb5fe ef000001 ef00c065 6f000000  .l.........eo...
 f9000060 67800000                             g...            
Contents of section .rom_section.text:
 f9000064 130101ff 23248100 23202101 17040800  ....#$..# !.....
 f9000074 130404f9 17090800 130989f8 33098940  ............3..@
 f9000084 23261100 23229100 13592940 630e0900  #&..#"...Y)@c...
 f9000094 93040000 83270400 93841400 13044400  .....'........D.
 f90000a4 e7800700 e31899fe 17040800 130444f5  ..............D.
 f90000b4 17090800 1309c9f4 33098940 13592940  ........3..@.Y)@
 f90000c4 630e0900 93040000 83270400 93841400  c........'......
 f90000d4 13044400 e7800700 e31899fe 8320c100  ..D.......... ..
 f90000e4 03248100 83244100 03290100 13010101  .$...$A..)......
 f90000f4 67800000 03254500 13550501 1375f50f  g....%E..U...u..
 f9000104 67800000 130101ff 23261100 23248100  g.......#&..#$..
 f9000114 23229100 13040500 93840500 13050400  #"..............
 f9000124 eff05ffd e30c05fe 23209400 8320c100  .._.....# ... ..
 f9000134 03248100 83244100 13010101 67800000  .$...$A.....g...
 f9000144 b7470f00 93870724 b3d5f502 b7c70000  .G.....$........
 f9000154 938787ff 3306f600 83270600 3385a502  ....3....'..3...
 f9000164 3305f500 83270600 b307f540 e3dc07fe  3....'.....@....
 f9000174 67800000 130101ff 23261100 93050500  g.......#&......
 f9000184 370501f8 eff01ff8 8320c100 13010101  7........ ......
 f9000194 67800000 130101ff 23261100 23248100  g.......#&..#$..
 f90001a4 13040500 03450400 63080500 13041400  .....E..c.......
 f90001b4 eff05ffc 6ff01fff 8320c100 03248100  .._.o.... ...$..
 f90001c4 13010101 67800000 130101ff 23261100  ....g.......#&..
 f90001d4 23248100 23229100 93040500 1304c001  #$..#"..........
 f90001e4 6f004002 b3d78400 13f7f700 b70708f9  o.@.............
 f90001f4 93870700 b387e700 03c50700 eff09ff7  ................
 f9000204 1304c4ff e35004fe 8320c100 03248100  .....P... ...$..
 f9000214 83244100 13010101 67800000 130101ff  .$A.....g.......
 f9000224 23261100 23248100 23229100 93040500  #&..#$..#"......
 f9000234 1304c001 6f004002 b3d78400 13f7f700  ....o.@.........
 f9000244 b70708f9 93874701 b387e700 03c50700  ......G.........
 f9000254 eff05ff2 1304c4ff e35004fe 8320c100  .._......P... ..
 f9000264 03248100 83244100 13010101 67800000  .$...$A.....g...
 f9000274 130101ff 23261100 1375f50f eff09fef  ....#&...u......
 f9000284 8320c100 13010101 67800000 130101ff  . ......g.......
 f9000294 23261100 eff01ff0 8320c100 13010101  #&....... ......
 f90002a4 67800000 130101fd 23261102 23248102  g.......#&..#$..
 f90002b4 23229102 93040500 63460500 13040100  #"......cF......
 f90002c4 6f00c002 1305d002 eff09ffa b3049040  o..............@
 f90002d4 6ff0dffe 1307a000 b3e7e402 93870703  o...............
 f90002e4 2300f400 b3c4e402 13041400 e39404fe  #...............
 f90002f4 93070100 e300f4fe 6f000001 1304f4ff  ........o.......
 f9000304 03450400 eff0dff6 93070100 e318f4fe  .E..............
 f9000314 8320c102 03248102 83244102 13010103  . ...$...$A.....
 f9000324 67800000 130101ff 23261100 13070000  g.......#&......
 f9000334 93077000 63c0e702 93162700 930700ff  ..p.c.....'.....
 f9000344 b397d700 b377f500 63860700 13071700  .....w..c.......
 f9000354 6ff01ffe eff09fec 8320c100 13010101  o........ ......
 f9000364 67800000 130101ff 23261100 13070000  g.......#&......
 f9000374 93077000 63c0e702 93162700 930700ff  ..p.c.....'.....
 f9000384 b397d700 b377f500 63860700 13071700  .....w..c.......
 f9000394 6ff01ffe eff05fe3 8320c100 13010101  o....._.. ......
 f90003a4 67800000 93952500 b385a500 23a0c500  g.....%.....#...
 f90003b4 67800000 93957500 3385a500 93555600  g.....u.3....UV.
 f90003c4 93952500 3305b500 b7250000 3305b500  ..%.3....%..3...
 f90003d4 93071000 b397c700 638a0600 03260500  ........c....&..
 f90003e4 b3e7c700 2320f500 67800000 03260500  ....# ..g....&..
 f90003f4 93c7f7ff b3f7c700 2320f500 67800000  ........# ..g...
 f9000404 9395c500 b385a500 37052000 b385a500  ........7. .....
 f9000414 23a0c500 67800000 9395c500 b385a500  #...g...........
 f9000424 37052000 13054500 b385a500 03a50500  7. ...E.........
 f9000434 67800000 9395c500 b385a500 37052000  g...........7. .
 f9000444 13054500 b385a500 23a0c500 67800000  ..E.....#...g...
 f9000454 130101fc 232e1100 232c8100 232a9100  ....#...#,..#*..
 f9000464 93040500 2322b102 2324c102 2326d102  ....#"..#$..#&..
 f9000474 2328e102 232af102 232c0103 232e1103  #(..#*..#,..#...
 f9000484 93074102 2326f100 13040000 6f00c001  ..A.#&......o...
 f9000494 8327c100 13874700 2326e100 03a50700  .'....G.#&......
 f90004a4 eff01fdd 13041400 b3878400 03c50700  ................
 f90004b4 6302050c 93075002 6306f506 eff05fdb  c.....P.c....._.
 f90004c4 6ff05ffe 8327c100 13874700 2326e100  o._..'....G.#&..
 f90004d4 03a50700 eff09fdb 6ff0dffc 8327c100  ........o....'..
 f90004e4 13874700 2326e100 03a50700 eff09fdb  ..G.#&..........
 f90004f4 6ff05ffb 8327c100 13874700 2326e100  o._..'....G.#&..
 f9000504 03a50700 eff01fe6 6ff0dff9 8327c100  ........o....'..
 f9000514 13874700 2326e100 03a50700 eff09fe0  ..G.#&..........
 f9000524 6ff05ff8 13041400 b3878400 83c70700  o._.............
 f9000534 e38a07f6 13073006 e38ce7f4 13073007  ......0.......0.
 f9000544 e382e7f8 13074006 e38ae7f8 13078005  ......@.........
 f9000554 e382e7fa 13078007 e38ae7fa 13076006  ..............`.
 f9000564 e392e7fc 370508f9 13058502 eff01fd2  ....7...........
 f9000574 6ff05ff3 8320c101 03248101 83244101  o._.. ...$...$A.
 f9000584 13010104 67800000 130101ff 23261100  ....g.......#&..
 f9000594 13060000 93050000 3705c0f8 eff05fe6  ........7....._.
 f90005a4 93061000 1306c000 93050000 3705c0f8  ............7...
 f90005b4 eff05fe0 13061000 9305c000 3705c0f8  .._.........7...
 f90005c4 eff05fde b76701f8 13071000 23a0e702  .._..g......#...
 f90005d4 b70700f9 9387c775 73905730 b7170000  .......us.W0....
 f90005e4 93870780 73a04730 f3270030 37270000  ....s.G0.'.07'..
 f90005f4 13078780 b3e7e700 73900730 8320c100  ........s..0. ..
 f9000604 13010101 67800000 130101ff 23261100  ....g.......#&..
 f9000614 370508f9 13054507 eff09fe3 6f000000  7.....E.....o...
 f9000624 130101ff 23261100 23248100 93050000  ....#&..#$......
 f9000634 3705c0f8 eff05fde 13040500 63080502  7....._.....c...
 f9000644 9307c000 6312f402 370508f9 13058508  ....c...7.......
 f9000654 eff01fe0 13060400 93050000 3705c0f8  ............7...
 f9000664 eff05fdd 6ff09ffc eff01ffa 8320c100  .._.o........ ..
 f9000674 03248100 13010101 67800000 130101ff  .$......g.......
 f9000684 23261100 f3272034 63d20702 13f7f700  #&...' 4c.......
 f9000694 9307b000 631af700 eff09ff8 8320c100  ....c........ ..
 f90006a4 13010101 67800000 eff01ff6 eff0dff5  ....g...........
 f90006b4 130101ff 23261100 23248100 370508f9  ....#&..#$..7...
 f90006c4 1305450a eff0dfd8 370508f9 1305850b  ..E.....7.......
 f90006d4 eff01fd8 b76701f8 1307e000 23a4e700  .....g......#...
 f90006e4 23a20700 13040000 6f000003 376701f8  #.......o...7g..
 f90006f4 83274700 93c7e700 2322f700 3706b0f8  .'G.....#"..7...
 f9000704 b7857d01 93850584 37850100 1305056a  ..}.....7......j
 f9000714 eff01fa3 13041400 93071003 e3d887fc  ................
 f9000724 370508f9 1305450d eff09fd2 370508f9  7.....E.....7...
 f9000734 1305050f eff0dfd1 370508f9 13050512  ........7.......
 f9000744 eff01fd1 370508f9 13050515 eff05fd0  ....7........._.
 f9000754 eff09fe3 6f000000 130101fc 23201100  ....o.......# ..
 f9000764 23225100 23246100 23267100 2328a100  #"Q.#$a.#&q.#(..
 f9000774 232ab100 232cc100 232ed100 2320e102  #*..#,..#...# ..
 f9000784 2322f102 23240103 23261103 2328c103  #"..#$..#&..#(..
 f9000794 232ad103 232ce103 232ef103 eff01fee  #*..#,..#.......
 f90007a4 83200100 83224100 03238100 8323c100  . ..."A..#...#..
 f90007b4 03250101 83254101 03268101 8326c101  .%...%A..&...&..
 f90007c4 03270102 83274102 03288102 8328c102  .'...'A..(...(..
 f90007d4 032e0103 832e4103 032f8103 832fc103  ......A../.../..
 f90007e4 13010104 73002030                    ....s. 0        
Contents of section .ram_section.data:
 f9080000 30313233 34353637 38394142 43444546  0123456789ABCDEF
 f9080010 00000000 30313233 34353637 38396162  ....0123456789ab
 f9080020 63646566 00000000 3c466c6f 6174696e  cdef....<Floatin
 f9080030 6720706f 696e7420 7072696e 74696e67  g point printing
 f9080040 206e6f74 20656e61 626c652e 20506c65   not enable. Ple
 f9080050 61736520 456e6162 6c652069 74206174  ase Enable it at
 f9080060 20627370 2e682066 69727374 2e2e2e3e   bsp.h first...>
 f9080070 00000000 0d0a2a2a 2a204352 41534820  ......*** CRASH 
 f9080080 2a2a2a0d 0a000000 6770696f 20302069  ***.....gpio 0 i
 f9080090 6e746572 72757074 20726f75 74696e65  nterrupt routine
 f90800a0 200d0a00 6770696f 20302064 656d6f20   ...gpio 0 demo 
 f90800b0 21200d0a 00000000 6f6e626f 61726420  ! ......onboard 
 f90800c0 4c454473 20626c69 6e6b696e 67200d0a  LEDs blinking ..
 f90800d0 00000000 6770696f 20302069 6e746572  ....gpio 0 inter
 f90800e0 72757074 2064656d 6f202120 0d0a0000  rupt demo ! ....
 f90800f0 54693138 30207072 65737320 616e6420  Ti180 press and 
 f9080100 72656c65 61736520 6f6e626f 61726420  release onboard 
 f9080110 62757474 6f6e2073 7734200d 0a000000  button sw4 .....
 f9080120 54693630 20707265 73732061 6e642072  Ti60 press and r
 f9080130 656c6561 7365206f 6e626f61 72642062  elease onboard b
 f9080140 7574746f 6e207377 36200d0a 00000000  utton sw6 ......
 f9080150 54313230 20707265 73732061 6e642072  T120 press and r
 f9080160 656c6561 7365206f 6e626f61 72642062  elease onboard b
 f9080170 7574746f 6e207377 37200d0a 00000000  utton sw7 ......
 f9080180 00000000 00000000 0000               ..........      
Contents of section .debug_info:
 0000 14160000 04000000 00000401 b5580000  .............X..
 0010 0c002100 00dc6800 00f80000 f9640600  ..!...h......d..
 0020 00000000 00000000 00020106 27530000  ............'S..
 0030 0201082f 50000002 02056908 00000202  .../P.....i.....
 0040 074c5e00 00032f80 0000094d 18510000  .L^.../....M.Q..
 0050 00020405 79840000 03904200 00094f19  ....y.....B...O.
 0060 64000000 020407f7 17000002 08051a46  d..............F
 0070 00000208 07436c00 00040405 696e7400  .....Cl.....int.
 0080 02040752 1f000003 31800000 0a2c1345  ...R....1....,.E
 0090 00000003 92420000 0a301458 00000005  .....B...0.X....
 00a0 75333200 121e1593 00000003 32230000  u32.........2#..
 00b0 0b281bb7 00000006 04182200 0003f57e  .(........"....~
 00c0 00000b63 18ab0000 00021004 7a030000  ...c........z...
 00d0 07642100 000c6501 17800000 0003fb7b  .d!...e........{
 00e0 00000d2e 0e510000 00033259 00000d74  .....Q....2Y...t
 00f0 0e510000 00036b72 00000d93 17790000  .Q....kr.....y..
 0100 0008040d a5032301 00000977 0f00000d  ......#....w....
 0110 a70cd000 00000950 5900000d a8132301  .......PY.....#.
 0120 0000000a 30000000 33010000 0b800000  ....0...3.......
 0130 0003000c 080da209 57010000 0d905300  ........W.....S.
 0140 000da407 79000000 000ded02 00000da9  ....y...........
 0150 05010100 00040003 db640000 0daa0333  .........d.....3
 0160 0100000e 0403dc78 00000e16 19640000  .......x.....d..
 0170 00038d3b 00000f0c 0d790000 0003e363  ...;.....y.....c
 0180 00000e23 1b710100 000fcc3e 0000180e  ...#.q.....>....
 0190 3408e301 00000df5 5000000e 3613e301  4.......P...6...
 01a0 00000010 5f6b000e 37077900 0000040d  ...._k..7.y.....
 01b0 f3710000 0e370b79 00000008 0db44800  .q...7.y......H.
 01c0 000e3714 79000000 0c0dbe32 00000e37  ..7.y......2...7
 01d0 1b790000 0010105f 78000e38 0be90100  .y....._x..8....
 01e0 00140011 04890100 000a6501 0000f901  ..........e.....
 01f0 00000b80 00000000 000f3008 0000240e  ..........0...$.
 0200 3c087c02 00000d42 0800000e 3e097900  <.|....B....>.y.
 0210 0000000d d2850000 0e3f0979 00000004  .........?.y....
 0220 0d8b7d00 000e4009 79000000 080d924f  ..}...@.y......O
 0230 00000e41 09790000 000c0d80 1800000e  ...A.y..........
 0240 42097900 0000100d 49720000 0e430979  B.y.....Ir...C.y
 0250 00000014 0d115500 000e4409 79000000  ......U...D.y...
 0260 180dc455 00000e45 09790000 001c0da7  ...U...E.y......
 0270 8100000e 46097900 00002000 121e1100  ....F.y... .....
 0280 0008010e 4f08c102 00000d96 8100000e  ....O...........
 0290 500ac102 0000000d 9d5d0000 0e5109c1  P........]...Q..
 02a0 02000080 13511700 000e530a 65010000  .....Q....S.e...
 02b0 0001130b 7700000e 560a6501 00000401  ....w...V.e.....
 02c0 000a6301 0000d102 00000b80 0000001f  ..c.............
 02d0 0012c351 00009001 0e620814 0300000d  ...Q.....b......
 02e0 f5500000 0e631214 03000000 0d747500  .P...c.......tu.
 02f0 000e6406 79000000 040d4425 00000e66  ..d.y.....D%...f
 0300 091a0300 00080d1e 1100000e 671e7c02  ............g.|.
 0310 00008800 1104d102 00000a2a 0300002a  ...........*...*
 0320 0300000b 80000000 1f001104 30030000  ............0...
 0330 140fd416 0000080e 7a085903 00000dad  ........z.Y.....
 0340 6000000e 7b115903 0000000d c7090000  `...{.Y.........
 0350 0e7c0679 00000004 00110430 0000000f  .|.y.......0....
 0360 d47d0000 680eba08 a2040000 105f7000  .}..h........_p.
 0370 0ebb1259 03000000 105f7200 0ebc0779  ...Y....._r....y
 0380 00000004 105f7700 0ebd0779 00000008  ....._w....y....
 0390 0d125100 000ebe09 37000000 0c0dcd10  ..Q.....7.......
 03a0 00000ebf 09370000 000e105f 6266000e  .....7....._bf..
 03b0 c0113103 0000100d 00750000 0ec10779  ..1......u.....y
 03c0 00000018 0d0a3200 000ec80a 63010000  ......2.....c...
 03d0 1c0df703 00000eca 1d260600 00200d10  .........&... ..
 03e0 4b00000e cc1d5006 0000240d 90580000  K.....P...$..X..
 03f0 0ecf0d74 06000028 0d022600 000ed009  ...t...(..&.....
 0400 8e060000 2c105f75 62000ed3 11310300  ....,._ub....1..
 0410 0030105f 7570000e d4125903 00003810  .0._up....Y...8.
 0420 5f757200 0ed50779 0000003c 0ddc4f00  _ur....y...<..O.
 0430 000ed811 94060000 400d3c08 00000ed9  ........@.<.....
 0440 11a40600 0043105f 6c62000e dc113103  .....C._lb....1.
 0450 0000440d 15600000 0edf0779 0000004c  ..D..`.....y...L
 0460 0d803400 000ee00a dd000000 500dcf66  ..4.........P..f
 0470 00000ee3 12c00400 00540d83 0a00000e  .........T......
 0480 e70c7d01 0000580d 8f500000 0ee90e57  ..}...X..P.....W
 0490 0100005c 0dea4a00 000eea09 79000000  ...\..J.....y...
 04a0 640015f5 000000c0 04000016 c0040000  d...............
 04b0 16630100 00161406 00001679 00000000  .c.........y....
 04c0 1104cb04 000017c0 04000018 dc210000  .............!..
 04d0 28040e65 02081406 000019d4 4d00000e  (..e........M...
 04e0 67020779 00000000 19292900 000e6c02  g..y.....))...l.
 04f0 0b000700 000419ac 1d00000e 6c021400  ............l...
 0500 07000008 193d5000 000e6c02 1e000700  .....=P...l.....
 0510 000c1989 2300000e 6e020879 00000010  ....#...n..y....
 0520 199b4200 000e6f02 08000900 00141944  ..B...o........D
 0530 2100000e 72020779 00000030 19522d00  !...r..y...0.R-.
 0540 000e7302 16150900 00341982 3900000e  ..s......4..9...
 0550 75020779 00000038 19d93f00 000e7702  u..y...8..?...w.
 0560 0a260900 003c198d 7a00000e 7a0213e3  .&...<..z...z...
 0570 01000040 19557300 000e7b02 07790000  ...@.Us...{..y..
 0580 004419b4 3800000e 7c0213e3 01000048  .D..8...|......H
 0590 19cb4700 000e7d02 142c0900 004c1918  ..G...}..,...L..
 05a0 0600000e 80020779 00000050 19b13400  .......y...P..4.
 05b0 000e8102 09140600 005419bd 4f00000e  .........T..O...
 05c0 a40207db 08000058 1ac35100 000ea802  .......X..Q.....
 05d0 13140300 0048011a fb3f0000 0ea90212  .....H...?......
 05e0 d1020000 4c011a93 3300000e ad020c3d  ....L...3......=
 05f0 090000dc 021a4081 00000eb2 0210c106  ......@.........
 0600 0000e002 1a360300 000eb402 0a490900  .....6.......I..
 0610 00ec0200 11041a06 00000201 082e5300  ..............S.
 0620 00171a06 00001104 a2040000 15f50000  ................
 0630 004a0600 0016c004 00001663 01000016  .J.........c....
 0640 4a060000 16790000 00001104 21060000  J....y......!...
 0650 11042c06 000015e9 00000074 06000016  ..,........t....
 0660 c0040000 16630100 0016e900 00001679  .....c.........y
 0670 00000000 11045606 00001579 0000008e  ......V....y....
 0680 06000016 c0040000 16630100 00001104  .........c......
 0690 7a060000 0a300000 00a40600 000b8000  z....0..........
 06a0 00000200 0a300000 00b40600 000b8000  .....0..........
 06b0 00000000 071f6400 000e2401 1a5f0300  ......d...$.._..
 06c0 001bae48 00000c0e 280108fa 06000019  ...H....(.......
 06d0 f5500000 0e2a0111 fa060000 00193144  .P...*........1D
 06e0 00000e2b 01077900 00000419 f5340000  ...+..y......4..
 06f0 0e2c010b 00070000 08001104 c1060000  .,..............
 0700 1104b406 00001bee 5d00000e 0e440108  ........]....D..
 0710 3f070000 19fc5700 000e4501 123f0700  ?.....W...E..?..
 0720 00001919 0c00000e 4601123f 07000006  ........F..?....
 0730 19e57c00 000e4701 123e0000 000c000a  ..|...G..>......
 0740 3e000000 4f070000 0b800000 0002001c  >...O...........
 0750 d00e8502 07640800 0019461b 00000e87  .....d....F.....
 0760 02188000 00000019 3b130000 0e880212  ........;.......
 0770 14060000 0419f405 00000e89 02106408  ..............d.
 0780 00000819 5a160000 0e8a0217 f9010000  ....Z...........
 0790 2419a445 00000e8b 020f7900 00004819  $..E......y...H.
 07a0 f0500000 0e8c022c 72000000 50194465  .P.....,r...P.De
 07b0 00000e8d 021a0607 00005819 456d0000  ..........X.Em..
 07c0 0e8e0216 57010000 68191f5a 00000e8f  ....W...h..Z....
 07d0 02165701 00007019 67500000 0e900216  ..W...p.gP......
 07e0 57010000 78198408 00000e91 02107408  W...x.........t.
 07f0 00008019 bf3d0000 0e920210 84080000  .....=..........
 0800 88190c0c 00000e93 020f7900 0000a019  ..........y.....
 0810 95130000 0e940216 57010000 a419d525  ........W......%
 0820 00000e95 02165701 0000ac19 737f0000  ......W.....s...
 0830 0e960216 57010000 b419464f 00000e97  ....W.....FO....
 0840 02165701 0000bc19 ea490000 0e980216  ..W......I......
 0850 57010000 c419d24d 00000e99 02087900  W......M......y.
 0860 0000cc00 0a1a0600 00740800 000b8000  .........t......
 0870 00001900 0a1a0600 00840800 000b8000  ................
 0880 00000700 0a1a0600 00940800 000b8000  ................
 0890 00001700 1cf00e9e 0207bb08 0000196e  ...............n
 08a0 7700000e a1021bbb 08000000 19274500  w............'E.
 08b0 000ea202 18cb0800 0078000a 59030000  .........x..Y...
 08c0 cb080000 0b800000 001d000a 80000000  ................
 08d0 db080000 0b800000 001d001d f00e8302  ................
 08e0 03000900 001edc21 00000e9a 020b4f07  .......!......O.
 08f0 00001e2a 2300000e a3020b94 08000000  ...*#...........
 0900 0a1a0600 00100900 000b8000 00001800  ................
 0910 1f9a4400 00110410 09000020 26090000  ..D........ &...
 0920 16c00400 00001104 1b090000 1104e301  ................
 0930 0000203d 09000016 79000000 00110443  .. =....y......C
 0940 09000011 04320900 000ab406 00005909  .....2........Y.
 0950 00000b80 00000002 00213d10 00000e33  .........!=....3
 0960 0317c004 00002119 7200000e 34031dc6  ......!.r...4...
 0970 04000022 31710000 10670e14 06000002  ..."1q...g......
 0980 04046f7d 00000208 047f0300 0023bd42  ..o}.........#.B
 0990 00000504 79000000 115f0206 ad090000  ....y...._......
 09a0 24792400 007f2516 4f000000 0021d13a  $y$...%.O....!.:
 09b0 00001168 02238d09 00002614 17000007  ...h.#....&.....
 09c0 7106b406 00f9a800 0000019c b70b0000  q...............
 09d0 27000000 008f0a00 00286900 07780e79  '........(i..x.y
 09e0 00000000 00000029 08110000 f00600f9  .......)........
 09f0 08000000 07791f1f 0a00002a 19110000  .....y.....*....
 0a00 1f000000 2bfd1500 00f00600 f9080000  ....+...........
 0a10 00082705 2a0a1600 00370000 00000029  ..'.*....7.....)
 0a20 e2100000 fc0600f9 04000000 07790969  .............y.i
 0a30 0a00002a fb100000 4f000000 2aef1000  ...*....O...*...
 0a40 00620000 002bd715 0000fc06 00f90400  .b...+..........
 0a50 00000828 052af015 00007a00 00002ae4  ...(.*....z...*.
 0a60 1500004f 00000000 002c1807 00f93814  ...O.....,....8.
 0a70 00002d01 5a050ca0 8601002d 015b050c  ..-.Z......-.[..
 0a80 40787d01 2d015c05 118080c0 45000029  @x}.-.\.....E..)
 0a90 bc100000 d80600f9 0c000000 077605d9  .............v..
 0aa0 0a00002a d5100000 92000000 2ac91000  ...*........*...
 0ab0 00a60000 002bd715 0000d806 00f90c00  .....+..........
 0ac0 0000082a 052af015 0000be00 00002ae4  ...*.*........*.
 0ad0 15000092 00000000 0029e210 0000e406  .........)......
 0ae0 00f90400 00000777 05230b00 002afb10  .......w.#...*..
 0af0 0000d600 00002aef 100000ea 0000002b  ......*........+
 0b00 d7150000 e40600f9 04000000 0828052a  .............(.*
 0b10 f0150000 02010000 2ae41500 00d60000  ........*.......
 0b20 0000002e cc0600f9 26110000 3a0b0000  ........&...:...
 0b30 2d015a05 03a40008 f9002ed8 0600f926  -.Z............&
 0b40 11000051 0b00002d 015a0503 b80008f9  ...Q...-.Z......
 0b50 002e3007 00f92611 0000680b 00002d01  ..0...&...h...-.
 0b60 5a0503d4 0008f900 2e3c0700 f9261100  Z........<...&..
 0b70 007f0b00 002d015a 0503f000 08f9002e  .....-.Z........
 0b80 480700f9 26110000 960b0000 2d015a05  H...&.......-.Z.
 0b90 03200108 f9002e54 0700f926 110000ad  . .....T...&....
 0ba0 0b00002d 015a0503 500108f9 002f5807  ...-.Z..P..../X.
 0bb0 00f9e40c 00000026 916a0000 076c060c  .......&.j...l..
 0bc0 0600f918 00000001 9ce10b00 002c2006  ............., .
 0bd0 00f92611 00002d01 5a050374 0008f900  ..&...-.Z..t....
 0be0 0026be29 0000075e 06240600 f95c0000  .&.)...^.$...\..
 0bf0 00019c64 0c000030 20550000 075f0e93  ...d...0 U..._..
 0c00 0000001a 0100002e 3c0600f9 7e0e0000  ........<...~...
 0c10 220c0000 2d015a04 4d46241f 2d015b01  "...-.Z.MF$.-.[.
 0c20 30002e58 0600f926 11000039 0c00002d  0..X...&...9...-
 0c30 015a0503 880008f9 002e6806 00f9160e  .Z........h.....
 0c40 00005a0c 00002d01 5a044d46 241f2d01  ..Z...-.Z.MF$.-.
 0c50 5b01302d 015c0278 00002f70 0600f9b7  [.0-.\.x../p....
 0c60 0b000000 26c41900 00075006 800600f9  ....&.....P.....
 0c70 34000000 019ce40c 00003042 72000007  4.........0Br...
 0c80 510d8700 00003801 0000304a 7b000007  Q.....8...0J{...
 0c90 520d8700 00005601 00003043 72000007  R.....V...0Cr...
 0ca0 530d8700 00008201 00003188 0600f904  S.........1.....
 0cb0 000000c8 0c000028 5f5f7600 07511664  .......(__v..Q.d
 0cc0 00000038 01000000 2fa00600 f9e10b00  ...8..../.......
 0cd0 002fb006 00f9b70b 00002fb4 0600f9b7  ./......../.....
 0ce0 0b000000 26883900 00073f06 8c0500f9  ....&.9...?.....
 0cf0 80000000 019c160e 000031d4 0500f90c  ..........1.....
 0d00 00000018 0d000028 5f5f7600 07490564  .......(__v..I.d
 0d10 000000be 01000000 31e00500 f90c0000  ........1.......
 0d20 00340d00 00325f5f 7600074b 05640000  .4...2__v..K.d..
 0d30 00000800 31ec0500 f9140000 006a0d00  ....1........j..
 0d40 00335f5f 7600074c 05640000 00015f34  .3__v..L.d...._4
 0d50 ec0500f9 04000000 285f5f76 00074c05  ........(__v..L.
 0d60 64000000 d1010000 00002996 100000c8  d.........).....
 0d70 0500f90c 00000007 4605b40d 00002aaf  ........F.....*.
 0d80 100000e4 0100002a a3100000 f8010000  .......*........
 0d90 2bd71500 00c80500 f90c0000 00082c05  +.............,.
 0da0 2af01500 00100200 002ae415 0000e401  *........*......
 0db0 00000000 2ea40500 f9d30e00 00d40d00  ................
 0dc0 002d015a 044d4624 1f2d015b 01302d01  .-.Z.MF$.-.[.0-.
 0dd0 5c013000 2eb80500 f93b0f00 00f90d00  \.0......;......
 0de0 002d015a 044d4624 1f2d015b 01302d01  .-.Z.MF$.-.[.0-.
 0df0 5c013c2d 015d0131 002cc805 00f93010  \.<-.].1.,....0.
 0e00 00002d01 5a044d46 241f2d01 5b013c2d  ..-.Z.MF$.-.[.<-
 0e10 015c0131 00003560 44000006 42113804  .\.1..5`D...B.8.
 0e20 00f91c00 0000019c 7e0e0000 36d77800  ........~...6.x.
 0e30 00064222 9f000000 28020000 36cd3900  ..B"....(...6.9.
 0e40 0006422c 9f000000 49020000 378d7500  ..B,....I...7.u.
 0e50 00064238 9f000000 015c2bd7 1500004c  ..B8.....\+....L
 0e60 0400f904 00000006 43092af0 1500006a  ........C.*....j
 0e70 0200002a e4150000 7d020000 0000381b  ...*....}.....8.
 0e80 55000006 3e109f00 00001c04 00f91c00  U...>...........
 0e90 0000019c d30e0000 36d77800 00063e1f  ........6.x...>.
 0ea0 9f000000 90020000 36cd3900 00063e29  ........6.9...>)
 0eb0 9f000000 b1020000 2bfd1500 00300400  ........+....0..
 0ec0 f9040000 00063f10 2a0a1600 00d20200  ......?.*.......
 0ed0 00000035 85660000 06361104 0400f918  ...5.f...6......
 0ee0 00000001 9c3b0f00 0036d778 00000636  .....;...6.x...6
 0ef0 289f0000 00e50200 0036cd39 00000636  (........6.9...6
 0f00 329f0000 00060300 00378e66 00000636  2........7.f...6
 0f10 3e9f0000 00015c2b d7150000 140400f9  >.....\+........
 0f20 04000000 0637092a f0150000 27030000  .....7.*....'...
 0f30 2ae41500 003a0300 00000035 ea410000  *....:.....5.A..
 0f40 062d11b8 0300f94c 00000001 9c301000  .-.....L.....0..
 0f50 0036d778 0000062d 259f0000 004d0300  .6.x...-%....M..
 0f60 0036cd39 0000062d 2f9f0000 006e0300  .6.9...-/....n..
 0f70 00368d75 0000062d 3a9f0000 008f0300  .6.u...-:.......
 0f80 0037f341 0000062d 479f0000 00015d39  .7.A...-G.....]9
 0f90 a6170000 062e0d9f 00000001 5a300947  ............Z0.G
 0fa0 0000062f 0d9f0000 00c90300 0029fd15  .../.........)..
 0fb0 0000e003 00f90400 00000631 17cb0f00  ...........1....
 0fc0 002a0a16 00001b04 00000029 d7150000  .*.........)....
 0fd0 e80300f9 08000000 06310df2 0f00002a  .........1.....*
 0fe0 f0150000 2e040000 2ae41500 00410400  ........*....A..
 0ff0 000029fd 150000f0 0300f904 00000006  ..).............
 1000 33171010 00002a0a 16000054 04000000  3.....*....T....
 1010 2bd71500 00fc0300 f9040000 0006330d  +.............3.
 1020 3af01500 00015a3a e4150000 015f0000  :.....Z:....._..
 1030 35a31300 00062511 a80300f9 10000000  5.....%.........
 1040 019c9610 000037d7 78000006 25279f00  ......7.x...%'..
 1050 0000015a 368d7500 00062531 9f000000  ...Z6.u...%1....
 1060 67040000 37ac1300 0006253e 9f000000  g...7.....%>....
 1070 015c2bd7 150000b0 0300f904 00000006  .\+.............
 1080 26092af0 15000088 0400002a e4150000  &.*........*....
 1090 9b040000 00003bdb 39000008 2c0503bc  ......;.9...,...
 10a0 1000003c 72656700 082c059f 0000003d  ...<reg..,.....=
 10b0 ef020000 082c059f 00000000 3b062a00  .....,......;.*.
 10c0 00082a05 03e21000 003c7265 6700082a  ..*......<reg..*
 10d0 059f0000 003def02 0000082a 059f0000  .....=.....*....
 10e0 00003be4 71000008 28050308 1100003c  ..;.q...(......<
 10f0 72656700 0828059f 0000003d ef020000  reg..(.....=....
 1100 0828059f 00000000 3e432900 00082705  .(......>C)...'.
 1110 9f000000 03261100 003c7265 67000827  .....&...<reg..'
 1120 059f0000 0000357e 81000005 df115404  ......5~......T.
 1130 00f93801 0000019c b3110000 362c6c00  ..8.........6,l.
 1140 0005df28 4a060000 ae040000 3f286900  ...(J.......?(i.
 1150 05e10d79 000000da 04000033 61700005  ...y.......3ap..
 1160 e211bd00 00000291 4c2fa804 00f9f012  ........L/......
 1170 00002fc4 0400f9f0 1200002f dc0400f9  ../......../....
 1180 ba120000 2ff40400 f9491200 002f0c05  ..../....I.../..
 1190 00f9b311 00002f24 0500f9fe 1100002c  ....../$.......,
 11a0 740500f9 ba120000 2d015a05 03280008  t.......-.Z..(..
 11b0 f9000035 ce550000 05d01168 0300f940  ...5.U.....h...@
 11c0 00000001 9cfe1100 00407661 6c0005d0  .........@val...
 11d0 22790000 00f90400 00286900 05d21179  "y.......(i....y
 11e0 0000001a 05000041 db160000 05d21379  .......A.......y
 11f0 00000002 2f9c0300 f97b1300 000035a8  ..../....{....5.
 1200 58000005 c1112803 00f94000 0000019c  X.....(...@.....
 1210 49120000 4076616c 0005c122 79000000  I...@val..."y...
 1220 39050000 28690005 c30d7900 00005a05  9...(i....y...Z.
 1230 000041db 16000005 c30f7900 0000022f  ..A.......y..../
 1240 5c0300f9 26130000 00351b57 000005b1  \...&....5.W....
 1250 11a80200 f9800000 00019caa 12000040  ...............@
 1260 76616c00 05b12279 00000079 05000039  val..."y...y...9
 1270 bd310000 05b30eaa 12000002 91502870  .1...........P(p
 1280 0005b40f 14060000 97050000 2ed00200  ................
 1290 f9f01200 00a01200 002d015a 02082d00  .........-.Z..-.
 12a0 2f0c0300 f9f01200 00000a1a 060000ba  /...............
 12b0 1200000b 80000000 1f003573 58000005  ..........5sX...
 12c0 aa119002 00f91800 0000019c f0120000  ................
 12d0 40700005 aa241406 0000cd05 00002c9c  @p...$........,.
 12e0 0200f9d0 1300002d 015a03f3 015a0000  .......-.Z...Z..
 12f0 350e5700 0005a511 740200f9 1c000000  5.W.....t.......
 1300 019c2613 00004063 0005a522 79000000  ..&...@c..."y...
 1310 ee050000 2c840200 f9fe1300 002d015a  ....,........-.Z
 1320 03f3015a 00003500 08000004 7f112002  ...Z..5....... .
 1330 00f95400 0000019c 7b130000 4076616c  ..T.....{...@val
 1340 00047f2d 93000000 0f060000 41350800  ...-........A5..
 1350 00048116 93000000 08343402 00f92c00  .........44...,.
 1360 00002869 00048416 79000000 3b060000  ..(i....y...;...
 1370 2f580200 f9fe1300 00000035 526d0000  /X.........5Rm..
 1380 047511cc 0100f954 00000001 9cd01300  .u.....T........
 1390 00407661 6c000475 27930000 005a0600  .@val..u'....Z..
 13a0 00413508 00000477 12930000 000834e0  .A5....w......4.
 13b0 0100f92c 00000028 6900047a 12790000  ...,...(i..z.y..
 13c0 00860600 002f0402 00f9fe13 00000000  ...../..........
 13d0 35931400 00046911 980100f9 34000000  5.....i.....4...
 13e0 019cfe13 00004070 00046922 14060000  ......@p..i"....
 13f0 a5060000 2fb80100 f9fe1300 000035a3  ..../.........5.
 1400 65000004 61117801 00f92000 0000019c  e...a.x... .....
 1410 38140000 36658100 0004611f 1a060000  8...6e....a.....
 1420 c3060000 2c8c0100 f9241500 002d015a  ....,....$...-.Z
 1430 05118080 84400000 35e52e00 00033711  .....@..5.....7.
 1440 440100f9 34000000 019c0615 00003638  D...4.........68
 1450 54000003 37229f00 0000e406 00004068  T...7"........@h
 1460 7a000337 2c9f0000 00050700 00407265  z..7,........@re
 1470 67000337 349f0000 00260700 0039b250  g..74....&...9.P
 1480 00000338 0d9f0000 00015b39 0d300000  ...8......[9.0..
 1490 03390d9f 00000001 5a290615 00005001  .9......Z)....P.
 14a0 00f91000 00000339 15d11400 002a1715  .......9.....*..
 14b0 00004807 00002bfd 1500005c 0100f904  ..H...+....\....
 14c0 00000003 21052a0a 1600006a 07000000  ....!.*....j....
 14d0 002b0615 00006801 00f90400 0000033a  .+....h........:
 14e0 202a1715 00007d07 00002bfd 15000068   *....}...+....h
 14f0 0100f904 00000003 21052a0a 16000094  ........!.*.....
 1500 07000000 00003ebd 26000003 21059f00  ......>.&...!...
 1510 00000324 1500003c 72656700 0321059f  ...$...<reg..!..
 1520 00000000 350c4b00 00013411 080100f9  ....5.K...4.....
 1530 3c000000 019c9215 00004072 65670001  <.........@reg..
 1540 34209f00 0000a707 000036d0 66000001  4 ........6.f...
 1550 342a1a06 0000d307 000029d7 1500002c  4*........)....,
 1560 0100f904 00000001 36098115 00002af0  ........6.....*.
 1570 150000f4 0700002a e4150000 07080000  .......*........
 1580 002c2801 00f99215 00002d01 5a027800  .,(.......-.Z.x.
 1590 000038fa 54000001 2d109f00 0000f800  ..8.T...-.......
 15a0 00f91000 0000019c d7150000 40726567  ............@reg
 15b0 00012d2b 9f000000 1a080000 2bfd1500  ..-+........+...
 15c0 00f80000 f9040000 00012e11 2a0a1600  ............*...
 15d0 003b0800 0000003b f50b0000 02221803  .;.....;....."..
 15e0 fd150000 3dd06600 00022226 9f000000  ....=.f..."&....
 15f0 3d635100 00022230 9f000000 00422a7a  =cQ..."0.....B*z
 1600 0000021e 179f0000 00033d63 51000002  ..........=cQ...
 1610 1e249f00 00000000 22000000 0200c003  .$......".......
 1620 00000401 2c0e0000 000000f9 640000f9  ....,.......d...
 1630 c6890000 dc680000 d8890000 01802200  .....h........".
 1640 00000200 d4030000 0401e60e 00005c07  ..............\.
 1650 00f9ec07 00f9e489 0000dc68 0000d889  ...........h....
 1660 00000180                             ....            
Contents of section .debug_abbrev:
 0000 01110125 0e130b03 0e1b0e11 01120610  ...%............
 0010 17994217 00000224 000b0b3e 0b030e00  ..B....$...>....
 0020 00031600 030e3a0b 3b0b390b 49130000  ......:.;.9.I...
 0030 0424000b 0b3e0b03 08000005 16000308  .$...>..........
 0040 3a0b3b0b 390b4913 0000060f 000b0b03  :.;.9.I.........
 0050 0e000007 1600030e 3a0b3b05 390b4913  ........:.;.9.I.
 0060 00000817 010b0b3a 0b3b0b39 0b011300  .......:.;.9....
 0070 00090d00 030e3a0b 3b0b390b 49130000  ......:.;.9.I...
 0080 0a010149 13011300 000b2100 49132f0b  ...I......!.I./.
 0090 00000c13 010b0b3a 0b3b0b39 0b011300  .......:.;.9....
 00a0 000d0d00 030e3a0b 3b0b390b 4913380b  ......:.;.9.I.8.
 00b0 00000e0f 000b0b00 000f1301 030e0b0b  ................
 00c0 3a0b3b0b 390b0113 0000100d 0003083a  :.;.9..........:
 00d0 0b3b0b39 0b491338 0b000011 0f000b0b  .;.9.I.8........
 00e0 49130000 12130103 0e0b053a 0b3b0b39  I..........:.;.9
 00f0 0b011300 00130d00 030e3a0b 3b0b390b  ..........:.;.9.
 0100 49133805 00001415 00271900 00151501  I.8......'......
 0110 27194913 01130000 16050049 13000017  '.I........I....
 0120 26004913 00001813 01030e0b 053a0b3b  &.I..........:.;
 0130 05390b01 13000019 0d00030e 3a0b3b05  .9..........:.;.
 0140 390b4913 380b0000 1a0d0003 0e3a0b3b  9.I.8........:.;
 0150 05390b49 13380500 001b1301 030e0b0b  .9.I.8..........
 0160 3a0b3b05 390b0113 00001c13 010b0b3a  :.;.9..........:
 0170 0b3b0539 0b011300 001d1701 0b0b3a0b  .;.9..........:.
 0180 3b05390b 01130000 1e0d0003 0e3a0b3b  ;.9..........:.;
 0190 05390b49 1300001f 1300030e 3c190000  .9.I........<...
 01a0 20150127 19011300 00213400 030e3a0b   ..'.....!4...:.
 01b0 3b05390b 49133f19 3c190000 22340003  ;.9.I.?.<..."4..
 01c0 0e3a0b3b 0b390b49 133f193c 19000023  .:.;.9.I.?.<...#
 01d0 0401030e 3e0b0b0b 49133a0b 3b05390b  ....>...I.:.;.9.
 01e0 01130000 24280003 0e1c0d00 00252800  ....$(.......%(.
 01f0 030e1c0b 0000262e 013f1903 0e3a0b3b  ......&..?...:.;
 0200 0b390b11 01120640 18974219 01130000  .9.....@..B.....
 0210 270b0155 17011300 00283400 03083a0b  '..U.....(4...:.
 0220 3b0b390b 49130217 0000291d 01311311  ;.9.I.....)..1..
 0230 01120658 0b590b57 0b011300 002a0500  ...X.Y.W.....*..
 0240 31130217 00002b1d 01311311 01120658  1.....+..1.....X
 0250 0b590b57 0b00002c 89820101 11013113  .Y.W...,......1.
 0260 00002d8a 82010002 18914218 00002e89  ..-.......B.....
 0270 82010111 01311301 1300002f 89820100  .....1...../....
 0280 11013113 00003034 00030e3a 0b3b0b39  ..1...04...:.;.9
 0290 0b491302 17000031 0b011101 12060113  .I.....1........
 02a0 00003234 0003083a 0b3b0b39 0b49131c  ..24...:.;.9.I..
 02b0 05000033 34000308 3a0b3b0b 390b4913  ...34...:.;.9.I.
 02c0 02180000 340b0111 01120600 00352e01  ....4........5..
 02d0 030e3a0b 3b0b390b 27191101 12064018  ..:.;.9.'.....@.
 02e0 97421901 13000036 0500030e 3a0b3b0b  .B.....6....:.;.
 02f0 390b4913 02170000 37050003 0e3a0b3b  9.I.....7....:.;
 0300 0b390b49 13021800 00382e01 030e3a0b  .9.I.....8....:.
 0310 3b0b390b 27194913 11011206 40189742  ;.9.'.I.....@..B
 0320 19011300 00393400 030e3a0b 3b0b390b  .....94...:.;.9.
 0330 49130218 00003a05 00311302 1800003b  I.....:..1.....;
 0340 2e01030e 3a0b3b0b 390b2719 200b0113  ....:.;.9.'. ...
 0350 00003c05 0003083a 0b3b0b39 0b491300  ..<....:.;.9.I..
 0360 003d0500 030e3a0b 3b0b390b 49130000  .=....:.;.9.I...
 0370 3e2e0103 0e3a0b3b 0b390b27 19491320  >....:.;.9.'.I. 
 0380 0b011300 003f1800 00004005 0003083a  .....?....@....:
 0390 0b3b0b39 0b491302 17000041 3400030e  .;.9.I.....A4...
 03a0 3a0b3b0b 390b4913 1c0b0000 422e0103  :.;.9.I.....B...
 03b0 0e3a0b3b 0b390b27 19491320 0b000000  .:.;.9.'.I. ....
 03c0 01110010 06110112 01030e1b 0e250e13  .............%..
 03d0 05000000 01110010 06110112 01030e1b  ................
 03e0 0e250e13 05000000                    .%......        
Contents of section .debug_loc:
 0000 f0050000 f8050000 0200309f f8050000  ..........0.....
 0010 64060000 01005800 00000000 000000f8  d.....X.........
 0020 05000000 06000006 001180c0 85409f00  .............@..
 0030 00000000 000000f8 05000000 06000006  ................
 0040 001184c0 85409f00 00000000 00000004  .....@..........
 0050 06000008 06000001 005f0000 00000000  ........._......
 0060 00000406 00000806 00000600 1180c085  ................
 0070 409f0000 00000000 00000406 00000806  @...............
 0080 00000600 1184c085 409f0000 00000000  ........@.......
 0090 0000e005 0000ec05 00000200 3e9f0000  ............>...
 00a0 00000000 0000e005 0000ec05 00000600  ................
 00b0 1180c085 409f0000 00000000 0000e005  ....@...........
 00c0 0000ec05 00000600 1188c085 409f0000  ............@...
 00d0 00000000 0000ec05 0000f005 00000200  ................
 00e0 309f0000 00000000 0000ec05 0000f005  0...............
 00f0 00000600 1180c085 409f0000 00000000  ........@.......
 0100 0000ec05 0000f005 00000600 1184c085  ................
 0110 409f0000 00000000 00004805 00008005  @.........H.....
 0120 00000100 58800500 00880500 0001005a  ....X..........Z
 0130 00000000 00000000 94050000 a0050000  ................
 0140 01005fb8 050000bb 05000001 005f0000  .._.........._..
 0150 00000000 00009405 0000a005 00000800  ................
 0160 7f00302d 08ff1a9f b8050000 bb050000  ..0-............
 0170 08007f00 302d08ff 1a9f0000 00000000  ....0-..........
 0180 00009405 00009c05 00000500 7f003f1a  ..............?.
 0190 9f9c0500 00a70500 0001005e b4050000  ...........^....
 01a0 b7050000 01005eb8 050000bb 05000005  ......^.........
 01b0 007f003f 1a9f0000 00000000 0000e404  ...?............
 01c0 0000ec04 00000100 5f000000 00000000  ........_.......
 01d0 00f80400 00040500 0001005f 00000000  ..........._....
 01e0 00000000 d0040000 dc040000 0200319f  ..............1.
 01f0 00000000 00000000 d0040000 dc040000  ................
 0200 06001180 c085409f 00000000 00000000  ......@.........
 0210 d0040000 dc040000 060011a0 c085409f  ..............@.
 0220 00000000 00000000 40030000 4c030000  ........@...L...
 0230 01005a4c 0300005c 03000004 00f3015a  ..ZL...\.......Z
 0240 9f000000 00000000 00400300 00440300  .........@...D..
 0250 0001005b 44030000 5c030000 0400f301  ...[D...\.......
 0260 5b9f0000 00000000 00005403 00005803  [.........T...X.
 0270 00000100 5b000000 00000000 00540300  ....[........T..
 0280 00580300 0001005c 00000000 00000000  .X.....\........
 0290 24030000 30030000 01005a30 03000040  $...0.....Z0...@
 02a0 03000004 00f3015a 9f000000 00000000  .......Z........
 02b0 00240300 00280300 0001005b 28030000  .$...(.....[(...
 02c0 40030000 0400f301 5b9f0000 00000000  @.......[.......
 02d0 00003803 00003c03 00000100 5b000000  ..8...<.....[...
 02e0 00000000 000c0300 00180300 0001005a  ...............Z
 02f0 18030000 24030000 0400f301 5a9f0000  ....$.......Z...
 0300 00000000 00000c03 00001003 00000100  ................
 0310 5b100300 00240300 000400f3 015b9f00  [....$.......[..
 0320 00000000 0000001c 03000020 03000001  ........... ....
 0330 005b0000 00000000 00001c03 00002003  .[............ .
 0340 00000100 5c000000 00000000 00c00200  ....\...........
 0350 00c80200 0001005a c8020000 0c030000  .......Z........
 0360 0400f301 5a9f0000 00000000 0000c002  ....Z...........
 0370 0000c402 00000100 5bc40200 000c0300  ........[.......
 0380 000400f3 015b9f00 00000000 000000c0  .....[..........
 0390 020000ec 02000001 005cec02 0000f802  .........\......
 03a0 00000400 f3015c9f f8020000 fc020000  ......\.........
 03b0 01005cfc 0200000c 03000004 00f3015c  ..\............\
 03c0 9f000000 00000000 00e40200 00f00200  ................
 03d0 0001005f f0020000 f8020000 090031f3  ..._..........1.
 03e0 015c08ff 1a249ff8 02000000 03000001  .\...$..........
 03f0 005f0003 00000403 00000400 7f00209f  ._............ .
 0400 04030000 0c030000 090031f3 015c08ff  ..........1..\..
 0410 1a249f00 00000000 000000e8 020000ec  .$..............
 0420 02000001 005a0000 00000000 0000f002  .....Z..........
 0430 0000f802 00000100 5a000000 00000000  ........Z.......
 0440 00f00200 00f80200 0001005f 00000000  ..........._....
 0450 00000000 f8020000 fc020000 01005a00  ..............Z.
 0460 00000000 000000b0 020000b4 02000001  ................
 0470 005bb402 0000c002 00000400 f3015b9f  .[............[.
 0480 00000000 00000000 b8020000 bc020000  ................
 0490 01005b00 00000000 000000b8 020000bc  ..[.............
 04a0 02000001 005c0000 00000000 00005c03  .....\........\.
 04b0 00009c03 00000100 5a9c0300 008c0400  ........Z.......
 04c0 00010059 8c040000 94040000 0400f301  ...Y............
 04d0 5a9f0000 00000000 00009403 00009c03  Z...............
 04e0 00000200 309f9c03 00008804 00000100  ....0...........
 04f0 58000000 00000000 00700200 00a30200  X........p......
 0500 0001005a a3020000 b0020000 0400f301  ...Z............
 0510 5a9f0000 00000000 00007802 00007c02  Z.........x...|.
 0520 00000200 309f7c02 0000a302 00000100  ....0.|.........
 0530 5e000000 00000000 00300200 00630200  ^........0...c..
 0540 0001005a 63020000 70020000 0400f301  ...Zc...p.......
 0550 5a9f0000 00000000 00003802 00003c02  Z.........8...<.
 0560 00000200 309f3c02 00006302 00000100  ....0.<...c.....
 0570 5e000000 00000000 00b00100 00c80100  ^...............
 0580 0001005a c8010000 28020000 01005900  ...Z....(.....Y.
 0590 00000000 000000c4 010000e0 01000001  ................
 05a0 0052e001 0000e801 00000100 58e80100  .R..........X...
 05b0 00f80100 00030078 019ff801 00002402  .......x......$.
 05c0 00000100 58000000 00000000 00980100  ....X...........
 05d0 00a30100 0001005a a3010000 b0010000  .......Z........
 05e0 0400f301 5a9f0000 00000000 00007c01  ....Z.........|.
 05f0 00008801 00000100 5a880100 00980100  ........Z.......
 0600 000400f3 015a9f00 00000000 00000028  .....Z.........(
 0610 01000044 01000001 005a4401 00007401  ...D.....ZD...t.
 0620 00000100 59740100 007c0100 000400f3  ....Yt...|......
 0630 015a9f00 00000000 0000003c 01000044  .Z.........<...D
 0640 01000002 004c9f44 01000070 01000001  .....L.D...p....
 0650 00580000 00000000 0000d400 0000f000  .X..............
 0660 00000100 5af00000 00200100 00010059  ....Z.... .....Y
 0670 20010000 28010000 0400f301 5a9f0000   ...(.......Z...
 0680 00000000 0000e800 0000f000 00000200  ................
 0690 4c9ff000 00001c01 00000100 58000000  L...........X...
 06a0 00000000 00a00000 00b00000 0001005a  ...............Z
 06b0 b0000000 cc000000 01005800 00000000  ..........X.....
 06c0 00000080 00000090 00000001 005a9000  .............Z..
 06d0 0000a000 00000400 f3015a9f 00000000  ..........Z.....
 06e0 00000000 4c000000 6c000000 01005a6c  ....L...l.....Zl
 06f0 00000080 00000004 00f3015a 9f000000  ...........Z....
 0700 00000000 004c0000 00580000 0001005b  .....L...X.....[
 0710 58000000 80000000 0400f301 5b9f0000  X...........[...
 0720 00000000 00004c00 00006400 00000100  ......L...d.....
 0730 5c640000 00800000 0005007c 88807d9f  \d.........|..}.
 0740 00000000 00000000 58000000 64000000  ........X...d...
 0750 01005c64 00000068 00000005 007c8880  ..\d...h.....|..
 0760 7d9f0000 00000000 00006400 00006800  }.........d...h.
 0770 00000100 5c000000 00000000 00700000  ....\........p..
 0780 00740000 0005007c 88807d9f 00000000  .t.....|..}.....
 0790 00000000 70000000 74000000 01005c00  ....p...t.....\.
 07a0 00000000 00000010 00000028 00000001  ...........(....
 07b0 005a2800 00004000 00000100 58400000  .Z(...@.....X@..
 07c0 004c0000 000400f3 015a9f00 00000000  .L.......Z......
 07d0 00000010 00000028 00000001 005b2800  .......(.....[(.
 07e0 00004c00 00000400 f3015b9f 00000000  ..L.......[.....
 07f0 00000000 34000000 38000000 01005800  ....4...8.....X.
 0800 00000000 00000034 00000038 00000001  .......4...8....
 0810 00590000 00000000 00000000 00000400  .Y..............
 0820 00000100 5a040000 00100000 000400f3  ....Z...........
 0830 015a9f00 00000000 00000000 00000004  .Z..............
 0840 00000003 007a049f 00000000 00000000  .....z..........
Contents of section .debug_aranges:
 0000 1c000000 02000000 00000400 00000000  ................
 0010 f80000f9 64060000 00000000 00000000  ....d...........
 0020 1c000000 02001816 00000400 00000000  ................
 0030 000000f9 64000000 00000000 00000000  ....d...........
 0040 1c000000 02003e16 00000400 00000000  ......>.........
 0050 5c0700f9 90000000 00000000 00000000  \...............
Contents of section .debug_ranges:
 0000 f0050000 f8050000 f8050000 04060000  ................
 0010 04060000 2c060000 00000000 00000000  ....,...........
Contents of section .debug_macro:
 0000 04000200 00000007 e7010000 03000703  ................
 0010 2713050a 3b0e0000 030c0905 063d5400  '...;........=T.
 0020 00030814 05167823 0000031c 15074709  ......x#......G.
 0030 00000407 69090000 0407f709 00000403  ....i...........
 0040 0d160748 0a000004 030e0a07 4b0b0000  ...H........K...
 0050 0407b50b 00000403 2804032c 1707940d  ........(..,....
 0060 00000403 2d01031a 12071e0f 00000403  ....-...........
 0070 1b02031b 170407e2 0f000004 07f20f00  ................
 0080 0004032e 03070e10 00000403 31180529  ............1..)
 0090 24840000 032d1903 1b1a0724 10000004  $....-.....$....
 00a0 07dc1100 00040530 65540000 0407f211  .......0eT......
 00b0 000003a4 0105032a 0b07a412 00000403  .......*........
 00c0 2b100508 d0680000 030a1b07 fc120000  +....h..........
 00d0 04030b1c 0508cc49 0000030a 1d071513  .......I........
 00e0 00000403 0b1e0502 52450000 03041b04  ........RE......
 00f0 07671300 0004079b 13000004 07cf1300  .g..............
 0100 0003100c 07e51300 00040312 0e050b14  ................
 0110 4e000003 0d1c0403 0e0c07f3 14000004  N...............
 0120 030f0d07 80150000 03180c07 96150000  ................
 0130 04031b1f 0506b076 00000407 d9150000  .......v........
 0140 04070d16 00000322 0f071d16 00000407  ......."........
 0150 6f160000 04031320 052b8220 0000032f  o...... .+. .../
 0160 0c0407f1 17000004 03142105 028e2300  ..........!...#.
 0170 00040316 22072a1b 00000407 401b0000  ....".*.....@...
 0180 04032d11 05034761 00000307 1b040769  ..-...Ga.......i
 0190 1b000004 032e2307 121d0000 03110c07  ......#.........
 01a0 281d0000 04031424 0504ae05 00000403  (......$........
 01b0 1825051e ba680000 0403af01 26050ddc  .%...h......&...
 01c0 7b000004 04040403 2a08075d 1d000004  {.......*..]....
 01d0 032c0607 8b1d0000 04053125 19000005  .,........1%....
 01e0 36ed7500 00040004 00000500 b24f0000  6.u..........O..
 01f0 0500021e 00000500 13080000 05007f1f  ................
 0200 00000500 96580000 0500e038 00000500  .....X.....8....
 0210 e4660000 0500dc1c 00000500 ab780000  .f...........x..
 0220 0500a76f 00000500 ed200000 0500ad5a  ...o..... .....Z
 0230 00000500 ee3d0000 05003784 00000500  .....=....7.....
 0240 f7040000 0500883e 00000500 635f0000  .......>....c_..
 0250 05007779 00000500 9d180000 0500dd05  ..wy............
 0260 00000500 f8220000 05009171 00000500  .....".....q....
 0270 38190000 05003077 00000500 0b6c0000  8.....0w.....l..
 0280 0500054e 00000500 53260000 0500e307  ...N....S&......
 0290 00000500 a80d0000 0500f606 00000500  ................
 02a0 92490000 0500e24f 00000500 1c160000  .I.....O........
 02b0 05001007 00000500 c15c0000 0500b949  .........\.....I
 02c0 00000500 444a0000 0500e967 00000500  ....DJ.....g....
 02d0 19170000 05003c5e 00000500 e7170000  ......<^........
 02e0 0500af09 00000500 19530000 05005a08  .........S....Z.
 02f0 00000500 6a840000 05000b46 00000500  ....j......F....
 0300 20500000 0500eb38 00000500 f3770000   P.....8.....w..
 0310 0500336c 00000500 4a840000 0500c67c  ..3l....J......|
 0320 00000500 015a0000 05008e0f 00000500  .....Z..........
 0330 18130000 0500f65d 00000500 1f670000  .......].....g..
 0340 0500893c 00000500 e5140000 0500a95d  ...<...........]
 0350 00000500 513e0000 0500f409 00000500  ....Q>..........
 0360 4b3a0000 0500287b 00000500 3d1f0000  K:....({....=...
 0370 05006225 00000500 523f0000 0500576b  ..b%....R?....Wk
 0380 00000500 c4360000 0500582b 00000500  .....6....X+....
 0390 62090000 0500664e 00000500 6b5c0000  b.....fN....k\..
 03a0 05004187 00000500 b27f0000 05006f55  ..A...........oU
 03b0 00000500 49250000 0500352f 00000500  ....I%....5/....
 03c0 ef5c0000 0500eb7b 00000500 3b030000  .\.....{....;...
 03d0 05007742 00000500 f00f0000 0500de50  ..wB...........P
 03e0 00000500 d75a0000 05006c40 00000500  .....Z....l@....
 03f0 1a440000 05001a81 00000500 f9450000  .D...........E..
 0400 05008b0e 00000500 a67b0000 0500fd03  .........{......
 0410 00000500 29010000 05008c86 00000500  ....)...........
 0420 ee150000 0500e206 00000500 5d5b0000  ............][..
 0430 0500ea30 00000500 02740000 05007238  ...0.....t....r8
 0440 00000500 74720000 0500423b 00000500  ....tr....B;....
 0450 1b3f0000 05006d28 00000500 58870000  .?....m(....X...
 0460 05006639 00000500 d0340000 0500d435  ..f9.....4.....5
 0470 00000500 68560000 0500737c 00000500  ....hV....s|....
 0480 572a0000 05006f81 00000500 dc320000  W*....o......2..
 0490 0500ba48 00000500 940d0000 05004c19  ...H..........L.
 04a0 00000500 9f3b0000 0500971c 00000500  .....;..........
 04b0 d9370000 05005631 00000500 4b080000  .7....V1....K...
 04c0 0500901d 00000500 296e0000 05001d37  ........)n.....7
 04d0 00000500 c12b0000 05003e5a 00000500  .....+....>Z....
 04e0 723c0000 05000976 00000500 794e0000  r<.....v....yN..
 04f0 05007a5f 00000500 1e100000 0500cf20  ..z_........... 
 0500 00000500 c3760000 05000414 00000500  .....v..........
 0510 a00c0000 0500170f 00000500 d3100000  ................
 0520 05006018 00000500 835a0000 05003511  ..`......Z....5.
 0530 00000500 dc440000 0500b360 00000500  .....D.....`....
 0540 704f0000 0500b938 00000500 234e0000  pO.....8....#N..
 0550 0500ac39 00000500 954b0000 05004a43  ...9.....K....JC
 0560 00000500 253e0000 0500c44d 00000500  ....%>.....M....
 0570 7e4b0000 05009d1a 00000500 89180000  ~K..............
 0580 05000920 00000500 0b1b0000 05004123  ... ..........A#
 0590 00000500 237c0000 05009528 00000500  ....#|.....(....
 05a0 e5530000 05005f07 00000500 f2370000  .S...._......7..
 05b0 0500c41c 00000500 b2860000 0500cf6b  ...............k
 05c0 00000500 91570000 0500a784 00000500  .....W..........
 05d0 cb3d0000 05000106 00000500 9e230000  .=...........#..
 05e0 05001232 00000500 f3650000 0500a77e  ...2.....e.....~
 05f0 00000500 31850000 05005229 00000500  ....1.....R)....
 0600 4a700000 05007b78 00000500 a8540000  Jp....{x.....T..
 0610 05009685 00000500 f27d0000 05004767  .........}....Gg
 0620 00000500 86220000 05009619 00000500  ....."..........
 0630 30290000 05003039 00000500 b3450000  0)....09.....E..
 0640 0500ee7a 00000500 cb7f0000 05005a17  ...z..........Z.
 0650 00000500 3a590000 0500f52f 00000500  ....:Y...../....
 0660 e5430000 0500243c 00000500 80580000  .C....$<.....X..
 0670 05009f0b 00000500 63530000 0500fe16  ........cS......
 0680 00000500 e20a0000 0500cb07 00000500  ................
 0690 d3560000 0500890a 00000500 ab1f0000  .V..............
 06a0 0500df1b 00000500 26760000 05005a43  ........&v....ZC
 06b0 00000500 582f0000 0500dc7d 00000500  ....X/.....}....
 06c0 027c0000 0500396e 00000500 390c0000  .|....9n....9...
 06d0 05003045 00000500 b81e0000 0500b80c  ..0E............
 06e0 00000500 105b0000 0500d43e 00000500  .....[.....>....
 06f0 5a6c0000 05006c3a 00000500 ad4d0000  Zl....l:.....M..
 0700 0500d402 00000500 911f0000 05005f73  .............._s
 0710 00000500 56560000 05003115 00000500  ....VV....1.....
 0720 f0000000 0500722a 00000500 554f0000  ......r*....UO..
 0730 0500e201 00000500 b4770000 0500d323  .........w.....#
 0740 00000500 9c4e0000 05004b6a 00000500  .....N....Kj....
 0750 93780000 0500695a 00000500 1b0e0000  .x....iZ........
 0760 0500f580 00000500 9a5e0000 05007d04  .........^....}.
 0770 00000500 663f0000 0500ac36 00000500  ....f?.....6....
 0780 2f300000 05002c14 00000500 6f4d0000  /0....,.....oM..
 0790 05005759 00000500 3f680000 0500581e  ..WY....?h....X.
 07a0 00000500 0d3e0000 05005e12 00000500  .....>....^.....
 07b0 62140000 0500c33c 00000500 3b050000  b......<....;...
 07c0 0500b80b 00000500 48390000 0500566f  ........H9....Vo
 07d0 00000500 d50f0000 0500e558 00000500  ...........X....
 07e0 b1080000 05003566 00000500 4d050000  ......5f....M...
 07f0 05004b57 00000500 bc160000 0500c431  ..KW...........1
 0800 00000500 3b560000 05002354 00000500  ....;V....#T....
 0810 02270000 05008d39 00000500 cc060000  .'.....9........
 0820 05001330 00000500 400f0000 05002104  ...0....@.....!.
 0830 00000500 995b0000 05008d31 00000500  .....[.....1....
 0840 2b070000 0500bc71 00000500 4d1a0000  +......q....M...
 0850 05002006 00000500 9d330000 0500fb50  .. ......3.....P
 0860 00000500 b9140000 05006a20 00000500  ..........j ....
 0870 c20d0000 05003020 00000500 0e010000  ......0 ........
 0880 05008a6b 00000500 756b0000 0500b934  ...k....uk.....4
 0890 00000500 301c0000 0500a601 00000500  ....0...........
 08a0 78160000 05009251 00000500 ed3c0000  x......Q.....<..
 08b0 0500f21c 00000500 6d010000 05005e2c  ........m.....^,
 08c0 00000500 07680000 05006f31 00000500  .....h....o1....
 08d0 f0440000 0500c12e 00000500 ac100000  .D..............
 08e0 05008438 00000500 4a240000 0500b146  ...8....J$.....F
 08f0 00000500 60750000 0500536e 00000500  ....`u....Sn....
 0900 e6000000 05008972 00000500 801a0000  .......r........
 0910 05001b05 00000500 1e600000 0500b513  .........`......
 0920 00000500 c4440000 05004965 00000500  .....D....Ie....
 0930 86600000 05008669 00000500 af180000  .`.....i........
 0940 0500e130 00000004 00000504 39420000  ...0........9B..
 0950 0506db76 00000507 731a0000 05082f4b  ...v....s...../K
 0960 00000509 e85a0000 00040000 0521d211  .....Z.......!..
 0970 00000528 1a740000 0683016b 78000005  ...(.t.....kx...
 0980 8401123c 00000688 010e3900 00058901  ...<......9.....
 0990 de7a0000 068a017c 86000005 8b01d65d  .z.....|.......]
 09a0 0000069e 01153500 00059f01 2f490000  ......5...../I..
 09b0 05f701b0 51000005 fd01005b 00000585  ....Q......[....
 09c0 02205d00 00058a02 a8530000 05950237  . ]......S.....7
 09d0 1a000005 9902122f 0000059f 02520600  ......./.....R..
 09e0 0005af02 a7000000 05bf0245 73000005  ...........Es...
 09f0 ca020773 00000004 0000050f 5c490000  ...s........\I..
 0a00 051a985f 00000521 fb710000 052fa038  ..._...!.q.../.8
 0a10 0000053d 80280000 05538f45 0000056d  ...=.(...S.E...m
 0a20 a7160000 058c01c2 4f000005 a6019e14  ........O.......
 0a30 000005bc 014e3400 0005ce01 35480000  .....N4.....5H..
 0a40 06f4012c 59000000 04000005 0a1a7a00  ...,Y.........z.
 0a50 00051040 49000006 2b2f5500 00062c3c  ...@I...+/U...,<
 0a60 6d000006 2d2e5300 00062e24 68000002  m...-.S....$h...
 0a70 2f696e74 000630a6 85000006 31a40500  /int..0.....1...
 0a80 000632aa 09000005 33033e00 00053401  ..2.....3.>...4.
 0a90 3e000005 35976a00 0005369e 81000005  >...5.j...6.....
 0aa0 37103f00 00053880 63000005 39d43900  7.?...8.c...9.9.
 0ab0 00053a27 80000005 439c3600 00054a13  ..:'....C.6...J.
 0ac0 7c000005 52f00800 00055d90 4e000005  |...R.....].N...
 0ad0 68757700 0005719f 10000005 786f7600  huw...q.....xov.
 0ae0 00058101 151a0000 058801f8 73000005  ............s...
 0af0 9301e03d 00000597 018b2a00 0005a201  ...=......*.....
 0b00 856e0000 05ad0191 10000005 b601be54  .n.............T
 0b10 000006b8 012f5500 0006b901 3c6d0000  ...../U.....<m..
 0b20 06ba012e 53000006 bb012468 000002bc  ....S.....$h....
 0b30 01696e74 0006bd01 aa090000 06c201a6  .int............
 0b40 85000006 c301a405 00000004 0000050a  ................
 0b50 360e0000 05154579 00000519 531b0000  6.....Ey....S...
 0b60 051ba138 00000521 54320000 0525de6b  ...8...!T2...%.k
 0b70 00000527 81280000 052db93e 00000531  ...'.(...-.>...1
 0b80 e3030000 05339045 00000539 2d810000  .....3.E...9-...
 0b90 053dab17 0000053f a8160000 05441f5e  .=.....?.....D.^
 0ba0 00000549 c15d0000 054e3c12 00000553  ...I.]...N<....S
 0bb0 4f600000 00040000 0517c34f 0000051d  O`.........O....
 0bc0 9f140000 05234f34 00000529 36480000  .....#O4...)6H..
 0bd0 05354550 0000053f 5f4a0000 0549870c  .5EP...?_J...I..
 0be0 00000553 3e220000 058001f2 85000005  ...S>"..........
 0bf0 8101f26e 00000582 01e01600 00059801  ...n............
 0c00 db0d0000 0599014d 0a000005 9a01987f  .......M........
 0c10 000005a2 01ba0300 0005a301 b10f0000  ................
 0c20 05a401b0 70000005 ae01bd53 000005af  ....p......S....
 0c30 011f0c00 0005b001 95460000 05b801de  .........F......
 0c40 46000005 b9013c09 000005ba 01992b00  F.....<.......+.
 0c50 0005c401 fb350000 05c501ec 29000005  .....5......)...
 0c60 c601bc43 000005d4 015a2d00 0005d501  ...C.....Z-.....
 0c70 2c2d0000 05d601e9 69000005 e601376f  ,-......i.....7o
 0c80 000005e7 01f24a00 0005e801 94700000  ......J......p..
 0c90 05f601f3 10000005 f701460e 000005f8  ..........F.....
 0ca0 01f05b00 00058602 484d0000 058702aa  ..[.....HM......
 0cb0 21000005 88020a4d 00000596 02243500  !......M.....$5.
 0cc0 00059702 79090000 05980274 07000005  ....y......t....
 0cd0 a6027812 000005a7 02ae8500 0005a802  ..x.............
 0ce0 9f6a0000 05b60231 16000005 b702957a  .j.....1.......z
 0cf0 000005b8 026e7000 0005c602 d0290000  .....np......)..
 0d00 05c702c2 1b000005 cf02e321 000005d7  ...........!....
 0d10 023a0600 0005dd02 de310000 05de026c  .:.......1.....l
 0d20 26000005 e202c40a 000005e6 02e12400  &.............$.
 0d30 0005eb02 7d1c0000 05f602fa 41000005  ....}.......A...
 0d40 80033844 00000585 033a0000 00058c03  ..8D.....:......
 0d50 f7390000 058d03a4 71000005 98033b0d  .9......q.....;.
 0d60 00000599 03967900 0005a403 6e690000  ......y.....ni..
 0d70 05a503fb 34000005 b103ac5e 000005b2  ....4......^....
 0d80 03986600 0005c103 c7240000 05c203ff  ..f......$......
 0d90 58000000 04000005 02a82a00 000503fa  X.........*.....
 0da0 0a000005 042d3100 00050513 86000005  .....-1.........
 0db0 06822100 000507d4 57000005 084b7f00  ..!.....W....K..
 0dc0 000509a4 59000005 0a176500 00050b39  ....Y.....e....9
 0dd0 4e000005 0c5f5e00 00050d4a 5f000005  N...._^....J_...
 0de0 0ec45e00 00050f48 5d000005 101b2a00  ..^....H].....*.
 0df0 000511b0 79000005 12e71e00 0005136c  ....y..........l
 0e00 0e000005 14ea7c00 000515c6 52000005  ......|.....R...
 0e10 16436200 00051763 7b000005 18872400  .Cb....c{.....$.
 0e20 000519e2 2a000005 1aaf5b00 00051bfb  ....*.....[.....
 0e30 84000005 1cce1300 00051d94 02000005  ................
 0e40 1e516100 00051fbe 61000005 20c55f00  .Qa.....a... ._.
 0e50 0005213d 28000005 22183300 00052356  ..!=(...".3...#V
 0e60 30000005 240f0900 00052576 65000005  0...$.....%ve...
 0e70 26af1900 0005272a 68000005 28af3a00  &.....'*h...(.:.
 0e80 000529ce 33000005 2a173100 00052b70  ..).3...*.1...+p
 0e90 37000005 2cbf5000 00052dab 4b000005  7...,.P...-.K...
 0ea0 2e996c00 00052fd9 80000005 30a11200  ..l.../.....0...
 0eb0 000531f8 5f000005 32a00e00 00053357  ..1._...2.....3W
 0ec0 52000005 34ef6c00 0005352b 7f000005  R...4.l...5+....
 0ed0 36da4800 00053700 00000005 38732700  6.H...7.....8s'.
 0ee0 00053909 75000005 3a2b2700 00053b8a  ..9.u...:+'...;.
 0ef0 7c000005 3c977200 00053da2 89000005  |...<.r...=.....
 0f00 3e6b0b00 00053f94 27000005 40335300  >k....?.'...@3S.
 0f10 0005415f 1f000005 42ec4e00 00000400  ..A_....B.N.....
 0f20 000525d5 66000005 26545300 000527ca  ..%.f...&TS...'.
 0f30 3f000005 280c2d00 00052909 18000005  ?...(.-...).....
 0f40 2a2c0500 00052bd6 70000005 2caf6200  *,....+.p...,.b.
 0f50 00052da3 4f000005 2e033c00 00052f1b  ..-.O.....<.../.
 0f60 2d000005 30625800 00053196 7e000005  -...0bX...1.~...
 0f70 324c5b00 00053396 32000005 34be0500  2L[...3.2...4...
 0f80 0005359a 07000005 36883400 00053743  ..5.....6.4...7C
 0f90 36000005 387b5b00 000539a8 80000005  6...8{[...9.....
 0fa0 3acf2800 00053b96 16000005 3c4d2c00  :.(...;.....<M,.
 0fb0 00053d9c 2d000005 3e1b5900 00053f2d  ..=.-...>.Y...?-
 0fc0 5a000005 40308700 0005410a 05000005  Z...@0....A.....
 0fd0 42ab4300 0005430f 50000005 446b5100  B.C...C.P...DkQ.
 0fe0 00000400 00053a09 38000005 3f9d2200  ......:.8...?.".
 0ff0 00000400 00051ddd 4e000005 1e5f6d00  ........N...._m.
 1000 00051f08 5d000005 20852d00 00000400  ....]... .-.....
 1010 00051d70 22000005 1e2a0b00 00051f6b  ...p"....*.....k
 1020 21000000 04000005 1b021000 00051c59  !..............Y
 1030 7d000005 1d1c2300 00051f86 52000005  }.....#.....R...
 1040 20db5500 00052197 3e000005 22f53200   .U...!.>...".2.
 1050 00052309 26000005 24ad1100 00052578  ..#.&...$.....%x
 1060 5e000005 26d41800 0005277e 53000005  ^...&.....'~S...
 1070 284a7700 00052949 10000005 2a224000  (Jw...)I....*"@.
 1080 00052b45 7e000005 2cc18400 00052d7a  ..+E~...,.....-z
 1090 80000005 2e706d00 00052f99 34000005  .....pm.../.4...
 10a0 30c36400 000531e3 3f000005 326f1100  0.d...1.?...2o..
 10b0 0005338d 3d000005 347c6400 000535d1  ..3.=...4|d...5.
 10c0 1e000005 36d11700 0005378e 01000005  ....6.....7.....
 10d0 38a63100 00053901 22000005 3a6d4400  8.1...9."...:mD.
 10e0 00053b75 7d000005 3ca05200 00053dac  ..;u}...<.R...=.
 10f0 55000005 3ef50200 00053fba 37000005  U...>.....?.7...
 1100 40337a00 00054123 51000005 42693400  @3z...A#Q...Bi4.
 1110 0005431f 1a000005 44174b00 00054585  ..C.....D.K...E.
 1120 36000005 46844400 00054736 55000005  6...F.D...G6U...
 1130 48d34100 00054991 80000005 4a350a00  H.A...I.....J5..
 1140 00054b25 21000005 4c530d00 00054dc9  ..K%!...LS....M.
 1150 65000005 4e4d2b00 00054f89 0d000005  e...NM+...O.....
 1160 509b1700 000551ae 04000005 52ed4500  P.....Q.....R.E.
 1170 00055349 30000005 54617000 00055539  ..SI0...Tap...U9
 1180 40000005 57cf0500 0005591f 6c000005  @...W.....Y.l...
 1190 5b957700 00055d66 1b000005 5f785200  [.w...]f...._xR.
 11a0 000561d3 71000005 63c56a00 00056b4d  ..a.q...c.j...kM
 11b0 15000005 730f3d00 00057a2b 2e000005  ....s.=...z+....
 11c0 8201ce42 00000589 01fc0100 00059101  ...B............
 11d0 ad2d0000 05dc01d0 4b000000 04000005  .-......K.......
 11e0 1ed84c00 000521cf 60000005 2b673200  ..L...!.`...+g2.
 11f0 00000400 0005330b 21000005 34255800  ......3.!...4%X.
 1200 0005357a 85000005 36ac6500 00053792  ..5z....6.e...7.
 1210 68000005 3a902c00 00053b21 1b000005  h...:.,...;!....
 1220 3cce2600 00053da7 4a000005 3e672900  <.&...=.J...>g).
 1230 0005400c 81000005 41e97900 000542e0  ..@.....A.y...B.
 1240 28000005 433b8600 000546b8 00000005  (...C;....F.....
 1250 47ec3600 00054827 41000005 49cb5100  G.6...H'A...I.Q.
 1260 00054a73 08000005 51b84700 0005523e  ..Js....Q.G...R>
 1270 3f000005 53d14a00 00055427 3b000005  ?...S.J...T';...
 1280 573f3700 000558f2 2e000005 59ac5f00  W?7...X.....Y._.
 1290 00055a50 78000005 5d901100 00055e38  ..ZPx...].....^8
 12a0 78000000 04000005 1f693e00 00052074  x........i>... t
 12b0 66000006 22ec7e00 00052798 53000005  f...".~...'.S...
 12c0 2f002500 000530ba 74000005 31f86d00  /.%...0.t...1.m.
 12d0 00053458 64000005 36566400 00056971  ..4Xd...6Vd...iq
 12e0 86000005 6c9e5300 00056f23 2f000005  ....l.S...o#/...
 12f0 72501200 00057589 81000000 04000005  rP....u.........
 1300 c301a861 000005d1 03755000 0005d403  ...a.....uP.....
 1310 722f0000 00040000 0508ec35 00000512  r/.........5....
 1320 fb490000 0515d884 00000518 7c510000  .I..........|Q..
 1330 051ba732 00000528 1b1e0000 05320616  ...2...(.....2..
 1340 00000539 2a220000 053c4c55 00000542  ...9*"...<LU...B
 1350 db4d0000 05459655 00000548 811d0000  .M...E.U...H....
 1360 054b7975 00000004 00000553 53720000  .Kyu.......SSr..
 1370 05e0019d 09000006 e6012539 000005ea  ..........%9....
 1380 017d1400 0005fa01 5d500000 05fe0119  .}......]P......
 1390 51000005 8b020819 00000004 0000051f  Q...............
 13a0 48640000 05201e2b 00000521 360f0000  Hd... .+...!6...
 13b0 05256d03 0000052b ba6f0000 05452857  .%m....+.o...E(W
 13c0 00000549 fc140000 054aad69 00000004  ...I.....J.i....
 13d0 0000050d 992a0000 050e5044 0000050f  .....*....PD....
 13e0 f63b0000 00040000 05bb0125 15000005  .;.........%....
 13f0 bc013973 000005bd 01278700 0005be01  ..9s.....'......
 1400 1a6e0000 05bf01a2 39000005 c001335e  .n......9.....3^
 1410 000005c1 01a95700 0005c201 76630000  ......W.....vc..
 1420 05c30172 63000005 c4012b1f 000005c5  ...rc.....+.....
 1430 010b2300 0005c601 271f0000 05c701bf  ..#.....'.......
 1440 17000005 c8012503 000005c9 01238700  ......%......#..
 1450 0005ca01 c7680000 05d20172 0c000006  .....h.....r....
 1460 ee014804 0000058b 02d84300 00058c02  ..H.......C.....
 1470 fa720000 058d02d8 59000005 8e021c41  .r......Y......A
 1480 0000058f 02261200 00059002 47450000  .....&......GE..
 1490 0591026d 16000005 92026916 00000593  ...m......i.....
 14a0 027d2c00 00059402 db3c0000 059502eb  .},......<......
 14b0 64000005 9602d10c 00000597 02e66400  d.............d.
 14c0 00059802 d4590000 059902f2 4d000006  .....Y......M...
 14d0 a6028879 000006db 02900b00 00069103  ...y............
 14e0 05440000 05960314 03000006 9c03fe43  .D.............C
 14f0 00000004 00000527 df490000 05286624  .......'.I...(f$
 1500 0000052a da490000 0589019c 54000005  ...*.I......T...
 1510 8a01342a 0000058b 01254f00 00058c01  ..4*.....%O.....
 1520 ff0b0000 058d019a 4a000005 8e01964a  ........J......J
 1530 0000058f 01743e00 00059001 98540000  .....t>......T..
 1540 0591013a 51000006 a1017d0f 000006ee  ...:Q.....}.....
 1550 01480400 0006db02 900b0000 06910305  .H..............
 1560 44000005 96031403 0000069c 03fe4300  D.............C.
 1570 0005a103 3a3c0000 05a60380 68000000  ....:<......h...
 1580 04000005 14d13800 00051699 2a000005  ......8.....*...
 1590 17547b00 00000400 0006a101 7d0f0000  .T{.........}...
 15a0 06ee0148 04000006 db02900b 000005e0  ...H............
 15b0 02cc2500 0006e702 5d210000 06910305  ..%.....]!......
 15c0 44000005 96031403 0000069c 03fe4300  D.............C.
 15d0 0005a103 3a3c0000 00040000 067fdc53  ....:<.........S
 15e0 00000592 01543600 00069401 3c6d0000  .....T6.....<m..
 15f0 05b30165 19000005 bb017d19 000005c0  ...e......}.....
 1600 01936400 0005c501 753b0000 00040000  ..d.....u;......
 1610 05112c72 00000515 96890000 00040000  ..,r............
 1620 0502eb86 0000050e cd540000 050f2975  .........T....)u
 1630 00000510 b2660000 05115604 00000512  .....f....V.....
 1640 e4250000 05134a63 00000514 c9790000  .%....Jc.....y..
 1650 05150d3a 00000516 d5470000 0517fd7e  ...:.....G.....~
 1660 00000518 57790000 0519f566 00000004  ....Wy.....f....
 1670 0000054d 41170000 05695833 0000056f  ...MA....iX3...o
 1680 fb860000 05b70104 40000005 bd02c646  ........@......F
 1690 000005be 02393e00 0005bf02 d3860000  .....9>.........
 16a0 05c002f3 76000005 c102d167 000005c2  ....v......g....
 16b0 02305d00 0005c302 65800000 05cf0257  .0].....e......W
 16c0 22000005 d002db85 000005d1 02980400  "...............
 16d0 0005a005 30120000 05bc05ec 63000005  ....0.......c...
 16e0 bf056e87 000005ef 05fa8100 0005fd05  ..n.............
 16f0 2b790000 05fe0512 4a000005 ff05ad64  +y......J......d
 1700 00000580 06a54400 00058106 2e6a0000  ......D......j..
 1710 058206ac 1c000005 8306ac3f 00000585  ...........?....
 1720 06787600 00058606 b8150000 058706e0  .xv.............
 1730 12000005 88067343 00000589 06471c00  ......sC.....G..
 1740 00058a06 cd090000 058b067c 00000005  ...........|....
 1750 8c062e60 0000058d 06400b00 00058e06  ...`.....@......
 1760 dd5e0000 058f060f 62000005 90061328  .^......b......(
 1770 00000591 065c7e00 00059206 4d350000  .....\~.....M5..
 1780 05930642 4b000005 9406615d 00000595  ...BK.....a]....
 1790 06f94700 00059606 8e250000 05970639  ..G......%.....9
 17a0 47000005 9806b904 00000599 067f5c00  G.............\.
 17b0 00059a06 fb480000 059b066f 6f000005  .....H.....oo...
 17c0 9c06957d 000005a0 06e30c00 0005a806  ...}............
 17d0 2d700000 05b0062e 4d000005 c0063610  -p......M.....6.
 17e0 000005c3 060b7200 0005c906 ba010000  ......r.........
 17f0 00040000 05311f20 00000532 8c5b0000  .....1. ...2.[..
 1800 0533a548 00000536 b61a0000 0539211c  .3.H...6.....9!.
 1810 0000053a aa7c0000 053c412a 0000053d  ...:.|...<A*...=
 1820 847f0000 053e041f 0000053f 34720000  .....>.....?4r..
 1830 05427c0c 00000543 c6860000 05446445  .B|....C.....DdE
 1840 0000054e 590f0000 05518554 00000557  ...NY....Q.T...W
 1850 fc080000 055e9559 0000055f c26c0000  .....^.Y..._.l..
 1860 056bdc75 0000056c 15780000 05708e05  .k.u...l.x...p..
 1870 00000571 3b710000 05725603 00000575  ...q;q...rV....u
 1880 53650000 05784b5c 0000057f 04560000  Se...xK\.....V..
 1890 0580011d 73000005 81011377 00000585  ....s......w....
 18a0 01704500 00058c01 0c7e0000 059001b5  .pE......~......
 18b0 23000005 9101e91f 00000594 01537a00  #............Sz.
 18c0 00059701 56010000 059801a5 29000005  ....V.......)...
 18d0 99016a6e 0000059b 015a7c00 00059c01  ..jn.....Z|.....
 18e0 bf780000 059e01f3 61000005 a0011818  .x......a.......
 18f0 000005b1 01080e00 0005b201 730d0000  ............s...
 1900 05b30148 81000005 b401b752 000005b5  ...H.......R....
 1910 01037d00 0005b701 db690000 05b80126  ..}......i.....&
 1920 55000005 b9014f51 000005e6 014b2700  U.....OQ.....K'.
 1930 0005f301 8e300000 05f4017d 74000005  .....0.....}t...
 1940 f5013b18 000005f6 01b52700 0005f701  ..;.......'.....
 1950 82840000 05f8010f 6d000005 f9018d37  ........m......7
 1960 000005fc 01185c00 0005fd01 bc2f0000  ......\....../..
 1970 0583024c 1d000005 dc02d627 000005ee  ...L.......'....
 1980 025c3b00 0005f402 52000000 05f502b3  .\;.....R.......
 1990 57000005 fc025889 00000582 03932600  W.....X.......&.
 19a0 00058803 39800000 0589030e 47000005  ....9.......G...
 19b0 90030e6f 00000591 03de5200 00059803  ...o......R.....
 19c0 af2a0000 059e03d8 74000005 b203373a  .*......t.....7:
 19d0 000005d3 03291e00 0005d403 27520000  .....)......'R..
 19e0 05db03c8 3b000005 dc034774 000005df  ....;.....Gt....
 19f0 03175f00 0005e903 b4300000 05ea03e5  .._......0......
 1a00 70000005 f403be62 0000058a 04936e00  p......b......n.
 1a10 00058c04 76560000 058e0491 20000005  ....vV...... ...
 1a20 8f047773 00000591 04d72b00 00059b04  ..ws......+.....
 1a30 02580000 05a00469 06000005 a504bf0e  .X.....i........
 1a40 000005a8 045c4100 0005ac04 c9190000  .....\A.........
 1a50 05ae04b4 1d000005 d104a074 000005d5  ...........t....
 1a60 04f26b00 0005d904 c0120000 05dd0498  ..k.............
 1a70 50000005 e104116a 000005e5 041c7d00  P......j......}.
 1a80 0005e904 b7720000 05ed04b2 81000005  .....r..........
 1a90 f4048611 000005f5 04250800 0005f604  .........%......
 1aa0 3a2c0000 05f704a4 3d000005 f8040d52  :,......=......R
 1ab0 0000058d 05806200 00058e05 cf6c0000  ......b......l..
 1ac0 05a00581 77000005 a605b97a 000005a9  ....w......z....
 1ad0 05481300 0005ab05 95750000 05af0542  .H.......u.....B
 1ae0 46000005 b1058735 000005b5 057b4700  F......5.....{G.
 1af0 0005b805 751b0000 05ba05e4 78000005  ....u.......x...
 1b00 be058067 000005c0 05e26f00 0005c205  ...g......o.....
 1b10 e13a0000 05c6058d 63000005 c905c96d  .:......c......m
 1b20 000005ca 05946d00 00000400 00050880  ......m.........
 1b30 4f000006 0d9c4f00 00051048 40000000  O.....O....H@...
 1b40 04000005 383f0100 00053c8a 2b000005  ....8?....<.+...
 1b50 3d8e1a00 00053f1c 39000005 43714900  =.....?.9...CqI.
 1b60 0005a801 a5770000 00040000 050de259  .....w.........Y
 1b70 00000513 ab070000 05172664 0000051b  ..........&d....
 1b80 cc2c0000 051f4614 00000523 c3320000  .,....F....#.2..
 1b90 059101b8 7b000005 9201c05a 000006a8  ....{......Z....
 1ba0 01f80d00 0005ab01 2c110000 05ac01ed  ........,.......
 1bb0 84000005 ad014926 000005ae 01f91800  ......I&........
 1bc0 0005af01 cf690000 05b20156 76000005  .....i.....Vv...
 1bd0 b501b42c 000005b9 01b63c00 0005bc01  ...,......<.....
 1be0 d4140000 05bf01ef 1a000005 d301ea33  ...............3
 1bf0 000005d7 011a3600 0005da01 4f420000  ......6.....OB..
 1c00 05dd012a 2b000005 df01833f 000005f4  ...*+......?....
 1c10 017e4000 00058402 86030000 05850253  .~@............S
 1c20 71000005 86024069 00000587 02122400  q.....@i......$.
 1c30 00058802 69480000 05890214 1d000005  ....iH..........
 1c40 cd029d1e 000005b4 04322600 0005b804  .........2&.....
 1c50 14420000 05bf043d 76000005 c1042156  .B.....=v.....!V
 1c60 000005c2 04ee2c00 0005c304 4f110000  ......,.....O...
 1c70 05c40458 54000005 c5042625 000005c6  ...XT.....&%....
 1c80 04284a00 0005c704 6f7a0000 05c80478  .(J.....oz.....x
 1c90 4a000005 c904650a 000005ca 04410700  J.....e......A..
 1ca0 0005cb04 64600000 05cc04ee 51000005  ....d`......Q...
 1cb0 cd04d40b 000005d3 04314f00 0005d404  .........1O.....
 1cc0 88610000 05d5048e 08000005 d6049a2f  .a............./
 1cd0 000005d7 04701000 0005d804 160a0000  .....p..........
 1ce0 05d904d8 73000005 da040a44 000005db  ....s......D....
 1cf0 04643600 0005e504 a6420000 05e604c4  .d6......B......
 1d00 3a000005 ea047224 000005eb 040e4f00  :.....r$......O.
 1d10 00000400 00050888 6d000005 0f992a00  ........m.....*.
 1d20 000510f6 3b000000 04000006 a1017d0f  ....;.........}.
 1d30 000006ee 01480400 0006db02 900b0000  .....H..........
 1d40 06910305 44000005 96031403 0000069c  ....D...........
 1d50 03fe4300 0005a103 3a3c0000 00040000  ..C.....:<......
 1d60 051dcc21 0000051e 1a270000 051fcb63  ...!.....'.....c
 1d70 00000520 b9800000 0521f764 00000522  ... .....!.d..."
 1d80 07800000 0523d465 00000004 0000051d  .....#.e........
 1d90 28460000 051ed65c 0000051f 0f450000  (F.....\.....E..
 1da0 0520550c 00000521 50480000 05222000  . U....!PH..." .
 1db0 00000523 63670000 00                 ...#cg...       
Contents of section .debug_line:
 0000 280e0000 03007903 00000101 fb0e0d00  (.....y.........
 0010 01010101 00000001 0000012e 2e2f6472  ............./dr
 0020 69766572 002e2e2f 2e2e2f2e 2e2f6273  iver.../../../bs
 0030 702f6566 696e6978 2f456678 53617070  p/efinix/EfxSapp
 0040 68697265 536f632f 696e636c 75646500  hireSoc/include.
 0050 2e2e2f2e 2e2f2e2e 2f627370 2f656669  ../../../bsp/efi
 0060 6e69782f 45667853 61707068 69726553  nix/EfxSapphireS
 0070 6f632f61 70700073 72630063 3a5c6566  oc/app.src.c:\ef
 0080 696e6974 795c6566 696e6974 792d7269  inity\efinity-ri
 0090 7363762d 6964652d 32303233 2e312e33  scv-ide-2023.1.3
 00a0 5c746f6f 6c636861 696e5c72 69736376  \toolchain\riscv
 00b0 2d6e6f6e 652d656d 6265645c 696e636c  -none-embed\incl
 00c0 7564655c 6d616368 696e6500 633a5c65  ude\machine.c:\e
 00d0 66696e69 74795c65 66696e69 74792d72  finity\efinity-r
 00e0 69736376 2d696465 2d323032 332e312e  iscv-ide-2023.1.
 00f0 335c746f 6f6c6368 61696e5c 72697363  3\toolchain\risc
 0100 762d6e6f 6e652d65 6d626564 5c696e63  v-none-embed\inc
 0110 6c756465 5c737973 00633a5c 6566696e  lude\sys.c:\efin
 0120 6974795c 6566696e 6974792d 72697363  ity\efinity-risc
 0130 762d6964 652d3230 32332e31 2e335c74  v-ide-2023.1.3\t
 0140 6f6f6c63 6861696e 5c6c6962 5c676363  oolchain\lib\gcc
 0150 5c726973 63762d6e 6f6e652d 656d6265  \riscv-none-embe
 0160 645c382e 332e305c 696e636c 75646500  d\8.3.0\include.
 0170 633a5c65 66696e69 74795c65 66696e69  c:\efinity\efini
 0180 74792d72 69736376 2d696465 2d323032  ty-riscv-ide-202
 0190 332e312e 335c746f 6f6c6368 61696e5c  3.1.3\toolchain\
 01a0 72697363 762d6e6f 6e652d65 6d626564  riscv-none-embed
 01b0 5c696e63 6c756465 00007561 72742e68  \include..uart.h
 01c0 00010000 696f2e68 00010000 636c696e  ....io.h....clin
 01d0 742e6800 01000062 73702e68 00020000  t.h....bsp.h....
 01e0 7072696e 742e6800 03000070 6c69632e  print.h....plic.
 01f0 68000100 006d6169 6e2e6300 04000067  h....main.c....g
 0200 70696f2e 68000100 005f6465 6661756c  pio.h...._defaul
 0210 745f7479 7065732e 68000500 005f7374  t_types.h...._st
 0220 64696e74 2e680006 00007374 64617267  dint.h....stdarg
 0230 2e680007 00007374 64646566 2e680007  .h....stddef.h..
 0240 00005f74 79706573 2e680006 00007265  .._types.h....re
 0250 656e742e 68000600 006c6f63 6b2e6800  ent.h....lock.h.
 0260 06000073 74646c69 622e6800 0800006d  ...stdlib.h....m
 0270 6174682e 68000800 00747970 652e6800  ath.h....type.h.
 0280 01000073 7464696e 742e6800 08000066  ...stdint.h....f
 0290 65617475 7265732e 68000600 005f6e65  eatures.h...._ne
 02a0 776c6962 5f766572 73696f6e 2e680008  wlib_version.h..
 02b0 00005f69 6e747375 702e6800 06000073  .._intsup.h....s
 02c0 6f632e68 00020000 73656d69 686f7374  oc.h....semihost
 02d0 696e672e 68000300 00766578 72697363  ing.h....vexrisc
 02e0 762e6800 01000072 69736376 2e680001  v.h....riscv.h..
 02f0 00006965 65656670 2e680005 00005f61  ..ieeefp.h...._a
 0300 6e73692e 68000800 006e6577 6c69622e  nsi.h....newlib.
 0310 68000800 00636f6e 6669672e 68000600  h....config.h...
 0320 005f7479 7065732e 68000500 00636465  ._types.h....cde
 0330 66732e68 00060000 7374646c 69622e68  fs.h....stdlib.h
 0340 00050000 616c6c6f 63612e68 00080000  ....alloca.h....
 0350 73747269 6e672e68 00080000 5f6c6f63  string.h...._loc
 0360 616c652e 68000600 00737472 696e6773  ale.h....strings
 0370 2e680008 00007374 72696e67 2e680006  .h....string.h..
 0380 00000005 2f000502 f80000f9 032c0105  ..../........,..
 0390 09030109 00000104 02037109 00000105  ..........q.....
 03a0 10060300 09000001 0401052d 030f0904  ...........-....
 03b0 00010505 03010904 0001052f 06030509  .........../....
 03c0 08000105 09030109 18000105 30000204  ............0...
 03d0 01030009 00000105 0f000204 01060300  ................
 03e0 09000001 050e0002 04010300 09080001  ................
 03f0 05090603 01090400 01040203 6d090000  ............m...
 0400 01052406 03000900 00010401 05050314  ..$.............
 0410 09040001 04030538 06030009 14000105  .......8........
 0420 09030109 00000105 0d060300 09000001  ................
 0430 05090603 01090c00 01050503 68090000  ............h...
 0440 01040205 09037e09 0c000105 10060300  ......~.........
 0450 09000001 04030531 031a0904 0001050d  .......1........
 0460 03000904 00010509 06030109 04000105  ................
 0470 3d000204 01030009 00000105 05000204  =...............
 0480 01036709 00000104 02050900 02040103  ..g.............
 0490 7e090000 01051000 02040106 03000900  ~...............
 04a0 00010403 051e0002 0401031b 09040001  ................
 04b0 050e0002 04010300 09040001 05050301  ................
 04c0 09040001 04040529 06032609 04000105  .......)..&.....
 04d0 0d030409 08000105 23030009 0c000105  ........#.......
 04e0 05060302 09000001 06030309 0c000105  ................
 04f0 09030409 10000105 10060300 09000001  ................
 0500 050f0300 09040001 050d0603 01090400  ................
 0510 01051906 03000900 0001050d 03000904  ................
 0520 00010505 03020908 00010603 05091000  ................
 0530 01050903 01091400 01030109 00000103  ................
 0540 02090000 01050e03 00090000 01051206  ................
 0550 03000900 00010509 03000904 0001050d  ................
 0560 00020403 06030109 04000105 2e000204  ................
 0570 03060300 09000001 05340002 04030300  .........4......
 0580 09040001 050d0002 04030300 09040001  ................
 0590 052e0002 0403037f 09140001 05090002  ................
 05a0 04010300 09040001 05050303 09040001  ................
 05b0 05090603 03091400 01050d03 01091400  ................
 05c0 01030109 00000103 02090000 01051203  ................
 05d0 00090000 01051606 03000900 0001050d  ................
 05e0 03000904 00010511 00020403 06030109  ................
 05f0 04000105 32000204 03060300 09000001  ....2...........
 0600 05380002 04030300 09040001 05110002  .8..............
 0610 04030300 09040001 05320002 0403037f  .........2......
 0620 09140001 050d0002 04010300 09040001  ................
 0630 05090304 09040001 04050505 06031e09  ................
 0640 14000105 09030109 08000105 05060301  ................
 0650 09080001 06030309 0c000105 09030109  ................
 0660 08000105 05060301 09040001 06030509  ................
 0670 0c000105 09030109 14000103 01090000  ................
 0680 01030109 00000105 0c060300 09000001  ................
 0690 0505037d 09040001 050d0603 04090800  ...}............
 06a0 01030109 08000105 11060300 09000001  ................
 06b0 050d0603 03090800 01052006 03000900  .......... .....
 06c0 0001051a 03000908 00010514 03000904  ................
 06d0 0001050d 06030109 04000105 11060300  ................
 06e0 09000001 0510037f 09040001 050f037f  ................
 06f0 09040001 05140002 04010300 09040001  ................
 0700 050d0603 05090c00 01050f06 037f090c  ................
 0710 00010505 03020908 00010603 03091400  ................
 0720 01050903 01090800 01030209 00000105  ................
 0730 0e060300 09000001 05090002 04010300  ................
 0740 09040001 050d0603 02090800 01052706  ..............'.
 0750 03000900 00010523 03000904 00010515  .......#........
 0760 03000908 0001050f 03000904 00010516  ................
 0770 00020402 037e0904 00010509 06030809  .....~..........
 0780 08000105 05060301 09040001 05090603  ................
 0790 03090c00 01050d03 01090800 01030209  ................
 07a0 00000105 12060300 09000001 050d0002  ................
 07b0 04010300 09040001 05110603 02090800  ................
 07c0 01052b06 03000900 00010527 03000904  ..+........'....
 07d0 00010519 03000908 00010513 03000904  ................
 07e0 0001051a 00020402 037e0904 0001050d  .........~......
 07f0 06030809 08000105 09060301 09040001  ................
 0800 04060547 0603c87e 090c0001 05090301  ...G...~........
 0810 09000001 05400603 00090000 01050903  .....@..........
 0820 00090400 01040206 037d0904 00010524  .........}.....$
 0830 06030009 00000104 06050503 04090400  ................
 0840 01054e06 03060904 00010509 03010900  ..N.............
 0850 00010535 06030009 00000105 2c030009  ...5........,...
 0860 04000105 57030009 04000105 5c030009  ....W.......\...
 0870 04000105 4c030009 04000105 0d030009  ....L...........
 0880 04000105 09060301 09080001 05160603  ................
 0890 00090000 01050906 03010908 0001050c  ................
 08a0 06030009 00000105 0d060301 09040001  ................
 08b0 04020509 036e0900 00010510 06030009  .....n..........
 08c0 00000104 06050d03 12090400 01040205  ................
 08d0 09060372 09040001 05240603 00090000  ...r.....$......
 08e0 01040605 0d060310 09080001 04020509  ................
 08f0 036c0900 00010510 06030009 00000104  .l..............
 0900 06052803 14090400 01050d03 00090400  ..(.............
 0910 01040205 09060370 09040001 05240603  .......p.....$..
 0920 00090000 01040605 05031109 04000105  ................
 0930 48060302 09040001 05090301 09000001  H...............
 0940 05410603 00090000 01053903 00090400  .A........9.....
 0950 01050903 00090400 01040206 036c0908  .............l..
 0960 00010524 06030009 00000104 06050503  ...$............
 0970 15090400 01053006 03060904 00010509  ......0.........
 0980 03010900 00010538 06030009 00000105  .......8........
 0990 30030009 04000105 10030009 04000104  0...............
 09a0 02050906 0360090c 00010510 06030009  .....`..........
 09b0 00000104 06050503 21090400 01054006  ........!.....@.
 09c0 03020904 00010509 03010900 0001053a  ...............:
 09d0 06030009 00000105 32030009 04000105  ........2.......
 09e0 09030009 04000104 02060360 090c0001  ...........`....
 09f0 05240603 00090000 01040605 05032109  .$............!.
 0a00 04000104 0506039c 01090400 01050903  ................
 0a10 01093000 01030109 00000103 02090000  ..0.............
 0a20 01030209 08000105 10060300 09000001  ................
 0a30 05090300 09040001 05190603 04090400  ................
 0a40 01030109 14000105 21000204 0206037b  ........!......{
 0a50 09000001 051b0002 04010300 09040001  ................
 0a60 05090002 04010300 09080001 050d0603  ................
 0a70 01090400 01051006 03000900 00010511  ................
 0a80 06032309 08000105 19036409 08000103  ..#.......d.....
 0a90 01091400 01030309 04000103 01091400  ................
 0aa0 01030309 04000103 01091400 01030309  ................
 0ab0 04000103 01091400 01051706 036d0904  .............m..
 0ac0 0001051e 03000904 00010517 03000908  ................
 0ad0 00010515 06030109 04000105 18060300  ................
 0ae0 09000001 051a0603 04090800 01051d06  ................
 0af0 03000900 0001051a 06030409 08000105  ................
 0b00 1d060300 09000001 051a0603 04090800  ................
 0b10 01051d06 03000900 0001051a 06030409  ................
 0b20 08000105 1d060300 09000001 051a0603  ................
 0b30 0a090800 01051d06 03000900 00010519  ................
 0b40 06030109 08000103 01090c00 01050506  ................
 0b50 03080904 00010407 050c0603 b27e0914  .............~..
 0b60 00010505 03030908 00010301 09100001  ................
 0b70 03010914 00010302 09100001 04080366  ...............f
 0b80 09000001 04020509 03770900 00010524  .........w.....$
 0b90 06030009 00000104 07050506 0326090c  .............&..
 0ba0 00010300 09000001 03000908 00010302  ................
 0bb0 09040001 03000900 00010300 09000001  ................
 0bc0 0301090c 00010300 09000001 03000900  ................
 0bd0 00010300 09000001 03000904 00010300  ................
 0be0 090c0001 05010603 01090400 01050d06  ................
 0bf0 031f090c 00010505 03010908 00010002  ................
 0c00 04010301 090c0001 050d0002 04010300  ................
 0c10 09000001 05190370 09040001 05050301  .......p........
 0c20 090c0001 03020900 00010513 06030009  ................
 0c30 00000105 0a030009 10000105 09060301  ................
 0c40 09040001 05390301 09080001 05660300  .....9.......f..
 0c50 090c0001 05090304 09000001 0512037d  ...............}
 0c60 09140001 05010603 05090400 01050c06  ................
 0c70 03670910 00010505 03010908 00010516  .g..............
 0c80 03000900 00010300 09000001 03000904  ................
 0c90 00010505 03010900 00010301 09000001  ................
 0ca0 03010900 00010507 06030009 00000105  ................
 0cb0 09060301 09080001 05260301 09080001  .........&......
 0cc0 053b0300 09040001 05010603 06090000  .;..............
 0cd0 01051206 037b090c 00010509 03030904  .....{..........
 0ce0 0001050d 03170904 00010505 0301090c  ................
 0cf0 0001050f 03000900 00010505 03010900  ................
 0d00 00010301 090c0001 0302090c 00010408  ................
 0d10 03b47f09 00000104 02050903 79090000  ............y...
 0d20 01052406 03000900 00010407 05050603  ..$.............
 0d30 d400090c 00010408 03b17f09 00000104  ................
 0d40 02050903 7b090000 01052406 03000900  ....{.....$.....
 0d50 00010407 05050603 d5000904 0001050a  ................
 0d60 03000900 0001050e 06030009 00000105  ................
 0d70 05030009 04000105 09060301 09040001  ................
 0d80 04080505 03ae7f09 00000104 02050903  ................
 0d90 78090000 01051006 03000900 00010407  x...............
 0da0 050903da 00090800 01040805 050603af  ................
 0db0 7f090400 01040205 09037b09 00000105  ..........{.....
 0dc0 24060300 09000001 04070509 0603d700  $...............
 0dd0 09040001 05200300 09180001 051a0603  ..... ..........
 0de0 7e090000 01050500 02040103 00090400  ~...............
 0df0 01060304 09080001 0301090c 00010301  ................
 0e00 090c0001 0301090c 00010301 090c0001  ................
 0e10 00020401 03010904 0001050d 00020401  ................
 0e20 03000900 00010904 00000101 b6000000  ................
 0e30 03002800 00000101 fb0e0d00 01010101  ..(.............
 0e40 00000001 0000012e 2e2f636f 6d6d6f6e  ........./common
 0e50 00007374 6172742e 53000100 00000005  ..start.S.......
 0e60 02000000 f9030901 032a0908 00010303  .........*......
 0e70 09080001 03010908 00010301 09080001  ................
 0e80 03010904 00010302 09040001 03010904  ................
 0e90 00010301 09040001 03010904 00010301  ................
 0ea0 09040001 03040904 00010301 09040001  ................
 0eb0 03010904 00010302 09040001 03010904  ................
 0ec0 00010301 09040001 03040904 00010303  ................
 0ed0 09040001 03020904 00010305 09040001  ................
 0ee0 09040000 01010d01 00000300 27000000  ............'...
 0ef0 0101fb0e 0d000101 01010000 00010000  ................
 0f00 012e2e2f 636f6d6d 6f6e0000 74726170  .../common..trap
 0f10 2e530001 00000000 05025c07 00f91503  .S........\.....
 0f20 01090400 01030109 04000103 01090400  ................
 0f30 01030109 04000103 01090400 01030109  ................
 0f40 04000103 01090400 01030109 04000103  ................
 0f50 01090400 01030109 04000103 01090400  ................
 0f60 01030109 04000103 01090400 01030109  ................
 0f70 04000103 01090400 01030109 04000103  ................
 0f80 01090400 01030109 04000103 01090400  ................
 0f90 01030109 04000103 01090400 01030109  ................
 0fa0 04000103 01090400 01030109 04000103  ................
 0fb0 01090400 01030109 04000103 01090400  ................
 0fc0 01030109 04000103 01090400 01030109  ................
 0fd0 04000103 01090400 01030109 04000103  ................
 0fe0 01090400 01030109 04000103 01090400  ................
 0ff0 01090400 000101                      .......         
Contents of section .debug_str:
 0000 53595354 454d5f53 50495f30 5f494f5f  SYSTEM_SPI_0_IO_
 0010 4354524c 20307866 38303134 30303000  CTRL 0xf8014000.
 0020 504c4943 5f454e41 424c455f 5045525f  PLIC_ENABLE_PER_
 0030 48415254 20307838 30005749 4e545f4d  HART 0x80.WINT_M
 0040 494e2028 5f5f5749 4e545f4d 494e5f5f  IN (__WINT_MIN__
 0050 29005f5f 6d616c6c 6f635f6c 696b6520  ).__malloc_like 
 0060 5f5f6174 74726962 7574655f 5f28285f  __attribute__((_
 0070 5f6d616c 6c6f635f 5f292900 5f524545  _malloc__))._REE
 0080 4e545f4d 505f5245 53554c54 5f4b2870  NT_MP_RESULT_K(p
 0090 74722920 28287074 72292d3e 5f726573  tr) ((ptr)->_res
 00a0 756c745f 6b29005f 5f535649 445f5649  ult_k).__SVID_VI
 00b0 5349424c 45203100 636f6e66 69674d54  SIBLE 1.configMT
 00c0 494d455f 42415345 5f414444 52455353  IME_BASE_ADDRESS
 00d0 20284253 505f434c 494e5420 2b203078   (BSP_CLINT + 0x
 00e0 42464638 29005f5f 72697363 76203100  BFF8).__riscv 1.
 00f0 5f5f464c 54313238 5f4d494e 5f31305f  __FLT128_MIN_10_
 0100 4558505f 5f20282d 34393331 29005f5f  EXP__ (-4931).__
 0110 44454331 32385f45 5053494c 4f4e5f5f  DEC128_EPSILON__
 0120 2031452d 3333444c 005f5f49 4e544d41   1E-33DL.__INTMA
 0130 585f4328 63292063 20232320 4c4c005f  X_C(c) c ## LL._
 0140 5f636f6d 7061725f 666e5f74 5f646566  _compar_fn_t_def
 0150 696e6564 20005f5f 43435f53 5550504f  ined .__CC_SUPPO
 0160 5254535f 494e4c49 4e452031 005f5f47  RTS_INLINE 1.__G
 0170 43435f41 544f4d49 435f5743 4841525f  CC_ATOMIC_WCHAR_
 0180 545f4c4f 434b5f46 52454520 31004d53  T_LOCK_FREE 1.MS
 0190 54415455 535f4d50 52562030 78303030  TATUS_MPRV 0x000
 01a0 32303030 30005f5f 43484152 5f554e53  20000.__CHAR_UNS
 01b0 49474e45 445f5f20 31005f47 4c4f4241  IGNED__ 1._GLOBA
 01c0 4c5f4154 45584954 20285f47 4c4f4241  L_ATEXIT (_GLOBA
 01d0 4c5f5245 454e542d 3e5f6174 65786974  L_REENT->_atexit
 01e0 29005f5f 464c5431 32385f44 4543494d  ).__FLT128_DECIM
 01f0 414c5f44 49475f5f 20333600 6373725f  AL_DIG__ 36.csr_
 0200 72656164 5f636c65 61722863 73722c76  read_clear(csr,v
 0210 616c2920 287b2075 6e736967 6e656420  al) ({ unsigned 
 0220 6c6f6e67 205f5f76 203d2028 756e7369  long __v = (unsi
 0230 676e6564 206c6f6e 67292876 616c293b  gned long)(val);
 0240 205f5f61 736d5f5f 205f5f76 6f6c6174   __asm__ __volat
 0250 696c655f 5f202822 63737272 63202530  ile__ ("csrrc %0
 0260 2c202220 23637372 20222c20 25312220  , " #csr ", %1" 
 0270 3a20223d 72222028 5f5f7629 203a2022  : "=r" (__v) : "
 0280 724b2220 285f5f76 29293b20 5f5f763b  rK" (__v)); __v;
 0290 207d2900 53595354 454d5f55 4152545f   }).SYSTEM_UART_
 02a0 305f494f 5f504152 414d4554 45525f55  0_IO_PARAMETER_U
 02b0 4152545f 4354524c 5f434f4e 4649475f  ART_CTRL_CONFIG_
 02c0 52585f53 414d504c 455f5045 525f4249  RX_SAMPLE_PER_BI
 02d0 54203800 5f5f464c 5436345f 4841535f  T 8.__FLT64_HAS_
 02e0 494e4649 4e495459 5f5f2031 005f5f76  INFINITY__ 1.__v
 02f0 616c7565 004d5354 41545553 5f55584c  alue.MSTATUS_UXL
 0300 20307830 30303030 30303330 30303030   0x0000000300000
 0310 30303000 4e554c4c 20282876 6f696420  000.NULL ((void 
 0320 2a293029 005f5f5f 696e745f 73697a65  *)0).___int_size
 0330 5f745f68 20005f5f 7366005f 5f505452  _t_h .__sf.__PTR
 0340 44494646 5f4d4158 5f5f2030 78376666  DIFF_MAX__ 0x7ff
 0350 66666666 66005f5f 474e5543 4c494b45  fffff.__GNUCLIKE
 0360 5f5f5f53 45435449 4f4e2031 005f4c4f  ___SECTION 1._LO
 0370 4e475f44 4f55424c 45206c6f 6e672064  NG_DOUBLE long d
 0380 6f75626c 65006973 67726561 74657228  ouble.isgreater(
 0390 5f5f782c 5f5f7929 20285f5f 6275696c  __x,__y) (__buil
 03a0 74696e5f 69736772 65617465 7220285f  tin_isgreater (_
 03b0 5f782c20 5f5f7929 2900494e 545f4c45  _x, __y)).INT_LE
 03c0 41535438 5f4d494e 20282d5f 5f494e54  AST8_MIN (-__INT
 03d0 5f4c4541 5354385f 4d41585f 5f202d20  _LEAST8_MAX__ - 
 03e0 3129005f 55494e54 33325f54 5f444543  1)._UINT32_T_DEC
 03f0 4c415245 4420005f 72656164 005f5f49  LARED ._read.__I
 0400 4e544d41 585f4d41 585f5f20 30783766  NTMAX_MAX__ 0x7f
 0410 66666666 66666666 66666666 66664c4c  ffffffffffffffLL
 0420 005f5f44 45433332 5f535542 4e4f524d  .__DEC32_SUBNORM
 0430 414c5f4d 494e5f5f 20302e30 30303030  AL_MIN__ 0.00000
 0440 31452d39 35444600 5f5f6e65 65645f73  1E-95DF.__need_s
 0450 697a655f 74005f5f 6c6f636b 5f696e69  ize_t.__lock_ini
 0460 745f7265 63757273 69766528 6c6f636b  t_recursive(lock
 0470 29202828 766f6964 29203029 005f5f46  ) ((void) 0).__F
 0480 4c543332 585f4d49 4e5f4558 505f5f20  LT32X_MIN_EXP__ 
 0490 282d3130 32312900 5f524545 4e545f53  (-1021)._REENT_S
 04a0 49474e41 4c5f5349 5a452032 3400504d  IGNAL_SIZE 24.PM
 04b0 505f4c20 30783830 005f5245 454e545f  P_L 0x80._REENT_
 04c0 57435254 4f4d425f 53544154 45287074  WCRTOMB_STATE(pt
 04d0 72292028 28707472 292d3e5f 6e65772e  r) ((ptr)->_new.
 04e0 5f726565 6e742e5f 77637274 6f6d625f  _reent._wcrtomb_
 04f0 73746174 6529005f 5f41544f 4d49435f  state).__ATOMIC_
 0500 434f4e53 554d4520 31004249 545f3238  CONSUME 1.BIT_28
 0510 20283120 3c3c2032 3829005f 5f726973   (1 << 28).__ris
 0520 63765f6d 756c6469 76203100 4249545f  cv_muldiv 1.BIT_
 0530 35202831 203c3c20 3529005f 5f464c54  5 (1 << 5).__FLT
 0540 3634585f 4449475f 5f203333 005f5f46  64X_DIG__ 33.__F
 0550 4c543634 585f4550 53494c4f 4e5f5f20  LT64X_EPSILON__ 
 0560 312e3932 35393239 39343433 38373233  1.92592994438723
 0570 35383533 30353539 37373934 32353834  5853055977942584
 0580 39323733 32652d33 34463634 78005f5f  92732e-34F64x.__
 0590 474e5543 4c494b45 5f5f5f54 5950454f  GNUCLIKE___TYPEO
 05a0 46203100 5f5f696e 7432305f 5f005f53  F 1.__int20__._S
 05b0 59535f5f 4c4f4341 4c455f48 20004249  YS__LOCALE_H .BI
 05c0 545f3135 20283120 3c3c2031 35290052  T_15 (1 << 15).R
 05d0 44435943 4c452030 78433030 005f5f53  DCYCLE 0xC00.__S
 05e0 495a454f 465f4c4f 4e475f4c 4f4e475f  IZEOF_LONG_LONG_
 05f0 5f203800 5f617363 74696d65 5f627566  _ 8._asctime_buf
 0600 005f5f44 424c5f4d 41585f31 305f4558  .__DBL_MAX_10_EX
 0610 505f5f20 33303800 5f637674 6c656e00  P__ 308._cvtlen.
 0620 5f5f4445 4336345f 45505349 4c4f4e5f  __DEC64_EPSILON_
 0630 5f203145 2d313544 44005349 5a455f4d  _ 1E-15DD.SIZE_M
 0640 41582028 5f5f5349 5a455f4d 41585f5f  AX (__SIZE_MAX__
 0650 29005f5f 504f5349 585f5649 5349424c  ).__POSIX_VISIBL
 0660 45203230 30383039 005f5f73 74726f6e  E 200809.__stron
 0670 675f7265 66657265 6e636528 73796d2c  g_reference(sym,
 0680 616c6961 7373796d 29206578 7465726e  aliassym) extern
 0690 205f5f74 7970656f 66202873 796d2920   __typeof (sym) 
 06a0 616c6961 7373796d 205f5f61 74747269  aliassym __attri
 06b0 62757465 5f5f2028 285f5f61 6c696173  bute__ ((__alias
 06c0 5f5f2028 2373796d 29292900 5f5f4445  __ (#sym))).__DE
 06d0 4333325f 4d494e5f 5f203145 2d393544  C32_MIN__ 1E-95D
 06e0 46005f5f 494e544d 41585f57 49445448  F.__INTMAX_WIDTH
 06f0 5f5f2036 34005f5f 4f524445 525f5044  __ 64.__ORDER_PD
 0700 505f454e 4449414e 5f5f2033 34313200  P_ENDIAN__ 3412.
 0710 5f5f5349 5a455f54 5950455f 5f20756e  __SIZE_TYPE__ un
 0720 7369676e 65642069 6e74005f 5f444543  signed int.__DEC
 0730 36345f4d 41585f45 58505f5f 20333835  64_MAX_EXP__ 385
 0740 004d5f32 5f504920 302e3633 36363139  .M_2_PI 0.636619
 0750 37373233 36373538 31333433 3038005f  77236758134308._
 0760 5f464c54 5f484153 5f44454e 4f524d5f  _FLT_HAS_DENORM_
 0770 5f203100 55494e54 5f464153 5431365f  _ 1.UINT_FAST16_
 0780 4d415820 285f5f55 494e545f 46415354  MAX (__UINT_FAST
 0790 31365f4d 41585f5f 29004249 545f3136  16_MAX__).BIT_16
 07a0 20283120 3c3c2031 36290048 5547455f   (1 << 16).HUGE_
 07b0 56414c20 285f5f62 75696c74 696e5f68  VAL (__builtin_h
 07c0 7567655f 76616c28 2929005f 5f464c54  uge_val()).__FLT
 07d0 33325f44 4543494d 414c5f44 49475f5f  32_DECIMAL_DIG__
 07e0 2039005f 5f4f5244 45525f4c 4954544c   9.__ORDER_LITTL
 07f0 455f454e 4449414e 5f5f2031 32333400  E_ENDIAN__ 1234.
 0800 6273705f 7072696e 74486578 5f6c6f77  bsp_printHex_low
 0810 6572005f 5f535444 435f5554 465f3136  er.__STDC_UTF_16
 0820 5f5f2031 005f4e75 6c6c6162 6c652000  __ 1._Nullable .
 0830 5f5f746d 00646967 69747300 5f6e6275  __tm.digits._nbu
 0840 66005f5f 746d5f73 6563005f 5f55494e  f.__tm_sec.__UIN
 0850 54385f43 28632920 63005f5f 494e5431  T8_C(c) c.__INT1
 0860 365f5459 50455f5f 2073686f 72742069  6_TYPE__ short i
 0870 6e740042 53505f4c 45445f4d 41534b20  nt.BSP_LED_MASK 
 0880 30786600 5f6c3634 615f6275 66004d5f  0xf._l64a_buf.M_
 0890 53515254 50492031 2e373732 34353338  SQRTPI 1.7724538
 08a0 35303930 35353136 30323739 32393831  5090551602792981
 08b0 005f5f46 4c543634 585f4d41 585f5f20  .__FLT64X_MAX__ 
 08c0 312e3138 39373331 34393533 35373233  1.18973149535723
 08d0 31373635 30383537 35393332 36363238  1765085759326628
 08e0 30303730 32652b34 39333246 36347800  00702e+4932F64x.
 08f0 5f5f494e 54382022 68682200 5f5f6861  __INT8 "hh".__ha
 0900 735f6275 696c7469 6e287829 20300053  s_builtin(x) 0.S
 0910 59535445 4d5f5541 52545f30 5f494f5f  YSTEM_UART_0_IO_
 0920 50415241 4d455445 525f5458 5f464946  PARAMETER_TX_FIF
 0930 4f5f4445 50544820 31323800 494e545f  O_DEPTH 128.INT_
 0940 4c454153 5431365f 4d415820 285f5f49  LEAST16_MAX (__I
 0950 4e545f4c 45415354 31365f4d 41585f5f  NT_LEAST16_MAX__
 0960 29005f5f 4758585f 4142495f 56455253  ).__GXX_ABI_VERS
 0970 494f4e20 31303133 00494e54 5f464153  ION 1013.INT_FAS
 0980 5431365f 4d415820 285f5f49 4e545f46  T16_MAX (__INT_F
 0990 41535431 365f4d41 585f5f29 005f504f  AST16_MAX__)._PO
 09a0 494e5445 525f494e 54206c6f 6e67005f  INTER_INT long._
 09b0 5f534947 5f41544f 4d49435f 54595045  _SIG_ATOMIC_TYPE
 09c0 5f5f2069 6e74005f 73697a65 005f5245  __ int._size._RE
 09d0 454e545f 4d505f52 4553554c 54287074  ENT_MP_RESULT(pt
 09e0 72292028 28707472 292d3e5f 72657375  r) ((ptr)->_resu
 09f0 6c742900 5f5f494e 545f4641 53543634  lt).__INT_FAST64
 0a00 5f545950 455f5f20 6c6f6e67 206c6f6e  _TYPE__ long lon
 0a10 6720696e 74004d5f 53515254 3320312e  g int.M_SQRT3 1.
 0a20 37333230 35303830 37353638 38373731  7320508075688771
 0a30 39303030 00535354 41545553 33325f53  9000.SSTATUS32_S
 0a40 44203078 38303030 30303030 00494e54  D 0x80000000.INT
 0a50 385f4d41 5820285f 5f494e54 385f4d41  8_MAX (__INT8_MA
 0a60 585f5f29 004d5f31 5f504920 302e3331  X__).M_1_PI 0.31
 0a70 38333039 38383631 38333739 30363731  8309886183790671
 0a80 3534005f 6c6f636b 005f5f46 4c543332  54._lock.__FLT32
 0a90 5f4d494e 5f5f2031 2e313735 34393433  _MIN__ 1.1754943
 0aa0 35303832 32323837 35303739 36383733  5082228750796873
 0ab0 36353337 32323232 34353638 652d3338  653722224568e-38
 0ac0 46333200 50545244 4946465f 4d415820  F32.PTRDIFF_MAX 
 0ad0 285f5f50 54524449 46465f4d 41585f5f  (__PTRDIFF_MAX__
 0ae0 29005f5f 464c5433 325f4d41 585f3130  ).__FLT32_MAX_10
 0af0 5f455850 5f5f2033 38005359 5354454d  _EXP__ 38.SYSTEM
 0b00 5f504c49 435f5359 5354454d 5f434f52  _PLIC_SYSTEM_COR
 0b10 45535f30 5f455854 45524e41 4c5f494e  ES_0_EXTERNAL_IN
 0b20 54455252 55505420 3000434c 494e545f  TERRUPT 0.CLINT_
 0b30 434d505f 41444452 20307834 30303000  CMP_ADDR 0x4000.
 0b40 5f524545 4e545f4d 505f4652 45454c49  _REENT_MP_FREELI
 0b50 53542870 74722920 28287074 72292d3e  ST(ptr) ((ptr)->
 0b60 5f667265 656c6973 74290053 59535445  _freelist).SYSTE
 0b70 4d5f5553 45525f54 494d4552 5f305f43  M_USER_TIMER_0_C
 0b80 54524c5f 53495a45 20307831 30303000  TRL_SIZE 0x1000.
 0b90 5f5f6e65 65645f77 63686172 5f74005f  __need_wchar_t._
 0ba0 5f464c54 33325f4d 494e5f45 58505f5f  _FLT32_MIN_EXP__
 0bb0 20282d31 32352900 5f5f464c 54363458   (-125).__FLT64X
 0bc0 5f4d494e 5f455850 5f5f2028 2d313633  _MIN_EXP__ (-163
 0bd0 38312900 4d5f5351 5254315f 3220302e  81).M_SQRT1_2 0.
 0be0 37303731 30363738 31313836 35343735  7071067811865475
 0bf0 32343430 00777269 74655f75 3332005f  2440.write_u32._
 0c00 5f505452 44494646 5f542000 5f676574  _PTRDIFF_T ._get
 0c10 64617465 5f657272 005f6d75 6c740049  date_err._mult.I
 0c20 4e543136 5f4d4158 20285f5f 494e5431  NT16_MAX (__INT1
 0c30 365f4d41 585f5f29 005f5f46 4c543634  6_MAX__).__FLT64
 0c40 5f4d494e 5f31305f 4558505f 5f20282d  _MIN_10_EXP__ (-
 0c50 33303729 00504c49 435f5448 52455348  307).PLIC_THRESH
 0c60 4f4c445f 42415345 20307832 30303030  OLD_BASE 0x20000
 0c70 30005f5f 73697a65 5f742000 5f5f626f  0.__size_t .__bo
 0c80 756e6465 6420005f 5f696e74 5f666173  unded .__int_fas
 0c90 7433325f 745f6465 66696e65 64203100  t32_t_defined 1.
 0ca0 5f5f494e 545f4641 53543634 5f574944  __INT_FAST64_WID
 0cb0 54485f5f 20363400 5f5f464c 5436345f  TH__ 64.__FLT64_
 0cc0 44454349 4d414c5f 4449475f 5f203137  DECIMAL_DIG__ 17
 0cd0 005f5f5f 696e745f 77636861 725f745f  .___int_wchar_t_
 0ce0 6820005f 5245454e 545f494e 49545f50  h ._REENT_INIT_P
 0cf0 54522876 61722920 7b206d65 6d736574  TR(var) { memset
 0d00 28287661 72292c20 302c2073 697a656f  ((var), 0, sizeo
 0d10 66282a28 76617229 29293b20 5f524545  f(*(var))); _REE
 0d20 4e545f49 4e49545f 5054525f 5a45524f  NT_INIT_PTR_ZERO
 0d30 45442876 6172293b 207d0049 4e543136  ED(var); }.INT16
 0d40 5f432878 29205f5f 494e5431 365f4328  _C(x) __INT16_C(
 0d50 78290053 53544154 55533634 5f534420  x).SSTATUS64_SD 
 0d60 30783830 30303030 30303030 30303030  0x80000000000000
 0d70 3030005f 5f434f4e 43415431 28782c79  00.__CONCAT1(x,y
 0d80 29207820 23232079 00504d50 5f582030  ) x ## y.PMP_X 0
 0d90 78303400 5f5f494e 5433325f 43286329  x04.__INT32_C(c)
 0da0 20632023 23204c00 5f5f4f52 4445525f   c ## L.__ORDER_
 0db0 4249475f 454e4449 414e5f5f 20343332  BIG_ENDIAN__ 432
 0dc0 31005f5f 44454331 32385f4d 494e5f5f  1.__DEC128_MIN__
 0dd0 2031452d 36313433 444c0049 4e54385f   1E-6143DL.INT8_
 0de0 4d494e20 282d5f5f 494e5438 5f4d4158  MIN (-__INT8_MAX
 0df0 5f5f202d 20312900 464c545f 4556414c  __ - 1).FLT_EVAL
 0e00 5f4d4554 484f4400 5f5f5028 70726f74  _METHOD.__P(prot
 0e10 6f732920 70726f74 6f73005f 5f464c54  os) protos.__FLT
 0e20 3132385f 4841535f 51554945 545f4e41  128_HAS_QUIET_NA
 0e30 4e5f5f20 31005f53 59535f5f 53544449  N__ 1._SYS__STDI
 0e40 4e545f48 2000494e 545f4c45 41535436  NT_H .INT_LEAST6
 0e50 345f4d41 5820285f 5f494e54 5f4c4541  4_MAX (__INT_LEA
 0e60 53543634 5f4d4158 5f5f2900 53595354  ST64_MAX__).SYST
 0e70 454d5f52 49534356 5f495341 5f455854  EM_RISCV_ISA_EXT
 0e80 5f5a4946 454e4345 2031005f 5f505452  _ZIFENCE 1.__PTR
 0e90 44494646 5f574944 54485f5f 20333200  DIFF_WIDTH__ 32.
 0ea0 53595354 454d5f43 4c494e54 5f435452  SYSTEM_CLINT_CTR
 0eb0 4c5f5349 5a452030 78313030 3030005f  L_SIZE 0x10000._
 0ec0 5f776561 6b5f7265 66657265 6e636528  _weak_reference(
 0ed0 73796d2c 616c6961 7329205f 5f61736d  sym,alias) __asm
 0ee0 5f5f2822 2e776561 6b202220 23616c69  __(".weak " #ali
 0ef0 6173293b 205f5f61 736d5f5f 28222e65  as); __asm__(".e
 0f00 71752022 2023616c 69617320 222c2022  qu " #alias ", "
 0f10 20237379 6d29005f 5f55494e 545f4641   #sym).__UINT_FA
 0f20 5354385f 4d41585f 5f203078 66666666  ST8_MAX__ 0xffff
 0f30 66666666 55005f4e 4f544852 4f572000  ffffU._NOTHROW .
 0f40 5f5f4445 4333325f 45505349 4c4f4e5f  __DEC32_EPSILON_
 0f50 5f203145 2d364446 005f5f68 61735f65  _ 1E-6DF.__has_e
 0f60 7874656e 73696f6e 205f5f68 61735f66  xtension __has_f
 0f70 65617475 7265005f 5f776368 005f5f6e  eature.__wch.__n
 0f80 6565645f 70747264 6966665f 74005f5f  eed_ptrdiff_t.__
 0f90 494e545f 4c454153 5436345f 54595045  INT_LEAST64_TYPE
 0fa0 5f5f206c 6f6e6720 6c6f6e67 20696e74  __ long long int
 0fb0 00494e54 5f4c4541 5354385f 4d415820  .INT_LEAST8_MAX 
 0fc0 285f5f49 4e545f4c 45415354 385f4d41  (__INT_LEAST8_MA
 0fd0 585f5f29 005f5f46 4c543634 585f4d41  X__).__FLT64X_MA
 0fe0 585f3130 5f455850 5f5f2034 39333200  X_10_EXP__ 4932.
 0ff0 5f5f5343 4841525f 57494454 485f5f20  __SCHAR_WIDTH__ 
 1000 38004341 5553455f 494c4c45 47414c5f  8.CAUSE_ILLEGAL_
 1010 494e5354 52554354 494f4e20 32005f5f  INSTRUCTION 2.__
 1020 494e545f 46415354 31365f57 49445448  INT_FAST16_WIDTH
 1030 5f5f2033 32005f52 45454e54 205f696d  __ 32._REENT _im
 1040 70757265 5f707472 004d4945 5f4d4549  pure_ptr.MIE_MEI
 1050 45202831 203c3c20 43415553 455f4d41  E (1 << CAUSE_MA
 1060 4348494e 455f4558 5445524e 414c2900  CHINE_EXTERNAL).
 1070 4d5f4c4e 32484920 362e3933 31343731  M_LN2HI 6.931471
 1080 38303336 39313233 38313634 39452d31  8036912381649E-1
 1090 005f5f4c 45415354 33322022 6c22005f  .__LEAST32 "l"._
 10a0 5f494e54 36342022 6c6c2200 5f5f4743  _INT64 "ll".__GC
 10b0 435f4154 4f4d4943 5f504f49 4e544552  C_ATOMIC_POINTER
 10c0 5f4c4f43 4b5f4652 45452031 005f6669  _LOCK_FREE 1._fi
 10d0 6c65005f 5f55494e 545f4641 53543136  le.__UINT_FAST16
 10e0 5f4d4158 5f5f2030 78666666 66666666  _MAX__ 0xfffffff
 10f0 66550049 4e545f4c 45415354 36345f4d  fU.INT_LEAST64_M
 1100 494e2028 2d5f5f49 4e545f4c 45415354  IN (-__INT_LEAST
 1110 36345f4d 41585f5f 202d2031 29005f6f  64_MAX__ - 1)._o
 1120 6e5f6578 69745f61 72677300 46505f4e  n_exit_args.FP_N
 1130 414e2030 005f5f49 4e545054 525f4d41  AN 0.__INTPTR_MA
 1140 585f5f20 30783766 66666666 6666004d  X__ 0x7fffffff.M
 1150 5f4c4f47 31304520 302e3433 34323934  _LOG10E 0.434294
 1160 34383139 30333235 31383237 3635004d  48190325182765.M
 1170 53544154 55535f53 50502030 78303030  STATUS_SPP 0x000
 1180 30303130 30005f4e 6f6e6e75 6c6c2000  00100._Nonnull .
 1190 454e4142 4c455f42 52494447 455f4655  ENABLE_BRIDGE_FU
 11a0 4c4c5f54 4f5f4c49 54452031 004d4944  LL_TO_LITE 1.MID
 11b0 454c4547 5f535550 45525649 534f525f  ELEG_SUPERVISOR_
 11c0 534f4654 57415245 20283120 3c3c2031  SOFTWARE (1 << 1
 11d0 29005f5f 474e5543 5f505245 52455128  ).__GNUC_PREREQ(
 11e0 6d616a2c 6d696e29 2028285f 5f474e55  maj,min) ((__GNU
 11f0 435f5f20 3c3c2031 3629202b 205f5f47  C__ << 16) + __G
 1200 4e55435f 4d494e4f 525f5f20 3e3d2028  NUC_MINOR__ >= (
 1210 286d616a 29203c3c 20313629 202b2028  (maj) << 16) + (
 1220 6d696e29 29005f54 5f574348 41522000  min))._T_WCHAR .
 1230 5f4e5f4c 49535453 20333000 5f494e54  _N_LISTS 30._INT
 1240 5054525f 545f4445 434c4152 45442000  PTR_T_DECLARED .
 1250 5f56415f 4c495354 5f545f48 20005f5f  _VA_LIST_T_H .__
 1260 464c5433 32585f48 41535f49 4e46494e  FLT32X_HAS_INFIN
 1270 4954595f 5f203100 494e545f 46415354  ITY__ 1.INT_FAST
 1280 33325f4d 494e2028 2d5f5f49 4e545f46  32_MIN (-__INT_F
 1290 41535433 325f4d41 585f5f20 2d203129  AST32_MAX__ - 1)
 12a0 00535953 54454d5f 504c4943 5f435452  .SYSTEM_PLIC_CTR
 12b0 4c5f5349 5a452030 78343030 30303000  L_SIZE 0x400000.
 12c0 5f5f5243 5349445f 534f5552 43452873  __RCSID_SOURCE(s
 12d0 29207374 72756374 205f5f68 61636b00  ) struct __hack.
 12e0 5f524545 4e545f52 414e4434 385f5345  _REENT_RAND48_SE
 12f0 45442870 74722920 28287074 72292d3e  ED(ptr) ((ptr)->
 1300 5f6e6577 2e5f7265 656e742e 5f723438  _new._reent._r48
 1310 2e5f7365 65642900 5f5f5549 4e545f4c  ._seed).__UINT_L
 1320 45415354 385f5459 50455f5f 20756e73  EAST8_TYPE__ uns
 1330 69676e65 64206368 6172005f 73747274  igned char._strt
 1340 6f6b5f6c 61737400 5f5f6c6f 636b735f  ok_last.__locks_
 1350 6578636c 75736976 65282e2e 2e29205f  exclusive(...) _
 1360 5f6c6f63 6b5f616e 6e6f7461 74652865  _lock_annotate(e
 1370 78636c75 73697665 5f6c6f63 6b5f6675  xclusive_lock_fu
 1380 6e637469 6f6e285f 5f56415f 41524753  nction(__VA_ARGS
 1390 5f5f2929 005f6d62 726c656e 5f737461  __))._mbrlen_sta
 13a0 74650070 6c69635f 7365745f 7072696f  te.plic_set_prio
 13b0 72697479 005f5f72 69736376 5f666c6f  rity.__riscv_flo
 13c0 61745f61 62695f73 6f667420 31005359  at_abi_soft 1.SY
 13d0 5354454d 5f554152 545f305f 494f5f50  STEM_UART_0_IO_P
 13e0 4152414d 45544552 5f554152 545f4354  ARAMETER_UART_CT
 13f0 524c5f43 4f4e4649 475f5254 535f4745  RL_CONFIG_RTS_GE
 1400 4e203000 5f5f494e 545f4641 53543634  N 0.__INT_FAST64
 1410 5f4d4158 5f5f2030 78376666 66666666  _MAX__ 0x7ffffff
 1420 66666666 66666666 664c4c00 5f5f464c  fffffffffLL.__FL
 1430 54333258 5f444543 494d414c 5f444947  T32X_DECIMAL_DIG
 1440 5f5f2031 3700494e 46494e49 54592028  __ 17.INFINITY (
 1450 5f5f6275 696c7469 6e5f696e 66662829  __builtin_inff()
 1460 29005f5f 464c5433 32585f48 41535f51  ).__FLT32X_HAS_Q
 1470 55494554 5f4e414e 5f5f2031 005f5f52  UIET_NAN__ 1.__R
 1480 414e445f 4d415820 30783766 66666666  AND_MAX 0x7fffff
 1490 6666005f 70757463 6861725f 73005f5f  ff._putchar_s.__
 14a0 5f696e74 5f6c6561 73743136 5f745f64  _int_least16_t_d
 14b0 6566696e 65642031 005f5f44 45433132  efined 1.__DEC12
 14c0 385f4d49 4e5f4558 505f5f20 282d3631  8_MIN_EXP__ (-61
 14d0 34322900 4d415448 5f455252 45584345  42).MATH_ERREXCE
 14e0 50542032 005f5f49 4e545f46 41535438  PT 2.__INT_FAST8
 14f0 5f545950 455f5f20 696e7400 5f4e4f49  _TYPE__ int._NOI
 1500 4e4c494e 45205f5f 61747472 69627574  NLINE __attribut
 1510 655f5f20 28285f5f 6e6f696e 6c696e65  e__ ((__noinline
 1520 5f5f2929 005f5f73 697a655f 745f5f20  __)).__size_t__ 
 1530 005f5f46 4c543132 385f4d49 4e5f4558  .__FLT128_MIN_EX
 1540 505f5f20 282d3136 33383129 00637372  P__ (-16381).csr
 1550 5f726561 64286373 72292028 7b207265  _read(csr) ({ re
 1560 67697374 65722075 6e736967 6e656420  gister unsigned 
 1570 6c6f6e67 205f5f76 3b205f5f 61736d5f  long __v; __asm_
 1580 5f205f5f 766f6c61 74696c65 5f5f2028  _ __volatile__ (
 1590 22637372 72202530 2c202220 23637372  "csrr %0, " #csr
 15a0 203a2022 3d722220 285f5f76 29293b20   : "=r" (__v)); 
 15b0 5f5f763b 207d2900 5f524545 4e545f52  __v; })._REENT_R
 15c0 414e445f 4e455854 28707472 29202828  AND_NEXT(ptr) ((
 15d0 70747229 2d3e5f6e 65772e5f 7265656e  ptr)->_new._reen
 15e0 742e5f72 616e645f 6e657874 29005f5f  t._rand_next).__
 15f0 55494e54 4d41585f 43286329 20632023  UINTMAX_C(c) c #
 1600 2320554c 4c004841 56455f49 4e495446  # ULL.HAVE_INITF
 1610 494e495f 41525241 59203100 5f5f5349  INI_ARRAY 1.__SI
 1620 5a454f46 5f504f49 4e544552 5f5f2034  ZEOF_POINTER__ 4
 1630 00494e54 5f464153 5436345f 4d494e20  .INT_FAST64_MIN 
 1640 282d5f5f 494e545f 46415354 36345f4d  (-__INT_FAST64_M
 1650 41585f5f 202d2031 29005f6c 6f63616c  AX__ - 1)._local
 1660 74696d65 5f627566 005f4253 445f5743  time_buf._BSD_WC
 1670 4841525f 545f2000 5f5f4743 435f4154  HAR_T_ .__GCC_AT
 1680 4f4d4943 5f424f4f 4c5f4c4f 434b5f46  OMIC_BOOL_LOCK_F
 1690 52454520 31004249 545f3232 20283120  REE 1.BIT_22 (1 
 16a0 3c3c2032 3229005f 5f5f696e 7436345f  << 22).___int64_
 16b0 745f6465 66696e65 64203100 5f5f464c  t_defined 1.__FL
 16c0 54363458 5f484153 5f44454e 4f524d5f  T64X_HAS_DENORM_
 16d0 5f203100 5f5f7362 75660064 69676900  _ 1.__sbuf.digi.
 16e0 55494e54 5054525f 4d415820 285f5f55  UINTPTR_MAX (__U
 16f0 494e5450 54525f4d 41585f5f 29005f5f  INTPTR_MAX__).__
 1700 464c5433 325f4d41 585f4558 505f5f20  FLT32_MAX_EXP__ 
 1710 31323800 6d61696e 005f5f55 494e544d  128.main.__UINTM
 1720 41585f54 5950455f 5f206c6f 6e67206c  AX_TYPE__ long l
 1730 6f6e6720 756e7369 676e6564 20696e74  ong unsigned int
 1740 005f4154 45584954 5f53495a 45203332  ._ATEXIT_SIZE 32
 1750 005f666e 74797065 73005f5f 4c44424c  ._fntypes.__LDBL
 1760 5f44454e 4f524d5f 4d494e5f 5f20362e  _DENORM_MIN__ 6.
 1770 34373531 37353131 39343338 30323531  4751751194380251
 1780 31303932 34343338 39353832 32373634  1092443895822764
 1790 36353565 2d343936 364c0050 4d505f41  655e-4966L.PMP_A
 17a0 20307831 3800776f 7264005f 55494e54   0x18.word._UINT
 17b0 36345f54 5f444543 4c415245 4420005f  64_T_DECLARED ._
 17c0 53495a45 5f545f44 45434c41 52454420  SIZE_T_DECLARED 
 17d0 004d5354 41545553 5f585320 30783030  .MSTATUS_XS 0x00
 17e0 30313830 3030005f 5f434841 5233325f  018000.__CHAR32_
 17f0 54595045 5f5f206c 6f6e6720 756e7369  TYPE__ long unsi
 1800 676e6564 20696e74 00424954 5f342028  gned int.BIT_4 (
 1810 31203c3c 20342900 5f5f4343 5f535550  1 << 4).__CC_SUP
 1820 504f5254 535f4459 4e414d49 435f4152  PORTS_DYNAMIC_AR
 1830 5241595f 494e4954 2031005f 5f756e75  RAY_INIT 1.__unu
 1840 73656420 5f5f6174 74726962 7574655f  sed __attribute_
 1850 5f28285f 5f756e75 7365645f 5f292900  _((__unused__)).
 1860 5f5f5549 4e545f46 41535433 325f4d41  __UINT_FAST32_MA
 1870 585f5f20 30786666 66666666 66665500  X__ 0xffffffffU.
 1880 5f5f746d 5f6d6f6e 005f5f46 4c545f4d  __tm_mon.__FLT_M
 1890 41585f45 58505f5f 20313238 005f5f53  AX_EXP__ 128.__S
 18a0 495a454f 465f4c4f 4e475f5f 20340053  IZEOF_LONG__ 4.S
 18b0 59535445 4d5f4932 435f415f 41504220  YSTEM_I2C_A_APB 
 18c0 53595354 454d5f49 32435f30 5f494f5f  SYSTEM_I2C_0_IO_
 18d0 41504200 4d494445 4c45475f 53555045  APB.MIDELEG_SUPE
 18e0 52564953 4f525f45 58544552 4e414c20  RVISOR_EXTERNAL 
 18f0 2831203c 3c203929 0046505f 5355424e  (1 << 9).FP_SUBN
 1900 4f524d41 4c203300 5f524541 445f5752  ORMAL 3._READ_WR
 1910 4954455f 42554653 495a455f 54595045  ITE_BUFSIZE_TYPE
 1920 20696e74 004c4f4f 505f5544 454c4159   int.LOOP_UDELAY
 1930 20313030 30303000 5f5f5349 5a454f46   100000.__SIZEOF
 1940 5f444f55 424c455f 5f203800 5f5f494e  _DOUBLE__ 8.__IN
 1950 545f4c45 41535433 325f5749 4454485f  T_LEAST32_WIDTH_
 1960 5f203332 005f434c 4f434b5f 545f2075  _ 32._CLOCK_T_ u
 1970 6e736967 6e656420 6c6f6e67 005f5449  nsigned long._TI
 1980 4d455f54 5f205f5f 696e745f 6c656173  ME_T_ __int_leas
 1990 7436345f 74005f5f 4c44424c 5f4d4158  t64_t.__LDBL_MAX
 19a0 5f31305f 4558505f 5f203439 33320053  _10_EXP__ 4932.S
 19b0 59535445 4d5f434f 5245535f 305f4346  YSTEM_CORES_0_CF
 19c0 55203000 74726170 005f5f73 796d5f63  U 0.trap.__sym_c
 19d0 6f6d7061 74287379 6d2c696d 706c2c76  ompat(sym,impl,v
 19e0 65726964 29205f5f 61736d5f 5f28222e  erid) __asm__(".
 19f0 73796d76 65722022 2023696d 706c2022  symver " #impl "
 1a00 2c202220 2373796d 20224022 20237665  , " #sym "@" #ve
 1a10 72696429 005f5f46 41535431 36200053  rid).__FAST16 .S
 1a20 53544154 55535f55 50494520 30783030  STATUS_UPIE 0x00
 1a30 30303030 3130005f 5f4c4152 47454649  000010.__LARGEFI
 1a40 4c455f56 49534942 4c452030 005f5f44  LE_VISIBLE 0.__D
 1a50 45433634 5f4d4158 5f5f2039 2e393939  EC64_MAX__ 9.999
 1a60 39393939 39393939 39393939 45333834  999999999999E384
 1a70 4444005f 5f4e4557 4c49425f 5f203300  DD.__NEWLIB__ 3.
 1a80 5f5f7269 7363765f 64697620 31004558  __riscv_div 1.EX
 1a90 49545f53 55434345 53532030 005f5f46  IT_SUCCESS 0.__F
 1aa0 4c545f4d 494e5f31 305f4558 505f5f20  LT_MIN_10_EXP__ 
 1ab0 282d3337 29005f5f 41534d4e 414d4528  (-37).__ASMNAME(
 1ac0 636e616d 6529205f 5f585354 52494e47  cname) __XSTRING
 1ad0 20285f5f 55534552 5f4c4142 454c5f50   (__USER_LABEL_P
 1ae0 52454649 585f5f29 20636e61 6d65006d  REFIX__) cname.m
 1af0 6174685f 65727268 616e646c 696e6720  ath_errhandling 
 1b00 4d415448 5f455252 4e4f005f 5f464c54  MATH_ERRNO.__FLT
 1b10 5f444543 494d414c 5f444947 5f5f2039  _DECIMAL_DIG__ 9
 1b20 00425350 5f4d4143 48494e45 5f54494d  .BSP_MACHINE_TIM
 1b30 45525f48 5a205359 5354454d 5f434c49  ER_HZ SYSTEM_CLI
 1b40 4e545f48 5a005f75 6e757365 645f7261  NT_HZ._unused_ra
 1b50 6e64005f 55494e54 385f545f 4445434c  nd._UINT8_T_DECL
 1b60 41524544 20005244 4359434c 45482030  ARED .RDCYCLEH 0
 1b70 78433830 005f5f61 73736572 74735f65  xC80.__asserts_e
 1b80 78636c75 73697665 282e2e2e 29205f5f  xclusive(...) __
 1b90 6c6f636b 5f616e6e 6f746174 65286173  lock_annotate(as
 1ba0 73657274 5f657863 6c757369 76655f6c  sert_exclusive_l
 1bb0 6f636b28 5f5f5641 5f415247 535f5f29  ock(__VA_ARGS__)
 1bc0 2900494e 544d4158 5f4d494e 20282d49  ).INTMAX_MIN (-I
 1bd0 4e544d41 585f4d41 58202d20 3129005f  NTMAX_MAX - 1)._
 1be0 5f464c54 33325f44 454e4f52 4d5f4d49  _FLT32_DENORM_MI
 1bf0 4e5f5f20 312e3430 31323938 34363433  N__ 1.4012984643
 1c00 32343831 37303730 39323337 32393538  2481707092372958
 1c10 33323839 39313631 33652d34 35463332  328991613e-45F32
 1c20 005f5f70 74725f74 20766f69 64202a00  .__ptr_t void *.
 1c30 5f5f474e 55435f53 5444435f 494e4c49  __GNUC_STDC_INLI
 1c40 4e455f5f 2031005f 5245454e 545f5241  NE__ 1._REENT_RA
 1c50 4e443438 5f414444 28707472 29202828  ND48_ADD(ptr) ((
 1c60 70747229 2d3e5f6e 65772e5f 7265656e  ptr)->_new._reen
 1c70 742e5f72 34382e5f 61646429 00574348  t._r48._add).WCH
 1c80 41525f4d 494e2028 5f5f5743 4841525f  AR_MIN (__WCHAR_
 1c90 4d494e5f 5f29005f 5f494e54 36345f43  MIN__).__INT64_C
 1ca0 28632920 63202323 204c4c00 5f524545  (c) c ## LL._REE
 1cb0 4e545f43 4845434b 5f4d4953 43287074  NT_CHECK_MISC(pt
 1cc0 72292000 5f5f464c 545f4841 535f5155  r) .__FLT_HAS_QU
 1cd0 4945545f 4e414e5f 5f203100 5f5f474e  IET_NAN__ 1.__GN
 1ce0 55435f50 41544348 4c455645 4c5f5f20  UC_PATCHLEVEL__ 
 1cf0 30005f5f 4743435f 41544f4d 49435f43  0.__GCC_ATOMIC_C
 1d00 48415233 325f545f 4c4f434b 5f465245  HAR32_T_LOCK_FRE
 1d10 45203100 6973756e 6f726465 72656428  E 1.isunordered(
 1d20 5f5f782c 5f5f7929 20285f5f 6275696c  __x,__y) (__buil
 1d30 74696e5f 6973756e 6f726465 72656420  tin_isunordered 
 1d40 285f5f78 2c205f5f 79292900 5f5f616c  (__x, __y)).__al
 1d50 6c6f635f 616c6967 6e287829 205f5f61  loc_align(x) __a
 1d60 74747269 62757465 5f5f2828 5f5f616c  ttribute__((__al
 1d70 6c6f635f 616c6967 6e5f5f28 78292929  loc_align__(x)))
 1d80 005f5749 44455f4f 5249454e 54203100  ._WIDE_ORIENT 1.
 1d90 5f5f5549 4e545f4c 45415354 31365f4d  __UINT_LEAST16_M
 1da0 41585f5f 20307866 66666600 5f737464  AX__ 0xffff._std
 1db0 6f757400 5f5f7379 6d5f6465 6661756c  out.__sym_defaul
 1dc0 74287379 6d2c696d 706c2c76 65726964  t(sym,impl,verid
 1dd0 29205f5f 61736d5f 5f28222e 73796d76  ) __asm__(".symv
 1de0 65722022 2023696d 706c2022 2c202220  er " #impl ", " 
 1df0 2373796d 20224040 22202376 65726964  #sym "@@" #verid
 1e00 29005f5f 53544443 5f564552 53494f4e  ).__STDC_VERSION
 1e10 5f5f2032 30313731 304c005f 4d425f4c  __ 201710L._MB_L
 1e20 454e5f4d 41582031 005f5f70 72656469  EN_MAX 1.__predi
 1e30 63745f74 72756528 65787029 205f5f62  ct_true(exp) __b
 1e40 75696c74 696e5f65 78706563 74282865  uiltin_expect((e
 1e50 7870292c 20312900 5f5f464c 54333258  xp), 1).__FLT32X
 1e60 5f44454e 4f524d5f 4d494e5f 5f20342e  _DENORM_MIN__ 4.
 1e70 39343036 35363435 38343132 34363534  9406564584124654
 1e80 34313736 35363837 39323836 38323231  4176568792868221
 1e90 33373265 2d333234 46333278 006c6f67  372e-324F32x.log
 1ea0 32287829 20286c6f 67202878 29202f20  2(x) (log (x) / 
 1eb0 5f4d5f4c 4e322900 5f5f464c 5436345f  _M_LN2).__FLT64_
 1ec0 4d41585f 31305f45 58505f5f 20333038  MAX_10_EXP__ 308
 1ed0 004d5354 41545553 5f465320 30783030  .MSTATUS_FS 0x00
 1ee0 30303630 30300053 59535445 4d5f5249  006000.SYSTEM_RI
 1ef0 5343565f 4953415f 4558545f 5a494353  SCV_ISA_EXT_ZICS
 1f00 52203100 5f5f6174 74726962 7574655f  R 1.__attribute_
 1f10 666f726d 61745f73 7472666d 6f6e5f5f  format_strfmon__
 1f20 28612c62 2920005f 4253445f 53495a45  (a,b) ._BSD_SIZE
 1f30 5f545f44 4546494e 45445f20 005f5f55  _T_DEFINED_ .__U
 1f40 494e545f 46415354 33325f54 5950455f  INT_FAST32_TYPE_
 1f50 5f20756e 7369676e 65642069 6e740049  _ unsigned int.I
 1f60 4f5f4150 425f534c 4156455f 305f494e  O_APB_SLAVE_0_IN
 1f70 50555420 30786638 31303030 3030005f  PUT 0xf8100000._
 1f80 5f535444 435f5554 465f3332 5f5f2031  _STDC_UTF_32__ 1
 1f90 005f5f46 4c543634 5f484153 5f515549  .__FLT64_HAS_QUI
 1fa0 45545f4e 414e5f5f 2031005f 5f464c54  ET_NAN__ 1.__FLT
 1fb0 33325f45 5053494c 4f4e5f5f 20312e31  32_EPSILON__ 1.1
 1fc0 39323039 32383935 35303738 31323530  9209289550781250
 1fd0 30303030 30303030 30303030 30303030  0000000000000000
 1fe0 3030652d 37463332 005f5f47 4e55434c  00e-7F32.__GNUCL
 1ff0 494b455f 4d415448 5f425549 4c54494e  IKE_MATH_BUILTIN
 2000 5f52454c 4f505320 005f5f46 4c545f4d  _RELOPS .__FLT_M
 2010 41585f31 305f4558 505f5f20 3338005f  AX_10_EXP__ 38._
 2020 5f504d54 28617267 73292061 72677300  _PMT(args) args.
 2030 5f5f4445 43313238 5f4d4158 5f5f2039  __DEC128_MAX__ 9
 2040 2e393939 39393939 39393939 39393939  .999999999999999
 2050 39393939 39393939 39393939 39393939  9999999999999999
 2060 39394536 31343444 4c005f5f 44454331  99E6144DL.__DEC1
 2070 32385f4d 41585f45 58505f5f 20363134  28_MAX_EXP__ 614
 2080 35005f53 59535f43 44454653 5f485f20  5._SYS_CDEFS_H_ 
 2090 005f5f66 6f726d61 745f6172 6728666d  .__format_arg(fm
 20a0 74617267 29205f5f 61747472 69627574  targ) __attribut
 20b0 655f5f28 285f5f66 6f726d61 745f6172  e__((__format_ar
 20c0 675f5f20 28666d74 61726729 2929005f  g__ (fmtarg)))._
 20d0 5f494e54 5f464153 5433325f 4d41585f  _INT_FAST32_MAX_
 20e0 5f203078 37666666 66666666 005f5f41  _ 0x7fffffff.__A
 20f0 544f4d49 435f5345 515f4353 54203500  TOMIC_SEQ_CST 5.
 2100 7372632f 6d61696e 2e630042 53505f50  src/main.c.BSP_P
 2110 4c494320 53595354 454d5f50 4c49435f  LIC SYSTEM_PLIC_
 2120 4354524c 00535354 41545553 5f55584c  CTRL.SSTATUS_UXL
 2130 20307830 30303030 30303330 30303030   0x0000000300000
 2140 30303000 5f756e73 70656369 66696564  000._unspecified
 2150 5f6c6f63 616c655f 696e666f 005f5f6e  _locale_info.__n
 2160 6565645f 77696e74 5f740043 4c494e54  eed_wint_t.CLINT
 2170 5f54494d 455f4144 44522030 78424646  _TIME_ADDR 0xBFF
 2180 38005359 5354454d 5f504c49 435f5359  8.SYSTEM_PLIC_SY
 2190 5354454d 5f535049 5f305f49 4f5f494e  STEM_SPI_0_IO_IN
 21a0 54455252 55505420 3400494e 545f4641  TERRUPT 4.INT_FA
 21b0 5354385f 4d415820 285f5f49 4e545f46  ST8_MAX (__INT_F
 21c0 41535438 5f4d4158 5f5f2900 4750494f  AST8_MAX__).GPIO
 21d0 5f494e50 55542030 78303000 5f726565  _INPUT 0x00._ree
 21e0 6e740055 494e544d 41585f4d 41582028  nt.UINTMAX_MAX (
 21f0 5f5f5549 4e544d41 585f4d41 585f5f29  __UINTMAX_MAX__)
 2200 004d5354 41545553 5f4d5852 20307830  .MSTATUS_MXR 0x0
 2210 30303830 30303000 5f5f6275 696c7469  0080000.__builti
 2220 6e5f7661 5f6c6973 74005f48 4156455f  n_va_list._HAVE_
 2230 4c4f4e47 5f444f55 424c4520 31005f5f  LONG_DOUBLE 1.__
 2240 696e745f 66617374 36345f74 5f646566  int_fast64_t_def
 2250 696e6564 2031005f 5245454e 545f454d  ined 1._REENT_EM
 2260 45524745 4e43595f 53495a45 20323500  ERGENCY_SIZE 25.
 2270 434c494e 545f4950 495f4144 44522030  CLINT_IPI_ADDR 0
 2280 78303030 30005f5f 4c44424c 5f4d4158  x0000.__LDBL_MAX
 2290 5f455850 5f5f2031 36333834 00726561  _EXP__ 16384.rea
 22a0 64526567 5f753332 286e616d 652c6f66  dReg_u32(name,of
 22b0 66736574 29207374 61746963 20696e6c  fset) static inl
 22c0 696e6520 75333220 6e616d65 28753332  ine u32 name(u32
 22d0 20726567 297b2072 65747572 6e207265   reg){ return re
 22e0 61645f75 33322872 6567202b 206f6666  ad_u32(reg + off
 22f0 73657429 3b207d00 5f5f5349 5a454f46  set); }.__SIZEOF
 2300 5f53484f 52545f5f 2032005f 53495a45  _SHORT__ 2._SIZE
 2310 5f545f44 4546494e 45442000 43415553  _T_DEFINED .CAUS
 2320 455f5343 414c4c20 39005f75 6e757365  E_SCALL 9._unuse
 2330 64005f5f 676e7563 5f76615f 6c697374  d.__gnuc_va_list
 2340 005f5f46 4c545f4d 41585f5f 20332e34  .__FLT_MAX__ 3.4
 2350 30323832 33343636 33383532 38383539  0282346638528859
 2360 38313137 30343138 33343834 35313639  8117041834845169
 2370 3235652b 33384600 5f535953 5f464541  25e+38F._SYS_FEA
 2380 54555245 535f4820 005f696e 63005f4d  TURES_H ._inc._M
 2390 41434853 54444c49 425f485f 20005f5f  ACHSTDLIB_H_ .__
 23a0 44424c5f 44454349 4d414c5f 4449475f  DBL_DECIMAL_DIG_
 23b0 5f203137 005f5f47 4e55434c 494b455f  _ 17.__GNUCLIKE_
 23c0 4255494c 54494e5f 4e455854 5f415247  BUILTIN_NEXT_ARG
 23d0 2031005f 5f464c54 3132385f 4d494e5f   1.__FLT128_MIN_
 23e0 5f20332e 33363231 30333134 33313132  _ 3.362103143112
 23f0 30393335 30363236 32363737 38313733  0935062626778173
 2400 32313735 32363065 2d343933 32463132  2175260e-4932F12
 2410 38006973 6c657373 65717561 6c285f5f  8.islessequal(__
 2420 782c5f5f 79292028 5f5f6275 696c7469  x,__y) (__builti
 2430 6e5f6973 6c657373 65717561 6c20285f  n_islessequal (_
 2440 5f782c20 5f5f7929 29005f5f 50524147  _x, __y)).__PRAG
 2450 4d415f52 45444546 494e455f 4558544e  MA_REDEFINE_EXTN
 2460 414d4520 31005f53 54444445 465f485f  AME 1._STDDEF_H_
 2470 20005f49 4545455f 205f5f66 646c6962   ._IEEE_ __fdlib
 2480 6d5f6965 65650053 59535445 4d5f5541  m_ieee.SYSTEM_UA
 2490 52545f30 5f494f5f 50415241 4d455445  RT_0_IO_PARAMETE
 24a0 525f5541 52545f43 54524c5f 434f4e46  R_UART_CTRL_CONF
 24b0 49475f50 52455f53 414d504c 494e475f  IG_PRE_SAMPLING_
 24c0 53495a45 20310049 4e544d41 585f4328  SIZE 1.INTMAX_C(
 24d0 7829205f 5f494e54 4d41585f 43287829  x) __INTMAX_C(x)
 24e0 00505452 44494646 5f4d494e 20282d50  .PTRDIFF_MIN (-P
 24f0 54524449 46465f4d 4158202d 20312900  TRDIFF_MAX - 1).
 2500 76615f73 74617274 28762c6c 29205f5f  va_start(v,l) __
 2510 6275696c 74696e5f 76615f73 74617274  builtin_va_start
 2520 28762c6c 29004d5f 4c4e3130 20322e33  (v,l).M_LN10 2.3
 2530 30323538 35303932 39393430 34353638  0258509299404568
 2540 34303200 5f666e73 005f5f57 43484152  402._fns.__WCHAR
 2550 5f4d4158 5f5f2030 78376666 66666666  _MAX__ 0x7ffffff
 2560 66005f5f 55494e54 5f464153 5436345f  f.__UINT_FAST64_
 2570 54595045 5f5f206c 6f6e6720 6c6f6e67  TYPE__ long long
 2580 20756e73 69676e65 6420696e 74005f52   unsigned int._R
 2590 45454e54 5f4d4252 544f5743 5f535441  EENT_MBRTOWC_STA
 25a0 54452870 74722920 28287074 72292d3e  TE(ptr) ((ptr)->
 25b0 5f6e6577 2e5f7265 656e742e 5f6d6272  _new._reent._mbr
 25c0 746f7763 5f737461 74652900 5f57494e  towc_state)._WIN
 25d0 545f5420 005f6d62 72746f77 635f7374  T_T ._mbrtowc_st
 25e0 61746500 5f5f6c6f 636b5f63 6c6f7365  ate.__lock_close
 25f0 286c6f63 6b292028 28766f69 64292030  (lock) ((void) 0
 2600 29005f63 6c6f7365 004d4544 454c4547  )._close.MEDELEG
 2610 5f555345 525f454e 5649524f 4e4e454d  _USER_ENVIRONNEM
 2620 454e545f 43414c4c 20283120 3c3c2038  ENT_CALL (1 << 8
 2630 29007369 676e6761 6d20282a 5f5f7369  ).signgam (*__si
 2640 676e6761 6d282929 0046505f 5a45524f  gngam()).FP_ZERO
 2650 2032005f 5f424947 47455354 5f414c49   2.__BIGGEST_ALI
 2660 474e4d45 4e545f5f 20313600 5349475f  GNMENT__ 16.SIG_
 2670 41544f4d 49435f4d 41582028 5f5f5354  ATOMIC_MAX (__ST
 2680 44494e54 5f455850 28494e54 5f4d4158  DINT_EXP(INT_MAX
 2690 2929005f 5f6e6f69 6e6c696e 65205f5f  )).__noinline __
 26a0 61747472 69627574 655f5f20 28285f5f  attribute__ ((__
 26b0 6e6f696e 6c696e65 5f5f2929 00636c69  noinline__)).cli
 26c0 6e745f67 65745469 6d654c6f 77006d61  nt_getTimeLow.ma
 26d0 6368696e 6554696d 65725f73 6574436d  chineTimer_setCm
 26e0 7028702c 636d7029 20636c69 6e745f73  p(p,cmp) clint_s
 26f0 6574436d 7028702c 20636d70 2c203029  etCmp(p, cmp, 0)
 2700 3b005f5f 44454333 325f4d49 4e5f4558  ;.__DEC32_MIN_EX
 2710 505f5f20 282d3934 29004750 494f5f4f  P__ (-94).GPIO_O
 2720 55545055 54203078 30340053 59535445  UTPUT 0x04.SYSTE
 2730 4d5f4932 435f315f 494f5f43 54524c5f  M_I2C_1_IO_CTRL_
 2740 53495a45 20307831 3030005f 5f776561  SIZE 0x100.__wea
 2750 6b5f7379 6d626f6c 205f5f61 74747269  k_symbol __attri
 2760 62757465 5f5f2828 5f5f7765 616b5f5f  bute__((__weak__
 2770 29290053 59535445 4d5f5350 495f305f  )).SYSTEM_SPI_0_
 2780 494f5f43 54524c5f 53495a45 20307831  IO_CTRL_SIZE 0x1
 2790 30303000 53595354 454d5f47 50494f5f  000.SYSTEM_GPIO_
 27a0 305f494f 5f435452 4c203078 66383031  0_IO_CTRL 0xf801
 27b0 36303030 005f5f75 73656420 5f5f6174  6000.__used __at
 27c0 74726962 7574655f 5f28285f 5f757365  tribute__((__use
 27d0 645f5f29 29005f5f 67656e65 72696328  d__)).__generic(
 27e0 65787072 2c742c79 65732c6e 6f29205f  expr,t,yes,no) _
 27f0 47656e65 72696328 65787072 2c20743a  Generic(expr, t:
 2800 20796573 2c206465 6661756c 743a206e   yes, default: n
 2810 6f29005f 5245454e 545f454d 45524745  o)._REENT_EMERGE
 2820 4e435928 70747229 20282870 7472292d  NCY(ptr) ((ptr)-
 2830 3e5f656d 65726765 6e637929 00535953  >_emergency).SYS
 2840 54454d5f 55415254 5f305f49 4f5f5041  TEM_UART_0_IO_PA
 2850 52414d45 5445525f 494e4954 5f434f4e  RAMETER_INIT_CON
 2860 4649475f 53544f50 204f4e45 005f5f55  FIG_STOP ONE.__U
 2870 494e5438 5f4d4158 5f5f2030 78666600  INT8_MAX__ 0xff.
 2880 5f5f5f69 6e743136 5f745f64 6566696e  ___int16_t_defin
 2890 65642031 005f5f46 4c545f45 5053494c  ed 1.__FLT_EPSIL
 28a0 4f4e5f5f 20312e31 39323039 32383935  ON__ 1.192092895
 28b0 35303738 31323530 30303030 30303030  5078125000000000
 28c0 30303030 30303030 3030652d 37460042  0000000000e-7F.B
 28d0 49545f32 31202831 203c3c20 32312900  IT_21 (1 << 21).
 28e0 6273705f 7544656c 61792875 73656329  bsp_uDelay(usec)
 28f0 20636c69 6e745f75 44656c61 79287573   clint_uDelay(us
 2900 65632c20 53595354 454d5f43 4c494e54  ec, SYSTEM_CLINT
 2910 5f485a2c 20535953 54454d5f 434c494e  _HZ, SYSTEM_CLIN
 2920 545f4354 524c293b 005f7374 64696e00  T_CTRL);._stdin.
 2930 5f5f4445 43494d41 4c5f4449 475f5f20  __DECIMAL_DIG__ 
 2940 33360067 70696f5f 6765744f 75747075  36.gpio_getOutpu
 2950 74005f5f 44424c5f 4841535f 44454e4f  t.__DBL_HAS_DENO
 2960 524d5f5f 2031006d 61636869 6e655469  RM__ 1.machineTi
 2970 6d65725f 7544656c 61792875 7365632c  mer_uDelay(usec,
 2980 687a2c72 65672920 636c696e 745f7544  hz,reg) clint_uD
 2990 656c6179 28757365 632c2068 7a2c2072  elay(usec, hz, r
 29a0 6567293b 005f5f43 435f5355 50504f52  eg);.__CC_SUPPOR
 29b0 54535f5f 5f494e4c 494e4520 31006578  TS___INLINE 1.ex
 29c0 7465726e 616c496e 74657272 75707400  ternalInterrupt.
 29d0 494e544d 41585f4d 41582028 5f5f494e  INTMAX_MAX (__IN
 29e0 544d4158 5f4d4158 5f5f2900 494e5433  TMAX_MAX__).INT3
 29f0 325f4d41 5820285f 5f494e54 33325f4d  2_MAX (__INT32_M
 2a00 41585f5f 29006770 696f5f73 65744f75  AX__).gpio_setOu
 2a10 74707574 456e6162 6c650053 59535445  tputEnable.SYSTE
 2a20 4d5f5249 5343565f 4953415f 4558545f  M_RISCV_ISA_EXT_
 2a30 46203000 5f545f50 54524449 46465f20  F 0._T_PTRDIFF_ 
 2a40 005f5f61 74747269 62757465 5f6d616c  .__attribute_mal
 2a50 6c6f635f 5f20005f 5f494e54 5f4c4541  loc__ .__INT_LEA
 2a60 53543136 5f4d4158 5f5f2030 78376666  ST16_MAX__ 0x7ff
 2a70 66005f5f 464c5431 32385f4d 41585f45  f.__FLT128_MAX_E
 2a80 58505f5f 20313633 3834005f 5f4c4541  XP__ 16384.__LEA
 2a90 53543820 22686822 005f5f6e 6565645f  ST8 "hh".__need_
 2aa0 73697a65 5f742000 534f435f 4820005f  size_t .SOC_H ._
 2ab0 5f726574 75726e73 5f747769 6365205f  _returns_twice _
 2ac0 5f617474 72696275 74655f5f 28285f5f  _attribute__((__
 2ad0 72657475 726e735f 74776963 655f5f29  returns_twice__)
 2ae0 29005359 5354454d 5f554152 545f305f  ).SYSTEM_UART_0_
 2af0 494f5f50 4152414d 45544552 5f554152  IO_PARAMETER_UAR
 2b00 545f4354 524c5f43 4f4e4649 475f5341  T_CTRL_CONFIG_SA
 2b10 4d504c49 4e475f53 495a4520 35005f45  MPLING_SIZE 5._E
 2b20 4e445f53 54445f43 20006973 6e616e28  ND_STD_C .isnan(
 2b30 5f5f7829 20285f5f 6275696c 74696e5f  __x) (__builtin_
 2b40 69736e61 6e20285f 5f782929 00504d50  isnan (__x)).PMP
 2b50 5f572030 78303200 5f5f6861 735f696e  _W 0x02.__has_in
 2b60 636c7564 655f6e65 78742853 54522920  clude_next(STR) 
 2b70 5f5f6861 735f696e 636c7564 655f6e65  __has_include_ne
 2b80 78745f5f 28535452 29004558 49545f46  xt__(STR).EXIT_F
 2b90 41494c55 52452031 0055494e 545f4c45  AILURE 1.UINT_LE
 2ba0 41535431 365f4d41 5820285f 5f55494e  AST16_MAX (__UIN
 2bb0 545f4c45 41535431 365f4d41 585f5f29  T_LEAST16_MAX__)
 2bc0 005f5f55 494e5433 325f4328 63292063  .__UINT32_C(c) c
 2bd0 20232320 554c005f 5f737472 6674696d   ## UL.__strftim
 2be0 656c696b 6528666d 74617267 2c666972  elike(fmtarg,fir
 2bf0 73747661 72617267 29205f5f 61747472  stvararg) __attr
 2c00 69627574 655f5f28 285f5f66 6f726d61  ibute__((__forma
 2c10 745f5f20 285f5f73 74726674 696d655f  t__ (__strftime_
 2c20 5f2c2066 6d746172 672c2066 69727374  _, fmtarg, first
 2c30 76617261 72672929 29005f4e 756c6c5f  vararg)))._Null_
 2c40 756e7370 65636966 69656420 00424954  unspecified .BIT
 2c50 5f323320 2831203c 3c203233 29005f5f  _23 (1 << 23).__
 2c60 4743435f 41544f4d 49435f53 484f5254  GCC_ATOMIC_SHORT
 2c70 5f4c4f43 4b5f4652 45452031 005f5743  _LOCK_FREE 1._WC
 2c80 4841525f 545f4445 46494e45 445f2000  HAR_T_DEFINED_ .
 2c90 4253505f 4d414348 494e455f 54494d45  BSP_MACHINE_TIME
 2ca0 52205359 5354454d 5f434c49 4e545f43  R SYSTEM_CLINT_C
 2cb0 54524c00 46505f49 4c4f4742 4e414e20  TRL.FP_ILOGBNAN 
 2cc0 5f5f494e 545f4d41 585f5f00 48554745  __INT_MAX__.HUGE
 2cd0 5f56414c 4c20285f 5f627569 6c74696e  _VALL (__builtin
 2ce0 5f687567 655f7661 6c6c2829 29004d5f  _huge_vall()).M_
 2cf0 4c4f4732 4520312e 34343236 39353034  LOG2E 1.44269504
 2d00 30383838 39363334 30373400 4249545f  08889634074.BIT_
 2d10 33202831 203c3c20 33290042 49545f31  3 (1 << 3).BIT_1
 2d20 30202831 203c3c20 31302900 494e545f  0 (1 << 10).INT_
 2d30 4c454153 5433325f 4d415820 285f5f49  LEAST32_MAX (__I
 2d40 4e545f4c 45415354 33325f4d 41585f5f  NT_LEAST32_MAX__
 2d50 29005f6c 6f63616c 6500494e 545f4c45  )._locale.INT_LE
 2d60 41535433 325f4d49 4e20282d 5f5f494e  AST32_MIN (-__IN
 2d70 545f4c45 41535433 325f4d41 585f5f20  T_LEAST32_MAX__ 
 2d80 2d203129 00554152 545f4652 414d455f  - 1).UART_FRAME_
 2d90 434f4e46 49472030 78304300 4249545f  CONFIG 0x0C.BIT_
 2da0 32342028 31203c3c 20323429 00637372  24 (1 << 24).csr
 2db0 5f636c65 61722863 73722c76 616c2920  _clear(csr,val) 
 2dc0 287b2075 6e736967 6e656420 6c6f6e67  ({ unsigned long
 2dd0 205f5f76 203d2028 756e7369 676e6564   __v = (unsigned
 2de0 206c6f6e 67292876 616c293b 205f5f61   long)(val); __a
 2df0 736d5f5f 205f5f76 6f6c6174 696c655f  sm__ __volatile_
 2e00 5f202822 63737263 20222023 63737220  _ ("csrc " #csr 
 2e10 222c2025 3022203a 203a2022 724b2220  ", %0" : : "rK" 
 2e20 285f5f76 29293b20 7d290063 73725f72  (__v)); }).csr_r
 2e30 6561645f 73657428 6373722c 76616c29  ead_set(csr,val)
 2e40 20287b20 756e7369 676e6564 206c6f6e   ({ unsigned lon
 2e50 67205f5f 76203d20 28756e73 69676e65  g __v = (unsigne
 2e60 64206c6f 6e672928 76616c29 3b205f5f  d long)(val); __
 2e70 61736d5f 5f205f5f 766f6c61 74696c65  asm__ __volatile
 2e80 5f5f2028 22637372 72732025 302c2022  __ ("csrrs %0, "
 2e90 20236373 7220222c 20253122 203a2022   #csr ", %1" : "
 2ea0 3d722220 285f5f76 29203a20 22724b22  =r" (__v) : "rK"
 2eb0 20285f5f 7629293b 205f5f76 3b207d29   (__v)); __v; })
 2ec0 005f5f47 43435f41 544f4d49 435f5445  .__GCC_ATOMIC_TE
 2ed0 53545f41 4e445f53 45545f54 52554556  ST_AND_SET_TRUEV
 2ee0 414c2031 00636c69 6e745f75 44656c61  AL 1.clint_uDela
 2ef0 7900454e 41424c45 5f46505f 4558504f  y.ENABLE_FP_EXPO
 2f00 4e454e54 49414c5f 53555050 4f525420  NENTIAL_SUPPORT 
 2f10 30005f5f 4d495343 5f564953 49424c45  0.__MISC_VISIBLE
 2f20 2031005f 56415f4c 4953545f 44454649   1._VA_LIST_DEFI
 2f30 4e454420 005f5f57 43484152 5f4d494e  NED .__WCHAR_MIN
 2f40 5f5f2028 2d5f5f57 43484152 5f4d4158  __ (-__WCHAR_MAX
 2f50 5f5f202d 20312900 5f5f464c 5433325f  __ - 1).__FLT32_
 2f60 4841535f 51554945 545f4e41 4e5f5f20  HAS_QUIET_NAN__ 
 2f70 31005f5f 4f42534f 4c455445 5f4d4154  1.__OBSOLETE_MAT
 2f80 48205f5f 4f42534f 4c455445 5f4d4154  H __OBSOLETE_MAT
 2f90 485f4445 4641554c 54004d5f 4c4e324c  H_DEFAULT.M_LN2L
 2fa0 4f20312e 39303832 31343932 39323730  O 1.908214929270
 2fb0 35383737 30303045 2d313000 5f5f616c  5877000E-10.__al
 2fc0 6c6f635f 73697a65 32286e2c 7829205f  loc_size2(n,x) _
 2fd0 5f617474 72696275 74655f5f 28285f5f  _attribute__((__
 2fe0 616c6c6f 635f7369 7a655f5f 286e2c20  alloc_size__(n, 
 2ff0 78292929 005f5f4c 44424c5f 4841535f  x))).__LDBL_HAS_
 3000 494e4649 4e495459 5f5f2031 006c696d  INFINITY__ 1.lim
 3010 6974005f 5f444543 33325f4d 41585f5f  it.__DEC32_MAX__
 3020 20392e39 39393939 39453936 4446005f   9.999999E96DF._
 3030 5f464c54 3332585f 4d41585f 31305f45  _FLT32X_MAX_10_E
 3040 58505f5f 20333038 00504d50 5f544f52  XP__ 308.PMP_TOR
 3050 20307830 38005359 5354454d 5f554152   0x08.SYSTEM_UAR
 3060 545f305f 494f5f50 4152414d 45544552  T_0_IO_PARAMETER
 3070 5f425553 5f43414e 5f575249 54455f46  _BUS_CAN_WRITE_F
 3080 52414d45 5f434f4e 46494720 31005f5f  RAME_CONFIG 1.__
 3090 64656164 32205f5f 61747472 69627574  dead2 __attribut
 30a0 655f5f28 285f5f6e 6f726574 75726e5f  e__((__noreturn_
 30b0 5f292900 5f5f6f66 66736574 6f662874  _)).__offsetof(t
 30c0 7970652c 6669656c 6429206f 66667365  ype,field) offse
 30d0 746f6628 74797065 2c206669 656c6429  tof(type, field)
 30e0 00555345 5f475020 31005f5f 5349475f  .USE_GP 1.__SIG_
 30f0 41544f4d 49435f4d 494e5f5f 20282d5f  ATOMIC_MIN__ (-_
 3100 5f534947 5f41544f 4d49435f 4d41585f  _SIG_ATOMIC_MAX_
 3110 5f202d20 31290053 59535445 4d5f4252  _ - 1).SYSTEM_BR
 3120 49444745 5f424d42 20307830 00535953  IDGE_BMB 0x0.SYS
 3130 54454d5f 504c4943 5f535953 54454d5f  TEM_PLIC_SYSTEM_
 3140 55415254 5f305f49 4f5f494e 54455252  UART_0_IO_INTERR
 3150 55505420 31005f5f 55494e54 5f4c4541  UPT 1.__UINT_LEA
 3160 5354385f 4d41585f 5f203078 6666005f  ST8_MAX__ 0xff._
 3170 5f474343 5f41544f 4d49435f 4c4f4e47  _GCC_ATOMIC_LONG
 3180 5f4c4f43 4b5f4652 45452031 005f5f44  _LOCK_FREE 1.__D
 3190 45433634 5f4d494e 5f455850 5f5f2028  EC64_MIN_EXP__ (
 31a0 2d333832 29004d53 54415455 535f5355  -382).MSTATUS_SU
 31b0 4d203078 30303034 30303030 00627566  M 0x00040000.buf
 31c0 66657200 5f5f464c 54363458 5f484153  fer.__FLT64X_HAS
 31d0 5f494e46 494e4954 595f5f20 31005349  _INFINITY__ 1.SI
 31e0 475f4154 4f4d4943 5f4d494e 20282d5f  G_ATOMIC_MIN (-_
 31f0 5f535444 494e545f 45585028 494e545f  _STDINT_EXP(INT_
 3200 4d415829 202d2031 29005f63 6f6f6b69  MAX) - 1)._cooki
 3210 65005f5f 44424c5f 4d41585f 5f202828  e.__DBL_MAX__ ((
 3220 646f7562 6c652931 2e373937 36393331  double)1.7976931
 3230 33343836 32333135 37303831 34353237  3486231570814527
 3240 34323337 33313730 34333537 652b3330  423731704357e+30
 3250 384c2900 5f494e54 31365f54 5f444543  8L)._INT16_T_DEC
 3260 4c415245 44200069 6e737472 75637469  LARED .instructi
 3270 6f6e5f63 61636865 5f696e76 616c6964  on_cache_invalid
 3280 61746528 29206173 6d282266 656e6365  ate() asm("fence
 3290 2e692229 3b004249 545f3134 20283120  .i");.BIT_14 (1 
 32a0 3c3c2031 3429005f 57414e54 5f494f5f  << 14)._WANT_IO_
 32b0 4c4f4e47 5f444f55 424c4520 31005f77  LONG_DOUBLE 1._w
 32c0 6473004e 414e2028 5f5f6275 696c7469  ds.NAN (__builti
 32d0 6e5f6e61 6e662822 22292900 5f5f494e  n_nanf("")).__IN
 32e0 545f4c45 41535431 365f5749 4454485f  T_LEAST16_WIDTH_
 32f0 5f203136 004d4544 454c4547 5f53544f  _ 16.MEDELEG_STO
 3300 52455f50 4147455f 4641554c 54202831  RE_PAGE_FAULT (1
 3310 203c3c20 31352900 53595354 454d5f55   << 15).SYSTEM_U
 3320 4152545f 305f494f 5f504152 414d4554  ART_0_IO_PARAMET
 3330 45525f42 55535f43 414e5f57 52495445  ER_BUS_CAN_WRITE
 3340 5f434c4f 434b5f44 49564944 45525f43  _CLOCK_DIVIDER_C
 3350 4f4e4649 47203100 5f415445 5849545f  ONFIG 1._ATEXIT_
 3360 494e4954 207b5f4e 554c4c2c 20302c20  INIT {_NULL, 0, 
 3370 7b5f4e55 4c4c7d2c 207b7b5f 4e554c4c  {_NULL}, {{_NULL
 3380 7d2c207b 5f4e554c 4c7d2c20 302c2030  }, {_NULL}, 0, 0
 3390 7d7d005f 7369675f 66756e63 005f5f44  }}._sig_func.__D
 33a0 45433634 5f535542 4e4f524d 414c5f4d  EC64_SUBNORMAL_M
 33b0 494e5f5f 20302e30 30303030 30303030  IN__ 0.000000000
 33c0 30303030 3031452d 33383344 44005359  000001E-383DD.SY
 33d0 5354454d 5f434f52 45535f30 5f535550  STEM_CORES_0_SUP
 33e0 45525649 534f5220 30006670 636c6173  ERVISOR 0.fpclas
 33f0 73696679 285f5f78 2920285f 5f627569  sify(__x) (__bui
 3400 6c74696e 5f667063 6c617373 69667920  ltin_fpclassify 
 3410 2846505f 4e414e2c 2046505f 494e4649  (FP_NAN, FP_INFI
 3420 4e495445 2c204650 5f4e4f52 4d414c2c  NITE, FP_NORMAL,
 3430 2046505f 5355424e 4f524d41 4c2c2046   FP_SUBNORMAL, F
 3440 505f5a45 524f2c20 5f5f7829 29005f5f  P_ZERO, __x)).__
 3450 5f696e74 5f6c6561 73743332 5f745f64  _int_least32_t_d
 3460 6566696e 65642031 00535354 41545553  efined 1.SSTATUS
 3470 5f534945 20307830 30303030 30303200  _SIE 0x00000002.
 3480 5f6f6666 73657400 4249545f 31372028  _offset.BIT_17 (
 3490 31203c3c 20313729 004d5354 41545553  1 << 17).MSTATUS
 34a0 5f535049 45203078 30303030 30303230  _SPIE 0x00000020
 34b0 005f6376 74627566 005f5f55 5345525f  ._cvtbuf.__USER_
 34c0 4c414245 4c5f5052 45464958 5f5f2000  LABEL_PREFIX__ .
 34d0 5f5f5549 4e543634 5f4d4158 5f5f2030  __UINT64_MAX__ 0
 34e0 78666666 66666666 66666666 66666666  xfffffffffffffff
 34f0 66554c4c 005f696f 62730055 494e5433  fULL._iobs.UINT3
 3500 325f4328 7829205f 5f55494e 5433325f  2_C(x) __UINT32_
 3510 43287829 005f4154 46494c45 5f534f55  C(x)._ATFILE_SOU
 3520 52434500 494e545f 46415354 31365f4d  RCE.INT_FAST16_M
 3530 494e2028 2d5f5f49 4e545f46 41535431  IN (-__INT_FAST1
 3540 365f4d41 585f5f20 2d203129 005f5245  6_MAX__ - 1)._RE
 3550 454e545f 4d424c45 4e5f5354 41544528  ENT_MBLEN_STATE(
 3560 70747229 20282870 7472292d 3e5f6e65  ptr) ((ptr)->_ne
 3570 772e5f72 65656e74 2e5f6d62 6c656e5f  w._reent._mblen_
 3580 73746174 6529005f 5f747279 6c6f636b  state).__trylock
 3590 735f7368 61726564 282e2e2e 29205f5f  s_shared(...) __
 35a0 6c6f636b 5f616e6e 6f746174 65287368  lock_annotate(sh
 35b0 61726564 5f747279 6c6f636b 5f66756e  ared_trylock_fun
 35c0 6374696f 6e285f5f 56415f41 5247535f  ction(__VA_ARGS_
 35d0 5f292900 5f5f494e 545f4c45 41535438  _)).__INT_LEAST8
 35e0 5f4d4158 5f5f2030 78376600 5f5f4e45  _MAX__ 0x7f.__NE
 35f0 574c4942 5f485f5f 20310049 4e543332  WLIB_H__ 1.INT32
 3600 5f4d494e 20282d5f 5f494e54 33325f4d  _MIN (-__INT32_M
 3610 41585f5f 202d2031 29006973 66696e69  AX__ - 1).isfini
 3620 7465285f 5f782920 285f5f62 75696c74  te(__x) (__built
 3630 696e5f69 7366696e 69746520 285f5f78  in_isfinite (__x
 3640 29290042 49545f31 38202831 203c3c20  )).BIT_18 (1 << 
 3650 31382900 756e7369 676e6564 20736967  18).unsigned sig
 3660 6e656400 4d5f494e 564c4e32 20312e34  ned.M_INVLN2 1.4
 3670 34323639 35303430 38383839 36333338  4269504088896338
 3680 37304530 00535354 41545553 5f535050  70E0.SSTATUS_SPP
 3690 20307830 30303030 31303000 5f494e54   0x00000100._INT
 36a0 5054525f 45515f49 4e542000 5f5f464c  PTR_EQ_INT .__FL
 36b0 54333258 5f4d4158 5f455850 5f5f2031  T32X_MAX_EXP__ 1
 36c0 30323400 5f5f6861 735f696e 636c7564  024.__has_includ
 36d0 65285354 5229205f 5f686173 5f696e63  e(STR) __has_inc
 36e0 6c756465 5f5f2853 54522900 636f6e66  lude__(STR).conf
 36f0 69674d54 494d4543 4d505f42 4153455f  igMTIMECMP_BASE_
 3700 41444452 45535320 28425350 5f434c49  ADDRESS (BSP_CLI
 3710 4e54202b 20307834 30303029 005f5f55  NT + 0x4000).__U
 3720 494e545f 4c454153 5433325f 4d41585f  INT_LEAST32_MAX_
 3730 5f203078 66666666 66666666 554c0045  _ 0xffffffffUL.E
 3740 4e41424c 455f464c 4f415449 4e475f50  NABLE_FLOATING_P
 3750 4f494e54 5f535550 504f5254 20535953  OINT_SUPPORT SYS
 3760 54454d5f 434f5245 535f305f 46505500  TEM_CORES_0_FPU.
 3770 53595354 454d5f52 414d5f41 5f435452  SYSTEM_RAM_A_CTR
 3780 4c203078 66393030 30303030 005f5f73  L 0xf9000000.__s
 3790 65637469 6f6e2878 29205f5f 61747472  ection(x) __attr
 37a0 69627574 655f5f28 285f5f73 65637469  ibute__((__secti
 37b0 6f6e5f5f 28782929 29004d53 54415455  on__(x))).MSTATU
 37c0 535f5358 4c203078 30303030 30303043  S_SXL 0x0000000C
 37d0 30303030 30303030 005f5f49 4e545f4c  00000000.__INT_L
 37e0 45415354 36345f57 49445448 5f5f2036  EAST64_WIDTH__ 6
 37f0 34005f5f 464c545f 4841535f 494e4649  4.__FLT_HAS_INFI
 3800 4e495459 5f5f2031 00777269 74655265  NITY__ 1.writeRe
 3810 675f7533 32286e61 6d652c6f 66667365  g_u32(name,offse
 3820 74292073 74617469 6320696e 6c696e65  t) static inline
 3830 20766f69 64206e61 6d652875 33322072   void name(u32 r
 3840 65672c20 75333220 76616c75 65297b20  eg, u32 value){ 
 3850 77726974 655f7533 32287661 6c75652c  write_u32(value,
 3860 20726567 202b206f 66667365 74293b20   reg + offset); 
 3870 7d005f5f 494e5438 5f4d4158 5f5f2030  }.__INT8_MAX__ 0
 3880 78376600 5f5f4743 435f4841 56455f44  x7f.__GCC_HAVE_D
 3890 57415246 325f4346 495f4153 4d203100  WARF2_CFI_ASM 1.
 38a0 5f5f5f69 6e74385f 745f6465 66696e65  ___int8_t_define
 38b0 64203100 5f703573 005f5f47 43435f49  d 1._p5s.__GCC_I
 38c0 45435f35 35395f43 4f4d504c 45582030  EC_559_COMPLEX 0
 38d0 005f5359 535f5f54 59504553 5f482000  ._SYS__TYPES_H .
 38e0 5f5f474e 55435f5f 2038005f 5f55494e  __GNUC__ 8.__UIN
 38f0 5431365f 54595045 5f5f2073 686f7274  T16_TYPE__ short
 3900 20756e73 69676e65 6420696e 74005f50   unsigned int._P
 3910 4f534958 5f534f55 52434500 52414e44  OSIX_SOURCE.RAND
 3920 5f4d4158 205f5f52 414e445f 4d415800  _MAX __RAND_MAX.
 3930 5f5f4c44 424c5f44 4543494d 414c5f44  __LDBL_DECIMAL_D
 3940 49475f5f 20333600 5f5f464c 54363458  IG__ 36.__FLT64X
 3950 5f4d494e 5f31305f 4558505f 5f20282d  _MIN_10_EXP__ (-
 3960 34393331 29005f5f 55494e54 33325f4d  4931).__UINT32_M
 3970 41585f5f 20307866 66666666 66666655  AX__ 0xffffffffU
 3980 4c005f5f 73646964 696e6974 005f5f44  L.__sdidinit.__D
 3990 45433332 5f4d4158 5f455850 5f5f2039  EC32_MAX_EXP__ 9
 39a0 37005f54 5f53495a 455f2000 5f5f464c  7._T_SIZE_ .__FL
 39b0 545f4556 414c5f4d 4554484f 445f5453  T_EVAL_METHOD_TS
 39c0 5f313836 36315f33 5f5f2030 00746172  _18661_3__ 0.tar
 39d0 67657400 696e7420 2b320067 70696f5f  get.int +2.gpio_
 39e0 73657449 6e746572 72757074 52697365  setInterruptRise
 39f0 456e6162 6c650049 4e54385f 43287829  Enable.INT8_C(x)
 3a00 205f5f49 4e54385f 43287829 005f5f6c   __INT8_C(x).__l
 3a10 6f636b5f 61637175 6972655f 72656375  ock_acquire_recu
 3a20 72736976 65286c6f 636b2920 2828766f  rsive(lock) ((vo
 3a30 69642920 3029005f 5f726573 74726963  id) 0).__restric
 3a40 74207265 73747269 6374005f 5f55494e  t restrict.__UIN
 3a50 545f4641 5354385f 54595045 5f5f2075  T_FAST8_TYPE__ u
 3a60 6e736967 6e656420 696e7400 5f5f464c  nsigned int.__FL
 3a70 5436345f 44454e4f 524d5f4d 494e5f5f  T64_DENORM_MIN__
 3a80 20342e39 34303635 36343538 34313234   4.9406564584124
 3a90 36353434 31373635 36383739 32383638  6544176568792868
 3aa0 32323133 3732652d 33323446 36340053  221372e-324F64.S
 3ab0 59535445 4d5f434f 5245535f 305f4d4d  YSTEM_CORES_0_MM
 3ac0 55203000 5f4c4942 5f564552 53494f4e  U 0._LIB_VERSION
 3ad0 205f5f66 646c6962 5f766572 73696f6e   __fdlib_version
 3ae0 005f5f72 65717569 7265735f 756e6c6f  .__requires_unlo
 3af0 636b6564 282e2e2e 29205f5f 6c6f636b  cked(...) __lock
 3b00 5f616e6e 6f746174 65286c6f 636b735f  _annotate(locks_
 3b10 6578636c 75646564 285f5f56 415f4152  excluded(__VA_AR
 3b20 47535f5f 29290045 4e41424c 455f5345  GS__)).ENABLE_SE
 3b30 4d49484f 5354494e 475f5052 494e5420  MIHOSTING_PRINT 
 3b40 30005f5f 494e5433 325f4d41 585f5f20  0.__INT32_MAX__ 
 3b50 30783766 66666666 66664c00 5f5f6d69  0x7fffffffL.__mi
 3b60 6e5f7369 7a652878 29207374 61746963  n_size(x) static
 3b70 20287829 005f5449 4d45525f 545f2075   (x)._TIMER_T_ u
 3b80 6e736967 6e656420 6c6f6e67 005f4c4f  nsigned long._LO
 3b90 434b5f52 45435552 53495645 5f54005f  CK_RECURSIVE_T._
 3ba0 5f494e54 5f4c4541 53543634 5f4d4158  _INT_LEAST64_MAX
 3bb0 5f5f2030 78376666 66666666 66666666  __ 0x7ffffffffff
 3bc0 66666666 664c4c00 5f5f6e75 6c6c5f73  fffffLL.__null_s
 3bd0 656e7469 6e656c20 5f5f6174 74726962  entinel __attrib
 3be0 7574655f 5f28285f 5f73656e 74696e65  ute__((__sentine
 3bf0 6c5f5f29 29005f5f 6e656564 5f4e554c  l__)).__need_NUL
 3c00 4c200042 49545f39 20283120 3c3c2039  L .BIT_9 (1 << 9
 3c10 29005f44 45464155 4c545f53 4f555243  )._DEFAULT_SOURC
 3c20 45203100 5f5f464c 5433325f 4d414e54  E 1.__FLT32_MANT
 3c30 5f444947 5f5f2032 34006f66 66736574  _DIG__ 24.offset
 3c40 6f662854 5950452c 4d454d42 45522920  of(TYPE,MEMBER) 
 3c50 5f5f6275 696c7469 6e5f6f66 66736574  __builtin_offset
 3c60 6f662028 54595045 2c204d45 4d424552  of (TYPE, MEMBER
 3c70 29005f5f 55494e54 36345f43 28632920  ).__UINT64_C(c) 
 3c80 63202323 20554c4c 005f5f55 494e545f  c ## ULL.__UINT_
 3c90 4c454153 5436345f 54595045 5f5f206c  LEAST64_TYPE__ l
 3ca0 6f6e6720 6c6f6e67 20756e73 69676e65  ong long unsigne
 3cb0 6420696e 74004d41 54485f45 52524e4f  d int.MATH_ERRNO
 3cc0 2031005f 5f464c54 3634585f 4d414e54   1.__FLT64X_MANT
 3cd0 5f444947 5f5f2031 3133005f 57434841  _DIG__ 113._WCHA
 3ce0 525f545f 44454649 4e454420 005f5f47  R_T_DEFINED .__G
 3cf0 43435f41 544f4d49 435f4348 41523136  CC_ATOMIC_CHAR16
 3d00 5f545f4c 4f434b5f 46524545 20310063  _T_LOCK_FREE 1.c
 3d10 73725f77 72697465 28637372 2c76616c  sr_write(csr,val
 3d20 2920287b 20756e73 69676e65 64206c6f  ) ({ unsigned lo
 3d30 6e67205f 5f76203d 2028756e 7369676e  ng __v = (unsign
 3d40 6564206c 6f6e6729 2876616c 293b205f  ed long)(val); _
 3d50 5f61736d 5f5f205f 5f766f6c 6174696c  _asm__ __volatil
 3d60 655f5f20 28226373 72772022 20236373  e__ ("csrw " #cs
 3d70 7220222c 20253022 203a203a 2022724b  r ", %0" : : "rK
 3d80 2220285f 5f762929 3b207d29 004d5354  " (__v)); }).MST
 3d90 41545553 5f485050 20307830 30303030  ATUS_HPP 0x00000
 3da0 36303000 5f5f4e55 4c4c4142 494c4954  600.__NULLABILIT
 3db0 595f5052 41474d41 5f505553 4820005f  Y_PRAGMA_PUSH ._
 3dc0 7369676e 616c5f62 7566005f 5f44424c  signal_buf.__DBL
 3dd0 5f4d4158 5f455850 5f5f2031 30323400  _MAX_EXP__ 1024.
 3de0 5f5f4641 53543634 20226c6c 22005f5f  __FAST64 "ll".__
 3df0 41544f4d 49435f52 454c4541 53452033  ATOMIC_RELEASE 3
 3e00 00756e73 69676e65 64202b30 005f5f46  .unsigned +0.__F
 3e10 4c543332 585f4841 535f4445 4e4f524d  LT32X_HAS_DENORM
 3e20 5f5f2031 005f5f46 4c545f4d 414e545f  __ 1.__FLT_MANT_
 3e30 4449475f 5f203234 005f5241 4e443438  DIG__ 24._RAND48
 3e40 5f534545 445f3120 28307861 62636429  _SEED_1 (0xabcd)
 3e50 005f5f49 4e545f46 41535433 325f5459  .__INT_FAST32_TY
 3e60 50455f5f 20696e74 005f5354 44415247  PE__ int._STDARG
 3e70 5f482000 5f5f5f69 6e745f70 74726469  _H .___int_ptrdi
 3e80 66665f74 5f682000 5f5f4f50 54494d49  ff_t_h .__OPTIMI
 3e90 5a455f5f 2031004d 4544454c 45475f4c  ZE__ 1.MEDELEG_L
 3ea0 4f41445f 50414745 5f464155 4c542028  OAD_PAGE_FAULT (
 3eb0 31203c3c 20313329 005f494e 5433325f  1 << 13)._INT32_
 3ec0 545f4445 434c4152 45442000 5f426967  T_DECLARED ._Big
 3ed0 696e7400 5f5f464c 5436345f 4d494e5f  int.__FLT64_MIN_
 3ee0 5f20322e 32323530 37333835 38353037  _ 2.225073858507
 3ef0 32303133 38333039 30323332 37313733  2013830902327173
 3f00 33323430 34303665 2d333038 46363400  3240406e-308F64.
 3f10 5f5f696e 74323020 2b32005f 5f494e54  __int20 +2.__INT
 3f20 36345f4d 41585f5f 20307837 66666666  64_MAX__ 0x7ffff
 3f30 66666666 66666666 6666664c 4c00454e  fffffffffffLL.EN
 3f40 41424c45 5f425350 5f505249 4e544620  ABLE_BSP_PRINTF 
 3f50 31005f5f 494e5450 54525f54 5950455f  1.__INTPTR_TYPE_
 3f60 5f20696e 74005f5f 464c5433 32585f4d  _ int.__FLT32X_M
 3f70 494e5f31 305f4558 505f5f20 282d3330  IN_10_EXP__ (-30
 3f80 37290069 736e6f72 6d616c28 5f5f7829  7).isnormal(__x)
 3f90 20285f5f 6275696c 74696e5f 69736e6f   (__builtin_isno
 3fa0 726d616c 20285f5f 78292900 5f524545  rmal (__x))._REE
 3fb0 4e545f43 4845434b 5f534947 4e414c5f  NT_CHECK_SIGNAL_
 3fc0 42554628 70747229 20004249 545f3220  BUF(ptr) .BIT_2 
 3fd0 2831203c 3c203229 005f5f63 6c65616e  (1 << 2).__clean
 3fe0 7570004d 53544154 55535f4d 50494520  up.MSTATUS_MPIE 
 3ff0 30783030 30303030 3830005f 61746578  0x00000080._atex
 4000 69743000 5f524545 4e545f53 4d414c4c  it0._REENT_SMALL
 4010 5f434845 434b5f49 4e495428 70747229  _CHECK_INIT(ptr)
 4020 20004d53 54415455 535f5549 45203078   .MSTATUS_UIE 0x
 4030 30303030 30303031 00504d50 5f4e4150  00000001.PMP_NAP
 4040 4f542030 78313800 616c6c6f 63612873  OT 0x18.alloca(s
 4050 697a6529 205f5f62 75696c74 696e5f61  ize) __builtin_a
 4060 6c6c6f63 61287369 7a652900 5f5f4c4f  lloca(size).__LO
 4070 4e475f57 49445448 5f5f2033 32007369  NG_WIDTH__ 32.si
 4080 676e6269 74285f5f 78292028 2873697a  gnbit(__x) ((siz
 4090 656f6628 5f5f7829 203d3d20 73697a65  eof(__x) == size
 40a0 6f662866 6c6f6174 2929203f 205f5f62  of(float)) ? __b
 40b0 75696c74 696e5f73 69676e62 69746628  uiltin_signbitf(
 40c0 5f5f7829 203a2028 73697a65 6f66285f  __x) : (sizeof(_
 40d0 5f782920 3d3d2073 697a656f 6628646f  _x) == sizeof(do
 40e0 75626c65 2929203f 205f5f62 75696c74  uble)) ? __built
 40f0 696e5f73 69676e62 69742028 5f5f7829  in_signbit (__x)
 4100 203a205f 5f627569 6c74696e 5f736967   : __builtin_sig
 4110 6e626974 6c285f5f 78292900 5f545f57  nbitl(__x))._T_W
 4120 43484152 5f200063 6f6e6669 67435055  CHAR_ .configCPU
 4130 5f434c4f 434b5f48 5a202820 28207569  _CLOCK_HZ ( ( ui
 4140 6e743332 5f742029 20282042 53505f43  nt32_t ) ( BSP_C
 4150 4c494e54 5f485a20 29202900 5f5f7761  LINT_HZ ) ).__wa
 4160 726e5f72 65666572 656e6365 73287379  rn_references(sy
 4170 6d2c6d73 6729205f 5f61736d 5f5f2822  m,msg) __asm__("
 4180 2e736563 74696f6e 202e676e 752e7761  .section .gnu.wa
 4190 726e696e 672e2220 2373796d 293b205f  rning." #sym); _
 41a0 5f61736d 5f5f2822 2e617363 697a205c  _asm__(".asciz \
 41b0 2222206d 73672022 5c222229 3b205f5f  "" msg "\""); __
 41c0 61736d5f 5f28222e 70726576 696f7573  asm__(".previous
 41d0 22290053 53544154 55535f53 554d2030  ").SSTATUS_SUM 0
 41e0 78303030 34303030 3000706c 69635f73  x00040000.plic_s
 41f0 65745f65 6e61626c 65005743 4841525f  et_enable.WCHAR_
 4200 4d415820 285f5f57 43484152 5f4d4158  MAX (__WCHAR_MAX
 4210 5f5f2900 5f5f7369 676e6761 6d5f7228  __).__signgam_r(
 4220 70747229 205f5245 454e545f 5349474e  ptr) _REENT_SIGN
 4230 47414d28 70747229 005f4e45 574c4942  GAM(ptr)._NEWLIB
 4240 5f564552 53494f4e 5f485f5f 20310069  _VERSION_H__ 1.i
 4250 73696e66 285f5f78 2920285f 5f627569  sinf(__x) (__bui
 4260 6c74696e 5f697369 6e665f73 69676e20  ltin_isinf_sign 
 4270 285f5f78 2929005f 5f53495a 455f4d41  (__x)).__SIZE_MA
 4280 585f5f20 30786666 66666666 66665500  X__ 0xffffffffU.
 4290 5f5f7569 6e743332 5f74005f 656d6572  __uint32_t._emer
 42a0 67656e63 79005f4c 49425f56 45525349  gency._LIB_VERSI
 42b0 4f4e5f54 59504520 656e756d 205f5f66  ON_TYPE enum __f
 42c0 646c6962 6d5f7665 7273696f 6e006373  dlibm_version.cs
 42d0 725f7365 74286373 722c7661 6c292028  r_set(csr,val) (
 42e0 7b20756e 7369676e 6564206c 6f6e6720  { unsigned long 
 42f0 5f5f7620 3d202875 6e736967 6e656420  __v = (unsigned 
 4300 6c6f6e67 29287661 6c293b20 5f5f6173  long)(val); __as
 4310 6d5f5f20 5f5f766f 6c617469 6c655f5f  m__ __volatile__
 4320 20282263 73727320 22202363 73722022   ("csrs " #csr "
 4330 2c202530 22203a20 3a202272 4b222028  , %0" : : "rK" (
 4340 5f5f7629 293b207d 29005f5f 464c545f  __v)); }).__FLT_
 4350 52414449 585f5f20 32005f5f 464c5433  RADIX__ 2.__FLT3
 4360 325f4841 535f494e 46494e49 54595f5f  2_HAS_INFINITY__
 4370 2031005f 5245454e 545f5241 4e443438   1._REENT_RAND48
 4380 5f4d554c 54287074 72292028 28707472  _MULT(ptr) ((ptr
 4390 292d3e5f 6e65772e 5f726565 6e742e5f  )->_new._reent._
 43a0 7234382e 5f6d756c 74290042 49545f32  r48._mult).BIT_2
 43b0 39202831 203c3c20 32392900 55494e54  9 (1 << 29).UINT
 43c0 33325f4d 41582028 5f5f5549 4e543332  32_MAX (__UINT32
 43d0 5f4d4158 5f5f2900 5f5f7763 6861725f  _MAX__).__wchar_
 43e0 745f5f20 005f5f4c 44424c5f 4841535f  t__ .__LDBL_HAS_
 43f0 51554945 545f4e41 4e5f5f20 31005f5f  QUIET_NAN__ 1.__
 4400 6e656564 5f4e554c 4c004d5f 4c4f4732  need_NULL.M_LOG2
 4410 5f45205f 4d5f4c4e 32005f5f 4c4f4e47  _E _M_LN2.__LONG
 4420 5f4c4f4e 475f5749 4454485f 5f203634  _LONG_WIDTH__ 64
 4430 005f6e69 6f627300 57494e54 5f4d4158  ._niobs.WINT_MAX
 4440 20285f5f 57494e54 5f4d4158 5f5f2900   (__WINT_MAX__).
 4450 5f5f6e65 65645f77 63686172 5f742000  __need_wchar_t .
 4460 706c6963 5f72656c 65617365 004d5354  plic_release.MST
 4470 41545553 5f54564d 20307830 30313030  ATUS_TVM 0x00100
 4480 30303000 53535441 5455535f 46532030  000.SSTATUS_FS 0
 4490 78303030 30363030 30005f5f 6c6f6361  x00006000.__loca
 44a0 6c655f74 005f5245 454e545f 43484543  le_t._REENT_CHEC
 44b0 4b5f4153 4354494d 455f4255 46287074  K_ASCTIME_BUF(pt
 44c0 72292000 5f5f7269 7363765f 636d6f64  r) .__riscv_cmod
 44d0 656c5f6d 65646c6f 77203100 5f5f494e  el_medlow 1.__IN
 44e0 54505452 5f574944 54485f5f 20333200  TPTR_WIDTH__ 32.
 44f0 5f5f4743 435f4154 4f4d4943 5f4c4c4f  __GCC_ATOMIC_LLO
 4500 4e475f4c 4f434b5f 46524545 20310050  NG_LOCK_FREE 1.P
 4510 4c49435f 454e4142 4c455f42 41534520  LIC_ENABLE_BASE 
 4520 30783230 3030005f 6e6d616c 6c6f6300  0x2000._nmalloc.
 4530 5f5f464c 5436345f 4d41585f 4558505f  __FLT64_MAX_EXP_
 4540 5f203130 3234005f 5f574348 41525f54  _ 1024.__WCHAR_T
 4550 20005f5f 5359535f 434f4e46 49475f48   .__SYS_CONFIG_H
 4560 5f5f2000 5f5f7074 7276616c 75652000  __ .__ptrvalue .
 4570 5f5f474e 55435f56 415f4c49 53545f43  __GNUC_VA_LIST_C
 4580 4f4d5041 54494249 4c495459 2031005f  OMPATIBILITY 1._
 4590 5f5f696e 7433325f 745f6465 66696e65  __int32_t_define
 45a0 64203100 5f67616d 6d615f73 69676e67  d 1._gamma_signg
 45b0 616d005f 5f4c4442 4c5f4d41 585f5f20  am.__LDBL_MAX__ 
 45c0 312e3138 39373331 34393533 35373233  1.18973149535723
 45d0 31373635 30383537 35393332 36363238  1765085759326628
 45e0 30303730 32652b34 3933324c 00504d50  00702e+4932L.PMP
 45f0 5f534849 46542032 005f5f57 494e545f  _SHIFT 2.__WINT_
 4600 57494454 485f5f20 3332005f 5f494e54  WIDTH__ 32.__INT
 4610 36345f54 5950455f 5f206c6f 6e67206c  64_TYPE__ long l
 4620 6f6e6720 696e7400 504c4943 5f505249  ong int.PLIC_PRI
 4630 4f524954 595f4241 53452030 78303030  ORITY_BASE 0x000
 4640 30005f5f 7472796c 6f636b73 5f657863  0.__trylocks_exc
 4650 6c757369 7665282e 2e2e2920 5f5f6c6f  lusive(...) __lo
 4660 636b5f61 6e6e6f74 61746528 6578636c  ck_annotate(excl
 4670 75736976 655f7472 796c6f63 6b5f6675  usive_trylock_fu
 4680 6e637469 6f6e285f 5f56415f 41524753  nction(__VA_ARGS
 4690 5f5f2929 0055494e 5431365f 4d415820  __)).UINT16_MAX 
 46a0 285f5f55 494e5431 365f4d41 585f5f29  (__UINT16_MAX__)
 46b0 005f5f53 495a454f 465f5743 4841525f  .__SIZEOF_WCHAR_
 46c0 545f5f20 34005f52 414e4434 385f5345  T__ 4._RAND48_SE
 46d0 45445f30 20283078 33333065 2900494e  ED_0 (0x330e).IN
 46e0 545f4c45 41535431 365f4d49 4e20282d  T_LEAST16_MIN (-
 46f0 5f5f494e 545f4c45 41535431 365f4d41  __INT_LEAST16_MA
 4700 585f5f20 2d203129 006d6173 6b005f5f  X__ - 1).mask.__
 4710 6e6f6e6e 756c6c5f 616c6c20 5f5f6174  nonnull_all __at
 4720 74726962 7574655f 5f28285f 5f6e6f6e  tribute__((__non
 4730 6e756c6c 5f5f2929 005f5245 454e545f  null__))._REENT_
 4740 4d425352 544f5743 535f5354 41544528  MBSRTOWCS_STATE(
 4750 70747229 20282870 7472292d 3e5f6e65  ptr) ((ptr)->_ne
 4760 772e5f72 65656e74 2e5f6d62 7372746f  w._reent._mbsrto
 4770 7763735f 73746174 6529005f 5f756e6c  wcs_state).__unl
 4780 6f636b73 282e2e2e 29205f5f 6c6f636b  ocks(...) __lock
 4790 5f616e6e 6f746174 6528756e 6c6f636b  _annotate(unlock
 47a0 5f66756e 6374696f 6e285f5f 56415f41  _function(__VA_A
 47b0 5247535f 5f292900 454e4142 4c455f42  RGS__)).ENABLE_B
 47c0 53505f50 52494e54 2031005f 66726565  SP_PRINT 1._free
 47d0 6c697374 005f5f6c 6f636b5f 7472795f  list.__lock_try_
 47e0 61637175 69726528 6c6f636b 29202828  acquire(lock) ((
 47f0 766f6964 29203029 005f5245 454e545f  void) 0)._REENT_
 4800 4d42524c 454e5f53 54415445 28707472  MBRLEN_STATE(ptr
 4810 29202828 70747229 2d3e5f6e 65772e5f  ) ((ptr)->_new._
 4820 7265656e 742e5f6d 62726c65 6e5f7374  reent._mbrlen_st
 4830 61746529 005f5f5f 696e745f 6c656173  ate).___int_leas
 4840 7436345f 745f6465 66696e65 64203100  t64_t_defined 1.
 4850 504c4943 5f434c41 494d5f42 41534520  PLIC_CLAIM_BASE 
 4860 30783230 30303034 0069736c 65737367  0x200004.islessg
 4870 72656174 6572285f 5f782c5f 5f792920  reater(__x,__y) 
 4880 285f5f62 75696c74 696e5f69 736c6573  (__builtin_isles
 4890 73677265 61746572 20285f5f 782c205f  sgreater (__x, _
 48a0 5f792929 005f5f54 48524f57 20005f67  _y)).__THROW ._g
 48b0 6c756500 5f736967 6e005f5f 494e545f  lue._sign.__INT_
 48c0 4c454153 5433325f 4d41585f 5f203078  LEAST32_MAX__ 0x
 48d0 37666666 66666666 4c005359 5354454d  7fffffffL.SYSTEM
 48e0 5f535049 5f315f49 4f5f4354 524c5f53  _SPI_1_IO_CTRL_S
 48f0 495a4520 30783130 3030005f 5245454e  IZE 0x1000._REEN
 4900 545f4c36 34415f42 55462870 74722920  T_L64A_BUF(ptr) 
 4910 28287074 72292d3e 5f6e6577 2e5f7265  ((ptr)->_new._re
 4920 656e742e 5f6c3634 615f6275 6629005f  ent._l64a_buf)._
 4930 41544649 4c455f53 4f555243 45203100  ATFILE_SOURCE 1.
 4940 5f5f5354 44494e54 5f455850 28782920  __STDINT_EXP(x) 
 4950 5f5f2023 23782023 235f5f00 5f5f4558  __ ##x ##__.__EX
 4960 50287829 205f5f20 23237820 23235f5f  P(x) __ ##x ##__
 4970 004d425f 4355525f 4d415820 5f5f6c6f  .MB_CUR_MAX __lo
 4980 63616c65 5f6d625f 6375725f 6d617828  cale_mb_cur_max(
 4990 29005f5f 42595445 5f4f5244 45525f5f  ).__BYTE_ORDER__
 49a0 205f5f4f 52444552 5f4c4954 544c455f   __ORDER_LITTLE_
 49b0 454e4449 414e5f5f 005f5f57 43484152  ENDIAN__.__WCHAR
 49c0 5f545950 455f5f20 696e7400 5f414e53  _TYPE__ int._ANS
 49d0 49444543 4c5f485f 20005f41 4e53495f  IDECL_H_ ._ANSI_
 49e0 53544444 45465f48 20005f77 63737274  STDDEF_H ._wcsrt
 49f0 6f6d6273 5f737461 7465005f 57414e54  ombs_state._WANT
 4a00 5f494f5f 4339395f 464f524d 41545320  _IO_C99_FORMATS 
 4a10 31005f52 45454e54 5f434845 434b5f4d  1._REENT_CHECK_M
 4a20 50287074 72292000 4d5f5049 20332e31  P(ptr) .M_PI 3.1
 4a30 34313539 32363533 35383937 39333233  4159265358979323
 4a40 38343600 5f5f5749 4e545f54 5950455f  846.__WINT_TYPE_
 4a50 5f20756e 7369676e 65642069 6e74005f  _ unsigned int._
 4a60 5f696e74 5f666173 7431365f 745f6465  _int_fast16_t_de
 4a70 66696e65 64203100 4d5f5049 5f342030  fined 1.M_PI_4 0
 4a80 2e373835 33393831 36333339 37343438  .785398163397448
 4a90 33303936 32005f42 53445f50 54524449  30962._BSD_PTRDI
 4aa0 46465f54 5f20006d 61636869 6e655469  FF_T_ .machineTi
 4ab0 6d65725f 67657454 696d6528 70292063  mer_getTime(p) c
 4ac0 6c696e74 5f676574 54696d65 2870293b  lint_getTime(p);
 4ad0 00454e41 424c455f 4253505f 5052494e  .ENABLE_BSP_PRIN
 4ae0 54465f46 554c4c20 30005f66 6c616773  TF_FULL 0._flags
 4af0 3200494e 5436345f 4d415820 285f5f49  2.INT64_MAX (__I
 4b00 4e543634 5f4d4158 5f5f2900 75617274  NT64_MAX__).uart
 4b10 5f777269 74650053 53544154 55535f53  _write.SSTATUS_S
 4b20 50494520 30783030 30303030 3230005f  PIE 0x00000020._
 4b30 5f4e4557 4c49425f 4d494e4f 525f5f20  _NEWLIB_MINOR__ 
 4b40 31005f52 45454e54 5f4d4254 4f57435f  1._REENT_MBTOWC_
 4b50 53544154 45287074 72292028 28707472  STATE(ptr) ((ptr
 4b60 292d3e5f 6e65772e 5f726565 6e742e5f  )->_new._reent._
 4b70 6d62746f 77635f73 74617465 29005f5f  mbtowc_state).__
 4b80 464c545f 4d494e5f 4558505f 5f20282d  FLT_MIN_EXP__ (-
 4b90 31323529 005f5f44 45435f45 56414c5f  125).__DEC_EVAL_
 4ba0 4d455448 4f445f5f 20320053 59535445  METHOD__ 2.SYSTE
 4bb0 4d5f424d 425f5045 52495048 4552414c  M_BMB_PERIPHERAL
 4bc0 5f424d42 20307866 38303030 30303000  _BMB 0xf8000000.
 4bd0 6f70636f 64655f52 286f7063 6f64652c  opcode_R(opcode,
 4be0 66756e63 332c6675 6e63372c 7273312c  func3,func7,rs1,
 4bf0 72733229 20287b20 72656769 73746572  rs2) ({ register
 4c00 20756e73 69676e65 64206c6f 6e67205f   unsigned long _
 4c10 5f763b20 61736d20 766f6c61 74696c65  _v; asm volatile
 4c20 2820222e 776f7264 20282822 20236f70  ( ".word ((" #op
 4c30 636f6465 20222920 7c202872 65676e75  code ") | (regnu
 4c40 6d5f2530 203c3c20 3729207c 20287265  m_%0 << 7) | (re
 4c50 676e756d 5f253120 3c3c2031 3529207c  gnum_%1 << 15) |
 4c60 20287265 676e756d 5f253220 3c3c2032   (regnum_%2 << 2
 4c70 3029207c 20282822 20236675 6e633320  0) | ((" #func3 
 4c80 2229203c 3c203132 29207c20 28282220  ") << 12) | ((" 
 4c90 2366756e 63372022 29203c3c 20323529  #func7 ") << 25)
 4ca0 293b2220 3a205b72 645d2022 3d722220  );" : [rd] "=r" 
 4cb0 285f5f76 29203a20 22722220 28727331  (__v) : "r" (rs1
 4cc0 292c2022 72222028 72733229 20293b20  ), "r" (rs2) ); 
 4cd0 5f5f763b 207d2900 64617461 5f636163  __v; }).data_cac
 4ce0 68655f69 6e76616c 69646174 655f616c  he_invalidate_al
 4cf0 6c282920 61736d28 222e776f 72642830  l() asm(".word(0
 4d00 78353030 46292229 3b005549 4e545f46  x500F)");.UINT_F
 4d10 41535438 5f4d4158 20285f5f 55494e54  AST8_MAX (__UINT
 4d20 5f464153 54385f4d 41585f5f 29005f5f  _FAST8_MAX__).__
 4d30 41545452 49425554 455f494d 50555245  ATTRIBUTE_IMPURE
 4d40 5f505452 5f5f2000 494e545f 46415354  _PTR__ .INT_FAST
 4d50 385f4d49 4e20282d 5f5f494e 545f4641  8_MIN (-__INT_FA
 4d60 5354385f 4d41585f 5f202d20 3129005f  ST8_MAX__ - 1)._
 4d70 5f464c54 3332585f 4d41585f 5f20312e  _FLT32X_MAX__ 1.
 4d80 37393736 39333133 34383632 33313537  7976931348623157
 4d90 30383134 35323734 32333733 31373034  0814527423731704
 4da0 33353765 2b333038 46333278 005f5f46  357e+308F32x.__F
 4db0 4c543634 5f484153 5f44454e 4f524d5f  LT64_HAS_DENORM_
 4dc0 5f203100 5f5f464c 545f4449 475f5f20  _ 1.__FLT_DIG__ 
 4dd0 36005f68 5f657272 6e6f005f 46565752  6._h_errno._FVWR
 4de0 4954455f 494e5f53 54524541 4d494f20  ITE_IN_STREAMIO 
 4df0 31005f57 43484152 5f545f44 45434c41  1._WCHAR_T_DECLA
 4e00 52454420 005f5f43 4841525f 4249545f  RED .__CHAR_BIT_
 4e10 5f203800 5f535953 5f524545 4e545f48  _ 8._SYS_REENT_H
 4e20 5f20005f 5f464c54 5f455641 4c5f4d45  _ .__FLT_EVAL_ME
 4e30 54484f44 5f5f2030 00535953 54454d5f  THOD__ 0.SYSTEM_
 4e40 504c4943 5f535953 54454d5f 4750494f  PLIC_SYSTEM_GPIO
 4e50 5f305f49 4f5f494e 54455252 55505453  _0_IO_INTERRUPTS
 4e60 5f312031 33005f5f 53434841 525f4d41  _1 13.__SCHAR_MA
 4e70 585f5f20 30783766 005f5f49 4e545f46  X__ 0x7f.__INT_F
 4e80 41535438 5f574944 54485f5f 20333200  AST8_WIDTH__ 32.
 4e90 5f5f494e 54313620 22682200 5f5f464c  __INT16 "h".__FL
 4ea0 54313238 5f455053 494c4f4e 5f5f2031  T128_EPSILON__ 1
 4eb0 2e393235 39323939 34343338 37323335  .925929944387235
 4ec0 38353330 35353937 37393432 35383439  8530559779425849
 4ed0 32373332 652d3334 46313238 00554152  2732e-34F128.UAR
 4ee0 545f4441 54412030 78303000 494f5f41  T_DATA 0x00.IO_A
 4ef0 50425f53 4c415645 5f305f49 4e505554  PB_SLAVE_0_INPUT
 4f00 5f53495a 45203078 31303030 30005f50  _SIZE 0x10000._P
 4f10 4f534958 5f205f5f 66646c69 626d5f70  OSIX_ __fdlibm_p
 4f20 6f736978 005f545f 50545244 49464620  osix._T_PTRDIFF 
 4f30 004d5f54 574f5049 20284d5f 5049202a  .M_TWOPI (M_PI *
 4f40 20322e30 29005f77 6372746f 6d625f73   2.0)._wcrtomb_s
 4f50 74617465 005f5f46 4c543132 385f4d41  tate.__FLT128_MA
 4f60 585f3130 5f455850 5f5f2034 39333200  X_10_EXP__ 4932.
 4f70 5f5f4743 435f4945 435f3535 39203000  __GCC_IEC_559 0.
 4f80 5f4e4557 4c49425f 414c4c4f 43415f48  _NEWLIB_ALLOCA_H
 4f90 20005f5f 746d5f6d 64617900 616c6c6f   .__tm_mday.allo
 4fa0 63610042 49545f38 20283120 3c3c2038  ca.BIT_8 (1 << 8
 4fb0 29005f5f 53544443 5f5f2031 005f6e65  ).__STDC__ 1._ne
 4fc0 77005f5f 5f696e74 5f6c6561 7374385f  w.___int_least8_
 4fd0 745f6465 66696e65 64203100 5f756275  t_defined 1._ubu
 4fe0 66005f5f 464c4f41 545f574f 52445f4f  f.__FLOAT_WORD_O
 4ff0 52444552 5f5f205f 5f4f5244 45525f4c  RDER__ __ORDER_L
 5000 4954544c 455f454e 4449414e 5f5f0042  ITTLE_ENDIAN__.B
 5010 49545f33 30202831 203c3c20 33302900  IT_30 (1 << 30).
 5020 5f5f5549 4e54385f 54595045 5f5f2075  __UINT8_TYPE__ u
 5030 6e736967 6e656420 63686172 005f7374  nsigned char._st
 5040 64657272 005f5f69 6e745f66 61737438  derr.__int_fast8
 5050 5f745f64 6566696e 65642031 005f5f45  _t_defined 1.__E
 5060 58504f52 5420005f 7763746f 6d625f73  XPORT ._wctomb_s
 5070 74617465 005f5f4f 42534f4c 4554455f  tate.__OBSOLETE_
 5080 4d415448 5f444546 41554c54 2031005f  MATH_DEFAULT 1._
 5090 6d627374 61746500 5f5f5343 43534944  mbstate.__SCCSID
 50a0 28732920 73747275 6374205f 5f686163  (s) struct __hac
 50b0 6b006d54 696d6550 65725573 65630053  k.mTimePerUsec.S
 50c0 59535445 4d5f5241 4d5f415f 4354524c  YSTEM_RAM_A_CTRL
 50d0 5f53495a 45203078 31303030 30005f5f  _SIZE 0x10000.__
 50e0 53485254 5f574944 54485f5f 20313600  SHRT_WIDTH__ 16.
 50f0 5f72616e 645f6e65 7874005f 5f444543  _rand_next.__DEC
 5100 3132385f 4d414e54 5f444947 5f5f2033  128_MANT_DIG__ 3
 5110 34005f66 6c616773 005f5f49 4d504f52  4._flags.__IMPOR
 5120 54200053 53544154 55535f55 49452030  T .SSTATUS_UIE 0
 5130 78303030 30303030 31005f50 54524449  x00000001._PTRDI
 5140 46465f54 5f444543 4c415245 4420005f  FF_T_DECLARED ._
 5150 5f766f6c 6174696c 6520766f 6c617469  _volatile volati
 5160 6c650061 64647265 73730042 49545f33  le.address.BIT_3
 5170 31202831 203c3c20 33312900 5f57414e  1 (1 << 31)._WAN
 5180 545f5245 47495354 45525f46 494e4920  T_REGISTER_FINI 
 5190 31005f5f 4743435f 41544f4d 49435f43  1.__GCC_ATOMIC_C
 51a0 4841525f 4c4f434b 5f465245 45203100  HAR_LOCK_FREE 1.
 51b0 5f5f4154 46494c45 5f564953 49424c45  __ATFILE_VISIBLE
 51c0 2031005f 61746578 69740042 53505f4c   1._atexit.BSP_L
 51d0 45445f47 50494f20 53595354 454d5f47  ED_GPIO SYSTEM_G
 51e0 50494f5f 305f494f 5f435452 4c004d5f  PIO_0_IO_CTRL.M_
 51f0 53515254 3220312e 34313432 31333536  SQRT2 1.41421356
 5200 32333733 30393530 34383830 005f5f4e  237309504880.__N
 5210 554c4c41 42494c49 54595f50 5241474d  ULLABILITY_PRAGM
 5220 415f504f 5020005f 5f707265 64696374  A_POP .__predict
 5230 5f66616c 73652865 78702920 5f5f6275  _false(exp) __bu
 5240 696c7469 6e5f6578 70656374 28286578  iltin_expect((ex
 5250 70292c20 30290053 59535445 4d5f5541  p), 0).SYSTEM_UA
 5260 52545f30 5f494f5f 4354524c 20307866  RT_0_IO_CTRL 0xf
 5270 38303130 30303000 52445449 4d454820  8010000.RDTIMEH 
 5280 30784338 31004341 5553455f 4d414348  0xC81.CAUSE_MACH
 5290 494e455f 45585445 524e414c 20313100  INE_EXTERNAL 11.
 52a0 4d535441 5455535f 54535220 30783030  MSTATUS_TSR 0x00
 52b0 34303030 3030005f 5f535452 494e4728  400000.__STRING(
 52c0 78292023 78005359 5354454d 5f52414d  x) #x.SYSTEM_RAM
 52d0 5f415f53 495a4520 36353533 36005f5f  _A_SIZE 65536.__
 52e0 72657375 6c745f75 73655f63 6865636b  result_use_check
 52f0 205f5f61 74747269 62757465 5f5f2828   __attribute__((
 5300 5f5f7761 726e5f75 6e757365 645f7265  __warn_unused_re
 5310 73756c74 5f5f2929 005f5f49 4e54385f  sult__)).__INT8_
 5320 54595045 5f5f2073 69676e65 64206368  TYPE__ signed ch
 5330 61720053 59535445 4d5f4750 494f5f30  ar.SYSTEM_GPIO_0
 5340 5f494f5f 4354524c 5f53495a 45203078  _IO_CTRL_SIZE 0x
 5350 31303000 4249545f 31202831 203c3c20  100.BIT_1 (1 << 
 5360 3129005f 5f464c54 33325f4d 494e5f31  1).__FLT32_MIN_1
 5370 305f4558 505f5f20 282d3337 29004d49  0_EXP__ (-37).MI
 5380 505f5354 49502028 31203c3c 20352900  P_STIP (1 << 5).
 5390 5f5f636f 756e7400 5f5f474e 55435f56  __count.__GNUC_V
 53a0 415f4c49 53542000 5f5f4953 4f5f435f  A_LIST .__ISO_C_
 53b0 56495349 424c4520 32303131 00494e54  VISIBLE 2011.INT
 53c0 31365f4d 494e2028 2d5f5f49 4e543136  16_MIN (-__INT16
 53d0 5f4d4158 5f5f202d 20312900 5f5f7369  _MAX__ - 1).__si
 53e0 7a655f74 005f5f46 4c545f44 454e4f52  ze_t.__FLT_DENOR
 53f0 4d5f4d49 4e5f5f20 312e3430 31323938  M_MIN__ 1.401298
 5400 34363433 32343831 37303730 39323337  4643248170709237
 5410 32393538 33323839 39313631 33652d34  2958328991613e-4
 5420 3546005f 5f444543 33325f4d 414e545f  5F.__DEC32_MANT_
 5430 4449475f 5f203700 75736563 005f4d41  DIG__ 7.usec._MA
 5440 4348494e 455f5f44 45464155 4c545f54  CHINE__DEFAULT_T
 5450 59504553 5f482000 4d5f4c4e 32205f4d  YPES_H .M_LN2 _M
 5460 5f4c4e32 00524953 43565f53 454d4948  _LN2.RISCV_SEMIH
 5470 4f535449 4e475f43 414c4c5f 4e554d42  OSTING_CALL_NUMB
 5480 45522037 005f5f68 61735f66 65617475  ER 7.__has_featu
 5490 72652878 29203000 5f474343 5f505452  re(x) 0._GCC_PTR
 54a0 44494646 5f542000 5f5f4c44 424c5f4d  DIFF_T .__LDBL_M
 54b0 414e545f 4449475f 5f203131 33005f5f  ANT_DIG__ 113.__
 54c0 4c454153 54363420 226c6c22 005f5f4c  LEAST64 "ll".__L
 54d0 4f434b5f 494e4954 28636c61 73732c6c  OCK_INIT(class,l
 54e0 6f636b29 20737461 74696320 696e7420  ock) static int 
 54f0 6c6f636b 203d2030 3b007561 72745f77  lock = 0;.uart_w
 5500 72697465 41766169 6c616269 6c697479  riteAvailability
 5510 005f5f74 6d5f7764 61790070 6c69635f  .__tm_wday.plic_
 5520 636c6169 6d005f5f 7369676e 65642073  claim.__signed s
 5530 69676e65 64005353 54415455 535f5853  igned.SSTATUS_XS
 5540 20307830 30303138 30303000 5f484156   0x00018000._HAV
 5550 455f4343 5f494e48 49424954 5f4c4f4f  E_CC_INHIBIT_LOO
 5560 505f544f 5f4c4942 43414c4c 2031005f  P_TO_LIBCALL 1._
 5570 5f4c4f4e 475f4c4f 4e475f4d 41585f5f  _LONG_LONG_MAX__
 5580 20307837 66666666 66666666 66666666   0x7ffffffffffff
 5590 6666664c 4c005f46 5345454b 5f4f5054  fffLL._FSEEK_OPT
 55a0 494d495a 4154494f 4e203100 4d535441  IMIZATION 1.MSTA
 55b0 54555333 325f5344 20307838 30303030  TUS32_SD 0x80000
 55c0 30303000 5f5f746d 5f796461 79006273  000.__tm_yday.bs
 55d0 705f7072 696e7466 5f58004d 4544454c  p_printf_X.MEDEL
 55e0 45475f49 4e535452 55435449 4f4e5f50  EG_INSTRUCTION_P
 55f0 4147455f 4641554c 54202831 203c3c20  AGE_FAULT (1 << 
 5600 31322900 5f5f474e 55434c49 4b455f42  12).__GNUCLIKE_B
 5610 55494c54 494e5f56 41524152 47532031  UILTIN_VARARGS 1
 5620 004d5f45 20322e37 31383238 31383238  .M_E 2.718281828
 5630 34353930 34353233 3534005f 5f464c54  4590452354.__FLT
 5640 3634585f 4841535f 51554945 545f4e41  64X_HAS_QUIET_NA
 5650 4e5f5f20 31005f5f 464c5431 32385f44  N__ 1.__FLT128_D
 5660 49475f5f 20333300 5f5f494e 54385f43  IG__ 33.__INT8_C
 5670 28632920 63005f5f 7363616e 666c696b  (c) c.__scanflik
 5680 6528666d 74617267 2c666972 73747661  e(fmtarg,firstva
 5690 72617267 29205f5f 61747472 69627574  rarg) __attribut
 56a0 655f5f28 285f5f66 6f726d61 745f5f20  e__((__format__ 
 56b0 285f5f73 63616e66 5f5f2c20 666d7461  (__scanf__, fmta
 56c0 72672c20 66697273 74766172 61726729  rg, firstvararg)
 56d0 2929005f 5f464c54 33325f4d 41585f5f  )).__FLT32_MAX__
 56e0 20332e34 30323832 33343636 33383532   3.4028234663852
 56f0 38383539 38313137 30343138 33343834  8859811704183484
 5700 35313639 3235652b 33384633 32006273  516925e+38F32.bs
 5710 705f7072 696e7466 5f630062 73705f70  p_printf_c.bsp_p
 5720 72696e74 665f6400 5f454c49 4441424c  rintf_d._ELIDABL
 5730 455f494e 4c494e45 20737461 74696320  E_INLINE static 
 5740 5f5f696e 6c696e65 5f5f005f 5f464c54  __inline__.__FLT
 5750 3634585f 44454e4f 524d5f4d 494e5f5f  64X_DENORM_MIN__
 5760 20362e34 37353137 35313139 34333830   6.4751751194380
 5770 32353131 30393234 34333839 35383232  2511092443895822
 5780 37363436 3535652d 34393636 46363478  764655e-4966F64x
 5790 005f5f44 424c5f4d 494e5f45 58505f5f  .__DBL_MIN_EXP__
 57a0 20282d31 30323129 005f5f53 495a455f   (-1021).__SIZE_
 57b0 5420005f 5f707572 65205f5f 61747472  T .__pure __attr
 57c0 69627574 655f5f28 285f5f70 7572655f  ibute__((__pure_
 57d0 5f292900 53595354 454d5f50 4c49435f  _)).SYSTEM_PLIC_
 57e0 53595354 454d5f49 32435f31 5f494f5f  SYSTEM_I2C_1_IO_
 57f0 494e5445 52525550 54203900 5f736565  INTERRUPT 9._see
 5800 64005f5f 7072696e 7466306c 696b6528  d.__printf0like(
 5810 666d7461 72672c66 69727374 76617261  fmtarg,firstvara
 5820 72672920 00425350 5f504c49 435f4350  rg) .BSP_PLIC_CP
 5830 555f3020 53595354 454d5f50 4c49435f  U_0 SYSTEM_PLIC_
 5840 53595354 454d5f43 4f524553 5f305f45  SYSTEM_CORES_0_E
 5850 58544552 4e414c5f 494e5445 52525550  XTERNAL_INTERRUP
 5860 54004249 545f3131 20283120 3c3c2031  T.BIT_11 (1 << 1
 5870 31290062 73705f70 72696e74 665f7300  1).bsp_printf_s.
 5880 5f5f464c 5433325f 4449475f 5f203600  __FLT32_DIG__ 6.
 5890 5f736565 6b005f5f 53544443 5f484f53  _seek.__STDC_HOS
 58a0 5445445f 5f203100 6273705f 7072696e  TED__ 1.bsp_prin
 58b0 74665f78 00474e55 20433137 20382e33  tf_x.GNU C17 8.3
 58c0 2e30202d 6d617263 683d7276 3332696d  .0 -march=rv32im
 58d0 202d6d61 62693d69 6c703332 202d6733   -mabi=ilp32 -g3
 58e0 202d4f67 005f5f46 4c543634 585f4445   -Og.__FLT64X_DE
 58f0 43494d41 4c5f4449 475f5f20 33360055  CIMAL_DIG__ 36.U
 5900 494e544d 41585f43 28782920 5f5f5549  INTMAX_C(x) __UI
 5910 4e544d41 585f4328 78290042 49545f32  NTMAX_C(x).BIT_2
 5920 35202831 203c3c20 32352900 5f5f4558  5 (1 << 25).__EX
 5930 50005f66 706f735f 74005f5f 4c44424c  P._fpos_t.__LDBL
 5940 5f484153 5f44454e 4f524d5f 5f203100  _HAS_DENORM__ 1.
 5950 5f5f7763 6862005f 5f464c54 3332585f  __wchb.__FLT32X_
 5960 4d494e5f 5f20322e 32323530 37333835  MIN__ 2.22507385
 5970 38353037 32303133 38333039 30323332  8507201383090232
 5980 37313733 33323430 34303665 2d333038  71733240406e-308
 5990 46333278 005f5f42 4547494e 5f444543  F32x.__BEGIN_DEC
 59a0 4c532000 53595354 454d5f50 4c49435f  LS .SYSTEM_PLIC_
 59b0 53595354 454d5f55 5345525f 54494d45  SYSTEM_USER_TIME
 59c0 525f305f 494e5445 52525550 54535f30  R_0_INTERRUPTS_0
 59d0 20313900 5f474343 5f574348 41525f54   19._GCC_WCHAR_T
 59e0 20005f4d 5f4c4e32 20302e36 39333134   ._M_LN2 0.69314
 59f0 37313830 35353939 34353330 39343137  7180559945309417
 5a00 005f5f49 4e545f4c 45415354 33325f54  .__INT_LEAST32_T
 5a10 5950455f 5f206c6f 6e672069 6e74005f  YPE__ long int._
 5a20 6d62746f 77635f73 74617465 00424954  mbtowc_state.BIT
 5a30 5f323620 2831203c 3c203236 29005f5f  _26 (1 << 26).__
 5a40 55494e54 5f4c4541 53543634 5f4d4158  UINT_LEAST64_MAX
 5a50 5f5f2030 78666666 66666666 66666666  __ 0xfffffffffff
 5a60 66666666 66554c4c 005f5f46 4c543132  fffffULL.__FLT12
 5a70 385f4841 535f494e 46494e49 54595f5f  8_HAS_INFINITY__
 5a80 2031005f 5f55494e 545f4641 53543634   1.__UINT_FAST64
 5a90 5f4d4158 5f5f2030 78666666 66666666  _MAX__ 0xfffffff
 5aa0 66666666 66666666 66554c4c 005f5f41  fffffffffULL.__A
 5ab0 544f4d49 435f4143 51554952 45203200  TOMIC_ACQUIRE 2.
 5ac0 5f5f544d 505f464c 545f4556 414c5f4d  __TMP_FLT_EVAL_M
 5ad0 4554484f 4420005f 5f494e54 5f574944  ETHOD .__INT_WID
 5ae0 54485f5f 20333200 5f5f4e45 574c4942  TH__ 32.__NEWLIB
 5af0 5f504154 43484c45 56454c5f 5f203000  _PATCHLEVEL__ 0.
 5b00 5f5f4253 445f5649 5349424c 45203100  __BSD_VISIBLE 1.
 5b10 5f5f464c 5436345f 4d41585f 5f20312e  __FLT64_MAX__ 1.
 5b20 37393736 39333133 34383632 33313537  7976931348623157
 5b30 30383134 35323734 32333733 31373034  0814527423731704
 5b40 33353765 2b333038 46363400 4249545f  357e+308F64.BIT_
 5b50 31332028 31203c3c 20313329 005f5f53  13 (1 << 13).__S
 5b60 49475f41 544f4d49 435f4d41 585f5f20  IG_ATOMIC_MAX__ 
 5b70 30783766 66666666 66660042 49545f31  0x7fffffff.BIT_1
 5b80 39202831 203c3c20 31392900 5f5f444f  9 (1 << 19).__DO
 5b90 5453202c 202e2e2e 005f5f44 45433634  TS , ....__DEC64
 5ba0 5f4d414e 545f4449 475f5f20 31360053  _MANT_DIG__ 16.S
 5bb0 59535445 4d5f5541 52545f30 5f494f5f  YSTEM_UART_0_IO_
 5bc0 50415241 4d455445 525f5541 52545f43  PARAMETER_UART_C
 5bd0 54524c5f 434f4e46 49475f50 4f53545f  TRL_CONFIG_POST_
 5be0 53414d50 4c494e47 5f53495a 45203200  SAMPLING_SIZE 2.
 5bf0 55494e54 5f4c4541 53543634 5f4d4158  UINT_LEAST64_MAX
 5c00 20285f5f 55494e54 5f4c4541 53543634   (__UINT_LEAST64
 5c10 5f4d4158 5f5f2900 5f5f616c 6c6f635f  _MAX__).__alloc_
 5c20 73697a65 28782920 5f5f6174 74726962  size(x) __attrib
 5c30 7574655f 5f28285f 5f616c6c 6f635f73  ute__((__alloc_s
 5c40 697a655f 5f287829 2929005f 5f474e55  ize__(x))).__GNU
 5c50 434c494b 455f4255 494c5449 4e5f434f  CLIKE_BUILTIN_CO
 5c60 4e535441 4e545f50 2031005f 5f534852  NSTANT_P 1.__SHR
 5c70 545f4d41 585f5f20 30783766 6666005f  T_MAX__ 0x7fff._
 5c80 5245454e 545f5743 5352544f 4d42535f  REENT_WCSRTOMBS_
 5c90 53544154 45287074 72292028 28707472  STATE(ptr) ((ptr
 5ca0 292d3e5f 6e65772e 5f726565 6e742e5f  )->_new._reent._
 5cb0 77637372 746f6d62 735f7374 61746529  wcsrtombs_state)
 5cc0 005f5f50 54524449 46465f54 5950455f  .__PTRDIFF_TYPE_
 5cd0 5f20696e 7400504c 49435f50 454e4449  _ int.PLIC_PENDI
 5ce0 4e475f42 41534520 30783130 3030005f  NG_BASE 0x1000._
 5cf0 5f57494e 545f4d41 585f5f20 30786666  _WINT_MAX__ 0xff
 5d00 66666666 66665500 55415254 5f434c4f  ffffffU.UART_CLO
 5d10 434b5f44 49564944 45522030 78303800  CK_DIVIDER 0x08.
 5d20 5f5f474e 555f5649 5349424c 45203000  __GNU_VISIBLE 0.
 5d30 5f52414e 4434385f 4d554c54 5f322028  _RAND48_MULT_2 (
 5d40 30783030 30352900 53595354 454d5f52  0x0005).SYSTEM_R
 5d50 49534356 5f495341 5f455854 5f432030  ISCV_ISA_EXT_C 0
 5d60 005f5245 454e545f 5743544f 4d425f53  ._REENT_WCTOMB_S
 5d70 54415445 28707472 29202828 70747229  TATE(ptr) ((ptr)
 5d80 2d3e5f6e 65772e5f 7265656e 742e5f77  ->_new._reent._w
 5d90 63746f6d 625f7374 61746529 005f6473  ctomb_state)._ds
 5da0 6f5f6861 6e646c65 005f5f49 4e545f46  o_handle.__INT_F
 5db0 41535431 365f5459 50455f5f 20696e74  AST16_TYPE__ int
 5dc0 005f5549 4e544d41 585f545f 4445434c  ._UINTMAX_T_DECL
 5dd0 41524544 20005f50 4f534958 5f435f53  ARED ._POSIX_C_S
 5de0 4f555243 45203230 30383039 4c005f72  OURCE 200809L._r
 5df0 616e6434 38005f5f 55494e54 5f4c4541  and48.__UINT_LEA
 5e00 53543136 5f545950 455f5f20 73686f72  ST16_TYPE__ shor
 5e10 7420756e 7369676e 65642069 6e74005f  t unsigned int._
 5e20 494e544d 41585f54 5f444543 4c415245  INTMAX_T_DECLARE
 5e30 4420005f 545f5349 5a452000 5f5f4348  D ._T_SIZE .__CH
 5e40 41523136 5f545950 455f5f20 73686f72  AR16_TYPE__ shor
 5e50 7420756e 7369676e 65642069 6e740053  t unsigned int.S
 5e60 59535445 4d5f5249 5343565f 4953415f  YSTEM_RISCV_ISA_
 5e70 52563332 49203100 4d494445 4c45475f  RV32I 1.MIDELEG_
 5e80 53555045 52564953 4f525f54 494d4552  SUPERVISOR_TIMER
 5e90 20283120 3c3c2035 29005f5f 464c5433   (1 << 5).__FLT3
 5ea0 32585f44 49475f5f 20313500 494e5436  2X_DIG__ 15.INT6
 5eb0 345f4328 7829205f 5f494e54 36345f43  4_C(x) __INT64_C
 5ec0 28782900 53595354 454d5f52 49534356  (x).SYSTEM_RISCV
 5ed0 5f495341 5f455854 5f412030 005f5245  _ISA_EXT_A 0._RE
 5ee0 454e545f 41534354 494d455f 42554628  ENT_ASCTIME_BUF(
 5ef0 70747229 20282870 7472292d 3e5f6e65  ptr) ((ptr)->_ne
 5f00 772e5f72 65656e74 2e5f6173 6374696d  w._reent._asctim
 5f10 655f6275 6629005f 5f686964 64656e20  e_buf).__hidden 
 5f20 5f5f6174 74726962 7574655f 5f28285f  __attribute__((_
 5f30 5f766973 6962696c 6974795f 5f282268  _visibility__("h
 5f40 69646465 6e222929 29005359 5354454d  idden"))).SYSTEM
 5f50 5f524953 43565f49 53415f45 58545f4d  _RISCV_ISA_EXT_M
 5f60 2031005f 5f46494e 4954455f 4d415448   1.__FINITE_MATH
 5f70 5f4f4e4c 595f5f20 30005f5f 494e545f  _ONLY__ 0.__INT_
 5f80 46415354 31365f4d 41585f5f 20307837  FAST16_MAX__ 0x7
 5f90 66666666 66666600 5f5f6861 76655f6c  fffffff.__have_l
 5fa0 6f6e676c 6f6e6736 34203100 454e4142  onglong64 1.ENAB
 5fb0 4c455f50 54524449 46465f53 5550504f  LE_PTRDIFF_SUPPO
 5fc0 52542030 00535953 54454d5f 55415254  RT 0.SYSTEM_UART
 5fd0 5f305f49 4f5f5041 52414d45 5445525f  _0_IO_PARAMETER_
 5fe0 494e4954 5f434f4e 4649475f 50415249  INIT_CONFIG_PARI
 5ff0 5459204e 4f4e4500 53595354 454d5f43  TY NONE.SYSTEM_C
 6000 4c494e54 5f435452 4c203078 66386230  LINT_CTRL 0xf8b0
 6010 30303030 005f626c 6b73697a 65005f5f  0000._blksize.__
 6020 72697363 765f786c 656e2033 32005f52  riscv_xlen 32._R
 6030 45454e54 5f4d505f 50355328 70747229  EENT_MP_P5S(ptr)
 6040 20282870 7472292d 3e5f7035 7329005f   ((ptr)->_p5s)._
 6050 55494e54 5054525f 545f4445 434c4152  UINTPTR_T_DECLAR
 6060 45442000 4d5f325f 53515254 50492031  ED .M_2_SQRTPI 1
 6070 2e313238 33373931 36373039 35353132  .128379167095512
 6080 35373339 30005359 5354454d 5f554152  57390.SYSTEM_UAR
 6090 545f415f 41504220 53595354 454d5f55  T_A_APB SYSTEM_U
 60a0 4152545f 305f494f 5f415042 005f6261  ART_0_IO_APB._ba
 60b0 7365005f 5f55494e 54505452 5f4d4158  se.__UINTPTR_MAX
 60c0 5f5f2030 78666666 66666666 66550064  __ 0xffffffffU.d
 60d0 6174615f 63616368 655f696e 76616c69  ata_cache_invali
 60e0 64617465 5f616464 72657373 28616464  date_address(add
 60f0 72657373 2920287b 2061736d 20766f6c  ress) ({ asm vol
 6100 6174696c 65282022 2e776f72 64202828  atile( ".word ((
 6110 30783530 30462920 7c202872 65676e75  0x500F) | (regnu
 6120 6d5f2530 203c3c20 31352929 3b22203a  m_%0 << 15));" :
 6130 203a2022 72222028 61646472 65737329   : "r" (address)
 6140 20293b20 7d29005f 4d415448 5f485f20   ); })._MATH_H_ 
 6150 00535953 54454d5f 55415254 5f305f49  .SYSTEM_UART_0_I
 6160 4f5f5041 52414d45 5445525f 494e4954  O_PARAMETER_INIT
 6170 5f434f4e 4649475f 42415544 52415445  _CONFIG_BAUDRATE
 6180 20313135 32303000 4d5f3350 495f3420   115200.M_3PI_4 
 6190 322e3335 36313934 34393031 39323334  2.35619449019234
 61a0 34383337 30453000 5f5f4945 45455f4c  48370E0.__IEEE_L
 61b0 4954544c 455f454e 4449414e 20005359  ITTLE_ENDIAN .SY
 61c0 5354454d 5f554152 545f305f 494f5f50  STEM_UART_0_IO_P
 61d0 4152414d 45544552 5f494e49 545f434f  ARAMETER_INIT_CO
 61e0 4e464947 5f444154 415f4c45 4e475448  NFIG_DATA_LENGTH
 61f0 2037005f 5f43435f 53555050 4f525453   7.__CC_SUPPORTS
 6200 5f564152 41444943 5f585858 2031005f  _VARADIC_XXX 1._
 6210 5245454e 545f544d 28707472 29202826  REENT_TM(ptr) (&
 6220 28707472 292d3e5f 6e65772e 5f726565  (ptr)->_new._ree
 6230 6e742e5f 6c6f6361 6c74696d 655f6275  nt._localtime_bu
 6240 66290053 59535445 4d5f5541 52545f30  f).SYSTEM_UART_0
 6250 5f494f5f 50415241 4d455445 525f5541  _IO_PARAMETER_UA
 6260 52545f43 54524c5f 434f4e46 49475f44  RT_CTRL_CONFIG_D
 6270 4154415f 57494454 485f4d41 58203800  ATA_WIDTH_MAX 8.
 6280 5f5f6172 675f7479 70655f74 61672861  __arg_type_tag(a
 6290 72675f6b 696e642c 6172675f 6964782c  rg_kind,arg_idx,
 62a0 74797065 5f746167 5f696478 29200042  type_tag_idx) .B
 62b0 49545f37 20283120 3c3c2037 29005f5f  IT_7 (1 << 7).__
 62c0 636f6e74 61696e65 726f6628 782c732c  containerof(x,s,
 62d0 6d292028 7b20636f 6e737420 766f6c61  m) ({ const vola
 62e0 74696c65 205f5f74 7970656f 66282828  tile __typeof(((
 62f0 73202a29 30292d3e 6d29202a 5f5f7820  s *)0)->m) *__x 
 6300 3d202878 293b205f 5f444551 55414c49  = (x); __DEQUALI
 6310 46592873 202a2c20 28636f6e 73742076  FY(s *, (const v
 6320 6f6c6174 696c6520 63686172 202a295f  olatile char *)_
 6330 5f78202d 205f5f6f 66667365 746f6628  _x - __offsetof(
 6340 732c206d 29293b7d 29005f5f 6c6f636b  s, m));}).__lock
 6350 5f636c6f 73655f72 65637572 73697665  _close_recursive
 6360 286c6f63 6b292028 28766f69 64292030  (lock) ((void) 0
 6370 29005f42 53445f53 495a455f 545f2000  )._BSD_SIZE_T_ .
 6380 5f5f696e 7432305f 5f202b32 005f5f6e  __int20__ +2.__n
 6390 6f5f6c6f 636b5f61 6e616c79 73697320  o_lock_analysis 
 63a0 5f5f6c6f 636b5f61 6e6e6f74 61746528  __lock_annotate(
 63b0 6e6f5f74 68726561 645f7361 66657479  no_thread_safety
 63c0 5f616e61 6c797369 73290047 50494f5f  _analysis).GPIO_
 63d0 4f555450 55545f45 4e41424c 45203078  OUTPUT_ENABLE 0x
 63e0 3038005f 666c6f63 6b5f7400 5f524545  08._flock_t._REE
 63f0 4e545f53 5444494f 5f535452 45414d28  NT_STDIO_STREAM(
 6400 7661722c 696e6465 78292026 28766172  var,index) &(var
 6410 292d3e5f 5f73665b 696e6465 785d005f  )->__sf[index]._
 6420 5f46494c 45004855 47455f56 414c4620  _FILE.HUGE_VALF 
 6430 285f5f62 75696c74 696e5f68 7567655f  (__builtin_huge_
 6440 76616c66 28292900 5f424547 494e5f53  valf())._BEGIN_S
 6450 54445f43 20005f5f 76615f63 6f707928  TD_C .__va_copy(
 6460 642c7329 205f5f62 75696c74 696e5f76  d,s) __builtin_v
 6470 615f636f 70792864 2c732900 4d535441  a_copy(d,s).MSTA
 6480 5455535f 4d505020 30783030 30303138  TUS_MPP 0x000018
 6490 3030005f 434c4f43 4b49445f 545f2075  00._CLOCKID_T_ u
 64a0 6e736967 6e656420 6c6f6e67 005f5245  nsigned long._RE
 64b0 454e545f 43484543 4b5f544d 28707472  ENT_CHECK_TM(ptr
 64c0 2920004d 53544154 55535f48 50494520  ) .MSTATUS_HPIE 
 64d0 30783030 30303030 3430005f 6d627374  0x00000040._mbst
 64e0 6174655f 74005f5f 494e545f 57434841  ate_t.__INT_WCHA
 64f0 525f545f 48200047 50494f5f 494e5445  R_T_H .GPIO_INTE
 6500 52525550 545f4641 4c4c5f45 4e41424c  RRUPT_FALL_ENABL
 6510 45203078 32340053 59535445 4d5f504c  E 0x24.SYSTEM_PL
 6520 49435f53 59535445 4d5f4750 494f5f30  IC_SYSTEM_GPIO_0
 6530 5f494f5f 494e5445 52525550 54535f30  _IO_INTERRUPTS_0
 6540 20313200 5f723438 005f5f45 4c465f5f   12._r48.__ELF__
 6550 2031005f 5f474e55 434c494b 455f4354   1.__GNUCLIKE_CT
 6560 4f525f53 45435449 4f4e5f48 414e444c  OR_SECTION_HANDL
 6570 494e4720 31005359 5354454d 5f554152  ING 1.SYSTEM_UAR
 6580 545f305f 494f5f50 4152414d 45544552  T_0_IO_PARAMETER
 6590 5f52585f 4649464f 5f444550 54482031  _RX_FIFO_DEPTH 1
 65a0 3238005f 70757463 68617200 4253505f  28._putchar.BSP_
 65b0 434c494e 545f485a 20535953 54454d5f  CLINT_HZ SYSTEM_
 65c0 434c494e 545f485a 00504d50 5f522030  CLINT_HZ.PMP_R 0
 65d0 78303100 4750494f 5f494e54 45525255  x01.GPIO_INTERRU
 65e0 50545f4c 4f575f45 4e41424c 45203078  PT_LOW_ENABLE 0x
 65f0 3263005f 5f44424c 5f4d494e 5f5f2028  2c.__DBL_MIN__ (
 6600 28646f75 626c6529 322e3232 35303733  (double)2.225073
 6610 38353835 30373230 31333833 30393032  8585072013830902
 6620 33323731 37333332 34303430 36652d33  3271733240406e-3
 6630 30384c29 005f5f46 4c543634 585f4d49  08L).__FLT64X_MI
 6640 4e5f5f20 332e3336 32313033 31343331  N__ 3.3621031431
 6650 31323039 33353036 32363236 37373831  1209350626267781
 6660 37333231 37353236 30652d34 39333246  732175260e-4932F
 6670 36347800 5f414e53 495f5354 44415247  64x._ANSI_STDARG
 6680 5f485f20 00706c69 635f7365 745f7468  _H_ .plic_set_th
 6690 72657368 6f6c6400 55494e54 36345f43  reshold.UINT64_C
 66a0 28782920 5f5f5549 4e543634 5f432878  (x) __UINT64_C(x
 66b0 29005f5f 6c6f636b 5f696e69 74286c6f  ).__lock_init(lo
 66c0 636b2920 2828766f 69642920 3029005f  ck) ((void) 0)._
 66d0 64617461 00424954 5f302028 31203c3c  data.BIT_0 (1 <<
 66e0 20302900 5f5f474e 55435f4d 494e4f52   0).__GNUC_MINOR
 66f0 5f5f2033 005f5f6c 6f636b5f 72656c65  __ 3.__lock_rele
 6700 6173655f 72656375 72736976 65286c6f  ase_recursive(lo
 6710 636b2920 2828766f 69642920 3029005f  ck) ((void) 0)._
 6720 5f55494e 545f4c45 41535433 325f5459  _UINT_LEAST32_TY
 6730 50455f5f 206c6f6e 6720756e 7369676e  PE__ long unsign
 6740 65642069 6e74005f 5f4c4442 4c5f4d49  ed int.__LDBL_MI
 6750 4e5f3130 5f455850 5f5f2028 2d343933  N_10_EXP__ (-493
 6760 31290050 4c49435f 434f4e54 4558545f  1).PLIC_CONTEXT_
 6770 5045525f 48415254 20307831 30303000  PER_HART 0x1000.
 6780 5f5f7265 71756972 65735f65 78636c75  __requires_exclu
 6790 73697665 282e2e2e 29205f5f 6c6f636b  sive(...) __lock
 67a0 5f616e6e 6f746174 65286578 636c7573  _annotate(exclus
 67b0 6976655f 6c6f636b 735f7265 71756972  ive_locks_requir
 67c0 6564285f 5f56415f 41524753 5f5f2929  ed(__VA_ARGS__))
 67d0 005f5241 4e443438 5f4d554c 545f3120  ._RAND48_MULT_1 
 67e0 28307864 65656329 005f5f49 4e544d41  (0xdeec).__INTMA
 67f0 585f5459 50455f5f 206c6f6e 67206c6f  X_TYPE__ long lo
 6800 6e672069 6e74005f 5f474343 5f41544f  ng int.__GCC_ATO
 6810 4d49435f 494e545f 4c4f434b 5f465245  MIC_INT_LOCK_FRE
 6820 45203100 73686f72 74005359 5354454d  E 1.short.SYSTEM
 6830 5f434f52 45535f30 5f465055 2030005f  _CORES_0_FPU 0._
 6840 5f464c54 3332585f 45505349 4c4f4e5f  _FLT32X_EPSILON_
 6850 5f20322e 32323034 34363034 39323530  _ 2.220446049250
 6860 33313330 38303834 37323633 33333631  3130808472633361
 6870 38313634 30363265 2d313646 33327800  8164062e-16F32x.
 6880 5f474343 5f4d4158 5f414c49 474e5f54  _GCC_MAX_ALIGN_T
 6890 20004253 505f5541 52545f54 45524d49   .BSP_UART_TERMI
 68a0 4e414c20 53595354 454d5f55 4152545f  NAL SYSTEM_UART_
 68b0 305f494f 5f435452 4c005f53 5452494e  0_IO_CTRL._STRIN
 68c0 47535f48 5f20005f 53495a45 545f2000  GS_H_ ._SIZET_ .
 68d0 5f535444 4c49425f 485f2000 443a5c5f  _STDLIB_H_ .D:\_
 68e0 756e6f5c 32343033 2d476974 4875625c  uno\2403-GitHub\
 68f0 74657374 2d726570 6f5c6578 616d706c  test-repo\exampl
 6900 655f7432 305f3173 74675c65 6d626564  e_t20_1stg\embed
 6910 6465645f 73775c73 61705c73 6f667477  ded_sw\sap\softw
 6920 6172655c 7374616e 64616c6f 6e655c67  are\standalone\g
 6930 70696f44 656d6f5f 5472696e 69746100  pioDemo_Trinita.
 6940 69736c65 7373285f 5f782c5f 5f792920  isless(__x,__y) 
 6950 285f5f62 75696c74 696e5f69 736c6573  (__builtin_isles
 6960 7320285f 5f782c20 5f5f7929 2900494e  s (__x, __y)).IN
 6970 5433325f 43287829 205f5f49 4e543332  T32_C(x) __INT32
 6980 5f432878 29005359 5354454d 5f475049  _C(x).SYSTEM_GPI
 6990 4f5f415f 41504220 53595354 454d5f47  O_A_APB SYSTEM_G
 69a0 50494f5f 305f494f 5f415042 005f4e4f  PIO_0_IO_APB._NO
 69b0 494e4c49 4e455f53 54415449 43205f4e  INLINE_STATIC _N
 69c0 4f494e4c 494e4520 73746174 69630046  OINLINE static.F
 69d0 505f4e4f 524d414c 2034005f 5f636f6e  P_NORMAL 4.__con
 69e0 73742063 6f6e7374 0055494e 545f4c45  st const.UINT_LE
 69f0 41535433 325f4d41 5820285f 5f55494e  AST32_MAX (__UIN
 6a00 545f4c45 41535433 325f4d41 585f5f29  T_LEAST32_MAX__)
 6a10 005f5f43 4f505952 49474854 28732920  .__COPYRIGHT(s) 
 6a20 73747275 6374205f 5f686163 6b005f52  struct __hack._R
 6a30 45454e54 5f434845 434b5f45 4d455247  EENT_CHECK_EMERG
 6a40 454e4359 28707472 2920005f 5f464c54  ENCY(ptr) .__FLT
 6a50 3132385f 44454e4f 524d5f4d 494e5f5f  128_DENORM_MIN__
 6a60 20362e34 37353137 35313139 34333830   6.4751751194380
 6a70 32353131 30393234 34333839 35383232  2511092443895822
 6a80 37363436 3535652d 34393636 46313238  764655e-4966F128
 6a90 00637261 73680063 68617220 2b300055  .crash.char +0.U
 6aa0 494e545f 46415354 33325f4d 41582028  INT_FAST32_MAX (
 6ab0 5f5f5549 4e545f46 41535433 325f4d41  __UINT_FAST32_MA
 6ac0 585f5f29 00637372 5f737761 70286373  X__).csr_swap(cs
 6ad0 722c7661 6c292028 7b20756e 7369676e  r,val) ({ unsign
 6ae0 6564206c 6f6e6720 5f5f7620 3d202875  ed long __v = (u
 6af0 6e736967 6e656420 6c6f6e67 29287661  nsigned long)(va
 6b00 6c293b20 5f5f6173 6d5f5f20 5f5f766f  l); __asm__ __vo
 6b10 6c617469 6c655f5f 20282263 73727277  latile__ ("csrrw
 6b20 2025302c 20222023 63737220 222c2025   %0, " #csr ", %
 6b30 3122203a 20223d72 2220285f 5f762920  1" : "=r" (__v) 
 6b40 3a202272 4b222028 5f5f7629 293b205f  : "rK" (__v)); _
 6b50 5f763b20 7d29005f 5f55494e 54505452  _v; }).__UINTPTR
 6b60 5f545950 455f5f20 756e7369 676e6564  _TYPE__ unsigned
 6b70 20696e74 005f5f52 45474953 5445525f   int.__REGISTER_
 6b80 50524546 49585f5f 20005f5f 44454331  PREFIX__ .__DEC1
 6b90 32385f53 55424e4f 524d414c 5f4d494e  28_SUBNORMAL_MIN
 6ba0 5f5f2030 2e303030 30303030 30303030  __ 0.00000000000
 6bb0 30303030 30303030 30303030 30303030  0000000000000000
 6bc0 30303030 3031452d 36313433 444c005f  000001E-6143DL._
 6bd0 5f44424c 5f444947 5f5f2031 35005f55  _DBL_DIG__ 15._U
 6be0 494e5431 365f545f 4445434c 41524544  INT16_T_DECLARED
 6bf0 20005f5f 52435349 44287329 20737472   .__RCSID(s) str
 6c00 75637420 5f5f6861 636b005f 5f53495a  uct __hack.__SIZ
 6c10 454f465f 53495a45 5f545f5f 20340052  EOF_SIZE_T__ 4.R
 6c20 4454494d 45203078 43303100 666f726d  DTIME 0xC01.form
 6c30 6174005f 5f55494e 5436345f 54595045  at.__UINT64_TYPE
 6c40 5f5f206c 6f6e6720 6c6f6e67 20756e73  __ long long uns
 6c50 69676e65 6420696e 74005f5f 464c5436  igned int.__FLT6
 6c60 345f4550 53494c4f 4e5f5f20 322e3232  4_EPSILON__ 2.22
 6c70 30343436 30343932 35303331 33303830  0446049250313080
 6c80 38343732 36333333 36313831 36343036  8472633361816406
 6c90 32652d31 36463634 00535953 54454d5f  2e-16F64.SYSTEM_
 6ca0 424d425f 50455249 50484552 414c5f42  BMB_PERIPHERAL_B
 6cb0 4d425f53 495a4520 30783130 30303030  MB_SIZE 0x100000
 6cc0 30005f5f 454e445f 4445434c 5320005f  0.__END_DECLS ._
 6cd0 5f646174 61747970 655f7479 70655f74  _datatype_type_t
 6ce0 6167286b 696e642c 74797065 29200053  ag(kind,type) .S
 6cf0 59535445 4d5f5541 52545f30 5f494f5f  YSTEM_UART_0_IO_
 6d00 4354524c 5f53495a 45203078 3430005f  CTRL_SIZE 0x40._
 6d10 5f616c69 676e6564 28782920 5f5f6174  _aligned(x) __at
 6d20 74726962 7574655f 5f28285f 5f616c69  tribute__((__ali
 6d30 676e6564 5f5f2878 29292900 756e7369  gned__(x))).unsi
 6d40 676e6564 005f6d62 6c656e5f 73746174  gned._mblen_stat
 6d50 65006273 705f7072 696e7448 65780055  e.bsp_printHex.U
 6d60 4152545f 53544154 55532030 78303400  ART_STATUS 0x04.
 6d70 4d535441 5455535f 55504945 20307830  MSTATUS_UPIE 0x0
 6d80 30303030 30313000 5f535452 494e475f  0000010._STRING_
 6d90 485f2000 5f5f7074 5f677561 72646564  H_ .__pt_guarded
 6da0 5f627928 7829205f 5f6c6f63 6b5f616e  _by(x) __lock_an
 6db0 6e6f7461 74652870 745f6775 61726465  notate(pt_guarde
 6dc0 645f6279 28782929 005f5f67 75617264  d_by(x)).__guard
 6dd0 65645f62 79287829 205f5f6c 6f636b5f  ed_by(x) __lock_
 6de0 616e6e6f 74617465 28677561 72646564  annotate(guarded
 6df0 5f627928 78292900 76615f61 72672876  _by(x)).va_arg(v
 6e00 2c6c2920 5f5f6275 696c7469 6e5f7661  ,l) __builtin_va
 6e10 5f617267 28762c6c 29005f53 59535f53  _arg(v,l)._SYS_S
 6e20 495a455f 545f4820 005f5f55 494e5431  IZE_T_H .__UINT1
 6e30 365f4328 63292063 005f5f46 4c543634  6_C(c) c.__FLT64
 6e40 5f4d494e 5f455850 5f5f2028 2d313032  _MIN_EXP__ (-102
 6e50 3129005f 5f53495a 454f465f 50545244  1).__SIZEOF_PTRD
 6e60 4946465f 545f5f20 34005f5f 43435f53  IFF_T__ 4.__CC_S
 6e70 5550504f 5254535f 5f5f494e 4c494e45  UPPORTS___INLINE
 6e80 5f5f2031 005f5f4c 45415354 31362022  __ 1.__LEAST16 "
 6e90 6822005f 5f707269 6e74666c 696b6528  h".__printflike(
 6ea0 666d7461 72672c66 69727374 76617261  fmtarg,firstvara
 6eb0 72672920 5f5f6174 74726962 7574655f  rg) __attribute_
 6ec0 5f28285f 5f666f72 6d61745f 5f20285f  _((__format__ (_
 6ed0 5f707269 6e74665f 5f2c2066 6d746172  _printf__, fmtar
 6ee0 672c2066 69727374 76617261 72672929  g, firstvararg))
 6ef0 2900494e 54505452 5f4d4158 20285f5f  ).INTPTR_MAX (__
 6f00 494e5450 54525f4d 41585f5f 29005f5f  INTPTR_MAX__).__
 6f10 66617374 63616c6c 205f5f61 74747269  fastcall __attri
 6f20 62757465 5f5f2828 5f5f6661 73746361  bute__((__fastca
 6f30 6c6c5f5f 29290049 4e543634 5f4d494e  ll__)).INT64_MIN
 6f40 20282d5f 5f494e54 36345f4d 41585f5f   (-__INT64_MAX__
 6f50 202d2031 29005f5f 464c5436 34585f4d   - 1).__FLT64X_M
 6f60 41585f45 58505f5f 20313633 3834005f  AX_EXP__ 16384._
 6f70 5245454e 545f5349 474e414c 5f425546  REENT_SIGNAL_BUF
 6f80 28707472 29202828 70747229 2d3e5f6e  (ptr) ((ptr)->_n
 6f90 65772e5f 7265656e 742e5f73 69676e61  ew._reent._signa
 6fa0 6c5f6275 6629005f 5f41544f 4d49435f  l_buf).__ATOMIC_
 6fb0 52454c41 58454420 30005f41 54545249  RELAXED 0._ATTRI
 6fc0 42555445 28617474 72732920 5f5f6174  BUTE(attrs) __at
 6fd0 74726962 7574655f 5f202861 74747273  tribute__ (attrs
 6fe0 29005f5f 72657175 69726573 5f736861  ).__requires_sha
 6ff0 72656428 2e2e2e29 205f5f6c 6f636b5f  red(...) __lock_
 7000 616e6e6f 74617465 28736861 7265645f  annotate(shared_
 7010 6c6f636b 735f7265 71756972 6564285f  locks_required(_
 7020 5f56415f 41524753 5f5f2929 005f4b6d  _VA_ARGS__))._Km
 7030 61782028 73697a65 6f662028 73697a65  ax (sizeof (size
 7040 5f742920 3c3c2033 29005f5f 44424c5f  _t) << 3).__DBL_
 7050 4841535f 494e4649 4e495459 5f5f2031  HAS_INFINITY__ 1
 7060 00504d50 5f4e4134 20307831 30005549  .PMP_NA4 0x10.UI
 7070 4e545f46 41535436 345f4d41 5820285f  NT_FAST64_MAX (_
 7080 5f55494e 545f4641 53543634 5f4d4158  _UINT_FAST64_MAX
 7090 5f5f2900 55494e54 36345f4d 41582028  __).UINT64_MAX (
 70a0 5f5f5549 4e543634 5f4d4158 5f5f2900  __UINT64_MAX__).
 70b0 55494e54 5f4c4541 5354385f 4d415820  UINT_LEAST8_MAX 
 70c0 285f5f55 494e545f 4c454153 54385f4d  (__UINT_LEAST8_M
 70d0 41585f5f 29004249 545f3620 2831203c  AX__).BIT_6 (1 <
 70e0 3c203629 005f5f72 616e6765 6f662874  < 6).__rangeof(t
 70f0 7970652c 73746172 742c656e 64292028  ype,start,end) (
 7100 5f5f6f66 66736574 6f662874 7970652c  __offsetof(type,
 7110 20656e64 29202d20 5f5f6f66 66736574   end) - __offset
 7120 6f662874 7970652c 20737461 72742929  of(type, start))
 7130 00737562 6f707461 7267005f 5f474e55  .suboptarg.__GNU
 7140 434c494b 455f5f5f 4f464653 45544f46  CLIKE___OFFSETOF
 7150 20310069 73677265 61746572 65717561   1.isgreaterequa
 7160 6c285f5f 782c5f5f 79292028 5f5f6275  l(__x,__y) (__bu
 7170 696c7469 6e5f6973 67726561 74657265  iltin_isgreatere
 7180 7175616c 20285f5f 782c205f 5f792929  qual (__x, __y))
 7190 005f5f53 495a454f 465f464c 4f41545f  .__SIZEOF_FLOAT_
 71a0 5f203400 55494e54 385f4328 7829205f  _ 4.UINT8_C(x) _
 71b0 5f55494e 54385f43 28782900 5f5f4445  _UINT8_C(x).__DE
 71c0 4336345f 4d494e5f 5f203145 2d333833  C64_MIN__ 1E-383
 71d0 44440052 44494e53 54524554 48203078  DD.RDINSTRETH 0x
 71e0 43383200 6770696f 5f736574 4f757470  C82.gpio_setOutp
 71f0 7574005f 6d617877 6473005f 5f686176  ut._maxwds.__hav
 7200 655f6c6f 6e673332 2031005f 474c4f42  e_long32 1._GLOB
 7210 414c5f52 45454e54 205f676c 6f62616c  AL_REENT _global
 7220 5f696d70 7572655f 70747200 5f4e554c  _impure_ptr._NUL
 7230 4c203000 5f5f666c 65786172 72205b30  L 0.__flexarr [0
 7240 5d006d63 61757365 005f5f74 6d5f7965  ].mcause.__tm_ye
 7250 6172005f 52454144 5f575249 54455f52  ar._READ_WRITE_R
 7260 45545552 4e5f5459 5045205f 7373697a  ETURN_TYPE _ssiz
 7270 655f7400 5f5f494e 5431365f 4d41585f  e_t.__INT16_MAX_
 7280 5f203078 37666666 005f5f72 69736376  _ 0x7fff.__riscv
 7290 5f6d756c 20310053 59535445 4d5f4932  _mul 1.SYSTEM_I2
 72a0 435f305f 494f5f43 54524c5f 53495a45  C_0_IO_CTRL_SIZE
 72b0 20307831 3030005f 5f444556 4f4c4154   0x100.__DEVOLAT
 72c0 494c4528 74797065 2c766172 29202828  ILE(type,var) ((
 72d0 74797065 29285f5f 75696e74 7074725f  type)(__uintptr_
 72e0 74292876 6f6c6174 696c6520 766f6964  t)(volatile void
 72f0 202a2928 76617229 29005f5f 57434841   *)(var)).__WCHA
 7300 525f545f 5f20005f 5f535350 5f464f52  R_T__ .__SSP_FOR
 7310 54494659 5f4c4556 454c2030 005f5f47  TIFY_LEVEL 0.__G
 7320 4e55434c 494b455f 4255494c 54494e5f  NUCLIKE_BUILTIN_
 7330 53544441 52472031 005f5f53 495a455f  STDARG 1.__SIZE_
 7340 545f5f20 005f5f58 53495f56 49534942  T__ .__XSI_VISIB
 7350 4c452030 005f7265 73756c74 5f6b005f  LE 0._result_k._
 7360 5f464c54 3132385f 4d414e54 5f444947  _FLT128_MANT_DIG
 7370 5f5f2031 3133005f 5f737472 666d6f6e  __ 113.__strfmon
 7380 6c696b65 28666d74 6172672c 66697273  like(fmtarg,firs
 7390 74766172 61726729 205f5f61 74747269  tvararg) __attri
 73a0 62757465 5f5f2828 5f5f666f 726d6174  bute__((__format
 73b0 5f5f2028 5f5f7374 72666d6f 6e5f5f2c  __ (__strfmon__,
 73c0 20666d74 6172672c 20666972 73747661   fmtarg, firstva
 73d0 72617267 29292900 4d5f4956 4c4e3130  rarg))).M_IVLN10
 73e0 20302e34 33343239 34343831 39303332   0.4342944819032
 73f0 35313832 37363500 5f5f4641 53543332  5182765.__FAST32
 7400 20005f5f 5349475f 41544f4d 49435f57   .__SIG_ATOMIC_W
 7410 49445448 5f5f2033 32005f5f 474e5543  IDTH__ 32.__GNUC
 7420 5f505245 5245515f 5f286d61 2c6d6929  _PREREQ__(ma,mi)
 7430 205f5f47 4e55435f 50524552 4551286d   __GNUC_PREREQ(m
 7440 612c206d 6929005f 5f657870 6f727465  a, mi).__exporte
 7450 64205f5f 61747472 69627574 655f5f28  d __attribute__(
 7460 285f5f76 69736962 696c6974 795f5f28  (__visibility__(
 7470 22646566 61756c74 22292929 005f5f70  "default"))).__p
 7480 75726532 205f5f61 74747269 62757465  ure2 __attribute
 7490 5f5f2828 5f5f636f 6e73745f 5f292900  __((__const__)).
 74a0 5f5f4642 53444944 28732920 73747275  __FBSDID(s) stru
 74b0 6374205f 5f686163 6b007661 5f656e64  ct __hack.va_end
 74c0 28762920 5f5f6275 696c7469 6e5f7661  (v) __builtin_va
 74d0 5f656e64 28762900 5f5f756e 72656163  _end(v).__unreac
 74e0 6861626c 65282920 5f5f6275 696c7469  hable() __builti
 74f0 6e5f756e 72656163 6861626c 65282900  n_unreachable().
 7500 5f6c6266 73697a65 00535953 54454d5f  _lbfsize.SYSTEM_
 7510 4932435f 315f494f 5f435452 4c203078  I2C_1_IO_CTRL 0x
 7520 66383031 38303030 005f5f4c 4f434b5f  f8018000.__LOCK_
 7530 494e4954 5f524543 55525349 56452863  INIT_RECURSIVE(c
 7540 6c617373 2c6c6f63 6b292073 74617469  lass,lock) stati
 7550 6320696e 74206c6f 636b203d 20303b00  c int lock = 0;.
 7560 5f5f5349 5a454f46 5f57494e 545f545f  __SIZEOF_WINT_T_
 7570 5f203400 5f696e64 005f554e 4255465f  _ 4._ind._UNBUF_
 7580 53545245 414d5f4f 50542031 00676174  STREAM_OPT 1.gat
 7590 65776179 005f5f6c 6f636b73 5f736861  eway.__locks_sha
 75a0 72656428 2e2e2e29 205f5f6c 6f636b5f  red(...) __lock_
 75b0 616e6e6f 74617465 28736861 7265645f  annotate(shared_
 75c0 6c6f636b 5f66756e 6374696f 6e285f5f  lock_function(__
 75d0 56415f41 5247535f 5f292900 5f5f474e  VA_ARGS__)).__GN
 75e0 55434c49 4b455f41 534d2033 00475049  UCLIKE_ASM 3.GPI
 75f0 4f302053 59535445 4d5f4750 494f5f30  O0 SYSTEM_GPIO_0
 7600 5f494f5f 4354524c 005f5f49 4e545f46  _IO_CTRL.__INT_F
 7610 41535438 5f4d4158 5f5f2030 78376666  AST8_MAX__ 0x7ff
 7620 66666666 66005f5f 464c5433 325f4841  fffff.__FLT32_HA
 7630 535f4445 4e4f524d 5f5f2031 004d4158  S_DENORM__ 1.MAX
 7640 464c4f41 5420332e 34303238 32333437  FLOAT 3.40282347
 7650 652b3338 46004650 5f494c4f 47423020  e+38F.FP_ILOGB0 
 7660 282d5f5f 494e545f 4d41585f 5f29005f  (-__INT_MAX__)._
 7670 5f464153 54382000 5f524545 4e545f53  _FAST8 ._REENT_S
 7680 49474e47 414d2870 74722920 28287074  IGNGAM(ptr) ((pt
 7690 72292d3e 5f6e6577 2e5f7265 656e742e  r)->_new._reent.
 76a0 5f67616d 6d615f73 69676e67 616d2900  _gamma_signgam).
 76b0 5f4d4143 48494e45 5f5f5459 5045535f  _MACHINE__TYPES_
 76c0 4820005f 5f494e54 5f464153 5433325f  H .__INT_FAST32_
 76d0 57494454 485f5f20 3332005f 4e45574c  WIDTH__ 32._NEWL
 76e0 49425f56 45525349 4f4e2022 332e312e  IB_VERSION "3.1.
 76f0 3022005f 52414e44 34385f4d 554c545f  0"._RAND48_MULT_
 7700 30202830 78653636 6429005f 69735f63  0 (0xe66d)._is_c
 7710 7861005f 5f474e55 434c494b 455f4255  xa.__GNUCLIKE_BU
 7720 494c5449 4e5f5641 414c4953 54203100  ILTIN_VAALIST 1.
 7730 5f5f5349 5a454f46 5f4c4f4e 475f444f  __SIZEOF_LONG_DO
 7740 55424c45 5f5f2031 36004d49 455f4d54  UBLE__ 16.MIE_MT
 7750 49452028 31203c3c 20434155 53455f4d  IE (1 << CAUSE_M
 7760 41434849 4e455f54 494d4552 29005f6e  ACHINE_TIMER)._n
 7770 65787466 005f5f49 4e543332 20226c22  extf.__INT32 "l"
 7780 005f5f6c 6f636b5f 616e6e6f 74617465  .__lock_annotate
 7790 28782920 00524449 4e535452 45542030  (x) .RDINSTRET 0
 77a0 78433032 00737472 746f6466 20737472  xC02.strtodf str
 77b0 746f6600 5f5f464c 54313238 5f4d4158  tof.__FLT128_MAX
 77c0 5f5f2031 2e313839 37333134 39353335  __ 1.18973149535
 77d0 37323331 37363530 38353735 39333236  7231765085759326
 77e0 36323830 30373032 652b3439 33324631  62800702e+4932F1
 77f0 3238005f 5f55494e 5433325f 54595045  28.__UINT32_TYPE
 7800 5f5f206c 6f6e6720 756e7369 676e6564  __ long unsigned
 7810 20696e74 005f5f47 4e55434c 494b455f   int.__GNUCLIKE_
 7820 4d415448 5f425549 4c54494e 5f434f4e  MATH_BUILTIN_CON
 7830 5354414e 54532000 454e4142 4c455f50  STANTS .ENABLE_P
 7840 52494e54 465f5741 524e494e 47203100  RINTF_WARNING 1.
 7850 454e4142 4c455f4c 4f4e475f 4c4f4e47  ENABLE_LONG_LONG
 7860 5f535550 504f5254 2030005f 44454641  _SUPPORT 0._DEFA
 7870 554c545f 534f5552 4345005f 5f44424c  ULT_SOURCE.__DBL
 7880 5f484153 5f515549 45545f4e 414e5f5f  _HAS_QUIET_NAN__
 7890 2031005f 5f464c54 3132385f 4841535f   1.__FLT128_HAS_
 78a0 44454e4f 524d5f5f 2031005f 5f564552  DENORM__ 1.__VER
 78b0 53494f4e 5f5f2022 382e332e 3022005f  SION__ "8.3.0"._
 78c0 5f43435f 53555050 4f525453 5f574152  _CC_SUPPORTS_WAR
 78d0 4e494e47 20310070 6c696300 5f5f554c  NING 1.plic.__UL
 78e0 6f6e6700 5f5f6173 73657274 735f7368  ong.__asserts_sh
 78f0 61726564 282e2e2e 29205f5f 6c6f636b  ared(...) __lock
 7900 5f616e6e 6f746174 65286173 73657274  _annotate(assert
 7910 5f736861 7265645f 6c6f636b 285f5f56  _shared_lock(__V
 7920 415f4152 47535f5f 2929005f 5245454e  A_ARGS__))._REEN
 7930 545f4348 45434b5f 52414e44 34382870  T_CHECK_RAND48(p
 7940 74722920 005f494e 54385f54 5f444543  tr) ._INT8_T_DEC
 7950 4c415245 4420005f 5f6c6f63 6b5f7265  LARED .__lock_re
 7960 6c656173 65286c6f 636b2920 2828766f  lease(lock) ((vo
 7970 69642920 3029005f 5f53495a 454f465f  id) 0).__SIZEOF_
 7980 494e545f 5f203400 5f425344 5f574348  INT__ 4._BSD_WCH
 7990 41525f54 5f005549 4e543136 5f432878  AR_T_.UINT16_C(x
 79a0 29205f5f 55494e54 31365f43 28782900  ) __UINT16_C(x).
 79b0 53595354 454d5f52 49534356 5f495341  SYSTEM_RISCV_ISA
 79c0 5f455854 5f442030 005f5f6c 6f636b5f  _EXT_D 0.__lock_
 79d0 61637175 69726528 6c6f636b 29202828  acquire(lock) ((
 79e0 766f6964 29203029 00627370 5f707574  void) 0).bsp_put
 79f0 43686172 28632920 75617274 5f777269  Char(c) uart_wri
 7a00 74652842 53505f55 4152545f 5445524d  te(BSP_UART_TERM
 7a10 494e414c 2c206329 3b005f53 59535f5f  INAL, c);._SYS__
 7a20 494e5453 55505f48 20007265 61645f75  INTSUP_H .read_u
 7a30 3332004d 53544154 55533634 5f534420  32.MSTATUS64_SD 
 7a40 30783830 30303030 30303030 30303030  0x80000000000000
 7a50 3030005f 5f474e55 434c494b 455f4255  00.__GNUCLIKE_BU
 7a60 494c5449 4e5f4d45 4d435059 2031004d  ILTIN_MEMCPY 1.M
 7a70 5f50495f 3220312e 35373037 39363332  _PI_2 1.57079632
 7a80 36373934 38393636 31393233 005f7265  679489661923._re
 7a90 73756c74 00494e54 5f464153 5436345f  sult.INT_FAST64_
 7aa0 4d415820 285f5f49 4e545f46 41535436  MAX (__INT_FAST6
 7ab0 345f4d41 585f5f29 005f5f6c 6f636b61  4_MAX__).__locka
 7ac0 626c6520 5f5f6c6f 636b5f61 6e6e6f74  ble __lock_annot
 7ad0 61746528 6c6f636b 61626c65 29005f50  ate(lockable)._P
 7ae0 4f534958 5f534f55 52434520 31005f5f  OSIX_SOURCE 1.__
 7af0 4c44424c 5f4d494e 5f5f2033 2e333632  LDBL_MIN__ 3.362
 7b00 31303331 34333131 32303933 35303632  1031431120935062
 7b10 36323637 37383137 33323137 35323630  6267781732175260
 7b20 652d3439 33324c00 5f5f5549 4e545f46  e-4932L.__UINT_F
 7b30 41535431 365f5459 50455f5f 20756e73  AST16_TYPE__ uns
 7b40 69676e65 6420696e 7400696e 74657272  igned int.interr
 7b50 75707400 5f5f6e65 65645f77 696e745f  upt.__need_wint_
 7b60 74200053 59535445 4d5f5541 52545f30  t .SYSTEM_UART_0
 7b70 5f494f5f 50415241 4d455445 525f5541  _IO_PARAMETER_UA
 7b80 52545f43 54524c5f 434f4e46 49475f43  RT_CTRL_CONFIG_C
 7b90 4c4f434b 5f444956 49444552 5f574944  LOCK_DIVIDER_WID
 7ba0 54482032 30005f5f 53495a45 5f574944  TH 20.__SIZE_WID
 7bb0 54485f5f 20333200 464c545f 4556414c  TH__ 32.FLT_EVAL
 7bc0 5f4d4554 484f4420 5f5f464c 545f4556  _METHOD __FLT_EV
 7bd0 414c5f4d 4554484f 445f5f00 5f535953  AL_METHOD__._SYS
 7be0 5f535452 494e475f 4820005f 5f57494e  _STRING_H .__WIN
 7bf0 545f4d49 4e5f5f20 3055005f 6f66665f  T_MIN__ 0U._off_
 7c00 74005f5f 464c5436 345f4449 475f5f20  t.__FLT64_DIG__ 
 7c10 3135005f 494e5433 325f4551 5f4c4f4e  15._INT32_EQ_LON
 7c20 4720005f 5f464c54 5f4d494e 5f5f2031  G .__FLT_MIN__ 1
 7c30 2e313735 34393433 35303832 32323837  .175494350822287
 7c40 35303739 36383733 36353337 32323232  5079687365372222
 7c50 34353638 652d3338 46005f5f 43435f53  4568e-38F.__CC_S
 7c60 5550504f 5254535f 5f5f4655 4e435f5f  UPPORTS___FUNC__
 7c70 2031005f 5f494e54 5f4c4541 5354385f   1.__INT_LEAST8_
 7c80 57494454 485f5f20 38005359 5354454d  WIDTH__ 8.SYSTEM
 7c90 5f493243 5f305f49 4f5f4354 524c2030  _I2C_0_IO_CTRL 0
 7ca0 78663830 31373030 30005f5f 6c6f6e67  xf8017000.__long
 7cb0 5f646f75 626c655f 74206c6f 6e672064  _double_t long d
 7cc0 6f75626c 65005f5f 494e545f 4c454153  ouble.__INT_LEAS
 7cd0 5431365f 54595045 5f5f2073 686f7274  T16_TYPE__ short
 7ce0 20696e74 005f6164 64005359 5354454d   int._add.SYSTEM
 7cf0 5f434c49 4e545f48 5a203235 30303030  _CLINT_HZ 250000
 7d00 3030005f 5f585354 52494e47 28782920  00.__XSTRING(x) 
 7d10 5f5f5354 52494e47 28782900 5f5f4445  __STRING(x).__DE
 7d20 434f4e53 54287479 70652c76 61722920  CONST(type,var) 
 7d30 28287479 70652928 5f5f7569 6e747074  ((type)(__uintpt
 7d40 725f7429 28636f6e 73742076 6f696420  r_t)(const void 
 7d50 2a292876 61722929 00434155 53455f4d  *)(var)).CAUSE_M
 7d60 41434849 4e455f54 494d4552 20370066  ACHINE_TIMER 7.f
 7d70 6c6f6174 004d5354 41545553 5f545720  loat.MSTATUS_TW 
 7d80 30783030 32303030 3030005f 5f746d5f  0x00200000.__tm_
 7d90 686f7572 005f5245 454e545f 47455444  hour._REENT_GETD
 7da0 4154455f 4552525f 50287074 72292028  ATE_ERR_P(ptr) (
 7db0 26282870 7472292d 3e5f6e65 772e5f72  &((ptr)->_new._r
 7dc0 65656e74 2e5f6765 74646174 655f6572  eent._getdate_er
 7dd0 72292900 5f5f7346 494c4500 5f5f464c  r)).__sFILE.__FL
 7de0 5436345f 4d414e54 5f444947 5f5f2035  T64_MANT_DIG__ 5
 7df0 33005f5f 4c44424c 5f4d494e 5f455850  3.__LDBL_MIN_EXP
 7e00 5f5f2028 2d313633 38312900 5f5f636f  __ (-16381).__co
 7e10 6d70696c 65725f6d 656d6261 72282920  mpiler_membar() 
 7e20 5f5f6173 6d205f5f 766f6c61 74696c65  __asm __volatile
 7e30 28222022 203a203a 203a2022 6d656d6f  (" " : : : "memo
 7e40 72792229 004d5354 41545553 5f534945  ry").MSTATUS_SIE
 7e50 20307830 30303030 30303200 5f524545   0x00000002._REE
 7e60 4e545f53 5452544f 4b5f4c41 53542870  NT_STRTOK_LAST(p
 7e70 74722920 28287074 72292d3e 5f6e6577  tr) ((ptr)->_new
 7e80 2e5f7265 656e742e 5f737472 746f6b5f  ._reent._strtok_
 7e90 6c617374 29004249 545f3132 20283120  last).BIT_12 (1 
 7ea0 3c3c2031 3229005f 5f44424c 5f455053  << 12).__DBL_EPS
 7eb0 494c4f4e 5f5f2028 28646f75 626c6529  ILON__ ((double)
 7ec0 322e3232 30343436 30343932 35303331  2.22044604925031
 7ed0 33303830 38343732 36333333 36313831  3080847263336181
 7ee0 36343036 32652d31 364c2900 5f5f6e65  64062e-16L).__ne
 7ef0 65645f5f 5f76615f 6c697374 005f5f6c  ed___va_list.__l
 7f00 6f636b5f 7472795f 61637175 6972655f  ock_try_acquire_
 7f10 72656375 72736976 65286c6f 636b2920  recursive(lock) 
 7f20 2828766f 69642920 30290053 59535445  ((void) 0).SYSTE
 7f30 4d5f5350 495f315f 494f5f43 54524c20  M_SPI_1_IO_CTRL 
 7f40 30786638 30313530 30300053 59535445  0xf8015000.SYSTE
 7f50 4d5f504c 49435f53 59535445 4d5f4932  M_PLIC_SYSTEM_I2
 7f60 435f305f 494f5f49 4e544552 52555054  C_0_IO_INTERRUPT
 7f70 2038005f 6d627372 746f7763 735f7374   8._mbsrtowcs_st
 7f80 61746500 5f5f6174 74726962 7574655f  ate.__attribute_
 7f90 70757265 5f5f2000 55494e54 385f4d41  pure__ .UINT8_MA
 7fa0 5820285f 5f55494e 54385f4d 41585f5f  X (__UINT8_MAX__
 7fb0 29005f5f 4c4f4e47 5f4d4158 5f5f2030  ).__LONG_MAX__ 0
 7fc0 78376666 66666666 664c005f 5f4c4442  x7fffffffL.__LDB
 7fd0 4c5f4550 53494c4f 4e5f5f20 312e3932  L_EPSILON__ 1.92
 7fe0 35393239 39343433 38373233 35383533  5929944387235853
 7ff0 30353539 37373934 32353834 39323733  0559779425849273
 8000 32652d33 344c0047 50494f5f 494e5445  2e-34L.GPIO_INTE
 8010 52525550 545f4849 47485f45 4e41424c  RRUPT_HIGH_ENABL
 8020 45203078 3238006c 6f6e6720 2b34005f  E 0x28.long +4._
 8030 5f696e74 33325f74 005f5f6e 6f6e6e75  _int32_t.__nonnu
 8040 6c6c2878 29205f5f 61747472 69627574  ll(x) __attribut
 8050 655f5f28 285f5f6e 6f6e6e75 6c6c5f5f  e__((__nonnull__
 8060 20782929 005f5241 4e443438 5f414444   x))._RAND48_ADD
 8070 20283078 30303062 29004d53 54415455   (0x000b).MSTATU
 8080 535f4d49 45203078 30303030 30303038  S_MIE 0x00000008
 8090 00535354 41545553 5f4d5852 20307830  .SSTATUS_MXR 0x0
 80a0 30303830 30303000 4249545f 32302028  0080000.BIT_20 (
 80b0 31203c3c 20323029 00475049 4f5f494e  1 << 20).GPIO_IN
 80c0 54455252 5550545f 52495345 5f454e41  TERRUPT_RISE_ENA
 80d0 424c4520 30783230 00535953 54454d5f  BLE 0x20.SYSTEM_
 80e0 504c4943 5f435452 4c203078 66386330  PLIC_CTRL 0xf8c0
 80f0 30303030 005f5f46 4c543332 585f4d41  0000.__FLT32X_MA
 8100 4e545f44 49475f5f 20353300 6273705f  NT_DIG__ 53.bsp_
 8110 696e6974 2829207b 7d005f5f 57434841  init() {}.__WCHA
 8120 525f5749 4454485f 5f203332 005f494e  R_WIDTH__ 32._IN
 8130 5436345f 545f4445 434c4152 45442000  T64_T_DECLARED .
 8140 5f5f7367 6c756500 5f5f434f 4e434154  __sglue.__CONCAT
 8150 28782c79 29205f5f 434f4e43 41543128  (x,y) __CONCAT1(
 8160 782c7929 00636861 72616374 6572005f  x,y).character._
 8170 5f494e54 31365f43 28632920 63006273  _INT16_C(c) c.bs
 8180 705f7072 696e7466 005f5f76 615f6c69  p_printf.__va_li
 8190 73745f5f 20005f66 6e617267 73007368  st__ ._fnargs.sh
 81a0 6f727420 2b31005f 5f746d5f 69736473  ort +1.__tm_isds
 81b0 74005f5f 44455155 414c4946 59287479  t.__DEQUALIFY(ty
 81c0 70652c76 61722920 28287479 70652928  pe,var) ((type)(
 81d0 5f5f7569 6e747074 725f7429 28636f6e  __uintptr_t)(con
 81e0 73742076 6f6c6174 696c6520 766f6964  st volatile void
 81f0 202a2928 76617229 29005f52 45454e54   *)(var))._REENT
 8200 5f494e49 545f5054 525f5a45 524f4544  _INIT_PTR_ZEROED
 8210 28766172 29207b20 28766172 292d3e5f  (var) { (var)->_
 8220 73746469 6e203d20 5f524545 4e545f53  stdin = _REENT_S
 8230 5444494f 5f535452 45414d28 7661722c  TDIO_STREAM(var,
 8240 2030293b 20287661 72292d3e 5f737464   0); (var)->_std
 8250 6f757420 3d205f52 45454e54 5f535444  out = _REENT_STD
 8260 494f5f53 54524541 4d287661 722c2031  IO_STREAM(var, 1
 8270 293b2028 76617229 2d3e5f73 74646572  ); (var)->_stder
 8280 72203d20 5f524545 4e545f53 5444494f  r = _REENT_STDIO
 8290 5f535452 45414d28 7661722c 2032293b  _STREAM(var, 2);
 82a0 20287661 72292d3e 5f6e6577 2e5f7265   (var)->_new._re
 82b0 656e742e 5f72616e 645f6e65 7874203d  ent._rand_next =
 82c0 20313b20 28766172 292d3e5f 6e65772e   1; (var)->_new.
 82d0 5f726565 6e742e5f 7234382e 5f736565  _reent._r48._see
 82e0 645b305d 203d205f 52414e44 34385f53  d[0] = _RAND48_S
 82f0 4545445f 303b2028 76617229 2d3e5f6e  EED_0; (var)->_n
 8300 65772e5f 7265656e 742e5f72 34382e5f  ew._reent._r48._
 8310 73656564 5b315d20 3d205f52 414e4434  seed[1] = _RAND4
 8320 385f5345 45445f31 3b202876 6172292d  8_SEED_1; (var)-
 8330 3e5f6e65 772e5f72 65656e74 2e5f7234  >_new._reent._r4
 8340 382e5f73 6565645b 325d203d 205f5241  8._seed[2] = _RA
 8350 4e443438 5f534545 445f323b 20287661  ND48_SEED_2; (va
 8360 72292d3e 5f6e6577 2e5f7265 656e742e  r)->_new._reent.
 8370 5f723438 2e5f6d75 6c745b30 5d203d20  _r48._mult[0] = 
 8380 5f52414e 4434385f 4d554c54 5f303b20  _RAND48_MULT_0; 
 8390 28766172 292d3e5f 6e65772e 5f726565  (var)->_new._ree
 83a0 6e742e5f 7234382e 5f6d756c 745b315d  nt._r48._mult[1]
 83b0 203d205f 52414e44 34385f4d 554c545f   = _RAND48_MULT_
 83c0 313b2028 76617229 2d3e5f6e 65772e5f  1; (var)->_new._
 83d0 7265656e 742e5f72 34382e5f 6d756c74  reent._r48._mult
 83e0 5b325d20 3d205f52 414e4434 385f4d55  [2] = _RAND48_MU
 83f0 4c545f32 3b202876 6172292d 3e5f6e65  LT_2; (var)->_ne
 8400 772e5f72 65656e74 2e5f7234 382e5f61  w._reent._r48._a
 8410 6464203d 205f5241 4e443438 5f414444  dd = _RAND48_ADD
 8420 3b207d00 4546585f 53454d49 484f5354  ; }.EFX_SEMIHOST
 8430 494e475f 4820005f 5f41544f 4d49435f  ING_H .__ATOMIC_
 8440 4143515f 52454c20 34005f5f 494e545f  ACQ_REL 4.__INT_
 8450 4c454153 54385f54 5950455f 5f207369  LEAST8_TYPE__ si
 8460 676e6564 20636861 72005f5f 494e5433  gned char.__INT3
 8470 325f5459 50455f5f 206c6f6e 6720696e  2_TYPE__ long in
 8480 74005f5f 7061636b 6564205f 5f617474  t.__packed __att
 8490 72696275 74655f5f 28285f5f 7061636b  ribute__((__pack
 84a0 65645f5f 2929005f 5f44424c 5f4d494e  ed__)).__DBL_MIN
 84b0 5f31305f 4558505f 5f20282d 33303729  _10_EXP__ (-307)
 84c0 004d5354 41545553 5f484945 20307830  .MSTATUS_HIE 0x0
 84d0 30303030 30303400 5f57414e 545f494f  0000004._WANT_IO
 84e0 5f4c4f4e 475f4c4f 4e472031 0046505f  _LONG_LONG 1.FP_
 84f0 494e4649 4e495445 20310053 59535445  INFINITE 1.SYSTE
 8500 4d5f5541 52545f30 5f494f5f 50415241  M_UART_0_IO_PARA
 8510 4d455445 525f5541 52545f43 54524c5f  METER_UART_CTRL_
 8520 434f4e46 49475f43 54535f47 454e2030  CONFIG_CTS_GEN 0
 8530 005f5f44 424c5f44 454e4f52 4d5f4d49  .__DBL_DENORM_MI
 8540 4e5f5f20 2828646f 75626c65 29342e39  N__ ((double)4.9
 8550 34303635 36343538 34313234 36353434  4065645841246544
 8560 31373635 36383739 32383638 32323133  1765687928682213
 8570 3732652d 3332344c 29004253 505f434c  72e-324L).BSP_CL
 8580 494e5420 53595354 454d5f43 4c494e54  INT SYSTEM_CLINT
 8590 5f435452 4c005f5f 4c44424c 5f444947  _CTRL.__LDBL_DIG
 85a0 5f5f2033 33005f5f 696e7432 3000494e  __ 33.__int20.IN
 85b0 545f4641 53543332 5f4d4158 20285f5f  T_FAST32_MAX (__
 85c0 494e545f 46415354 33325f4d 41585f5f  INT_FAST32_MAX__
 85d0 29005f5f 746d5f6d 696e005f 5245454e  ).__tm_min._REEN
 85e0 545f4153 4354494d 455f5349 5a452032  T_ASCTIME_SIZE 2
 85f0 3600494e 54505452 5f4d494e 20282d5f  6.INTPTR_MIN (-_
 8600 5f494e54 5054525f 4d41585f 5f202d20  _INTPTR_MAX__ - 
 8610 31290053 59535445 4d5f504c 49435f53  1).SYSTEM_PLIC_S
 8620 59535445 4d5f5350 495f315f 494f5f49  YSTEM_SPI_1_IO_I
 8630 4e544552 52555054 20350062 73705f70  NTERRUPT 5.bsp_p
 8640 75745374 72696e67 28732920 75617274  utString(s) uart
 8650 5f777269 74655374 72284253 505f5541  _writeStr(BSP_UA
 8660 52545f54 45524d49 4e414c2c 2073293b  RT_TERMINAL, s);
 8670 005f5641 5f4c4953 545f2000 5f504f53  ._VA_LIST_ ._POS
 8680 49585f43 5f534f55 52434500 5f5f5549  IX_C_SOURCE.__UI
 8690 4e544d41 585f4d41 585f5f20 30786666  NTMAX_MAX__ 0xff
 86a0 66666666 66666666 66666666 6666554c  ffffffffffffffUL
 86b0 4c005f5f 44424c5f 4d414e54 5f444947  L.__DBL_MANT_DIG
 86c0 5f5f2035 33005f5f 756e626f 756e6465  __ 53.__unbounde
 86d0 6420005f 52414e44 34385f53 4545445f  d ._RAND48_SEED_
 86e0 32202830 78313233 3429005f 5f535953  2 (0x1234).__SYS
 86f0 5f4c4f43 4b5f485f 5f20005f 5245454e  _LOCK_H__ ._REEN
 8700 545f494e 49545f41 54455849 54205f4e  T_INIT_ATEXIT _N
 8710 554c4c2c 205f4154 45584954 5f494e49  ULL, _ATEXIT_INI
 8720 542c005f 4743435f 53495a45 5f542000  T,._GCC_SIZE_T .
 8730 4249545f 32372028 31203c3c 20323729  BIT_27 (1 << 27)
 8740 005f5f49 4e545f4d 41585f5f 20307837  .__INT_MAX__ 0x7
 8750 66666666 66666600 5f5f5549 4e543136  fffffff.__UINT16
 8760 5f4d4158 5f5f2030 78666666 66005f52  _MAX__ 0xffff._R
 8770 45454e54 5f494e49 54287661 7229207b  EENT_INIT(var) {
 8780 20302c20 5f524545 4e545f53 5444494f   0, _REENT_STDIO
 8790 5f535452 45414d28 26287661 72292c20  _STREAM(&(var), 
 87a0 30292c20 5f524545 4e545f53 5444494f  0), _REENT_STDIO
 87b0 5f535452 45414d28 26287661 72292c20  _STREAM(&(var), 
 87c0 31292c20 5f524545 4e545f53 5444494f  1), _REENT_STDIO
 87d0 5f535452 45414d28 26287661 72292c20  _STREAM(&(var), 
 87e0 32292c20 302c2022 222c2030 2c205f4e  2), 0, "", 0, _N
 87f0 554c4c2c 20302c20 5f4e554c 4c2c205f  ULL, 0, _NULL, _
 8800 4e554c4c 2c20302c 205f4e55 4c4c2c20  NULL, 0, _NULL, 
 8810 5f4e554c 4c2c2030 2c205f4e 554c4c2c  _NULL, 0, _NULL,
 8820 207b207b 20302c20 5f4e554c 4c2c2022   { { 0, _NULL, "
 8830 222c207b 302c2030 2c20302c 20302c20  ", {0, 0, 0, 0, 
 8840 302c2030 2c20302c 20302c20 307d2c20  0, 0, 0, 0, 0}, 
 8850 302c2031 2c207b20 7b5f5241 4e443438  0, 1, { {_RAND48
 8860 5f534545 445f302c 205f5241 4e443438  _SEED_0, _RAND48
 8870 5f534545 445f312c 205f5241 4e443438  _SEED_1, _RAND48
 8880 5f534545 445f327d 2c207b5f 52414e44  _SEED_2}, {_RAND
 8890 34385f4d 554c545f 302c205f 52414e44  48_MULT_0, _RAND
 88a0 34385f4d 554c545f 312c205f 52414e44  48_MULT_1, _RAND
 88b0 34385f4d 554c545f 327d2c20 5f52414e  48_MULT_2}, _RAN
 88c0 4434385f 41444420 7d2c207b 302c207b  D48_ADD }, {0, {
 88d0 307d7d2c 207b302c 207b307d 7d2c207b  0}}, {0, {0}}, {
 88e0 302c207b 307d7d2c 2022222c 2022222c  0, {0}}, "", "",
 88f0 20302c20 7b302c20 7b307d7d 2c207b30   0, {0, {0}}, {0
 8900 2c207b30 7d7d2c20 7b302c20 7b307d7d  , {0}}, {0, {0}}
 8910 2c207b30 2c207b30 7d7d2c20 7b302c20  , {0, {0}}, {0, 
 8920 7b307d7d 207d207d 2c205f52 45454e54  {0}} } }, _REENT
 8930 5f494e49 545f4154 45584954 205f4e55  _INIT_ATEXIT _NU
 8940 4c4c2c20 7b5f4e55 4c4c2c20 302c205f  LL, {_NULL, 0, _
 8950 4e554c4c 7d207d00 5f5f616c 77617973  NULL} }.__always
 8960 5f696e6c 696e6520 5f5f696e 6c696e65  _inline __inline
 8970 5f5f205f 5f617474 72696275 74655f5f  __ __attribute__
 8980 28285f5f 616c7761 79735f69 6e6c696e  ((__always_inlin
 8990 655f5f29 29005f5f 4c6f6e67 206c6f6e  e__)).__Long lon
 89a0 67005359 5354454d 5f555345 525f5449  g.SYSTEM_USER_TI
 89b0 4d45525f 305f4354 524c2030 78663830  MER_0_CTRL 0xf80
 89c0 31393030 30002e2e 2f636f6d 6d6f6e2f  19000.../common/
 89d0 73746172 742e5300 474e5520 41532032  start.S.GNU AS 2
 89e0 2e333200 2e2e2f63 6f6d6d6f 6e2f7472  .32.../common/tr
 89f0 61702e53 00                          ap.S.           
Contents of section .comment:
 0000 4743433a 20287850 61636b20 474e5520  GCC: (xPack GNU 
 0010 52495343 2d562045 6d626564 64656420  RISC-V Embedded 
 0020 4743432c 2036342d 62697429 20382e33  GCC, 64-bit) 8.3
 0030 2e3000                               .0.             
Contents of section .debug_frame:
 0000 0c000000 ffffffff 0100017c 010d0200  ...........|....
 0010 0c000000 00000000 f80000f9 10000000  ................
 0020 20000000 00000000 080100f9 3c000000   ...........<...
 0030 440e104c 81018802 89035cc1 44c844c9  D..L......\.D.D.
 0040 440e0000 0c000000 00000000 440100f9  D...........D...
 0050 34000000 18000000 00000000 780100f9  4...........x...
 0060 20000000 440e1044 810150c1 440e0000   ...D..D..P.D...
 0070 1c000000 00000000 980100f9 34000000  ............4...
 0080 440e1048 81018802 5cc144c8 440e0000  D..H....\.D.D...
 0090 20000000 00000000 cc0100f9 54000000   ...........T...
 00a0 440e104c 81018802 890374c1 44c844c9  D..L......t.D.D.
 00b0 440e0000 20000000 00000000 200200f9  D... ....... ...
 00c0 54000000 440e104c 81018802 890374c1  T...D..L......t.
 00d0 44c844c9 440e0000 18000000 00000000  D.D.D...........
 00e0 740200f9 1c000000 440e1044 81014cc1  t.......D..D..L.
 00f0 440e0000 18000000 00000000 900200f9  D...............
 0100 18000000 440e1044 810148c1 440e0000  ....D..D..H.D...
 0110 20000000 00000000 a80200f9 80000000   ...............
 0120 440e304c 81018802 89030260 c144c844  D.0L.......`.D.D
 0130 c9440e00 18000000 00000000 280300f9  .D..........(...
 0140 40000000 440e1044 810170c1 440e0000  @...D..D..p.D...
 0150 18000000 00000000 680300f9 40000000  ........h...@...
 0160 440e1044 810170c1 440e0000 0c000000  D..D..p.D.......
 0170 00000000 a80300f9 10000000 0c000000  ................
 0180 00000000 b80300f9 4c000000 0c000000  ........L.......
 0190 00000000 040400f9 18000000 0c000000  ................
 01a0 00000000 1c0400f9 1c000000 0c000000  ................
 01b0 00000000 380400f9 1c000000 24000000  ....8.......$...
 01c0 00000000 540400f9 38010000 440e404c  ....T...8...D.@L
 01d0 8109880a 890b0318 01c144c8 44c9440e  ..........D.D.D.
 01e0 00000000 18000000 00000000 8c0500f9  ................
 01f0 80000000 440e1044 81010270 c1440e00  ....D..D...p.D..
 0200 14000000 00000000 0c0600f9 18000000  ................
 0210 440e1044 81010000 1c000000 00000000  D..D............
 0220 240600f9 5c000000 440e1048 81018802  $...\...D..H....
 0230 0244c144 c8440e00 1c000000 00000000  .D.D.D..........
 0240 800600f9 34000000 440e1044 81015c0a  ....4...D..D..\.
 0250 c1440e00 440b0000 14000000 00000000  .D..D...........
 0260 b40600f9 a8000000 440e1048 81018802  ........D..H....
 0270 0c000000 ffffffff 0100017c 010d0200  ...........|....
 0280 28000000 70020000 640000f9 94000000  (...p...d.......
 0290 440e1048 88029204 5c810189 030258c1  D..H....\.....X.
 02a0 44c844c9 44d2440e 00000000           D.D.D.D.....    

Disassembly of section .rom_section.init:

f9000000 <_start>:

_start:
#ifdef USE_GP
.option push
.option norelax
	la gp, __global_pointer$
f9000000:	00081197          	auipc	gp,0x81
f9000004:	97018193          	addi	gp,gp,-1680 # f9080970 <__global_pointer$>

f9000008 <init>:
	sw a0, smp_lottery_lock, a1
    ret
#endif

init:
	la sp, _sp
f9000008:	00082117          	auipc	sp,0x82
f900000c:	18810113          	addi	sp,sp,392 # f9082190 <__freertos_irq_stack_top>

	/* Load data section */
	la a0, _data_lma
f9000010:	00080517          	auipc	a0,0x80
f9000014:	ff050513          	addi	a0,a0,-16 # f9080000 <__init_array_end>
	la a1, _data
f9000018:	00080597          	auipc	a1,0x80
f900001c:	fe858593          	addi	a1,a1,-24 # f9080000 <__init_array_end>
	la a2, _edata
f9000020:	81c18613          	addi	a2,gp,-2020 # f908018c <__bss_start>
	bgeu a1, a2, 2f
f9000024:	00c5fc63          	bgeu	a1,a2,f900003c <init+0x34>
1:
	lw t0, (a0)
f9000028:	00052283          	lw	t0,0(a0)
	sw t0, (a1)
f900002c:	0055a023          	sw	t0,0(a1)
	addi a0, a0, 4
f9000030:	00450513          	addi	a0,a0,4
	addi a1, a1, 4
f9000034:	00458593          	addi	a1,a1,4
	bltu a1, a2, 1b
f9000038:	fec5e8e3          	bltu	a1,a2,f9000028 <init+0x20>
2:

	/* Clear bss section */
	la a0, __bss_start
f900003c:	81c18513          	addi	a0,gp,-2020 # f908018c <__bss_start>
	la a1, _end
f9000040:	82018593          	addi	a1,gp,-2016 # f9080190 <_end>
	bgeu a0, a1, 2f
f9000044:	00b57863          	bgeu	a0,a1,f9000054 <init+0x4c>
1:
	sw zero, (a0)
f9000048:	00052023          	sw	zero,0(a0)
	addi a0, a0, 4
f900004c:	00450513          	addi	a0,a0,4
	bltu a0, a1, 1b
f9000050:	feb56ce3          	bltu	a0,a1,f9000048 <init+0x40>
2:

#ifndef NO_LIBC_INIT_ARRAY
	call __libc_init_array
f9000054:	010000ef          	jal	ra,f9000064 <__libc_init_array>
#endif

	call main
f9000058:	65c000ef          	jal	ra,f90006b4 <main>

f900005c <mainDone>:
mainDone:
    j mainDone
f900005c:	0000006f          	j	f900005c <mainDone>

f9000060 <_init>:


	.globl _init
_init:
    ret
f9000060:	00008067          	ret

Disassembly of section .rom_section.text:

f9000064 <__libc_init_array>:
f9000064:	ff010113          	addi	sp,sp,-16
f9000068:	00812423          	sw	s0,8(sp)
f900006c:	01212023          	sw	s2,0(sp)
f9000070:	00080417          	auipc	s0,0x80
f9000074:	f9040413          	addi	s0,s0,-112 # f9080000 <__init_array_end>
f9000078:	00080917          	auipc	s2,0x80
f900007c:	f8890913          	addi	s2,s2,-120 # f9080000 <__init_array_end>
f9000080:	40890933          	sub	s2,s2,s0
f9000084:	00112623          	sw	ra,12(sp)
f9000088:	00912223          	sw	s1,4(sp)
f900008c:	40295913          	srai	s2,s2,0x2
f9000090:	00090e63          	beqz	s2,f90000ac <__libc_init_array+0x48>
f9000094:	00000493          	li	s1,0
f9000098:	00042783          	lw	a5,0(s0)
f900009c:	00148493          	addi	s1,s1,1
f90000a0:	00440413          	addi	s0,s0,4
f90000a4:	000780e7          	jalr	a5
f90000a8:	fe9918e3          	bne	s2,s1,f9000098 <__libc_init_array+0x34>
f90000ac:	00080417          	auipc	s0,0x80
f90000b0:	f5440413          	addi	s0,s0,-172 # f9080000 <__init_array_end>
f90000b4:	00080917          	auipc	s2,0x80
f90000b8:	f4c90913          	addi	s2,s2,-180 # f9080000 <__init_array_end>
f90000bc:	40890933          	sub	s2,s2,s0
f90000c0:	40295913          	srai	s2,s2,0x2
f90000c4:	00090e63          	beqz	s2,f90000e0 <__libc_init_array+0x7c>
f90000c8:	00000493          	li	s1,0
f90000cc:	00042783          	lw	a5,0(s0)
f90000d0:	00148493          	addi	s1,s1,1
f90000d4:	00440413          	addi	s0,s0,4
f90000d8:	000780e7          	jalr	a5
f90000dc:	fe9918e3          	bne	s2,s1,f90000cc <__libc_init_array+0x68>
f90000e0:	00c12083          	lw	ra,12(sp)
f90000e4:	00812403          	lw	s0,8(sp)
f90000e8:	00412483          	lw	s1,4(sp)
f90000ec:	00012903          	lw	s2,0(sp)
f90000f0:	01010113          	addi	sp,sp,16
f90000f4:	00008067          	ret

f90000f8 <uart_writeAvailability>:
#include "type.h"
#include "soc.h"


    static inline u32 read_u32(u32 address){
        return *((volatile u32*) address);
f90000f8:	00452503          	lw	a0,4(a0)
        enum UartStop stop;
        u32 clockDivider;
    } Uart_Config;
    
    static u32 uart_writeAvailability(u32 reg){
        return (read_u32(reg + UART_STATUS) >> 16) & 0xFF;
f90000fc:	01055513          	srli	a0,a0,0x10
    }
f9000100:	0ff57513          	andi	a0,a0,255
f9000104:	00008067          	ret

f9000108 <uart_write>:
    static u32 uart_readOccupancy(u32 reg){
        return read_u32(reg + UART_STATUS) >> 24;
    }
    
    static void uart_write(u32 reg, char data){
f9000108:	ff010113          	addi	sp,sp,-16
f900010c:	00112623          	sw	ra,12(sp)
f9000110:	00812423          	sw	s0,8(sp)
f9000114:	00912223          	sw	s1,4(sp)
f9000118:	00050413          	mv	s0,a0
f900011c:	00058493          	mv	s1,a1
        while(uart_writeAvailability(reg) == 0);
f9000120:	00040513          	mv	a0,s0
f9000124:	fd5ff0ef          	jal	ra,f90000f8 <uart_writeAvailability>
f9000128:	fe050ce3          	beqz	a0,f9000120 <uart_write+0x18>
    }
    
    static inline void write_u32(u32 data, u32 address){
        *((volatile u32*) address) = data;
f900012c:	00942023          	sw	s1,0(s0)
        write_u32(data, reg + UART_DATA);
    }
f9000130:	00c12083          	lw	ra,12(sp)
f9000134:	00812403          	lw	s0,8(sp)
f9000138:	00412483          	lw	s1,4(sp)
f900013c:	01010113          	addi	sp,sp,16
f9000140:	00008067          	ret

f9000144 <clint_uDelay>:
    
        return (((u64)hi) << 32) | lo;
    }
    
    static void clint_uDelay(u32 usec, u32 hz, u32 reg){
        u32 mTimePerUsec = hz/1000000;
f9000144:	000f47b7          	lui	a5,0xf4
f9000148:	24078793          	addi	a5,a5,576 # f4240 <__stack_size+0xf2240>
f900014c:	02f5d5b3          	divu	a1,a1,a5
    readReg_u32 (clint_getTimeLow , CLINT_TIME_ADDR)
f9000150:	0000c7b7          	lui	a5,0xc
f9000154:	ff878793          	addi	a5,a5,-8 # bff8 <__stack_size+0x9ff8>
f9000158:	00f60633          	add	a2,a2,a5
        return *((volatile u32*) address);
f900015c:	00062783          	lw	a5,0(a2)
        u32 limit = clint_getTimeLow(reg) + usec*mTimePerUsec;
f9000160:	02a58533          	mul	a0,a1,a0
f9000164:	00f50533          	add	a0,a0,a5
f9000168:	00062783          	lw	a5,0(a2)
        while((int32_t)(limit-(clint_getTimeLow(reg))) >= 0);
f900016c:	40f507b3          	sub	a5,a0,a5
f9000170:	fe07dce3          	bgez	a5,f9000168 <clint_uDelay+0x24>
    }
f9000174:	00008067          	ret

f9000178 <_putchar>:
// use bsp_printf_full as bsp_printf
#define ENABLE_BRIDGE_FULL_TO_LITE          1 // If this is enabled, bsp_printf_full can be called with bsp_printf. Enabling both ENABLE_BSP_PRINTF and ENABLE_BSP_PRINTF_FULL, bsp_printf_full will be remained as bsp_printf_full. Default: Enable
#define ENABLE_PRINTF_WARNING               1 // Print warning when the specifier not supported. Default: Enable


    static void _putchar(char character){
f9000178:	ff010113          	addi	sp,sp,-16
f900017c:	00112623          	sw	ra,12(sp)
        #if (ENABLE_SEMIHOSTING_PRINT == 1)
            sh_writec(character);
        #else
            bsp_putChar(character);
f9000180:	00050593          	mv	a1,a0
f9000184:	f8010537          	lui	a0,0xf8010
f9000188:	f81ff0ef          	jal	ra,f9000108 <uart_write>
        #endif // (ENABLE_SEMIHOSTING_PRINT == 1)
    }
f900018c:	00c12083          	lw	ra,12(sp)
f9000190:	01010113          	addi	sp,sp,16
f9000194:	00008067          	ret

f9000198 <_putchar_s>:

    static void _putchar_s(char *p)
    {
f9000198:	ff010113          	addi	sp,sp,-16
f900019c:	00112623          	sw	ra,12(sp)
f90001a0:	00812423          	sw	s0,8(sp)
f90001a4:	00050413          	mv	s0,a0
    #if (ENABLE_SEMIHOSTING_PRINT == 1)
        sh_write0(p);
    #else
        while (*p)
f90001a8:	00044503          	lbu	a0,0(s0)
f90001ac:	00050863          	beqz	a0,f90001bc <_putchar_s+0x24>
            _putchar(*(p++));
f90001b0:	00140413          	addi	s0,s0,1
f90001b4:	fc5ff0ef          	jal	ra,f9000178 <_putchar>
f90001b8:	ff1ff06f          	j	f90001a8 <_putchar_s+0x10>
    #endif // (ENABLE_SEMIHOSTING_PRINT == 1)
    }
f90001bc:	00c12083          	lw	ra,12(sp)
f90001c0:	00812403          	lw	s0,8(sp)
f90001c4:	01010113          	addi	sp,sp,16
f90001c8:	00008067          	ret

f90001cc <bsp_printHex>:


    //bsp_printHex is used in BSP_PRINTF
    static void bsp_printHex(uint32_t val)
    {
f90001cc:	ff010113          	addi	sp,sp,-16
f90001d0:	00112623          	sw	ra,12(sp)
f90001d4:	00812423          	sw	s0,8(sp)
f90001d8:	00912223          	sw	s1,4(sp)
f90001dc:	00050493          	mv	s1,a0
        uint32_t digits;
        digits =8;

        for (int i = (4*digits)-4; i >= 0; i -= 4) {
f90001e0:	01c00413          	li	s0,28
f90001e4:	0240006f          	j	f9000208 <bsp_printHex+0x3c>
            _putchar("0123456789ABCDEF"[(val >> i) % 16]);
f90001e8:	0084d7b3          	srl	a5,s1,s0
f90001ec:	00f7f713          	andi	a4,a5,15
f90001f0:	f90807b7          	lui	a5,0xf9080
f90001f4:	00078793          	mv	a5,a5
f90001f8:	00e787b3          	add	a5,a5,a4
f90001fc:	0007c503          	lbu	a0,0(a5) # f9080000 <__freertos_irq_stack_top+0xffffde70>
f9000200:	f79ff0ef          	jal	ra,f9000178 <_putchar>
        for (int i = (4*digits)-4; i >= 0; i -= 4) {
f9000204:	ffc40413          	addi	s0,s0,-4
f9000208:	fe0450e3          	bgez	s0,f90001e8 <bsp_printHex+0x1c>
        }
    }
f900020c:	00c12083          	lw	ra,12(sp)
f9000210:	00812403          	lw	s0,8(sp)
f9000214:	00412483          	lw	s1,4(sp)
f9000218:	01010113          	addi	sp,sp,16
f900021c:	00008067          	ret

f9000220 <bsp_printHex_lower>:

    static void bsp_printHex_lower(uint32_t val)
        {
f9000220:	ff010113          	addi	sp,sp,-16
f9000224:	00112623          	sw	ra,12(sp)
f9000228:	00812423          	sw	s0,8(sp)
f900022c:	00912223          	sw	s1,4(sp)
f9000230:	00050493          	mv	s1,a0
            uint32_t digits;
            digits =8;

            for (int i = (4*digits)-4; i >= 0; i -= 4) {
f9000234:	01c00413          	li	s0,28
f9000238:	0240006f          	j	f900025c <bsp_printHex_lower+0x3c>
                _putchar("0123456789abcdef"[(val >> i) % 16]);
f900023c:	0084d7b3          	srl	a5,s1,s0
f9000240:	00f7f713          	andi	a4,a5,15
f9000244:	f90807b7          	lui	a5,0xf9080
f9000248:	01478793          	addi	a5,a5,20 # f9080014 <__freertos_irq_stack_top+0xffffde84>
f900024c:	00e787b3          	add	a5,a5,a4
f9000250:	0007c503          	lbu	a0,0(a5)
f9000254:	f25ff0ef          	jal	ra,f9000178 <_putchar>
            for (int i = (4*digits)-4; i >= 0; i -= 4) {
f9000258:	ffc40413          	addi	s0,s0,-4
f900025c:	fe0450e3          	bgez	s0,f900023c <bsp_printHex_lower+0x1c>

            }
        }
f9000260:	00c12083          	lw	ra,12(sp)
f9000264:	00812403          	lw	s0,8(sp)
f9000268:	00412483          	lw	s1,4(sp)
f900026c:	01010113          	addi	sp,sp,16
f9000270:	00008067          	ret

f9000274 <bsp_printf_c>:
    #endif //#if (ENABLE_FLOATING_POINT_SUPPORT)

    

    static void bsp_printf_c(int c)
    {
f9000274:	ff010113          	addi	sp,sp,-16
f9000278:	00112623          	sw	ra,12(sp)
        _putchar(c);
f900027c:	0ff57513          	andi	a0,a0,255
f9000280:	ef9ff0ef          	jal	ra,f9000178 <_putchar>
    }
f9000284:	00c12083          	lw	ra,12(sp)
f9000288:	01010113          	addi	sp,sp,16
f900028c:	00008067          	ret

f9000290 <bsp_printf_s>:

    static void bsp_printf_s(char *p)
    {
f9000290:	ff010113          	addi	sp,sp,-16
f9000294:	00112623          	sw	ra,12(sp)
        _putchar_s(p);
f9000298:	f01ff0ef          	jal	ra,f9000198 <_putchar_s>
    }
f900029c:	00c12083          	lw	ra,12(sp)
f90002a0:	01010113          	addi	sp,sp,16
f90002a4:	00008067          	ret

f90002a8 <bsp_printf_d>:



    static void bsp_printf_d(int val)
    {
f90002a8:	fd010113          	addi	sp,sp,-48
f90002ac:	02112623          	sw	ra,44(sp)
f90002b0:	02812423          	sw	s0,40(sp)
f90002b4:	02912223          	sw	s1,36(sp)
f90002b8:	00050493          	mv	s1,a0
        char buffer[32];
        char *p = buffer;
        if (val < 0) {
f90002bc:	00054663          	bltz	a0,f90002c8 <bsp_printf_d+0x20>
    {
f90002c0:	00010413          	mv	s0,sp
f90002c4:	02c0006f          	j	f90002f0 <bsp_printf_d+0x48>
            bsp_printf_c('-');
f90002c8:	02d00513          	li	a0,45
f90002cc:	fa9ff0ef          	jal	ra,f9000274 <bsp_printf_c>
            val = -val;
f90002d0:	409004b3          	neg	s1,s1
f90002d4:	fedff06f          	j	f90002c0 <bsp_printf_d+0x18>
        }
        while (val || p == buffer) {
            *(p++) = '0' + val % 10;
f90002d8:	00a00713          	li	a4,10
f90002dc:	02e4e7b3          	rem	a5,s1,a4
f90002e0:	03078793          	addi	a5,a5,48
f90002e4:	00f40023          	sb	a5,0(s0)
            val = val / 10;
f90002e8:	02e4c4b3          	div	s1,s1,a4
            *(p++) = '0' + val % 10;
f90002ec:	00140413          	addi	s0,s0,1
        while (val || p == buffer) {
f90002f0:	fe0494e3          	bnez	s1,f90002d8 <bsp_printf_d+0x30>
f90002f4:	00010793          	mv	a5,sp
f90002f8:	fef400e3          	beq	s0,a5,f90002d8 <bsp_printf_d+0x30>
f90002fc:	0100006f          	j	f900030c <bsp_printf_d+0x64>
        }
        while (p != buffer)
            bsp_printf_c(*(--p));
f9000300:	fff40413          	addi	s0,s0,-1
f9000304:	00044503          	lbu	a0,0(s0)
f9000308:	f6dff0ef          	jal	ra,f9000274 <bsp_printf_c>
        while (p != buffer)
f900030c:	00010793          	mv	a5,sp
f9000310:	fef418e3          	bne	s0,a5,f9000300 <bsp_printf_d+0x58>
    }
f9000314:	02c12083          	lw	ra,44(sp)
f9000318:	02812403          	lw	s0,40(sp)
f900031c:	02412483          	lw	s1,36(sp)
f9000320:	03010113          	addi	sp,sp,48
f9000324:	00008067          	ret

f9000328 <bsp_printf_x>:

    static void bsp_printf_x(int val)
    {
f9000328:	ff010113          	addi	sp,sp,-16
f900032c:	00112623          	sw	ra,12(sp)
        int i,digi=2;

        for(i=0;i<8;i++)
f9000330:	00000713          	li	a4,0
f9000334:	00700793          	li	a5,7
f9000338:	02e7c063          	blt	a5,a4,f9000358 <bsp_printf_x+0x30>
        {
            if((val & (0xFFFFFFF0 <<(4*i))) == 0)
f900033c:	00271693          	slli	a3,a4,0x2
f9000340:	ff000793          	li	a5,-16
f9000344:	00d797b3          	sll	a5,a5,a3
f9000348:	00f577b3          	and	a5,a0,a5
f900034c:	00078663          	beqz	a5,f9000358 <bsp_printf_x+0x30>
        for(i=0;i<8;i++)
f9000350:	00170713          	addi	a4,a4,1
f9000354:	fe1ff06f          	j	f9000334 <bsp_printf_x+0xc>
            {
                digi=i+1;
                break;
            }
        }
        bsp_printHex_lower(val);
f9000358:	ec9ff0ef          	jal	ra,f9000220 <bsp_printHex_lower>
    }
f900035c:	00c12083          	lw	ra,12(sp)
f9000360:	01010113          	addi	sp,sp,16
f9000364:	00008067          	ret

f9000368 <bsp_printf_X>:

    static void bsp_printf_X(int val)
        {
f9000368:	ff010113          	addi	sp,sp,-16
f900036c:	00112623          	sw	ra,12(sp)
            int i,digi=2;

            for(i=0;i<8;i++)
f9000370:	00000713          	li	a4,0
f9000374:	00700793          	li	a5,7
f9000378:	02e7c063          	blt	a5,a4,f9000398 <bsp_printf_X+0x30>
            {
                if((val & (0xFFFFFFF0 <<(4*i))) == 0)
f900037c:	00271693          	slli	a3,a4,0x2
f9000380:	ff000793          	li	a5,-16
f9000384:	00d797b3          	sll	a5,a5,a3
f9000388:	00f577b3          	and	a5,a0,a5
f900038c:	00078663          	beqz	a5,f9000398 <bsp_printf_X+0x30>
            for(i=0;i<8;i++)
f9000390:	00170713          	addi	a4,a4,1
f9000394:	fe1ff06f          	j	f9000374 <bsp_printf_X+0xc>
                {
                    digi=i+1;
                    break;
                }
            }
            bsp_printHex(val);
f9000398:	e35ff0ef          	jal	ra,f90001cc <bsp_printHex>
        }
f900039c:	00c12083          	lw	ra,12(sp)
f90003a0:	01010113          	addi	sp,sp,16
f90003a4:	00008067          	ret

f90003a8 <plic_set_priority>:
#define PLIC_CLAIM_BASE         0x200004
#define PLIC_ENABLE_PER_HART    0x80
#define PLIC_CONTEXT_PER_HART   0x1000

    static void plic_set_priority(u32 plic, u32 gateway, u32 priority){
        write_u32(priority, plic + PLIC_PRIORITY_BASE + gateway*4);
f90003a8:	00259593          	slli	a1,a1,0x2
f90003ac:	00a585b3          	add	a1,a1,a0
        *((volatile u32*) address) = data;
f90003b0:	00c5a023          	sw	a2,0(a1)
    }
f90003b4:	00008067          	ret

f90003b8 <plic_set_enable>:
    static u32 plic_get_priority(u32 plic, u32 gateway){
        return read_u32(plic + PLIC_PRIORITY_BASE + gateway*4);
    }
    
    static void plic_set_enable(u32 plic, u32 target,u32 gateway, u32 enable){
        u32 word = plic + PLIC_ENABLE_BASE + target * PLIC_ENABLE_PER_HART + (gateway / 32 * 4);
f90003b8:	00759593          	slli	a1,a1,0x7
f90003bc:	00a58533          	add	a0,a1,a0
f90003c0:	00565593          	srli	a1,a2,0x5
f90003c4:	00259593          	slli	a1,a1,0x2
f90003c8:	00b50533          	add	a0,a0,a1
f90003cc:	000025b7          	lui	a1,0x2
f90003d0:	00b50533          	add	a0,a0,a1
        u32 mask = 1 << (gateway % 32);
f90003d4:	00100793          	li	a5,1
f90003d8:	00c797b3          	sll	a5,a5,a2
        if (enable)
f90003dc:	00068a63          	beqz	a3,f90003f0 <plic_set_enable+0x38>
        return *((volatile u32*) address);
f90003e0:	00052603          	lw	a2,0(a0) # f8010000 <__freertos_irq_stack_top+0xfef8de70>
            write_u32(read_u32(word) | mask, word);
f90003e4:	00c7e7b3          	or	a5,a5,a2
        *((volatile u32*) address) = data;
f90003e8:	00f52023          	sw	a5,0(a0)
f90003ec:	00008067          	ret
        return *((volatile u32*) address);
f90003f0:	00052603          	lw	a2,0(a0)
        else
            write_u32(read_u32(word) & ~mask, word);
f90003f4:	fff7c793          	not	a5,a5
f90003f8:	00c7f7b3          	and	a5,a5,a2
        *((volatile u32*) address) = data;
f90003fc:	00f52023          	sw	a5,0(a0)
    }
f9000400:	00008067          	ret

f9000404 <plic_set_threshold>:
    
    static void plic_set_threshold(u32 plic, u32 target, u32 threshold){
        write_u32(threshold, plic + PLIC_THRESHOLD_BASE + target*PLIC_CONTEXT_PER_HART);
f9000404:	00c59593          	slli	a1,a1,0xc
f9000408:	00a585b3          	add	a1,a1,a0
f900040c:	00200537          	lui	a0,0x200
f9000410:	00a585b3          	add	a1,a1,a0
f9000414:	00c5a023          	sw	a2,0(a1) # 2000 <__stack_size>
    }
f9000418:	00008067          	ret

f900041c <plic_claim>:
    static u32 plic_get_threshold(u32 plic, u32 target){
        return read_u32(plic + PLIC_THRESHOLD_BASE + target*PLIC_CONTEXT_PER_HART);
    }
    
    static u32 plic_claim(u32 plic, u32 target){
        return read_u32(plic + PLIC_CLAIM_BASE + target*PLIC_CONTEXT_PER_HART);
f900041c:	00c59593          	slli	a1,a1,0xc
f9000420:	00a585b3          	add	a1,a1,a0
f9000424:	00200537          	lui	a0,0x200
f9000428:	00450513          	addi	a0,a0,4 # 200004 <__stack_size+0x1fe004>
f900042c:	00a585b3          	add	a1,a1,a0
        return *((volatile u32*) address);
f9000430:	0005a503          	lw	a0,0(a1)
    }
f9000434:	00008067          	ret

f9000438 <plic_release>:
    
    static void plic_release(u32 plic, u32 target, u32 gateway){
        write_u32(gateway,plic + PLIC_CLAIM_BASE + target*PLIC_CONTEXT_PER_HART);
f9000438:	00c59593          	slli	a1,a1,0xc
f900043c:	00a585b3          	add	a1,a1,a0
f9000440:	00200537          	lui	a0,0x200
f9000444:	00450513          	addi	a0,a0,4 # 200004 <__stack_size+0x1fe004>
f9000448:	00a585b3          	add	a1,a1,a0
        *((volatile u32*) address) = data;
f900044c:	00c5a023          	sw	a2,0(a1)
    }
f9000450:	00008067          	ret

f9000454 <bsp_printf>:
#if (ENABLE_SEMIHOSTING_PRINT == 0)
    static void bsp_printf(const char *format, ...)
    {
f9000454:	fc010113          	addi	sp,sp,-64
f9000458:	00112e23          	sw	ra,28(sp)
f900045c:	00812c23          	sw	s0,24(sp)
f9000460:	00912a23          	sw	s1,20(sp)
f9000464:	00050493          	mv	s1,a0
f9000468:	02b12223          	sw	a1,36(sp)
f900046c:	02c12423          	sw	a2,40(sp)
f9000470:	02d12623          	sw	a3,44(sp)
f9000474:	02e12823          	sw	a4,48(sp)
f9000478:	02f12a23          	sw	a5,52(sp)
f900047c:	03012c23          	sw	a6,56(sp)
f9000480:	03112e23          	sw	a7,60(sp)
        int i;
        va_list ap;

        va_start(ap, format);
f9000484:	02410793          	addi	a5,sp,36
f9000488:	00f12623          	sw	a5,12(sp)

        for (i = 0; format[i]; i++)
f900048c:	00000413          	li	s0,0
f9000490:	01c0006f          	j	f90004ac <bsp_printf+0x58>
            if (format[i] == '%') {
                while (format[++i]) {
                    if (format[i] == 'c') {
                        bsp_printf_c(va_arg(ap,int));
f9000494:	00c12783          	lw	a5,12(sp)
f9000498:	00478713          	addi	a4,a5,4
f900049c:	00e12623          	sw	a4,12(sp)
f90004a0:	0007a503          	lw	a0,0(a5)
f90004a4:	dd1ff0ef          	jal	ra,f9000274 <bsp_printf_c>
        for (i = 0; format[i]; i++)
f90004a8:	00140413          	addi	s0,s0,1
f90004ac:	008487b3          	add	a5,s1,s0
f90004b0:	0007c503          	lbu	a0,0(a5)
f90004b4:	0c050263          	beqz	a0,f9000578 <bsp_printf+0x124>
            if (format[i] == '%') {
f90004b8:	02500793          	li	a5,37
f90004bc:	06f50663          	beq	a0,a5,f9000528 <bsp_printf+0xd4>
                        break;
                    }
#endif //#if (ENABLE_FLOATING_POINT_SUPPORT)
                }
            } else
                bsp_printf_c(format[i]);
f90004c0:	db5ff0ef          	jal	ra,f9000274 <bsp_printf_c>
f90004c4:	fe5ff06f          	j	f90004a8 <bsp_printf+0x54>
                        bsp_printf_s(va_arg(ap,char*));
f90004c8:	00c12783          	lw	a5,12(sp)
f90004cc:	00478713          	addi	a4,a5,4
f90004d0:	00e12623          	sw	a4,12(sp)
f90004d4:	0007a503          	lw	a0,0(a5)
f90004d8:	db9ff0ef          	jal	ra,f9000290 <bsp_printf_s>
                        break;
f90004dc:	fcdff06f          	j	f90004a8 <bsp_printf+0x54>
                        bsp_printf_d(va_arg(ap,int));
f90004e0:	00c12783          	lw	a5,12(sp)
f90004e4:	00478713          	addi	a4,a5,4
f90004e8:	00e12623          	sw	a4,12(sp)
f90004ec:	0007a503          	lw	a0,0(a5)
f90004f0:	db9ff0ef          	jal	ra,f90002a8 <bsp_printf_d>
                        break;
f90004f4:	fb5ff06f          	j	f90004a8 <bsp_printf+0x54>
                        bsp_printf_X(va_arg(ap,int));
f90004f8:	00c12783          	lw	a5,12(sp)
f90004fc:	00478713          	addi	a4,a5,4
f9000500:	00e12623          	sw	a4,12(sp)
f9000504:	0007a503          	lw	a0,0(a5)
f9000508:	e61ff0ef          	jal	ra,f9000368 <bsp_printf_X>
                        break;
f900050c:	f9dff06f          	j	f90004a8 <bsp_printf+0x54>
                        bsp_printf_x(va_arg(ap,int));
f9000510:	00c12783          	lw	a5,12(sp)
f9000514:	00478713          	addi	a4,a5,4
f9000518:	00e12623          	sw	a4,12(sp)
f900051c:	0007a503          	lw	a0,0(a5)
f9000520:	e09ff0ef          	jal	ra,f9000328 <bsp_printf_x>
                        break;
f9000524:	f85ff06f          	j	f90004a8 <bsp_printf+0x54>
                while (format[++i]) {
f9000528:	00140413          	addi	s0,s0,1
f900052c:	008487b3          	add	a5,s1,s0
f9000530:	0007c783          	lbu	a5,0(a5)
f9000534:	f6078ae3          	beqz	a5,f90004a8 <bsp_printf+0x54>
                    if (format[i] == 'c') {
f9000538:	06300713          	li	a4,99
f900053c:	f4e78ce3          	beq	a5,a4,f9000494 <bsp_printf+0x40>
                    else if (format[i] == 's') {
f9000540:	07300713          	li	a4,115
f9000544:	f8e782e3          	beq	a5,a4,f90004c8 <bsp_printf+0x74>
                    else if (format[i] == 'd') {
f9000548:	06400713          	li	a4,100
f900054c:	f8e78ae3          	beq	a5,a4,f90004e0 <bsp_printf+0x8c>
                    else if (format[i] == 'X') {
f9000550:	05800713          	li	a4,88
f9000554:	fae782e3          	beq	a5,a4,f90004f8 <bsp_printf+0xa4>
                    else if (format[i] == 'x') {
f9000558:	07800713          	li	a4,120
f900055c:	fae78ae3          	beq	a5,a4,f9000510 <bsp_printf+0xbc>
                    else if (format[i] == 'f') {
f9000560:	06600713          	li	a4,102
f9000564:	fce792e3          	bne	a5,a4,f9000528 <bsp_printf+0xd4>
                        bsp_printf_s("<Floating point printing not enable. Please Enable it at bsp.h first...>");
f9000568:	f9080537          	lui	a0,0xf9080
f900056c:	02850513          	addi	a0,a0,40 # f9080028 <__freertos_irq_stack_top+0xffffde98>
f9000570:	d21ff0ef          	jal	ra,f9000290 <bsp_printf_s>
                        break;
f9000574:	f35ff06f          	j	f90004a8 <bsp_printf+0x54>

        va_end(ap);
    }
f9000578:	01c12083          	lw	ra,28(sp)
f900057c:	01812403          	lw	s0,24(sp)
f9000580:	01412483          	lw	s1,20(sp)
f9000584:	04010113          	addi	sp,sp,64
f9000588:	00008067          	ret

f900058c <init>:
void trap();
void crash();
void trap_entry();
void externalInterrupt();

void init(){
f900058c:	ff010113          	addi	sp,sp,-16
f9000590:	00112623          	sw	ra,12(sp)
    //configure PLIC
    //cpu 0 accept all interrupts with priority above 0
    plic_set_threshold(BSP_PLIC, BSP_PLIC_CPU_0, 0); 
f9000594:	00000613          	li	a2,0
f9000598:	00000593          	li	a1,0
f900059c:	f8c00537          	lui	a0,0xf8c00
f90005a0:	e65ff0ef          	jal	ra,f9000404 <plic_set_threshold>
    plic_set_enable(BSP_PLIC, BSP_PLIC_CPU_0, SYSTEM_PLIC_SYSTEM_GPIO_0_IO_INTERRUPTS_0, 1);
f90005a4:	00100693          	li	a3,1
f90005a8:	00c00613          	li	a2,12
f90005ac:	00000593          	li	a1,0
f90005b0:	f8c00537          	lui	a0,0xf8c00
f90005b4:	e05ff0ef          	jal	ra,f90003b8 <plic_set_enable>
    plic_set_priority(BSP_PLIC, SYSTEM_PLIC_SYSTEM_GPIO_0_IO_INTERRUPTS_0, 1);
f90005b8:	00100613          	li	a2,1
f90005bc:	00c00593          	li	a1,12
f90005c0:	f8c00537          	lui	a0,0xf8c00
f90005c4:	de5ff0ef          	jal	ra,f90003a8 <plic_set_priority>
f90005c8:	f80167b7          	lui	a5,0xf8016
f90005cc:	00100713          	li	a4,1
f90005d0:	02e7a023          	sw	a4,32(a5) # f8016020 <__freertos_irq_stack_top+0xfef93e90>
    //Enable rising edge interrupts
    gpio_setInterruptRiseEnable(GPIO0, 1); 
    //enable interrupts
    //Set the machine trap vector (../common/trap.S)
    csr_write(mtvec, trap_entry); 
f90005d4:	f90007b7          	lui	a5,0xf9000
f90005d8:	75c78793          	addi	a5,a5,1884 # f900075c <__freertos_irq_stack_top+0xfff7e5cc>
f90005dc:	30579073          	csrw	mtvec,a5
    //Enable external interrupts
    csr_set(mie, MIE_MEIE); 
f90005e0:	000017b7          	lui	a5,0x1
f90005e4:	80078793          	addi	a5,a5,-2048 # 800 <regnum_t6+0x7e1>
f90005e8:	3047a073          	csrs	mie,a5
    csr_write(mstatus, csr_read(mstatus) | MSTATUS_MPP | MSTATUS_MIE);
f90005ec:	300027f3          	csrr	a5,mstatus
f90005f0:	00002737          	lui	a4,0x2
f90005f4:	80870713          	addi	a4,a4,-2040 # 1808 <regnum_t6+0x17e9>
f90005f8:	00e7e7b3          	or	a5,a5,a4
f90005fc:	30079073          	csrw	mstatus,a5
}
f9000600:	00c12083          	lw	ra,12(sp)
f9000604:	01010113          	addi	sp,sp,16
f9000608:	00008067          	ret

f900060c <crash>:
        plic_release(BSP_PLIC, BSP_PLIC_CPU_0, claim); 
    }
}

//Used on unexpected trap/interrupt codes
void crash(){
f900060c:	ff010113          	addi	sp,sp,-16
f9000610:	00112623          	sw	ra,12(sp)
    bsp_printf("\r\n*** CRASH ***\r\n");
f9000614:	f9080537          	lui	a0,0xf9080
f9000618:	07450513          	addi	a0,a0,116 # f9080074 <__freertos_irq_stack_top+0xffffdee4>
f900061c:	e39ff0ef          	jal	ra,f9000454 <bsp_printf>
    while(1);
f9000620:	0000006f          	j	f9000620 <crash+0x14>

f9000624 <externalInterrupt>:
void externalInterrupt(){
f9000624:	ff010113          	addi	sp,sp,-16
f9000628:	00112623          	sw	ra,12(sp)
f900062c:	00812423          	sw	s0,8(sp)
    while(claim = plic_claim(BSP_PLIC, BSP_PLIC_CPU_0)){
f9000630:	00000593          	li	a1,0
f9000634:	f8c00537          	lui	a0,0xf8c00
f9000638:	de5ff0ef          	jal	ra,f900041c <plic_claim>
f900063c:	00050413          	mv	s0,a0
f9000640:	02050863          	beqz	a0,f9000670 <externalInterrupt+0x4c>
        switch(claim){
f9000644:	00c00793          	li	a5,12
f9000648:	02f41263          	bne	s0,a5,f900066c <externalInterrupt+0x48>
        case SYSTEM_PLIC_SYSTEM_GPIO_0_IO_INTERRUPTS_0: bsp_printf("gpio 0 interrupt routine \r\n"); break;
f900064c:	f9080537          	lui	a0,0xf9080
f9000650:	08850513          	addi	a0,a0,136 # f9080088 <__freertos_irq_stack_top+0xffffdef8>
f9000654:	e01ff0ef          	jal	ra,f9000454 <bsp_printf>
        plic_release(BSP_PLIC, BSP_PLIC_CPU_0, claim); 
f9000658:	00040613          	mv	a2,s0
f900065c:	00000593          	li	a1,0
f9000660:	f8c00537          	lui	a0,0xf8c00
f9000664:	dd5ff0ef          	jal	ra,f9000438 <plic_release>
f9000668:	fc9ff06f          	j	f9000630 <externalInterrupt+0xc>
        default: crash(); break;
f900066c:	fa1ff0ef          	jal	ra,f900060c <crash>
}
f9000670:	00c12083          	lw	ra,12(sp)
f9000674:	00812403          	lw	s0,8(sp)
f9000678:	01010113          	addi	sp,sp,16
f900067c:	00008067          	ret

f9000680 <trap>:
void trap(){
f9000680:	ff010113          	addi	sp,sp,-16
f9000684:	00112623          	sw	ra,12(sp)
    int32_t mcause = csr_read(mcause);
f9000688:	342027f3          	csrr	a5,mcause
    if(interrupt){
f900068c:	0207d263          	bgez	a5,f90006b0 <trap+0x30>
f9000690:	00f7f713          	andi	a4,a5,15
        switch(cause){
f9000694:	00b00793          	li	a5,11
f9000698:	00f71a63          	bne	a4,a5,f90006ac <trap+0x2c>
        case CAUSE_MACHINE_EXTERNAL: externalInterrupt(); break;
f900069c:	f89ff0ef          	jal	ra,f9000624 <externalInterrupt>
}
f90006a0:	00c12083          	lw	ra,12(sp)
f90006a4:	01010113          	addi	sp,sp,16
f90006a8:	00008067          	ret
        default: crash(); break;
f90006ac:	f61ff0ef          	jal	ra,f900060c <crash>
        crash();
f90006b0:	f5dff0ef          	jal	ra,f900060c <crash>

f90006b4 <main>:
}

void main() {
f90006b4:	ff010113          	addi	sp,sp,-16
f90006b8:	00112623          	sw	ra,12(sp)
f90006bc:	00812423          	sw	s0,8(sp)
    bsp_init();
    bsp_printf("gpio 0 demo ! \r\n");
f90006c0:	f9080537          	lui	a0,0xf9080
f90006c4:	0a450513          	addi	a0,a0,164 # f90800a4 <__freertos_irq_stack_top+0xffffdf14>
f90006c8:	d8dff0ef          	jal	ra,f9000454 <bsp_printf>
    bsp_printf("onboard LEDs blinking \r\n");
f90006cc:	f9080537          	lui	a0,0xf9080
f90006d0:	0b850513          	addi	a0,a0,184 # f90800b8 <__freertos_irq_stack_top+0xffffdf28>
f90006d4:	d81ff0ef          	jal	ra,f9000454 <bsp_printf>
f90006d8:	f80167b7          	lui	a5,0xf8016
f90006dc:	00e00713          	li	a4,14
f90006e0:	00e7a423          	sw	a4,8(a5) # f8016008 <__freertos_irq_stack_top+0xfef93e78>
f90006e4:	0007a223          	sw	zero,4(a5)
    //configure 4 bits gpio 0
    gpio_setOutputEnable(GPIO0, 0xe);
    gpio_setOutput(GPIO0, 0x0);
    for (int i=0; i<50; i=i+1) {
f90006e8:	00000413          	li	s0,0
f90006ec:	0300006f          	j	f900071c <main+0x68>
        return *((volatile u32*) address);
f90006f0:	f8016737          	lui	a4,0xf8016
f90006f4:	00472783          	lw	a5,4(a4) # f8016004 <__freertos_irq_stack_top+0xfef93e74>
        gpio_setOutput(GPIO0, gpio_getOutput(GPIO0) ^ 0xe);
f90006f8:	00e7c793          	xori	a5,a5,14
        *((volatile u32*) address) = data;
f90006fc:	00f72223          	sw	a5,4(a4)
        bsp_uDelay(LOOP_UDELAY);
f9000700:	f8b00637          	lui	a2,0xf8b00
f9000704:	017d85b7          	lui	a1,0x17d8
f9000708:	84058593          	addi	a1,a1,-1984 # 17d7840 <__stack_size+0x17d5840>
f900070c:	00018537          	lui	a0,0x18
f9000710:	6a050513          	addi	a0,a0,1696 # 186a0 <__stack_size+0x166a0>
f9000714:	a31ff0ef          	jal	ra,f9000144 <clint_uDelay>
    for (int i=0; i<50; i=i+1) {
f9000718:	00140413          	addi	s0,s0,1
f900071c:	03100793          	li	a5,49
f9000720:	fc87d8e3          	bge	a5,s0,f90006f0 <main+0x3c>
    }   
    bsp_printf("gpio 0 interrupt demo ! \r\n");
f9000724:	f9080537          	lui	a0,0xf9080
f9000728:	0d450513          	addi	a0,a0,212 # f90800d4 <__freertos_irq_stack_top+0xffffdf44>
f900072c:	d29ff0ef          	jal	ra,f9000454 <bsp_printf>
    bsp_printf("Ti180 press and release onboard button sw4 \r\n");
f9000730:	f9080537          	lui	a0,0xf9080
f9000734:	0f050513          	addi	a0,a0,240 # f90800f0 <__freertos_irq_stack_top+0xffffdf60>
f9000738:	d1dff0ef          	jal	ra,f9000454 <bsp_printf>
    bsp_printf("Ti60 press and release onboard button sw6 \r\n");
f900073c:	f9080537          	lui	a0,0xf9080
f9000740:	12050513          	addi	a0,a0,288 # f9080120 <__freertos_irq_stack_top+0xffffdf90>
f9000744:	d11ff0ef          	jal	ra,f9000454 <bsp_printf>
    bsp_printf("T120 press and release onboard button sw7 \r\n");
f9000748:	f9080537          	lui	a0,0xf9080
f900074c:	15050513          	addi	a0,a0,336 # f9080150 <__freertos_irq_stack_top+0xffffdfc0>
f9000750:	d05ff0ef          	jal	ra,f9000454 <bsp_printf>
    init();
f9000754:	e39ff0ef          	jal	ra,f900058c <init>
    while(1); 
f9000758:	0000006f          	j	f9000758 <main+0xa4>

f900075c <trap_entry>:
.global  trap_entry
.align(2) //mtvec require 32 bits allignement
trap_entry:
  addi sp,sp, -16*4
f900075c:	fc010113          	addi	sp,sp,-64
  sw x1,   0*4(sp)
f9000760:	00112023          	sw	ra,0(sp)
  sw x5,   1*4(sp)
f9000764:	00512223          	sw	t0,4(sp)
  sw x6,   2*4(sp)
f9000768:	00612423          	sw	t1,8(sp)
  sw x7,   3*4(sp)
f900076c:	00712623          	sw	t2,12(sp)
  sw x10,  4*4(sp)
f9000770:	00a12823          	sw	a0,16(sp)
  sw x11,  5*4(sp)
f9000774:	00b12a23          	sw	a1,20(sp)
  sw x12,  6*4(sp)
f9000778:	00c12c23          	sw	a2,24(sp)
  sw x13,  7*4(sp)
f900077c:	00d12e23          	sw	a3,28(sp)
  sw x14,  8*4(sp)
f9000780:	02e12023          	sw	a4,32(sp)
  sw x15,  9*4(sp)
f9000784:	02f12223          	sw	a5,36(sp)
  sw x16, 10*4(sp)
f9000788:	03012423          	sw	a6,40(sp)
  sw x17, 11*4(sp)
f900078c:	03112623          	sw	a7,44(sp)
  sw x28, 12*4(sp)
f9000790:	03c12823          	sw	t3,48(sp)
  sw x29, 13*4(sp)
f9000794:	03d12a23          	sw	t4,52(sp)
  sw x30, 14*4(sp)
f9000798:	03e12c23          	sw	t5,56(sp)
  sw x31, 15*4(sp)
f900079c:	03f12e23          	sw	t6,60(sp)
  call trap
f90007a0:	ee1ff0ef          	jal	ra,f9000680 <trap>
  lw x1 ,  0*4(sp)
f90007a4:	00012083          	lw	ra,0(sp)
  lw x5,   1*4(sp)
f90007a8:	00412283          	lw	t0,4(sp)
  lw x6,   2*4(sp)
f90007ac:	00812303          	lw	t1,8(sp)
  lw x7,   3*4(sp)
f90007b0:	00c12383          	lw	t2,12(sp)
  lw x10,  4*4(sp)
f90007b4:	01012503          	lw	a0,16(sp)
  lw x11,  5*4(sp)
f90007b8:	01412583          	lw	a1,20(sp)
  lw x12,  6*4(sp)
f90007bc:	01812603          	lw	a2,24(sp)
  lw x13,  7*4(sp)
f90007c0:	01c12683          	lw	a3,28(sp)
  lw x14,  8*4(sp)
f90007c4:	02012703          	lw	a4,32(sp)
  lw x15,  9*4(sp)
f90007c8:	02412783          	lw	a5,36(sp)
  lw x16, 10*4(sp)
f90007cc:	02812803          	lw	a6,40(sp)
  lw x17, 11*4(sp)
f90007d0:	02c12883          	lw	a7,44(sp)
  lw x28, 12*4(sp)
f90007d4:	03012e03          	lw	t3,48(sp)
  lw x29, 13*4(sp)
f90007d8:	03412e83          	lw	t4,52(sp)
  lw x30, 14*4(sp)
f90007dc:	03812f03          	lw	t5,56(sp)
  lw x31, 15*4(sp)
f90007e0:	03c12f83          	lw	t6,60(sp)
  addi sp,sp, 16*4
f90007e4:	04010113          	addi	sp,sp,64
  mret
f90007e8:	30200073          	mret
