
build/gpioDemo_Trinita.elf:     file format elf32-littleriscv

Contents of section .rom_section.init:
 f9000000 97110800 93810197 138101a2 17050800  ................
 f9000010 130545ff 97050800 9385c5fe 1386c181  ..E.............
 f9000020 63fcc500 83220500 23a05500 13054500  c...."..#.U...E.
 f9000030 93854500 e3e8c5fe 1385c181 93850182  ..E.............
 f9000040 6378b500 23200500 13054500 e36cb5fe  cx..# ....E..l..
 f9000050 ef000001 ef00c065 6f000000 67800000  .......eo...g...
Contents of section .rom_section.text:
 f9000060 130101ff 23248100 23202101 17040800  ....#$..# !.....
 f9000070 130444f9 17090800 1309c9f8 33098940  ..D.........3..@
 f9000080 23261100 23229100 13592940 630e0900  #&..#"...Y)@c...
 f9000090 93040000 83270400 93841400 13044400  .....'........D.
 f90000a0 e7800700 e31899fe 17040800 130484f5  ................
 f90000b0 17090800 130909f5 33098940 13592940  ........3..@.Y)@
 f90000c0 630e0900 93040000 83270400 93841400  c........'......
 f90000d0 13044400 e7800700 e31899fe 8320c100  ..D.......... ..
 f90000e0 03248100 83244100 03290100 13010101  .$...$A..)......
 f90000f0 67800000 03254500 13550501 1375f50f  g....%E..U...u..
 f9000100 67800000 130101ff 23261100 23248100  g.......#&..#$..
 f9000110 23229100 13040500 93840500 13050400  #"..............
 f9000120 eff05ffd e30c05fe 23209400 8320c100  .._.....# ... ..
 f9000130 03248100 83244100 13010101 67800000  .$...$A.....g...
 f9000140 b7470f00 93870724 b3d5f502 b7c70000  .G.....$........
 f9000150 938787ff 3306f600 83270600 3385a502  ....3....'..3...
 f9000160 3305f500 83270600 b307f540 e3dc07fe  3....'.....@....
 f9000170 67800000 130101ff 23261100 93050500  g.......#&......
 f9000180 370501f8 eff01ff8 8320c100 13010101  7........ ......
 f9000190 67800000 130101ff 23261100 23248100  g.......#&..#$..
 f90001a0 13040500 03450400 63080500 13041400  .....E..c.......
 f90001b0 eff05ffc 6ff01fff 8320c100 03248100  .._.o.... ...$..
 f90001c0 13010101 67800000 130101ff 23261100  ....g.......#&..
 f90001d0 23248100 23229100 93040500 1304c001  #$..#"..........
 f90001e0 6f004002 b3d78400 13f7f700 b70708f9  o.@.............
 f90001f0 93870700 b387e700 03c50700 eff09ff7  ................
 f9000200 1304c4ff e35004fe 8320c100 03248100  .....P... ...$..
 f9000210 83244100 13010101 67800000 130101ff  .$A.....g.......
 f9000220 23261100 23248100 23229100 93040500  #&..#$..#"......
 f9000230 1304c001 6f004002 b3d78400 13f7f700  ....o.@.........
 f9000240 b70708f9 93874701 b387e700 03c50700  ......G.........
 f9000250 eff05ff2 1304c4ff e35004fe 8320c100  .._......P... ..
 f9000260 03248100 83244100 13010101 67800000  .$...$A.....g...
 f9000270 130101ff 23261100 1375f50f eff09fef  ....#&...u......
 f9000280 8320c100 13010101 67800000 130101ff  . ......g.......
 f9000290 23261100 eff01ff0 8320c100 13010101  #&....... ......
 f90002a0 67800000 130101fd 23261102 23248102  g.......#&..#$..
 f90002b0 23229102 93040500 63460500 13040100  #"......cF......
 f90002c0 6f00c002 1305d002 eff09ffa b3049040  o..............@
 f90002d0 6ff0dffe 1307a000 b3e7e402 93870703  o...............
 f90002e0 2300f400 b3c4e402 13041400 e39404fe  #...............
 f90002f0 93070100 e300f4fe 6f000001 1304f4ff  ........o.......
 f9000300 03450400 eff0dff6 93070100 e318f4fe  .E..............
 f9000310 8320c102 03248102 83244102 13010103  . ...$...$A.....
 f9000320 67800000 130101ff 23261100 13070000  g.......#&......
 f9000330 93077000 63c0e702 93162700 930700ff  ..p.c.....'.....
 f9000340 b397d700 b377f500 63860700 13071700  .....w..c.......
 f9000350 6ff01ffe eff09fec 8320c100 13010101  o........ ......
 f9000360 67800000 130101ff 23261100 13070000  g.......#&......
 f9000370 93077000 63c0e702 93162700 930700ff  ..p.c.....'.....
 f9000380 b397d700 b377f500 63860700 13071700  .....w..c.......
 f9000390 6ff01ffe eff05fe3 8320c100 13010101  o....._.. ......
 f90003a0 67800000 93952500 b385a500 23a0c500  g.....%.....#...
 f90003b0 67800000 93957500 3385a500 93555600  g.....u.3....UV.
 f90003c0 93952500 3305b500 b7250000 3305b500  ..%.3....%..3...
 f90003d0 93071000 b397c700 638a0600 03260500  ........c....&..
 f90003e0 b3e7c700 2320f500 67800000 03260500  ....# ..g....&..
 f90003f0 93c7f7ff b3f7c700 2320f500 67800000  ........# ..g...
 f9000400 9395c500 b385a500 37052000 b385a500  ........7. .....
 f9000410 23a0c500 67800000 9395c500 b385a500  #...g...........
 f9000420 37052000 13054500 b385a500 03a50500  7. ...E.........
 f9000430 67800000 9395c500 b385a500 37052000  g...........7. .
 f9000440 13054500 b385a500 23a0c500 67800000  ..E.....#...g...
 f9000450 130101fc 232e1100 232c8100 232a9100  ....#...#,..#*..
 f9000460 93040500 2322b102 2324c102 2326d102  ....#"..#$..#&..
 f9000470 2328e102 232af102 232c0103 232e1103  #(..#*..#,..#...
 f9000480 93074102 2326f100 13040000 6f00c001  ..A.#&......o...
 f9000490 8327c100 13874700 2326e100 03a50700  .'....G.#&......
 f90004a0 eff01fdd 13041400 b3878400 03c50700  ................
 f90004b0 6302050c 93075002 6306f506 eff05fdb  c.....P.c....._.
 f90004c0 6ff05ffe 8327c100 13874700 2326e100  o._..'....G.#&..
 f90004d0 03a50700 eff09fdb 6ff0dffc 8327c100  ........o....'..
 f90004e0 13874700 2326e100 03a50700 eff09fdb  ..G.#&..........
 f90004f0 6ff05ffb 8327c100 13874700 2326e100  o._..'....G.#&..
 f9000500 03a50700 eff01fe6 6ff0dff9 8327c100  ........o....'..
 f9000510 13874700 2326e100 03a50700 eff09fe0  ..G.#&..........
 f9000520 6ff05ff8 13041400 b3878400 83c70700  o._.............
 f9000530 e38a07f6 13073006 e38ce7f4 13073007  ......0.......0.
 f9000540 e382e7f8 13074006 e38ae7f8 13078005  ......@.........
 f9000550 e382e7fa 13078007 e38ae7fa 13076006  ..............`.
 f9000560 e392e7fc 370508f9 13058502 eff01fd2  ....7...........
 f9000570 6ff05ff3 8320c101 03248101 83244101  o._.. ...$...$A.
 f9000580 13010104 67800000 130101ff 23261100  ....g.......#&..
 f9000590 13060000 93050000 3705c0f8 eff05fe6  ........7....._.
 f90005a0 93061000 1306c000 93050000 3705c0f8  ............7...
 f90005b0 eff05fe0 13061000 9305c000 3705c0f8  .._.........7...
 f90005c0 eff05fde b75701f8 13071000 23a0e702  .._..W......#...
 f90005d0 b70700f9 93878775 73905730 b7170000  .......us.W0....
 f90005e0 93870780 73a04730 f3270030 37270000  ....s.G0.'.07'..
 f90005f0 13078780 b3e7e700 73900730 8320c100  ........s..0. ..
 f9000600 13010101 67800000 130101ff 23261100  ....g.......#&..
 f9000610 370508f9 13054507 eff09fe3 6f000000  7.....E.....o...
 f9000620 130101ff 23261100 23248100 93050000  ....#&..#$......
 f9000630 3705c0f8 eff05fde 13040500 63080502  7....._.....c...
 f9000640 9307c000 6312f402 370508f9 13058508  ....c...7.......
 f9000650 eff01fe0 13060400 93050000 3705c0f8  ............7...
 f9000660 eff05fdd 6ff09ffc eff01ffa 8320c100  .._.o........ ..
 f9000670 03248100 13010101 67800000 130101ff  .$......g.......
 f9000680 23261100 f3272034 63d20702 13f7f700  #&...' 4c.......
 f9000690 9307b000 631af700 eff09ff8 8320c100  ....c........ ..
 f90006a0 13010101 67800000 eff01ff6 eff0dff5  ....g...........
 f90006b0 130101ff 23261100 23248100 370508f9  ....#&..#$..7...
 f90006c0 1305450a eff0dfd8 370508f9 1305850b  ..E.....7.......
 f90006d0 eff01fd8 b75701f8 1307e000 23a4e700  .....W......#...
 f90006e0 23a20700 13040000 6f000003 375701f8  #.......o...7W..
 f90006f0 83274700 93c7e700 2322f700 3706b0f8  .'G.....#"..7...
 f9000700 b7959800 93850568 37850100 1305056a  .......h7......j
 f9000710 eff01fa3 13041400 93071003 e3d887fc  ................
 f9000720 370508f9 1305450d eff09fd2 370508f9  7.....E.....7...
 f9000730 1305050f eff0dfd1 370508f9 13050512  ........7.......
 f9000740 eff01fd1 370508f9 13050515 eff05fd0  ....7........._.
 f9000750 eff09fe3 6f000000 130101fc 23201100  ....o.......# ..
 f9000760 23225100 23246100 23267100 2328a100  #"Q.#$a.#&q.#(..
 f9000770 232ab100 232cc100 232ed100 2320e102  #*..#,..#...# ..
 f9000780 2322f102 23240103 23261103 2328c103  #"..#$..#&..#(..
 f9000790 232ad103 232ce103 232ef103 eff01fee  #*..#,..#.......
 f90007a0 83200100 83224100 03238100 8323c100  . ..."A..#...#..
 f90007b0 03250101 83254101 03268101 8326c101  .%...%A..&...&..
 f90007c0 03270102 83274102 03288102 8328c102  .'...'A..(...(..
 f90007d0 032e0103 832e4103 032f8103 832fc103  ......A../.../..
 f90007e0 13010104 73002030                    ....s. 0        
Contents of section .ram_section.data:
 f9080000 30313233 34353637 38394142 43444546  0123456789ABCDEF
 f9080010 00000000 30313233 34353637 38396162  ....0123456789ab
 f9080020 63646566 00000000 3c466c6f 6174696e  cdef....<Floatin
 f9080030 6720706f 696e7420 7072696e 74696e67  g point printing
 f9080040 206e6f74 20656e61 626c652e 20506c65   not enable. Ple
 f9080050 61736520 456e6162 6c652069 74206174  ase Enable it at
 f9080060 20627370 2e682066 69727374 2e2e2e3e   bsp.h first...>
 f9080070 00000000 0d0a2a2a 2a204352 41534820  ......*** CRASH 
 f9080080 2a2a2a0d 0a000000 6770696f 20302069  ***.....gpio 0 i
 f9080090 6e746572 72757074 20726f75 74696e65  nterrupt routine
 f90800a0 200d0a00 6770696f 20302064 656d6f20   ...gpio 0 demo 
 f90800b0 21200d0a 00000000 6f6e626f 61726420  ! ......onboard 
 f90800c0 4c454473 20626c69 6e6b696e 67200d0a  LEDs blinking ..
 f90800d0 00000000 6770696f 20302069 6e746572  ....gpio 0 inter
 f90800e0 72757074 2064656d 6f202120 0d0a0000  rupt demo ! ....
 f90800f0 54693138 30207072 65737320 616e6420  Ti180 press and 
 f9080100 72656c65 61736520 6f6e626f 61726420  release onboard 
 f9080110 62757474 6f6e2073 7734200d 0a000000  button sw4 .....
 f9080120 54693630 20707265 73732061 6e642072  Ti60 press and r
 f9080130 656c6561 7365206f 6e626f61 72642062  elease onboard b
 f9080140 7574746f 6e207377 36200d0a 00000000  utton sw6 ......
 f9080150 54313230 20707265 73732061 6e642072  T120 press and r
 f9080160 656c6561 7365206f 6e626f61 72642062  elease onboard b
 f9080170 7574746f 6e207377 37200d0a 00000000  utton sw7 ......
 f9080180 00000000 00000000 0000               ..........      
Contents of section .debug_info:
 0000 14160000 04000000 00000401 ae580000  .............X..
 0010 0cd32000 00cc4400 00f40000 f9640600  .. ...D......d..
 0020 00000000 00000000 00020106 08530000  .............S..
 0030 02010815 50000002 02056908 00000202  ....P.....i.....
 0040 07445e00 0003787f 0000094d 18510000  .D^...x....M.Q..
 0050 00020405 b1830000 03354200 00094f19  .........5B...O.
 0060 64000000 020407ea 17000002 08054246  d.............BF
 0070 00000208 07126c00 00040405 696e7400  ......l.....int.
 0080 02040745 1f000003 7a7f0000 0a2c1345  ...E....z....,.E
 0090 00000003 37420000 0a301458 00000005  ....7B...0.X....
 00a0 75333200 121e1593 00000003 07230000  u32..........#..
 00b0 0b281bb7 00000006 04eb2100 00035e7e  .(........!...^~
 00c0 00000b63 18ab0000 00021004 7a030000  ...c........z...
 00d0 07372100 000c6501 17800000 00036b7b  .7!...e.......k{
 00e0 00000d2e 0e510000 00034959 00000d74  .....Q....IY...t
 00f0 0e510000 00034a72 00000d93 17790000  .Q....Jr.....y..
 0100 0008040d a5032301 0000093f 0f00000d  ......#....?....
 0110 a70cd000 00000967 5900000d a8132301  .......gY.....#.
 0120 0000000a 30000000 33010000 0b800000  ....0...3.......
 0130 0003000c 080da209 57010000 0d715300  ........W....qS.
 0140 000da407 79000000 000ded02 00000da9  ....y...........
 0150 05010100 00040003 ec640000 0daa0333  .........d.....3
 0160 0100000e 04034c78 00000e16 19640000  ......Lx.....d..
 0170 0003303b 00000f0c 0d790000 0003f463  ..0;.....y.....c
 0180 00000e23 1b710100 000f6f3e 0000180e  ...#.q....o>....
 0190 3408e301 00000dd8 5000000e 3613e301  4.......P...6...
 01a0 00000010 5f6b000e 37077900 0000040d  ...._k..7.y.....
 01b0 d2710000 0e370b79 00000008 0dc24800  .q...7.y......H.
 01c0 000e3714 79000000 0c0d9832 00000e37  ..7.y......2...7
 01d0 1b790000 0010105f 78000e38 0be90100  .y....._x..8....
 01e0 00140011 04890100 000a6501 0000f901  ..........e.....
 01f0 00000b80 00000000 000f3008 0000240e  ..........0...$.
 0200 3c087c02 00000d42 0800000e 3e097900  <.|....B....>.y.
 0210 0000000d d4840000 0e3f0979 00000004  .........?.y....
 0220 0dc27c00 000e4009 79000000 080d784f  ..|...@.y.....xO
 0230 00000e41 09790000 000c0d73 1800000e  ...A.y.....s....
 0240 42097900 0000100d 28720000 0e430979  B.y.....(r...C.y
 0250 00000014 0d205500 000e4409 79000000  ..... U...D.y...
 0260 180dbd55 00000e45 09790000 001c0ddf  ...U...E.y......
 0270 8000000e 46097900 00002000 12eb1000  ....F.y... .....
 0280 0008010e 4f08c102 00000dce 8000000e  ....O...........
 0290 500ac102 0000000d 955d0000 0e5109c1  P........]...Q..
 02a0 02000080 13441700 000e530a 65010000  .....D....S.e...
 02b0 00011393 7600000e 560a6501 00000401  ....v...V.e.....
 02c0 000a6301 0000d102 00000b80 0000001f  ..c.............
 02d0 0012a651 00009001 0e620814 0300000d  ...Q.....b......
 02e0 d8500000 0e631214 03000000 0dfc7400  .P...c........t.
 02f0 000e6406 79000000 040d3025 00000e66  ..d.y.....0%...f
 0300 091a0300 00080deb 1000000e 671e7c02  ............g.|.
 0310 00008800 1104d102 00000a2a 0300002a  ...........*...*
 0320 0300000b 80000000 1f001104 30030000  ............0...
 0330 140fc716 0000080e 7a085903 00000dbe  ........z.Y.....
 0340 6000000e 7b115903 0000000d c7090000  `...{.Y.........
 0350 0e7c0679 00000004 00110430 0000000f  .|.y.......0....
 0360 0b7d0000 680eba08 a2040000 105f7000  .}..h........_p.
 0370 0ebb1259 03000000 105f7200 0ebc0779  ...Y....._r....y
 0380 00000004 105f7700 0ebd0779 00000008  ....._w....y....
 0390 0df55000 000ebe09 37000000 0c0d9a10  ..P.....7.......
 03a0 00000ebf 09370000 000e105f 6266000e  .....7....._bf..
 03b0 c0113103 0000100d df740000 0ec10779  ..1......t.....y
 03c0 00000018 0de43100 000ec80a 63010000  ......1.....c...
 03d0 1c0df703 00000eca 1d260600 00200dfc  .........&... ..
 03e0 4a00000e cc1d5006 0000240d 89580000  J.....P...$..X..
 03f0 0ecf0d74 06000028 0dee2500 000ed009  ...t...(..%.....
 0400 8e060000 2c105f75 62000ed3 11310300  ....,._ub....1..
 0410 0030105f 7570000e d4125903 00003810  .0._up....Y...8.
 0420 5f757200 0ed50779 0000003c 0dc24f00  _ur....y...<..O.
 0430 000ed811 94060000 400d3c08 00000ed9  ........@.<.....
 0440 11a40600 0043105f 6c62000e dc113103  .....C._lb....1.
 0450 0000440d 0d600000 0edf0779 0000004c  ..D..`.....y...L
 0460 0d373400 000ee00a dd000000 500de066  .74.........P..f
 0470 00000ee3 12c00400 00540d83 0a00000e  .........T......
 0480 e70c7d01 0000580d 75500000 0ee90e57  ..}...X.uP.....W
 0490 0100005c 0dd64a00 000eea09 79000000  ...\..J.....y...
 04a0 640015f5 000000c0 04000016 c0040000  d...............
 04b0 16630100 00161406 00001679 00000000  .c.........y....
 04c0 1104cb04 000017c0 04000018 af210000  .............!..
 04d0 28040e65 02081406 000019d8 4d00000e  (..e........M...
 04e0 67020779 00000000 19f42800 000e6c02  g..y......(...l.
 04f0 0b000700 0004199f 1d00000e 6c021400  ............l...
 0500 07000008 19235000 000e6c02 1e000700  .....#P...l.....
 0510 000c195e 2300000e 6e020879 00000010  ...^#...n..y....
 0520 19404200 000e6f02 08000900 00141917  .@B...o.........
 0530 2100000e 72020779 00000030 19132d00  !...r..y...0..-.
 0540 000e7302 16150900 00341959 3900000e  ..s......4.Y9...
 0550 75020779 00000038 197c3f00 000e7702  u..y...8.|?...w.
 0560 0a260900 003c19fd 7900000e 7a0213e3  .&...<..y...z...
 0570 01000040 19347300 000e7b02 07790000  ...@.4s...{..y..
 0580 0044196b 3800000e 7c0213e3 01000048  .D.k8...|......H
 0590 19d94700 000e7d02 142c0900 004c1918  ..G...}..,...L..
 05a0 0600000e 80020779 00000050 19683400  .......y...P.h4.
 05b0 000e8102 09140600 005419a3 4f00000e  .........T..O...
 05c0 a40207db 08000058 1aa65100 000ea802  .......X..Q.....
 05d0 13140300 0048011a 9e3f0000 0ea90212  .....H...?......
 05e0 d1020000 4c011a4a 3300000e ad020c3d  ....L..J3......=
 05f0 090000dc 021a7880 00000eb2 0210c106  ......x.........
 0600 0000e002 1a360300 000eb402 0a490900  .....6.......I..
 0610 00ec0200 11041a06 00000201 080f5300  ..............S.
 0620 00171a06 00001104 a2040000 15f50000  ................
 0630 004a0600 0016c004 00001663 01000016  .J.........c....
 0640 4a060000 16790000 00001104 21060000  J....y......!...
 0650 11042c06 000015e9 00000074 06000016  ..,........t....
 0660 c0040000 16630100 0016e900 00001679  .....c.........y
 0670 00000000 11045606 00001579 0000008e  ......V....y....
 0680 06000016 c0040000 16630100 00001104  .........c......
 0690 7a060000 0a300000 00a40600 000b8000  z....0..........
 06a0 00000200 0a300000 00b40600 000b8000  .....0..........
 06b0 00000000 07306400 000e2401 1a5f0300  .....0d...$.._..
 06c0 001bbc48 00000c0e 280108fa 06000019  ...H....(.......
 06d0 d8500000 0e2a0111 fa060000 0019d643  .P...*.........C
 06e0 00000e2b 01077900 00000419 ac340000  ...+..y......4..
 06f0 0e2c010b 00070000 08001104 c1060000  .,..............
 0700 1104b406 00001be6 5d00000e 0e440108  ........]....D..
 0710 3f070000 19f55700 000e4501 123f0700  ?.....W...E..?..
 0720 000019f4 0b00000e 4601123f 07000006  ........F..?....
 0730 19357c00 000e4701 123e0000 000c000a  .5|...G..>......
 0740 3e000000 4f070000 0b800000 0002001c  >...O...........
 0750 d00e8502 07640800 0019391b 00000e87  .....d....9.....
 0760 02188000 00000019 08130000 0e880212  ................
 0770 14060000 0419f405 00000e89 02106408  ..............d.
 0780 00000819 27160000 0e8a0217 f9010000  ....'...........
 0790 2419cc45 00000e8b 020f7900 00004819  $..E......y...H.
 07a0 d3500000 0e8c022c 72000000 50195565  .P.....,r...P.Ue
 07b0 00000e8d 021a0607 00005819 146d0000  ..........X..m..
 07c0 0e8e0216 57010000 6819175a 00000e8f  ....W...h..Z....
 07d0 02165701 00007019 4d500000 0e900216  ..W...p.MP......
 07e0 57010000 78198408 00000e91 02107408  W...x.........t.
 07f0 00008019 623d0000 0e920210 84080000  ....b=..........
 0800 8819e70b 00000e93 020f7900 0000a019  ..........y.....
 0810 62130000 0e940216 57010000 a419c125  b.......W......%
 0820 00000e95 02165701 0000ac19 bc7e0000  ......W......~..
 0830 0e960216 57010000 b4192c4f 00000e97  ....W.....,O....
 0840 02165701 0000bc19 f7490000 0e980216  ..W......I......
 0850 57010000 c419d64d 00000e99 02087900  W......M......y.
 0860 0000cc00 0a1a0600 00740800 000b8000  .........t......
 0870 00001900 0a1a0600 00840800 000b8000  ................
 0880 00000700 0a1a0600 00940800 000b8000  ................
 0890 00001700 1cf00e9e 0207bb08 000019f6  ................
 08a0 7600000e a1021bbb 08000000 19384500  v............8E.
 08b0 000ea202 18cb0800 0078000a 59030000  .........x..Y...
 08c0 cb080000 0b800000 001d000a 80000000  ................
 08d0 db080000 0b800000 001d001d f00e8302  ................
 08e0 03000900 001eaf21 00000e9a 020b4f07  .......!......O.
 08f0 00001eff 2200000e a3020b94 08000000  ...."...........
 0900 0a1a0600 00100900 000b8000 00001800  ................
 0910 1f3f4400 00110410 09000020 26090000  .?D........ &...
 0920 16c00400 00001104 1b090000 1104e301  ................
 0930 0000203d 09000016 79000000 00110443  .. =....y......C
 0940 09000011 04320900 000ab406 00005909  .....2........Y.
 0950 00000b80 00000002 00210a10 00000e33  .........!.....3
 0960 0317c004 000021f8 7100000e 34031dc6  ......!.q...4...
 0970 04000022 10710000 10670e14 06000002  ...".q...g......
 0980 0404a67c 00000208 047f0300 00236242  ...|.........#bB
 0990 00000504 79000000 115f0206 ad090000  ....y...._......
 09a0 24652400 007f25b0 23000000 0021743a  $e$...%.#....!t:
 09b0 00001168 02238d09 00002607 17000007  ...h.#....&.....
 09c0 7106b006 00f9a800 0000019c b70b0000  q...............
 09d0 27000000 008f0a00 00286900 07780e79  '........(i..x.y
 09e0 00000000 00000029 08110000 ec0600f9  .......)........
 09f0 08000000 07791f1f 0a00002a 19110000  .....y.....*....
 0a00 1f000000 2bfd1500 00ec0600 f9080000  ....+...........
 0a10 00082705 2a0a1600 00370000 00000029  ..'.*....7.....)
 0a20 e2100000 f80600f9 04000000 07790969  .............y.i
 0a30 0a00002a fb100000 4f000000 2aef1000  ...*....O...*...
 0a40 00620000 002bd715 0000f806 00f90400  .b...+..........
 0a50 00000828 052af015 00007a00 00002ae4  ...(.*....z...*.
 0a60 1500004f 00000000 002c1407 00f93814  ...O.....,....8.
 0a70 00002d01 5a050ca0 8601002d 015b050c  ..-.Z......-.[..
 0a80 80969800 2d015c05 118080c0 45000029  ....-.\.....E..)
 0a90 bc100000 d40600f9 0c000000 077605d9  .............v..
 0aa0 0a00002a d5100000 92000000 2ac91000  ...*........*...
 0ab0 00a60000 002bd715 0000d406 00f90c00  .....+..........
 0ac0 0000082a 052af015 0000be00 00002ae4  ...*.*........*.
 0ad0 15000092 00000000 0029e210 0000e006  .........)......
 0ae0 00f90400 00000777 05230b00 002afb10  .......w.#...*..
 0af0 0000d600 00002aef 100000ea 0000002b  ......*........+
 0b00 d7150000 e00600f9 04000000 0828052a  .............(.*
 0b10 f0150000 02010000 2ae41500 00d60000  ........*.......
 0b20 0000002e c80600f9 26110000 3a0b0000  ........&...:...
 0b30 2d015a05 03a40008 f9002ed4 0600f926  -.Z............&
 0b40 11000051 0b00002d 015a0503 b80008f9  ...Q...-.Z......
 0b50 002e2c07 00f92611 0000680b 00002d01  ..,...&...h...-.
 0b60 5a0503d4 0008f900 2e380700 f9261100  Z........8...&..
 0b70 007f0b00 002d015a 0503f000 08f9002e  .....-.Z........
 0b80 440700f9 26110000 960b0000 2d015a05  D...&.......-.Z.
 0b90 03200108 f9002e50 0700f926 110000ad  . .....P...&....
 0ba0 0b00002d 015a0503 500108f9 002f5407  ...-.Z..P..../T.
 0bb0 00f9e40c 00000026 606a0000 076c0608  .......&`j...l..
 0bc0 0600f918 00000001 9ce10b00 002c1c06  .............,..
 0bd0 00f92611 00002d01 5a050374 0008f900  ..&...-.Z..t....
 0be0 00268929 0000075e 06200600 f95c0000  .&.)...^. ...\..
 0bf0 00019c64 0c000030 2f550000 075f0e93  ...d...0/U..._..
 0c00 0000001a 0100002e 380600f9 7e0e0000  ........8...~...
 0c10 220c0000 2d015a04 4d46241f 2d015b01  "...-.Z.MF$.-.[.
 0c20 30002e54 0600f926 11000039 0c00002d  0..T...&...9...-
 0c30 015a0503 880008f9 002e6406 00f9160e  .Z........d.....
 0c40 00005a0c 00002d01 5a044d46 241f2d01  ..Z...-.Z.MF$.-.
 0c50 5b01302d 015c0278 00002f6c 0600f9b7  [.0-.\.x../l....
 0c60 0b000000 26b71900 00075006 7c0600f9  ....&.....P.|...
 0c70 34000000 019ce40c 00003021 72000007  4.........0!r...
 0c80 510d8700 00003801 000030ba 7a000007  Q.....8...0.z...
 0c90 520d8700 00005601 00003022 72000007  R.....V...0"r...
 0ca0 530d8700 00008201 00003184 0600f904  S.........1.....
 0cb0 000000c8 0c000028 5f5f7600 07511664  .......(__v..Q.d
 0cc0 00000038 01000000 2f9c0600 f9e10b00  ...8..../.......
 0cd0 002fac06 00f9b70b 00002fb0 0600f9b7  ./......../.....
 0ce0 0b000000 265f3900 00073f06 880500f9  ....&_9...?.....
 0cf0 80000000 019c160e 000031d0 0500f90c  ..........1.....
 0d00 00000018 0d000028 5f5f7600 07490564  .......(__v..I.d
 0d10 000000be 01000000 31dc0500 f90c0000  ........1.......
 0d20 00340d00 00325f5f 7600074b 05640000  .4...2__v..K.d..
 0d30 00000800 31e80500 f9140000 006a0d00  ....1........j..
 0d40 00335f5f 7600074c 05640000 00015f34  .3__v..L.d...._4
 0d50 e80500f9 04000000 285f5f76 00074c05  ........(__v..L.
 0d60 64000000 d1010000 00002996 100000c4  d.........).....
 0d70 0500f90c 00000007 4605b40d 00002aaf  ........F.....*.
 0d80 100000e4 0100002a a3100000 f8010000  .......*........
 0d90 2bd71500 00c40500 f90c0000 00082c05  +.............,.
 0da0 2af01500 00100200 002ae415 0000e401  *........*......
 0db0 00000000 2ea00500 f9d30e00 00d40d00  ................
 0dc0 002d015a 044d4624 1f2d015b 01302d01  .-.Z.MF$.-.[.0-.
 0dd0 5c013000 2eb40500 f93b0f00 00f90d00  \.0......;......
 0de0 002d015a 044d4624 1f2d015b 01302d01  .-.Z.MF$.-.[.0-.
 0df0 5c013c2d 015d0131 002cc405 00f93010  \.<-.].1.,....0.
 0e00 00002d01 5a044d46 241f2d01 5b013c2d  ..-.Z.MF$.-.[.<-
 0e10 015c0131 00003505 44000006 42113404  .\.1..5.D...B.4.
 0e20 00f91c00 0000019c 7e0e0000 36477800  ........~...6Gx.
 0e30 00064222 9f000000 28020000 36a43900  ..B"....(...6.9.
 0e40 0006422c 9f000000 49020000 37157500  ..B,....I...7.u.
 0e50 00064238 9f000000 015c2bd7 15000048  ..B8.....\+....H
 0e60 0400f904 00000006 43092af0 1500006a  ........C.*....j
 0e70 0200002a e4150000 7d020000 0000382a  ...*....}.....8*
 0e80 55000006 3e109f00 00001804 00f91c00  U...>...........
 0e90 0000019c d30e0000 36477800 00063e1f  ........6Gx...>.
 0ea0 9f000000 90020000 36a43900 00063e29  ........6.9...>)
 0eb0 9f000000 b1020000 2bfd1500 002c0400  ........+....,..
 0ec0 f9040000 00063f10 2a0a1600 00d20200  ......?.*.......
 0ed0 00000035 96660000 06361100 0400f918  ...5.f...6......
 0ee0 00000001 9c3b0f00 00364778 00000636  .....;...6Gx...6
 0ef0 289f0000 00e50200 0036a439 00000636  (........6.9...6
 0f00 329f0000 00060300 00379f66 00000636  2........7.f...6
 0f10 3e9f0000 00015c2b d7150000 100400f9  >.....\+........
 0f20 04000000 0637092a f0150000 27030000  .....7.*....'...
 0f30 2ae41500 003a0300 00000035 8f410000  *....:.....5.A..
 0f40 062d11b4 0300f94c 00000001 9c301000  .-.....L.....0..
 0f50 00364778 0000062d 259f0000 004d0300  .6Gx...-%....M..
 0f60 0036a439 0000062d 2f9f0000 006e0300  .6.9...-/....n..
 0f70 00361575 0000062d 3a9f0000 008f0300  .6.u...-:.......
 0f80 00379841 0000062d 479f0000 00015d39  .7.A...-G.....]9
 0f90 99170000 062e0d9f 00000001 5a301747  ............Z0.G
 0fa0 0000062f 0d9f0000 00c90300 0029fd15  .../.........)..
 0fb0 0000dc03 00f90400 00000631 17cb0f00  ...........1....
 0fc0 002a0a16 00001b04 00000029 d7150000  .*.........)....
 0fd0 e40300f9 08000000 06310df2 0f00002a  .........1.....*
 0fe0 f0150000 2e040000 2ae41500 00410400  ........*....A..
 0ff0 000029fd 150000ec 0300f904 00000006  ..).............
 1000 33171010 00002a0a 16000054 04000000  3.....*....T....
 1010 2bd71500 00f80300 f9040000 0006330d  +.............3.
 1020 3af01500 00015a3a e4150000 015f0000  :.....Z:....._..
 1030 35701300 00062511 a40300f9 10000000  5p....%.........
 1040 019c9610 00003747 78000006 25279f00  ......7Gx...%'..
 1050 0000015a 36157500 00062531 9f000000  ...Z6.u...%1....
 1060 67040000 37791300 0006253e 9f000000  g...7y....%>....
 1070 015c2bd7 150000ac 0300f904 00000006  .\+.............
 1080 26092af0 15000088 0400002a e4150000  &.*........*....
 1090 9b040000 00003bb2 39000008 2c0503bc  ......;.9...,...
 10a0 1000003c 72656700 082c059f 0000003d  ...<reg..,.....=
 10b0 ef020000 082c059f 00000000 3bd12900  .....,......;.).
 10c0 00082a05 03e21000 003c7265 6700082a  ..*......<reg..*
 10d0 059f0000 003def02 0000082a 059f0000  .....=.....*....
 10e0 00003bc3 71000008 28050308 1100003c  ..;.q...(......<
 10f0 72656700 0828059f 0000003d ef020000  reg..(.....=....
 1100 0828059f 00000000 3e0e2900 00082705  .(......>.)...'.
 1110 9f000000 03261100 003c7265 67000827  .....&...<reg..'
 1120 059f0000 000035b6 80000005 df115004  ......5.......P.
 1130 00f93801 0000019c b3110000 36fb6b00  ..8.........6.k.
 1140 0005df28 4a060000 ae040000 3f286900  ...(J.......?(i.
 1150 05e10d79 000000da 04000033 61700005  ...y.......3ap..
 1160 e211bd00 00000291 4c2fa404 00f9f012  ........L/......
 1170 00002fc0 0400f9f0 1200002f d80400f9  ../......../....
 1180 ba120000 2ff00400 f9491200 002f0805  ..../....I.../..
 1190 00f9b311 00002f20 0500f9fe 1100002c  ....../ .......,
 11a0 700500f9 ba120000 2d015a05 03280008  p.......-.Z..(..
 11b0 f9000035 c7550000 05d01164 0300f940  ...5.U.....d...@
 11c0 00000001 9cfe1100 00407661 6c0005d0  .........@val...
 11d0 22790000 00f90400 00286900 05d21179  "y.......(i....y
 11e0 0000001a 05000041 ce160000 05d21379  .......A.......y
 11f0 00000002 2f980300 f97b1300 000035a1  ..../....{....5.
 1200 58000005 c1112403 00f94000 0000019c  X.....$...@.....
 1210 49120000 4076616c 0005c122 79000000  I...@val..."y...
 1220 39050000 28690005 c30d7900 00005a05  9...(i....y...Z.
 1230 000041ce 16000005 c30f7900 0000022f  ..A.......y..../
 1240 580300f9 26130000 00351457 000005b1  X...&....5.W....
 1250 11a40200 f9800000 00019caa 12000040  ...............@
 1260 76616c00 05b12279 00000079 05000039  val..."y...y...9
 1270 77310000 05b30eaa 12000002 91502870  w1...........P(p
 1280 0005b40f 14060000 97050000 2ecc0200  ................
 1290 f9f01200 00a01200 002d015a 02082d00  .........-.Z..-.
 12a0 2f080300 f9f01200 00000a1a 060000ba  /...............
 12b0 1200000b 80000000 1f00356c 58000005  ..........5lX...
 12c0 aa118c02 00f91800 0000019c f0120000  ................
 12d0 40700005 aa241406 0000cd05 00002c98  @p...$........,.
 12e0 0200f9d0 1300002d 015a03f3 015a0000  .......-.Z...Z..
 12f0 35075700 0005a511 700200f9 1c000000  5.W.....p.......
 1300 019c2613 00004063 0005a522 79000000  ..&...@c..."y...
 1310 ee050000 2c800200 f9fe1300 002d015a  ....,........-.Z
 1320 03f3015a 00003500 08000004 7f111c02  ...Z..5.........
 1330 00f95400 0000019c 7b130000 4076616c  ..T.....{...@val
 1340 00047f2d 93000000 0f060000 41350800  ...-........A5..
 1350 00048116 93000000 08343002 00f92c00  .........40...,.
 1360 00002869 00048416 79000000 3b060000  ..(i....y...;...
 1370 2f540200 f9fe1300 00000035 216d0000  /T.........5!m..
 1380 047511c8 0100f954 00000001 9cd01300  .u.....T........
 1390 00407661 6c000475 27930000 005a0600  .@val..u'....Z..
 13a0 00413508 00000477 12930000 000834dc  .A5....w......4.
 13b0 0100f92c 00000028 6900047a 12790000  ...,...(i..z.y..
 13c0 00860600 002f0002 00f9fe13 00000000  ...../..........
 13d0 35601400 00046911 940100f9 34000000  5`....i.....4...
 13e0 019cfe13 00004070 00046922 14060000  ......@p..i"....
 13f0 a5060000 2fb40100 f9fe1300 000035b4  ..../.........5.
 1400 65000004 61117401 00f92000 0000019c  e...a.t... .....
 1410 38140000 369d8000 0004611f 1a060000  8...6.....a.....
 1420 c3060000 2c880100 f9241500 002d015a  ....,....$...-.Z
 1430 05118080 84400000 35a62e00 00033711  .....@..5.....7.
 1440 400100f9 34000000 019c0615 00003647  @...4.........6G
 1450 54000003 37229f00 0000e406 00004068  T...7"........@h
 1460 7a000337 2c9f0000 00050700 00407265  z..7,........@re
 1470 67000337 349f0000 00260700 00399850  g..74....&...9.P
 1480 00000338 0d9f0000 00015b39 c72f0000  ...8......[9./..
 1490 03390d9f 00000001 5a290615 00004c01  .9......Z)....L.
 14a0 00f91000 00000339 15d11400 002a1715  .......9.....*..
 14b0 00004807 00002bfd 15000058 0100f904  ..H...+....X....
 14c0 00000003 21052a0a 1600006a 07000000  ....!.*....j....
 14d0 002b0615 00006401 00f90400 0000033a  .+....d........:
 14e0 202a1715 00007d07 00002bfd 15000064   *....}...+....d
 14f0 0100f904 00000003 21052a0a 16000094  ........!.*.....
 1500 07000000 00003ea9 26000003 21059f00  ......>.&...!...
 1510 00000324 1500003c 72656700 0321059f  ...$...<reg..!..
 1520 00000000 35f84a00 00013411 040100f9  ....5.J...4.....
 1530 3c000000 019c9215 00004072 65670001  <.........@reg..
 1540 34209f00 0000a707 000036e1 66000001  4 ........6.f...
 1550 342a1a06 0000d307 000029d7 15000028  4*........)....(
 1560 0100f904 00000001 36098115 00002af0  ........6.....*.
 1570 150000f4 0700002a e4150000 07080000  .......*........
 1580 002c2401 00f99215 00002d01 5a027800  .,$.......-.Z.x.
 1590 00003809 55000001 2d109f00 0000f400  ..8.U...-.......
 15a0 00f91000 0000019c d7150000 40726567  ............@reg
 15b0 00012d2b 9f000000 1a080000 2bfd1500  ..-+........+...
 15c0 00f40000 f9040000 00012e11 2a0a1600  ............*...
 15d0 003b0800 0000003b d00b0000 02221803  .;.....;....."..
 15e0 fd150000 3de16600 00022226 9f000000  ....=.f..."&....
 15f0 3d465100 00022230 9f000000 00429a79  =FQ..."0.....B.y
 1600 0000021e 179f0000 00033d46 51000002  ..........=FQ...
 1610 1e249f00 00000000 22000000 0200c003  .$......".......
 1620 00000401 240e0000 000000f9 600000f9  ....$.......`...
 1630 a8880000 cc440000 ba880000 01802200  .....D........".
 1640 00000200 d4030000 0401de0e 00005807  ..............X.
 1650 00f9e807 00f9c688 0000cc44 0000ba88  ...........D....
 1660 00000180                             ....            
Contents of section .debug_abbrev:
 0000 01110125 0e130b03 0e1b0e11 01120610  ...%............
 0010 17994217 00000224 000b0b3e 0b030e00  ..B....$...>....
 0020 00031600 030e3a0b 3b0b390b 49130000  ......:.;.9.I...
 0030 0424000b 0b3e0b03 08000005 16000308  .$...>..........
 0040 3a0b3b0b 390b4913 0000060f 000b0b03  :.;.9.I.........
 0050 0e000007 1600030e 3a0b3b05 390b4913  ........:.;.9.I.
 0060 00000817 010b0b3a 0b3b0b39 0b011300  .......:.;.9....
 0070 00090d00 030e3a0b 3b0b390b 49130000  ......:.;.9.I...
 0080 0a010149 13011300 000b2100 49132f0b  ...I......!.I./.
 0090 00000c13 010b0b3a 0b3b0b39 0b011300  .......:.;.9....
 00a0 000d0d00 030e3a0b 3b0b390b 4913380b  ......:.;.9.I.8.
 00b0 00000e0f 000b0b00 000f1301 030e0b0b  ................
 00c0 3a0b3b0b 390b0113 0000100d 0003083a  :.;.9..........:
 00d0 0b3b0b39 0b491338 0b000011 0f000b0b  .;.9.I.8........
 00e0 49130000 12130103 0e0b053a 0b3b0b39  I..........:.;.9
 00f0 0b011300 00130d00 030e3a0b 3b0b390b  ..........:.;.9.
 0100 49133805 00001415 00271900 00151501  I.8......'......
 0110 27194913 01130000 16050049 13000017  '.I........I....
 0120 26004913 00001813 01030e0b 053a0b3b  &.I..........:.;
 0130 05390b01 13000019 0d00030e 3a0b3b05  .9..........:.;.
 0140 390b4913 380b0000 1a0d0003 0e3a0b3b  9.I.8........:.;
 0150 05390b49 13380500 001b1301 030e0b0b  .9.I.8..........
 0160 3a0b3b05 390b0113 00001c13 010b0b3a  :.;.9..........:
 0170 0b3b0539 0b011300 001d1701 0b0b3a0b  .;.9..........:.
 0180 3b05390b 01130000 1e0d0003 0e3a0b3b  ;.9..........:.;
 0190 05390b49 1300001f 1300030e 3c190000  .9.I........<...
 01a0 20150127 19011300 00213400 030e3a0b   ..'.....!4...:.
 01b0 3b05390b 49133f19 3c190000 22340003  ;.9.I.?.<..."4..
 01c0 0e3a0b3b 0b390b49 133f193c 19000023  .:.;.9.I.?.<...#
 01d0 0401030e 3e0b0b0b 49133a0b 3b05390b  ....>...I.:.;.9.
 01e0 01130000 24280003 0e1c0d00 00252800  ....$(.......%(.
 01f0 030e1c0b 0000262e 013f1903 0e3a0b3b  ......&..?...:.;
 0200 0b390b11 01120640 18974219 01130000  .9.....@..B.....
 0210 270b0155 17011300 00283400 03083a0b  '..U.....(4...:.
 0220 3b0b390b 49130217 0000291d 01311311  ;.9.I.....)..1..
 0230 01120658 0b590b57 0b011300 002a0500  ...X.Y.W.....*..
 0240 31130217 00002b1d 01311311 01120658  1.....+..1.....X
 0250 0b590b57 0b00002c 89820101 11013113  .Y.W...,......1.
 0260 00002d8a 82010002 18914218 00002e89  ..-.......B.....
 0270 82010111 01311301 1300002f 89820100  .....1...../....
 0280 11013113 00003034 00030e3a 0b3b0b39  ..1...04...:.;.9
 0290 0b491302 17000031 0b011101 12060113  .I.....1........
 02a0 00003234 0003083a 0b3b0b39 0b49131c  ..24...:.;.9.I..
 02b0 05000033 34000308 3a0b3b0b 390b4913  ...34...:.;.9.I.
 02c0 02180000 340b0111 01120600 00352e01  ....4........5..
 02d0 030e3a0b 3b0b390b 27191101 12064018  ..:.;.9.'.....@.
 02e0 97421901 13000036 0500030e 3a0b3b0b  .B.....6....:.;.
 02f0 390b4913 02170000 37050003 0e3a0b3b  9.I.....7....:.;
 0300 0b390b49 13021800 00382e01 030e3a0b  .9.I.....8....:.
 0310 3b0b390b 27194913 11011206 40189742  ;.9.'.I.....@..B
 0320 19011300 00393400 030e3a0b 3b0b390b  .....94...:.;.9.
 0330 49130218 00003a05 00311302 1800003b  I.....:..1.....;
 0340 2e01030e 3a0b3b0b 390b2719 200b0113  ....:.;.9.'. ...
 0350 00003c05 0003083a 0b3b0b39 0b491300  ..<....:.;.9.I..
 0360 003d0500 030e3a0b 3b0b390b 49130000  .=....:.;.9.I...
 0370 3e2e0103 0e3a0b3b 0b390b27 19491320  >....:.;.9.'.I. 
 0380 0b011300 003f1800 00004005 0003083a  .....?....@....:
 0390 0b3b0b39 0b491302 17000041 3400030e  .;.9.I.....A4...
 03a0 3a0b3b0b 390b4913 1c0b0000 422e0103  :.;.9.I.....B...
 03b0 0e3a0b3b 0b390b27 19491320 0b000000  .:.;.9.'.I. ....
 03c0 01110010 06110112 01030e1b 0e250e13  .............%..
 03d0 05000000 01110010 06110112 01030e1b  ................
 03e0 0e250e13 05000000                    .%......        
Contents of section .debug_loc:
 0000 f0050000 f8050000 0200309f f8050000  ..........0.....
 0010 64060000 01005800 00000000 000000f8  d.....X.........
 0020 05000000 06000006 001180a0 85409f00  .............@..
 0030 00000000 000000f8 05000000 06000006  ................
 0040 001184a0 85409f00 00000000 00000004  .....@..........
 0050 06000008 06000001 005f0000 00000000  ........._......
 0060 00000406 00000806 00000600 1180a085  ................
 0070 409f0000 00000000 00000406 00000806  @...............
 0080 00000600 1184a085 409f0000 00000000  ........@.......
 0090 0000e005 0000ec05 00000200 3e9f0000  ............>...
 00a0 00000000 0000e005 0000ec05 00000600  ................
 00b0 1180a085 409f0000 00000000 0000e005  ....@...........
 00c0 0000ec05 00000600 1188a085 409f0000  ............@...
 00d0 00000000 0000ec05 0000f005 00000200  ................
 00e0 309f0000 00000000 0000ec05 0000f005  0...............
 00f0 00000600 1180a085 409f0000 00000000  ........@.......
 0100 0000ec05 0000f005 00000600 1184a085  ................
 0110 409f0000 00000000 00004805 00008005  @.........H.....
 0120 00000100 58800500 00880500 0001005a  ....X..........Z
 0130 00000000 00000000 94050000 a0050000  ................
 0140 01005fb8 050000bb 05000001 005f0000  .._.........._..
 0150 00000000 00009405 0000a005 00000800  ................
 0160 7f00302d 08ff1a9f b8050000 bb050000  ..0-............
 0170 08007f00 302d08ff 1a9f0000 00000000  ....0-..........
 0180 00009405 00009c05 00000500 7f003f1a  ..............?.
 0190 9f9c0500 00a70500 0001005e b4050000  ...........^....
 01a0 b7050000 01005eb8 050000bb 05000005  ......^.........
 01b0 007f003f 1a9f0000 00000000 0000e404  ...?............
 01c0 0000ec04 00000100 5f000000 00000000  ........_.......
 01d0 00f80400 00040500 0001005f 00000000  ..........._....
 01e0 00000000 d0040000 dc040000 0200319f  ..............1.
 01f0 00000000 00000000 d0040000 dc040000  ................
 0200 06001180 a085409f 00000000 00000000  ......@.........
 0210 d0040000 dc040000 060011a0 a085409f  ..............@.
 0220 00000000 00000000 40030000 4c030000  ........@...L...
 0230 01005a4c 0300005c 03000004 00f3015a  ..ZL...\.......Z
 0240 9f000000 00000000 00400300 00440300  .........@...D..
 0250 0001005b 44030000 5c030000 0400f301  ...[D...\.......
 0260 5b9f0000 00000000 00005403 00005803  [.........T...X.
 0270 00000100 5b000000 00000000 00540300  ....[........T..
 0280 00580300 0001005c 00000000 00000000  .X.....\........
 0290 24030000 30030000 01005a30 03000040  $...0.....Z0...@
 02a0 03000004 00f3015a 9f000000 00000000  .......Z........
 02b0 00240300 00280300 0001005b 28030000  .$...(.....[(...
 02c0 40030000 0400f301 5b9f0000 00000000  @.......[.......
 02d0 00003803 00003c03 00000100 5b000000  ..8...<.....[...
 02e0 00000000 000c0300 00180300 0001005a  ...............Z
 02f0 18030000 24030000 0400f301 5a9f0000  ....$.......Z...
 0300 00000000 00000c03 00001003 00000100  ................
 0310 5b100300 00240300 000400f3 015b9f00  [....$.......[..
 0320 00000000 0000001c 03000020 03000001  ........... ....
 0330 005b0000 00000000 00001c03 00002003  .[............ .
 0340 00000100 5c000000 00000000 00c00200  ....\...........
 0350 00c80200 0001005a c8020000 0c030000  .......Z........
 0360 0400f301 5a9f0000 00000000 0000c002  ....Z...........
 0370 0000c402 00000100 5bc40200 000c0300  ........[.......
 0380 000400f3 015b9f00 00000000 000000c0  .....[..........
 0390 020000ec 02000001 005cec02 0000f802  .........\......
 03a0 00000400 f3015c9f f8020000 fc020000  ......\.........
 03b0 01005cfc 0200000c 03000004 00f3015c  ..\............\
 03c0 9f000000 00000000 00e40200 00f00200  ................
 03d0 0001005f f0020000 f8020000 090031f3  ..._..........1.
 03e0 015c08ff 1a249ff8 02000000 03000001  .\...$..........
 03f0 005f0003 00000403 00000400 7f00209f  ._............ .
 0400 04030000 0c030000 090031f3 015c08ff  ..........1..\..
 0410 1a249f00 00000000 000000e8 020000ec  .$..............
 0420 02000001 005a0000 00000000 0000f002  .....Z..........
 0430 0000f802 00000100 5a000000 00000000  ........Z.......
 0440 00f00200 00f80200 0001005f 00000000  ..........._....
 0450 00000000 f8020000 fc020000 01005a00  ..............Z.
 0460 00000000 000000b0 020000b4 02000001  ................
 0470 005bb402 0000c002 00000400 f3015b9f  .[............[.
 0480 00000000 00000000 b8020000 bc020000  ................
 0490 01005b00 00000000 000000b8 020000bc  ..[.............
 04a0 02000001 005c0000 00000000 00005c03  .....\........\.
 04b0 00009c03 00000100 5a9c0300 008c0400  ........Z.......
 04c0 00010059 8c040000 94040000 0400f301  ...Y............
 04d0 5a9f0000 00000000 00009403 00009c03  Z...............
 04e0 00000200 309f9c03 00008804 00000100  ....0...........
 04f0 58000000 00000000 00700200 00a30200  X........p......
 0500 0001005a a3020000 b0020000 0400f301  ...Z............
 0510 5a9f0000 00000000 00007802 00007c02  Z.........x...|.
 0520 00000200 309f7c02 0000a302 00000100  ....0.|.........
 0530 5e000000 00000000 00300200 00630200  ^........0...c..
 0540 0001005a 63020000 70020000 0400f301  ...Zc...p.......
 0550 5a9f0000 00000000 00003802 00003c02  Z.........8...<.
 0560 00000200 309f3c02 00006302 00000100  ....0.<...c.....
 0570 5e000000 00000000 00b00100 00c80100  ^...............
 0580 0001005a c8010000 28020000 01005900  ...Z....(.....Y.
 0590 00000000 000000c4 010000e0 01000001  ................
 05a0 0052e001 0000e801 00000100 58e80100  .R..........X...
 05b0 00f80100 00030078 019ff801 00002402  .......x......$.
 05c0 00000100 58000000 00000000 00980100  ....X...........
 05d0 00a30100 0001005a a3010000 b0010000  .......Z........
 05e0 0400f301 5a9f0000 00000000 00007c01  ....Z.........|.
 05f0 00008801 00000100 5a880100 00980100  ........Z.......
 0600 000400f3 015a9f00 00000000 00000028  .....Z.........(
 0610 01000044 01000001 005a4401 00007401  ...D.....ZD...t.
 0620 00000100 59740100 007c0100 000400f3  ....Yt...|......
 0630 015a9f00 00000000 0000003c 01000044  .Z.........<...D
 0640 01000002 004c9f44 01000070 01000001  .....L.D...p....
 0650 00580000 00000000 0000d400 0000f000  .X..............
 0660 00000100 5af00000 00200100 00010059  ....Z.... .....Y
 0670 20010000 28010000 0400f301 5a9f0000   ...(.......Z...
 0680 00000000 0000e800 0000f000 00000200  ................
 0690 4c9ff000 00001c01 00000100 58000000  L...........X...
 06a0 00000000 00a00000 00b00000 0001005a  ...............Z
 06b0 b0000000 cc000000 01005800 00000000  ..........X.....
 06c0 00000080 00000090 00000001 005a9000  .............Z..
 06d0 0000a000 00000400 f3015a9f 00000000  ..........Z.....
 06e0 00000000 4c000000 6c000000 01005a6c  ....L...l.....Zl
 06f0 00000080 00000004 00f3015a 9f000000  ...........Z....
 0700 00000000 004c0000 00580000 0001005b  .....L...X.....[
 0710 58000000 80000000 0400f301 5b9f0000  X...........[...
 0720 00000000 00004c00 00006400 00000100  ......L...d.....
 0730 5c640000 00800000 0005007c 88807d9f  \d.........|..}.
 0740 00000000 00000000 58000000 64000000  ........X...d...
 0750 01005c64 00000068 00000005 007c8880  ..\d...h.....|..
 0760 7d9f0000 00000000 00006400 00006800  }.........d...h.
 0770 00000100 5c000000 00000000 00700000  ....\........p..
 0780 00740000 0005007c 88807d9f 00000000  .t.....|..}.....
 0790 00000000 70000000 74000000 01005c00  ....p...t.....\.
 07a0 00000000 00000010 00000028 00000001  ...........(....
 07b0 005a2800 00004000 00000100 58400000  .Z(...@.....X@..
 07c0 004c0000 000400f3 015a9f00 00000000  .L.......Z......
 07d0 00000010 00000028 00000001 005b2800  .......(.....[(.
 07e0 00004c00 00000400 f3015b9f 00000000  ..L.......[.....
 07f0 00000000 34000000 38000000 01005800  ....4...8.....X.
 0800 00000000 00000034 00000038 00000001  .......4...8....
 0810 00590000 00000000 00000000 00000400  .Y..............
 0820 00000100 5a040000 00100000 000400f3  ....Z...........
 0830 015a9f00 00000000 00000000 00000004  .Z..............
 0840 00000003 007a049f 00000000 00000000  .....z..........
Contents of section .debug_aranges:
 0000 1c000000 02000000 00000400 00000000  ................
 0010 f40000f9 64060000 00000000 00000000  ....d...........
 0020 1c000000 02001816 00000400 00000000  ................
 0030 000000f9 60000000 00000000 00000000  ....`...........
 0040 1c000000 02003e16 00000400 00000000  ......>.........
 0050 580700f9 90000000 00000000 00000000  X...............
Contents of section .debug_ranges:
 0000 f0050000 f8050000 f8050000 04060000  ................
 0010 04060000 2c060000 00000000 00000000  ....,...........
Contents of section .debug_macro:
 0000 04000200 00000007 e7010000 03000703  ................
 0010 2713050a 030e0000 030c0905 064c5400  '............LT.
 0020 00030814 05164d23 0000031c 15074709  ......M#......G.
 0030 00000407 69090000 0407f709 00000403  ....i...........
 0040 0d160748 0a000004 030e0a07 4b0b0000  ...H........K...
 0050 0407b50b 00000403 2804032c 1707940d  ........(..,....
 0060 00000403 2d01031a 1207ee0e 00000403  ....-...........
 0070 1b02031b 170407b2 0f000004 07c20f00  ................
 0080 0004032e 0307de0f 00000403 31180529  ............1..)
 0090 5c830000 032d1903 1b1a07f4 0f000004  \....-..........
 00a0 07ac1100 00040530 74540000 0407c211  .......0tT......
 00b0 000003a4 0105032a 0b077412 00000403  .......*..t.....
 00c0 2b100508 f8680000 030a1b07 cc120000  +....h..........
 00d0 04030b1c 0508d949 0000030a 1d07e512  .......I........
 00e0 00000403 0b1e0502 7a450000 03041b04  ........zE......
 00f0 07371300 0004076b 13000004 079f1300  .7.....k........
 0100 0003100c 07b51300 00040312 0e050b18  ................
 0110 4e000003 0d1c0403 0e0c07c3 14000004  N...............
 0120 030f0d07 50150000 03180c07 66150000  ....P.......f...
 0130 04031b1f 05063876 00000407 a9150000  ......8v........
 0140 0407dd15 00000322 0f07ed15 00000407  ......."........
 0150 3f160000 04031320 052b5520 0000032f  ?...... .+U .../
 0160 0c0407c1 17000004 03142105 02632300  ..........!..c#.
 0170 00040316 2207fa1a 00000407 101b0000  ...."...........
 0180 04032d11 05035861 00000307 1b040739  ..-...Xa.......9
 0190 1b000004 032e2307 e21c0000 03110c07  ......#.........
 01a0 f81c0000 04031424 0504ae05 00000403  .......$........
 01b0 1825051e e2680000 0403af01 26050d4c  .%...h......&..L
 01c0 7b000004 04040403 2a08072d 1d000004  {.......*..-....
 01d0 032c0607 5b1d0000 04053118 19000005  .,..[.....1.....
 01e0 36757500 00040004 00000500 984f0000  6uu..........O..
 01f0 0500f51d 00000500 13080000 0500521f  ..............R.
 0200 00000500 8f580000 05009738 00000500  .....X.....8....
 0210 0c670000 0500cf1c 00000500 1b780000  .g...........x..
 0220 0500766f 00000500 c0200000 0500a55a  ..vo..... .....Z
 0230 00000500 913d0000 05006f83 00000500  .....=....o.....
 0240 f7040000 05002b3e 00000500 5b5f0000  ......+>....[_..
 0250 0500e778 00000500 90180000 0500dd05  ...x............
 0260 00000500 cb220000 05007071 00000500  ....."....pq....
 0270 2b190000 0500b876 00000500 da6b0000  +......v.....k..
 0280 0500094e 00000500 3f260000 0500e307  ...N....?&......
 0290 00000500 830d0000 0500f606 00000500  ................
 02a0 9f490000 0500c84f 00000500 e9150000  .I.....O........
 02b0 05001007 00000500 b95c0000 0500c649  .........\.....I
 02c0 00000500 304a0000 05001168 00000500  ....0J.....h....
 02d0 0c170000 0500345e 00000500 da170000  ......4^........
 02e0 0500af09 00000500 fa520000 05005a08  .........R....Z.
 02f0 00000500 a2830000 05003346 00000500  ..........3F....
 0300 06500000 0500a238 00000500 7b770000  .P.....8....{w..
 0310 0500026c 00000500 82830000 0500167c  ...l...........|
 0320 00000500 f9590000 05005b0f 00000500  .....Y....[.....
 0330 e5120000 0500ee5d 00000500 47670000  .......]....Gg..
 0340 05002c3c 00000500 b2140000 0500a15d  ..,<...........]
 0350 00000500 f43d0000 0500f409 00000500  .....=..........
 0360 223a0000 0500987a 00000500 301f0000  ":.....z....0...
 0370 05004e25 00000500 f53e0000 0500266b  ..N%.....>....&k
 0380 00000500 7b360000 0500192b 00000500  ....{6.....+....
 0390 62090000 05006a4e 00000500 635c0000  b.....jN....c\..
 03a0 05004786 00000500 fb7e0000 05006855  ..G......~....hU
 03b0 00000500 35250000 0500f62e 00000500  ....5%..........
 03c0 e75c0000 05005b7b 00000500 3b030000  .\....[{....;...
 03d0 05001c42 00000500 bd0f0000 0500c150  ...B...........P
 03e0 00000500 cf5a0000 05001140 00000500  .....Z.....@....
 03f0 bf430000 05005280 00000500 21460000  .C....R.....!F..
 0400 0500530e 00000500 167b0000 0500fd03  ..S......{......
 0410 00000500 29010000 05008085 00000500  ....)...........
 0420 bb150000 0500e206 00000500 555b0000  ............U[..
 0430 0500a430 00000500 e1730000 05002938  ...0.....s....)8
 0440 00000500 53720000 0500e53a 00000500  ....Sr.....:....
 0450 be3e0000 05003828 00000500 5e860000  .>....8(....^...
 0460 05003d39 00000500 87340000 05008b35  ..=9.....4.....5
 0470 00000500 61560000 0500e37b 00000500  ....aV.....{....
 0480 f04e0000 0500a780 00000500 b6320000  .N...........2..
 0490 0500c848 00000500 6f0d0000 05003f19  ...H....o.....?.
 04a0 00000500 423b0000 05008a1c 00000500  ....B;..........
 04b0 90370000 05001031 00000500 4b080000  .7.....1....K...
 04c0 0500831d 00000500 f86d0000 0500d436  .........m.....6
 04d0 00000500 822b0000 0500365a 00000500  .....+....6Z....
 04e0 153c0000 05009175 00000500 7d4e0000  .<.....u....}N..
 04f0 0500725f 00000500 eb0f0000 0500a220  ..r_........... 
 0500 00000500 4b760000 0500d113 00000500  ....Kv..........
 0510 7b0c0000 0500df0e 00000500 a0100000  {...............
 0520 05005318 00000500 7b5a0000 05000211  ..S.....{Z......
 0530 00000500 81440000 0500c460 00000500  .....D.....`....
 0540 564f0000 05007038 00000500 274e0000  VO....p8....'N..
 0550 05008339 00000500 994b0000 0500ef42  ...9.....K.....B
 0560 00000500 c83d0000 0500c84d 00000500  .....=.....M....
 0570 824b0000 0500901a 00000500 7c180000  .K..........|...
 0580 0500dc1f 00000500 fe1a0000 05001623  ...............#
 0590 00000500 937b0000 05006028 00000500  .....{....`(....
 05a0 f4530000 05005f07 00000500 a9370000  .S...._......7..
 05b0 0500b71c 00000500 a6850000 05009e6b  ...............k
 05c0 00000500 8a570000 0500df83 00000500  .....W..........
 05d0 6e3d0000 05000106 00000500 73230000  n=..........s#..
 05e0 0500ec31 00000500 04660000 0500107e  ...1.....f.....~
 05f0 00000500 33840000 05001d29 00000500  ....3......)....
 0600 19700000 05000469 00000500 b7540000  .p.....i.....T..
 0610 05009884 00000500 297d0000 05006f67  ........)}....og
 0620 00000500 59220000 05008919 00000500  ....Y"..........
 0630 fb280000 05000739 00000500 db450000  .(.....9.....E..
 0640 05005e7a 00000500 147f0000 05004d17  ..^z..........M.
 0650 00000500 51590000 0500034b 00000500  ....QY.....K....
 0660 8a430000 0500c73b 00000500 79580000  .C.....;....yX..
 0670 05007a0b 00000500 44530000 0500f116  ..z.....DS......
 0680 00000500 e20a0000 0500cb07 00000500  ................
 0690 cc560000 0500890a 00000500 7e1f0000  .V..........~...
 06a0 0500d21b 00000500 ae750000 0500ff42  .........u.....B
 06b0 00000500 192f0000 0500137d 00000500  ...../.....}....
 06c0 727b0000 0500086e 00000500 140c0000  r{.....n........
 06d0 05004145 00000500 ab1e0000 0500930c  ..AE............
 06e0 00000500 085b0000 0500773e 00000500  .....[....w>....
 06f0 296c0000 0500cd7d 00000500 b14d0000  )l.....}.....M..
 0700 0500d402 00000500 641f0000 05003e73  ........d.....>s
 0710 00000500 4f560000 0500fe14 00000500  ....OV..........
 0720 f0000000 0500332a 00000500 3b4f0000  ......3*....;O..
 0730 0500e201 00000500 3c770000 0500bf23  ........<w.....#
 0740 00000500 a04e0000 05001a6a 00000500  .....N.....j....
 0750 03780000 0500615a 00000500 e30d0000  .x....aZ........
 0760 05002d80 00000500 925e0000 05007d04  ..-......^....}.
 0770 00000500 093f0000 05006336 00000500  .....?....c6....
 0780 e92f0000 0500f913 00000500 734d0000  ./..........sM..
 0790 05006e59 00000500 67680000 05004b1e  ..nY....gh....K.
 07a0 00000500 b03d0000 05002b12 00000500  .....=....+.....
 07b0 2f140000 0500663c 00000500 3b050000  /.....f<....;...
 07c0 0500930b 00000500 1f390000 0500256f  .........9....%o
 07d0 00000500 a20f0000 0500fc58 00000500  ...........X....
 07e0 b1080000 05004666 00000500 4d050000  ......Ff....M...
 07f0 05004457 00000500 af160000 05007e31  ..DW..........~1
 0800 00000500 34560000 05003254 00000500  ....4V....2T....
 0810 ee260000 05006439 00000500 cc060000  .&....d9........
 0820 0500cd2f 00000500 080f0000 05002104  .../..........!.
 0830 00000500 915b0000 05004731 00000500  .....[....G1....
 0840 2b070000 05009b71 00000500 401a0000  +......q....@...
 0850 05002006 00000500 54330000 0500de50  .. .....T3.....P
 0860 00000500 86140000 05003d20 00000500  ..........= ....
 0870 9d0d0000 05000320 00000500 0e010000  ....... ........
 0880 0500596b 00000500 446b0000 05007034  ..Yk....Dk....p4
 0890 00000500 231c0000 0500a601 00000500  ....#...........
 08a0 45160000 05007551 00000500 903c0000  E.....uQ.....<..
 08b0 0500e51c 00000500 6d010000 05001f2c  ........m......,
 08c0 00000500 2f680000 05002931 00000500  ..../h....)1....
 08d0 95440000 0500822e 00000500 79100000  .D..........y...
 08e0 05003b38 00000500 36240000 0500bf46  ..;8....6$.....F
 08f0 00000500 e8740000 0500226e 00000500  .....t...."n....
 0900 e6000000 05006872 00000500 731a0000  ......hr....s...
 0910 05001b05 00000500 2f600000 05008213  ......../`......
 0920 00000500 69440000 05005a65 00000500  ....iD....Ze....
 0930 97600000 05005569 00000500 a2180000  .`....Ui........
 0940 05009b30 00000004 00000504 de410000  ...0.........A..
 0950 05066376 00000507 661a0000 0508334b  ..cv....f.....3K
 0960 00000509 e05a0000 00040000 05219f11  .....Z.......!..
 0970 00000528 f9730000 068301f3 77000005  ...(.s......w...
 0980 8401b53b 00000688 01c53800 00058901  ...;......8.....
 0990 4e7a0000 068a0170 85000005 8b01ce5d  Nz.....p.......]
 09a0 0000069e 01cc3400 00059f01 3c490000  ......4.....<I..
 09b0 05f70193 51000005 fd01f85a 00000585  ....Q......Z....
 09c0 02185d00 00058a02 89530000 0595022a  ..]......S.....*
 09d0 1a000005 9902d32e 0000059f 02520600  .............R..
 09e0 0005af02 a7000000 05bf0224 73000005  ...........$s...
 09f0 ca02e672 00000004 0000050f 69490000  ...r........iI..
 0a00 051a905f 00000521 da710000 052f5738  ..._...!.q.../W8
 0a10 0000053d 4b280000 0553b745 0000056d  ...=K(...S.E...m
 0a20 9a160000 058c01a8 4f000005 a6016b14  ........O.....k.
 0a30 000005bc 01053400 0005ce01 43480000  ......4.....CH..
 0a40 06f40143 59000000 04000005 0a8a7900  ...CY.........y.
 0a50 0005104d 49000006 2b3e5500 00062c0b  ...MI...+>U...,.
 0a60 6d000006 2d0f5300 00062e4c 68000002  m...-.S....Lh...
 0a70 2f696e74 000630a8 84000006 31a40500  /int..0.....1...
 0a80 000632aa 09000005 33a63d00 000534a4  ..2.....3.=...4.
 0a90 3d000005 35666a00 000536d6 80000005  =...5fj...6.....
 0aa0 37b33e00 00053891 63000005 39ab3900  7.>...8.c...9.9.
 0ab0 00053a70 7f000005 43533600 00054a83  ..:p....CS6...J.
 0ac0 7b000005 52f00800 00055d94 4e000005  {...R.....].N...
 0ad0 68fd7600 0005716c 10000005 78f77500  h.v...ql....x.u.
 0ae0 00058101 081a0000 058801d7 73000005  ............s...
 0af0 9301833d 00000597 014c2a00 0005a201  ...=.....L*.....
 0b00 546e0000 05ad015e 10000005 b601cd54  Tn.....^.......T
 0b10 000006b8 013e5500 0006b901 0b6d0000  .....>U......m..
 0b20 06ba010f 53000006 bb014c68 000002bc  ....S.....Lh....
 0b30 01696e74 0006bd01 aa090000 06c201a8  .int............
 0b40 84000006 c301a405 00000004 0000050a  ................
 0b50 fe0d0000 0515b578 00000519 461b0000  .......x....F...
 0b60 051b5838 00000521 2e320000 0525ad6b  ..X8...!.2...%.k
 0b70 00000527 4c280000 052d5c3e 00000531  ...'L(...-\>...1
 0b80 e3030000 0533b845 00000539 65800000  .....3.E...9e...
 0b90 053d9e17 0000053f 9b160000 0544175e  .=.....?.....D.^
 0ba0 00000549 b95d0000 054e0912 00000553  ...I.]...N.....S
 0bb0 60600000 00040000 0517a94f 0000051d  ``.........O....
 0bc0 6c140000 05230634 00000529 44480000  l....#.4...)DH..
 0bd0 05352b50 0000053f 4b4a0000 0549620c  .5+P...?KJ...Ib.
 0be0 00000553 11220000 058001f4 84000005  ...S."..........
 0bf0 8101c16e 00000582 01d31600 00059801  ...n............
 0c00 b60d0000 0599014d 0a000005 9a01e17e  .......M.......~
 0c10 000005a2 01ba0300 0005a301 7e0f0000  ............~...
 0c20 05a401e6 66000005 ae019e53 000005af  ....f......S....
 0c30 01fa0b00 0005b001 a3460000 05b801ec  .........F......
 0c40 46000005 b9013c09 000005ba 015a2b00  F.....<......Z+.
 0c50 0005c401 b2350000 05c501b7 29000005  .....5......)...
 0c60 c6016143 000005d4 011b2d00 0005d501  ..aC......-.....
 0c70 ed2c0000 05d601b8 69000005 e601066f  .,......i......o
 0c80 000005e7 01de4a00 0005e801 63700000  ......J.....cp..
 0c90 05f601c0 10000005 f7010e0e 000005f8  ................
 0ca0 01e85b00 00058602 4c4d0000 0587027d  ..[.....LM.....}
 0cb0 21000005 88020e4d 00000596 02db3400  !......M......4.
 0cc0 00059702 79090000 05980274 07000005  ....y......t....
 0cd0 a6024512 000005a7 02b08400 0005a802  ..E.............
 0ce0 6e6a0000 05b602fe 15000005 b702057a  nj.............z
 0cf0 000005b8 023d7000 0005c602 9b290000  .....=p......)..
 0d00 05c702b5 1b000005 cf02b621 000005d7  ...........!....
 0d10 023a0600 0005dd02 b8310000 05de0258  .:.......1.....X
 0d20 26000005 e202c40a 000005e6 02cd2400  &.............$.
 0d30 0005eb02 701c0000 05f6029f 41000005  ....p.......A...
 0d40 8003dd43 00000585 033a0000 00058c03  ...C.....:......
 0d50 ce390000 058d0383 71000005 9803160d  .9......q.......
 0d60 00000599 03067900 0005a403 3d690000  ......y.....=i..
 0d70 05a503b2 34000005 b103a45e 000005b2  ....4......^....
 0d80 03a96600 0005c103 b3240000 05c20316  ..f......$......
 0d90 59000000 04000005 02692a00 000503fa  Y........i*.....
 0da0 0a000005 04e73000 00050555 21000005  ......0....U!...
 0db0 06cd5700 00050794 7e000005 08286500  ..W.....~....(e.
 0dc0 0005093d 4e000005 0a575e00 00050b42  ...=N....W^....B
 0dd0 5f000005 0cbc5e00 00050d40 5d000005  _.....^....@]...
 0de0 0ee62900 00050f20 79000005 10da1e00  ..).... y.......
 0df0 00051134 0e000005 12166000 00051358  ...4......`....X
 0e00 45000005 14546200 000515d3 7a000005  E....Tb.....z...
 0e10 16732400 000517a3 2a000005 18a75b00  .s$.....*.....[.
 0e20 0005197f 70000005 1a9b1300 00051b94  ....p...........
 0e30 02000005 1c626100 00051dcf 61000005  .....ba.....a...
 0e40 1ebd5f00 00051f08 28000005 20cf3200  .._.....(... .2.
 0e50 00052110 30000005 220f0900 00052387  ..!.0...".....#.
 0e60 65000005 24a21900 00052552 68000005  e...$.....%Rh...
 0e70 26523a00 00052785 33000005 28d13000  &R:...'.3...(.0.
 0e80 00052927 37000005 2ade5800 00052baf  ..)'7...*.X...+.
 0e90 4b000005 2c686c00 00052d11 80000005  K...,hl...-.....
 0ea0 2e6e1200 00052ff0 5f000005 30680e00  .n..../._...0h..
 0eb0 0005313a 52000005 32be6c00 00053300  ..1:R...2.l...3.
 0ec0 00000005 345f2700 00053598 31000005  ....4_'...5.1...
 0ed0 36172700 000537e7 38000005 38767200  6.'...7.8...8vr.
 0ee0 0005391c 69000005 3a145300 00000400  ..9.i...:.S.....
 0ef0 000525f1 7f000005 26355300 0005276d  ..%.....&5S...'m
 0f00 3f000005 28cd2c00 000529fc 17000005  ?...(.,...).....
 0f10 2a2c0500 00052bb5 70000005 2cc06200  *,....+.p...,.b.
 0f20 00052d89 4f000005 2ea63b00 00052fdc  ..-.O.....;.../.
 0f30 2c000005 305b5800 000531bb 59000005  ,...0[X...1.Y...
 0f40 32445b00 00053370 32000005 34be0500  2D[...3p2...4...
 0f50 0005359a 07000005 363f3400 000537fa  ..5.....6?4...7.
 0f60 35000005 38735b00 00053900 80000005  5...8s[...9.....
 0f70 3a9a2800 00053b22 2a000005 3c0e2c00  :.(...;"*...<.,.
 0f80 00053d5d 2d000005 3e325900 00053f25  ..=]-...>2Y...?%
 0f90 5a000005 40b62f00 0005410a 05000005  Z...@./...A.....
 0fa0 42504300 000543f5 4f000005 444e5100  BPC...C.O...DNQ.
 0fb0 00000400 00053ac0 37000005 3f702200  ......:.7...?p".
 0fc0 00000400 00051de1 4e000005 1e2e6d00  ........N.....m.
 0fd0 00051f00 5d000005 20462d00 00000400  ....]... F-.....
 0fe0 00051d43 22000005 1e2a0b00 00051f3e  ...C"....*.....>
 0ff0 21000000 04000005 1bcf0f00 00051c90  !...............
 1000 7c000005 1df12200 00051f69 52000005  |....."....iR...
 1010 20d45500 0005213a 3e000005 22248600   .U...!:>..."$..
 1020 000523f5 25000005 247a1100 00052570  ..#.%...$z....%p
 1030 5e000005 26c71800 0005275f 53000005  ^...&.....'_S...
 1040 28d27600 00052916 10000005 2ac53f00  (.v...).....*.?.
 1050 00052b7c 7d000005 2cf98300 00052dc3  ..+|}...,.....-.
 1060 7f000005 2e3f6d00 00052f50 34000005  .....?m.../P4...
 1070 30d46400 00053186 3f000005 323c1100  0.d...1.?...2<..
 1080 00053330 3d000005 348d6400 000535c4  ..30=...4.d...5.
 1090 1e000005 36c41700 0005378e 01000005  ....6.....7.....
 10a0 38603100 000539d4 21000005 3a124400  8`1...9.!...:.D.
 10b0 00053bac 7c000005 3c835200 00053da5  ..;.|...<.R...=.
 10c0 55000005 3ef50200 00053f71 37000005  U...>.....?q7...
 10d0 40a37900 00054106 51000005 42203400  @.y...A.Q...B 4.
 10e0 00054312 1a000005 441b4b00 0005453c  ..C.....D.K...E<
 10f0 36000005 46294400 000547a9 52000005  6...F)D...G.R...
 1100 48784100 000549da 7f000005 4a350a00  HxA...I.....J5..
 1110 00054bf8 20000005 4c2e0d00 00054dda  ..K. ...L.....M.
 1120 65000005 4e0e2b00 00054f64 0d000005  e...N.+...Od....
 1130 508e1700 000551ae 04000005 52154600  P.....Q.....R.F.
 1140 00055303 30000005 54307000 00055543  ..S.0...T0p...UC
 1150 3a000005 57cf0500 000559ee 6b000005  :...W.....Y.k...
 1160 5b1d7700 00055d59 1b000005 5f5b5200  [.w...]Y...._[R.
 1170 000561b2 71000005 63946a00 00056b1a  ..a.q...c.j...k.
 1180 15000005 73b23c00 00057aec 2d000005  ....s.<...z.-...
 1190 82017342 00000589 01fc0100 00059101  ..sB............
 11a0 6e2d0000 05dc01d4 4b000000 04000005  n-......K.......
 11b0 1edc4c00 000521e0 60000005 2b413200  ..L...!.`...+A2.
 11c0 00000400 000533de 20000005 341e5800  ......3. ...4.X.
 11d0 0005357c 84000005 36bd6500 000537ba  ..5|....6.e...7.
 11e0 68000005 3a512c00 00053b14 1b000005  h...:Q,...;.....
 11f0 3cba2600 00053d93 4a000005 3e322900  <.&...=.J...>2).
 1200 00054044 80000005 41597900 000542ab  ..@D....AYy...B.
 1210 28000005 432f8500 000546b8 00000005  (...C/....F.....
 1220 47a33600 000548cc 40000005 49ae5100  G.6...H.@...I.Q.
 1230 00054a73 08000005 51c64700 000552e1  ..Js....Q.G...R.
 1240 3e000005 53bd4a00 000554ca 3a000005  >...S.J...T.:...
 1250 57f63600 000558b3 2e000005 59a45f00  W.6...X.....Y._.
 1260 00055ad8 77000005 5d5d1100 00055ec0  ..Z.w...]]....^.
 1270 77000000 04000005 1f0c3e00 00052085  w.........>... .
 1280 66000006 22557e00 00052779 53000005  f..."U~...'yS...
 1290 2fec2400 00053099 74000005 31c76d00  /.$...0.t...1.m.
 12a0 00053469 64000005 36676400 00056965  ..4id...6gd...ie
 12b0 85000005 6c7f5300 00056fe4 2e000005  ....l.S...o.....
 12c0 721d1200 000575c1 80000000 04000005  r.....u.........
 12d0 c301b961 000005d1 035b5000 0005d403  ...a.....[P.....
 12e0 332f0000 00040000 0508a335 00000512  3/.........5....
 12f0 084a0000 05151084 00000518 5f510000  .J.........._Q..
 1300 051b8132 00000528 0e1e0000 0532d315  ...2...(.....2..
 1310 00000539 fd210000 053c4555 00000542  ...9.!...<EU...B
 1320 df4d0000 05458f55 00000548 741d0000  .M...E.U...Ht...
 1330 054b0175 00000004 00000553 32720000  .K.u.......S2r..
 1340 05e0019d 09000006 e601dc38 000005ea  ...........8....
 1350 014a1400 0005fa01 43500000 05fe01fc  .J......CP......
 1360 50000005 8b02fb18 00000004 0000051f  P...............
 1370 59640000 0520df2a 00000521 fe0e0000  Yd... .*...!....
 1380 05256d03 0000052b 896f0000 05452157  .%m....+.o...E!W
 1390 00000549 c9140000 054a7c69 00000004  ...I.....J|i....
 13a0 0000050d 5a2a0000 050ef543 0000050f  ....Z*.....C....
 13b0 993b0000 00040000 05bb01f2 14000005  .;..............
 13c0 bc011873 000005bd 011b8600 0005be01  ...s............
 13d0 e96d0000 05bf0179 39000005 c0012b5e  .m.....y9.....+^
 13e0 000005c1 01a25700 0005c201 87630000  ......W......c..
 13f0 05c30183 63000005 c4011e1f 000005c5  ....c...........
 1400 011f4a00 0005c601 1a1f0000 05c701b2  ..J.............
 1410 17000005 c8012503 000005c9 01178600  ......%.........
 1420 0005ca01 ef680000 05d2014d 0c000006  .....h.....M....
 1430 ee014804 0000058b 027d4300 00058c02  ..H......}C.....
 1440 d9720000 058d02d0 59000005 8e02c140  .r......Y......@
 1450 0000058f 02f31100 00059002 6f450000  ............oE..
 1460 0591023a 16000005 92023616 00000593  ...:......6.....
 1470 023e2c00 00059402 7e3c0000 059502fc  .>,.....~<......
 1480 64000005 9602ac0c 00000597 02f76400  d.............d.
 1490 00059802 cc590000 059902f6 4d000006  .....Y......M...
 14a0 a602f878 000006db 026b0b00 00069103  ...x.....k......
 14b0 aa430000 05960314 03000006 9c03a343  .C.............C
 14c0 00000004 00000527 ec490000 05285224  .......'.I...(R$
 14d0 0000052a e7490000 058901ab 54000005  ...*.I......T...
 14e0 8a01ff29 0000058b 010b4f00 00058c01  ...)......O.....
 14f0 da0b0000 058d0186 4a000005 8e01824a  ........J......J
 1500 0000058f 01173e00 00059001 a7540000  ......>......T..
 1510 0591011d 51000006 a101dc3f 000006ee  ....Q......?....
 1520 01480400 0006db02 6b0b0000 069103aa  .H......k.......
 1530 43000005 96031403 0000069c 03a34300  C.............C.
 1540 0005a103 dd3b0000 05a603a8 68000000  .....;......h...
 1550 04000005 14883800 0005165a 2a000005  ......8....Z*...
 1560 17c47a00 00000400 0006a101 dc3f0000  ..z..........?..
 1570 06ee0148 04000006 db026b0b 000005e0  ...H......k.....
 1580 02b82500 0006e702 30210000 069103aa  ..%.....0!......
 1590 43000005 96031403 0000069c 03a34300  C.............C.
 15a0 0005a103 dd3b0000 00040000 067fbd53  .....;.........S
 15b0 00000592 010b3600 00069401 0b6d0000  ......6......m..
 15c0 05b30158 19000005 bb017019 000005c0  ...X......p.....
 15d0 01a46400 0005c501 183b0000 00040000  ..d......;......
 15e0 05110b72 00000515 9c880000 00040000  ...r............
 15f0 0502df85 0000050e dc540000 050f6316  .........T....c.
 1600 00000510 c3660000 05115604 00000512  .....f....V.....
 1610 d0250000 05135b63 00000514 39790000  .%....[c....9y..
 1620 0515e439 00000516 e3470000 0517667e  ...9.....G....f~
 1630 00000518 c7780000 05191d67 00000004  .....x.....g....
 1640 0000054d 34170000 05690f33 0000056f  ...M4....i.3...o
 1650 ef850000 05b701a7 3f000005 bd02d446  ........?......F
 1660 000005be 02dc3d00 0005bf02 c7850000  ......=.........
 1670 05c0027b 76000005 c102f967 000005c2  ...{v......g....
 1680 02285d00 0005c302 ae7f0000 05cf022a  .(]............*
 1690 22000005 d002dd84 000005d1 02980400  "...............
 16a0 0005a005 fd110000 05bc05fd 63000005  ............c...
 16b0 bf057486 000005ef 05328100 0005fd05  ..t......2......
 16c0 9b780000 05fe0545 0f000005 ff05be64  .x.....E.......d
 16d0 00000580 064a4400 00058106 fd690000  .....JD......i..
 16e0 0582069f 1c000005 83064f3f 00000585  ..........O?....
 16f0 06007600 00058606 85150000 058706ad  ..v.............
 1700 12000005 88061843 00000589 063a1c00  .......C.....:..
 1710 00058a06 cd090000 058b067c 00000005  ...........|....
 1720 8c063f60 0000058d 06400b00 00058e06  ..?`.....@......
 1730 d55e0000 058f0620 62000005 9006de27  .^..... b......'
 1740 00000591 06937d00 00059206 04350000  ......}......5..
 1750 05930646 4b000005 9406595d 00000595  ...FK.....Y]....
 1760 06074800 00059606 7a250000 05970647  ..H.....z%.....G
 1770 47000005 9806b904 00000599 06775c00  G............w\.
 1780 00059a06 08490000 059b063e 6f000005  .....I.....>o...
 1790 9c06cc7c 000005a0 06be0c00 0005a806  ...|............
 17a0 fc6f0000 05b00632 4d000005 c0060310  .o.....2M.......
 17b0 000005c3 06ea7100 0005c906 ba010000  ......q.........
 17c0 00040000 0531f21f 00000532 845b0000  .....1.....2.[..
 17d0 0533b348 00000536 a91a0000 0539141c  .3.H...6.....9..
 17e0 0000053a fa7b0000 053c0c2a 0000053d  ...:.{...<.*...=
 17f0 cd7e0000 053ef71e 0000053f 13720000  .~...>.....?.r..
 1800 0542570c 00000543 ba850000 05448c45  .BW....C.....D.E
 1810 0000054e 210f0000 05519454 00000557  ...N!....Q.T...W
 1820 fc080000 055eac59 0000055f 916c0000  .....^.Y..._.l..
 1830 056b6475 0000056c 9d770000 05708e05  .kdu...l.w...p..
 1840 00000571 1a710000 05725603 00000575  ...q.q...rV....u
 1850 64650000 0578435c 0000057f fd550000  de...xC\.....U..
 1860 058001fc 72000005 81019b76 00000585  ....r......v....
 1870 01984500 00058c01 437d0000 0590018a  ..E.....C}......
 1880 23000005 9101bc1f 00000594 01c37900  #.............y.
 1890 00059701 56010000 05980170 29000005  ....V......p)...
 18a0 9901396e 0000059b 01ca7b00 00059c01  ..9n......{.....
 18b0 2f780000 059e0104 62000005 a0010b18  /x......b.......
 18c0 000005b1 01de2200 0005b201 4e0d0000  ......".....N...
 18d0 05b30180 80000005 b4019a52 000005b5  ...........R....
 18e0 013a7c00 0005b701 aa690000 05b80135  .:|......i.....5
 18f0 55000005 b9013251 000005e6 01372700  U.....2Q.....7'.
 1900 0005f301 48300000 05f4015c 74000005  ....H0.....\t...
 1910 f5012e18 000005f6 01802700 0005f701  ..........'.....
 1920 ba830000 05f801de 6c000005 f9014437  ........l.....D7
 1930 000005fc 01105c00 0005fd01 7d2f0000  ......\.....}/..
 1940 0583023f 1d000005 dc02a127 000005ee  ...?.......'....
 1950 02ff3a00 0005f402 52000000 05f502ac  ..:.....R.......
 1960 57000005 fc025e88 00000582 037f2600  W.....^.......&.
 1970 00058803 827f0000 0589031c 47000005  ............G...
 1980 9003dd6e 00000591 03bf5200 00059803  ...n......R.....
 1990 702a0000 059e03b7 74000005 b2030e3a  p*......t......:
 19a0 000005d3 031c1e00 0005d403 0a520000  .............R..
 19b0 05db036b 3b000005 dc032674 000005df  ...k;.....&t....
 19c0 030f5f00 0005e903 6e300000 05ea03c4  .._.....n0......
 19d0 70000005 f403cf62 0000058a 04626e00  p......b.....bn.
 19e0 00058c04 6f560000 058e0464 20000005  ....oV.....d ...
 19f0 8f045673 00000591 04982b00 00059b04  ..Vs......+.....
 1a00 fb570000 05a00469 06000005 a504870e  .W.....i........
 1a10 000005a8 04014100 0005ac04 bc190000  ......A.........
 1a20 05ae04a7 1d000005 d1047f74 000005d5  ...........t....
 1a30 04c16b00 0005d904 8d120000 05dd047e  ..k............~
 1a40 50000005 e104e069 000005e5 04537c00  P......i.....S|.
 1a50 0005e904 96720000 05ed04ea 80000005  .....r..........
 1a60 f4045311 000005f5 04250800 0005f604  ..S......%......
 1a70 fb2b0000 05f70447 3d000005 f804f051  .+.....G=......Q
 1a80 0000058d 05916200 00058e05 9e6c0000  ......b......l..
 1a90 05a00509 77000005 a605297a 000005a9  ....w.....)z....
 1aa0 05151300 0005ab05 1d750000 05af0550  .........u.....P
 1ab0 46000005 b1053e35 000005b5 05894700  F.....>5......G.
 1ac0 0005b805 681b0000 05ba0554 78000005  ....h......Tx...
 1ad0 be05a867 000005c0 05b16f00 0005c205  ...g......o.....
 1ae0 843a0000 05c6059e 63000005 c905986d  .:......c......m
 1af0 000005ca 05636d00 00000400 00050866  .....cm........f
 1b00 4f000006 0d824f00 000510ed 3f000000  O.....O.....?...
 1b10 04000005 383f0100 00053c4b 2b000005  ....8?....<K+...
 1b20 3d811a00 00053fd3 38000005 437e4900  =.....?.8...C~I.
 1b30 0005a801 2d770000 00040000 050dda59  ....-w.........Y
 1b40 00000513 ab070000 05173764 0000051b  ..........7d....
 1b50 8d2c0000 051f1314 00000523 9d320000  .,.........#.2..
 1b60 05910128 7b000005 9201b85a 000006a8  ...({......Z....
 1b70 01d30d00 0005ab01 f9100000 05ac0125  ...............%
 1b80 84000005 ad013526 000005ae 01ec1800  ......5&........
 1b90 0005af01 9e690000 05b201de 75000005  .....i......u...
 1ba0 b501752c 000005b9 01593c00 0005bc01  ..u,.....Y<.....
 1bb0 a1140000 05bf01e2 1a000005 d301a133  ...............3
 1bc0 000005d7 01d13500 0005da01 f4410000  ......5......A..
 1bd0 05dd01eb 2a000005 df01263f 000005f4  ....*.....&?....
 1be0 01234000 00058402 86030000 05850232  .#@............2
 1bf0 71000005 8602c653 00000587 02fe2300  q......S......#.
 1c00 00058802 77480000 05890207 1d000005  ....wH..........
 1c10 cd02901e 000005b4 041e2600 0005b804  ..........&.....
 1c20 b9410000 05bf04c5 75000005 c1041a56  .A......u......V
 1c30 000005c2 04af2c00 0005c304 1c110000  ......,.........
 1c40 05c40467 54000005 c5041225 000005c6  ...gT......%....
 1c50 04a55000 0005c704 df790000 05c80464  ..P......y.....d
 1c60 4a000005 c904650a 000005ca 04410700  J.....e......A..
 1c70 0005cb04 75600000 05cc04d1 51000005  ....u`......Q...
 1c80 cd04af0b 000005d3 04174f00 0005d404  ..........O.....
 1c90 99610000 05d5048e 08000005 d6045b2f  .a............[/
 1ca0 000005d7 043d1000 0005d804 160a0000  .....=..........
 1cb0 05d904b7 73000005 da04af43 000005db  ....s......C....
 1cc0 041b3600 0005e504 4b420000 05e60467  ..6.....KB.....g
 1cd0 3a000005 ea045e24 000005eb 04a82300  :.....^$......#.
 1ce0 00000400 00050857 6d000005 0f5a2a00  .......Wm....Z*.
 1cf0 00051099 3b000000 04000006 a101dc3f  ....;..........?
 1d00 000006ee 01480400 0006db02 6b0b0000  .....H......k...
 1d10 069103aa 43000005 96031403 0000069c  ....C...........
 1d20 03a34300 0005a103 dd3b0000 00040000  ..C......;......
 1d30 051d9f21 0000051e 06270000 051fdc63  ...!.....'.....c
 1d40 00000520 e8480000 05210865 00000522  ... .H...!.e..."
 1d50 507f0000 0523e565 00000004 0000051d  P....#.e........
 1d60 15850000 051ece5c 0000051f b4440000  .......\.....D..
 1d70 0520300c 00000521 5e480000 05222000  . 0....!^H..." .
 1d80 00000523 8b670000 00                 ...#.g...       
Contents of section .debug_line:
 0000 200e0000 03007103 00000101 fb0e0d00   .....q.........
 0010 01010101 00000001 0000012e 2e2f6472  ............./dr
 0020 69766572 002e2e2f 2e2e2f2e 2e2f6273  iver.../../../bs
 0030 702f6566 696e6978 2f456678 53617070  p/efinix/EfxSapp
 0040 68697265 536f632f 696e636c 75646500  hireSoc/include.
 0050 2e2e2f2e 2e2f2e2e 2f627370 2f656669  ../../../bsp/efi
 0060 6e69782f 45667853 61707068 69726553  nix/EfxSapphireS
 0070 6f632f61 70700073 72630063 3a5c6566  oc/app.src.c:\ef
 0080 696e6974 795c6566 696e6974 792d7269  inity\efinity-ri
 0090 7363762d 6964652d 32303233 2e325c74  scv-ide-2023.2\t
 00a0 6f6f6c63 6861696e 5c726973 63762d6e  oolchain\riscv-n
 00b0 6f6e652d 656d6265 645c696e 636c7564  one-embed\includ
 00c0 655c6d61 6368696e 6500633a 5c656669  e\machine.c:\efi
 00d0 6e697479 5c656669 6e697479 2d726973  nity\efinity-ris
 00e0 63762d69 64652d32 3032332e 325c746f  cv-ide-2023.2\to
 00f0 6f6c6368 61696e5c 72697363 762d6e6f  olchain\riscv-no
 0100 6e652d65 6d626564 5c696e63 6c756465  ne-embed\include
 0110 5c737973 00633a5c 6566696e 6974795c  \sys.c:\efinity\
 0120 6566696e 6974792d 72697363 762d6964  efinity-riscv-id
 0130 652d3230 32332e32 5c746f6f 6c636861  e-2023.2\toolcha
 0140 696e5c6c 69625c67 63635c72 69736376  in\lib\gcc\riscv
 0150 2d6e6f6e 652d656d 6265645c 382e332e  -none-embed\8.3.
 0160 305c696e 636c7564 6500633a 5c656669  0\include.c:\efi
 0170 6e697479 5c656669 6e697479 2d726973  nity\efinity-ris
 0180 63762d69 64652d32 3032332e 325c746f  cv-ide-2023.2\to
 0190 6f6c6368 61696e5c 72697363 762d6e6f  olchain\riscv-no
 01a0 6e652d65 6d626564 5c696e63 6c756465  ne-embed\include
 01b0 00007561 72742e68 00010000 696f2e68  ..uart.h....io.h
 01c0 00010000 636c696e 742e6800 01000062  ....clint.h....b
 01d0 73702e68 00020000 7072696e 742e6800  sp.h....print.h.
 01e0 03000070 6c69632e 68000100 006d6169  ...plic.h....mai
 01f0 6e2e6300 04000067 70696f2e 68000100  n.c....gpio.h...
 0200 005f6465 6661756c 745f7479 7065732e  ._default_types.
 0210 68000500 005f7374 64696e74 2e680006  h...._stdint.h..
 0220 00007374 64617267 2e680007 00007374  ..stdarg.h....st
 0230 64646566 2e680007 00005f74 79706573  ddef.h...._types
 0240 2e680006 00007265 656e742e 68000600  .h....reent.h...
 0250 006c6f63 6b2e6800 06000073 74646c69  .lock.h....stdli
 0260 622e6800 0800006d 6174682e 68000800  b.h....math.h...
 0270 00747970 652e6800 01000073 7464696e  .type.h....stdin
 0280 742e6800 08000066 65617475 7265732e  t.h....features.
 0290 68000600 005f6e65 776c6962 5f766572  h...._newlib_ver
 02a0 73696f6e 2e680008 00005f69 6e747375  sion.h...._intsu
 02b0 702e6800 06000073 6f632e68 00020000  p.h....soc.h....
 02c0 73656d69 686f7374 696e672e 68000300  semihosting.h...
 02d0 00766578 72697363 762e6800 01000072  .vexriscv.h....r
 02e0 69736376 2e680001 00006965 65656670  iscv.h....ieeefp
 02f0 2e680005 00005f61 6e73692e 68000800  .h...._ansi.h...
 0300 006e6577 6c69622e 68000800 00636f6e  .newlib.h....con
 0310 6669672e 68000600 005f7479 7065732e  fig.h...._types.
 0320 68000500 00636465 66732e68 00060000  h....cdefs.h....
 0330 7374646c 69622e68 00050000 616c6c6f  stdlib.h....allo
 0340 63612e68 00080000 73747269 6e672e68  ca.h....string.h
 0350 00080000 5f6c6f63 616c652e 68000600  ...._locale.h...
 0360 00737472 696e6773 2e680008 00007374  .strings.h....st
 0370 72696e67 2e680006 00000005 2f000502  ring.h....../...
 0380 f40000f9 032c0105 09030109 00000104  .....,..........
 0390 02037109 00000105 10060300 09000001  ..q.............
 03a0 0401052d 030f0904 00010505 03010904  ...-............
 03b0 0001052f 06030509 08000105 09030109  .../............
 03c0 18000105 30000204 01030009 00000105  ....0...........
 03d0 0f000204 01060300 09000001 050e0002  ................
 03e0 04010300 09080001 05090603 01090400  ................
 03f0 01040203 6d090000 01052406 03000900  ....m.....$.....
 0400 00010401 05050314 09040001 04030538  ...............8
 0410 06030009 14000105 09030109 00000105  ................
 0420 0d060300 09000001 05090603 01090c00  ................
 0430 01050503 68090000 01040205 09037e09  ....h.........~.
 0440 0c000105 10060300 09000001 04030531  ...............1
 0450 031a0904 0001050d 03000904 00010509  ................
 0460 06030109 04000105 3d000204 01030009  ........=.......
 0470 00000105 05000204 01036709 00000104  ..........g.....
 0480 02050900 02040103 7e090000 01051000  ........~.......
 0490 02040106 03000900 00010403 051e0002  ................
 04a0 0401031b 09040001 050e0002 04010300  ................
 04b0 09040001 05050301 09040001 04040529  ...............)
 04c0 06032609 04000105 0d030409 08000105  ..&.............
 04d0 23030009 0c000105 05060302 09000001  #...............
 04e0 06030309 0c000105 09030409 10000105  ................
 04f0 10060300 09000001 050f0300 09040001  ................
 0500 050d0603 01090400 01051906 03000900  ................
 0510 0001050d 03000904 00010505 03020908  ................
 0520 00010603 05091000 01050903 01091400  ................
 0530 01030109 00000103 02090000 01050e03  ................
 0540 00090000 01051206 03000900 00010509  ................
 0550 03000904 0001050d 00020403 06030109  ................
 0560 04000105 2e000204 03060300 09000001  ................
 0570 05340002 04030300 09040001 050d0002  .4..............
 0580 04030300 09040001 052e0002 0403037f  ................
 0590 09140001 05090002 04010300 09040001  ................
 05a0 05050303 09040001 05090603 03091400  ................
 05b0 01050d03 01091400 01030109 00000103  ................
 05c0 02090000 01051203 00090000 01051606  ................
 05d0 03000900 0001050d 03000904 00010511  ................
 05e0 00020403 06030109 04000105 32000204  ............2...
 05f0 03060300 09000001 05380002 04030300  .........8......
 0600 09040001 05110002 04030300 09040001  ................
 0610 05320002 0403037f 09140001 050d0002  .2..............
 0620 04010300 09040001 05090304 09040001  ................
 0630 04050505 06031e09 14000105 09030109  ................
 0640 08000105 05060301 09080001 06030309  ................
 0650 0c000105 09030109 08000105 05060301  ................
 0660 09040001 06030509 0c000105 09030109  ................
 0670 14000103 01090000 01030109 00000105  ................
 0680 0c060300 09000001 0505037d 09040001  ...........}....
 0690 050d0603 04090800 01030109 08000105  ................
 06a0 11060300 09000001 050d0603 03090800  ................
 06b0 01052006 03000900 0001051a 03000908  .. .............
 06c0 00010514 03000904 0001050d 06030109  ................
 06d0 04000105 11060300 09000001 0510037f  ................
 06e0 09040001 050f037f 09040001 05140002  ................
 06f0 04010300 09040001 050d0603 05090c00  ................
 0700 01050f06 037f090c 00010505 03020908  ................
 0710 00010603 03091400 01050903 01090800  ................
 0720 01030209 00000105 0e060300 09000001  ................
 0730 05090002 04010300 09040001 050d0603  ................
 0740 02090800 01052706 03000900 00010523  ......'........#
 0750 03000904 00010515 03000908 0001050f  ................
 0760 03000904 00010516 00020402 037e0904  .............~..
 0770 00010509 06030809 08000105 05060301  ................
 0780 09040001 05090603 03090c00 01050d03  ................
 0790 01090800 01030209 00000105 12060300  ................
 07a0 09000001 050d0002 04010300 09040001  ................
 07b0 05110603 02090800 01052b06 03000900  ..........+.....
 07c0 00010527 03000904 00010519 03000908  ...'............
 07d0 00010513 03000904 0001051a 00020402  ................
 07e0 037e0904 0001050d 06030809 08000105  .~..............
 07f0 09060301 09040001 04060547 0603c87e  ...........G...~
 0800 090c0001 05090301 09000001 05400603  .............@..
 0810 00090000 01050903 00090400 01040206  ................
 0820 037d0904 00010524 06030009 00000104  .}.....$........
 0830 06050503 04090400 01054e06 03060904  ..........N.....
 0840 00010509 03010900 00010535 06030009  ...........5....
 0850 00000105 2c030009 04000105 57030009  ....,.......W...
 0860 04000105 5c030009 04000105 4c030009  ....\.......L...
 0870 04000105 0d030009 04000105 09060301  ................
 0880 09080001 05160603 00090000 01050906  ................
 0890 03010908 0001050c 06030009 00000105  ................
 08a0 0d060301 09040001 04020509 036e0900  .............n..
 08b0 00010510 06030009 00000104 06050d03  ................
 08c0 12090400 01040205 09060372 09040001  ...........r....
 08d0 05240603 00090000 01040605 0d060310  .$..............
 08e0 09080001 04020509 036c0900 00010510  .........l......
 08f0 06030009 00000104 06052803 14090400  ..........(.....
 0900 01050d03 00090400 01040205 09060370  ...............p
 0910 09040001 05240603 00090000 01040605  .....$..........
 0920 05031109 04000105 48060302 09040001  ........H.......
 0930 05090301 09000001 05410603 00090000  .........A......
 0940 01053903 00090400 01050903 00090400  ..9.............
 0950 01040206 036c0908 00010524 06030009  .....l.....$....
 0960 00000104 06050503 15090400 01053006  ..............0.
 0970 03060904 00010509 03010900 00010538  ...............8
 0980 06030009 00000105 30030009 04000105  ........0.......
 0990 10030009 04000104 02050906 0360090c  .............`..
 09a0 00010510 06030009 00000104 06050503  ................
 09b0 21090400 01054006 03020904 00010509  !.....@.........
 09c0 03010900 0001053a 06030009 00000105  .......:........
 09d0 32030009 04000105 09030009 04000104  2...............
 09e0 02060360 090c0001 05240603 00090000  ...`.....$......
 09f0 01040605 05032109 04000104 0506039c  ......!.........
 0a00 01090400 01050903 01093000 01030109  ..........0.....
 0a10 00000103 02090000 01030209 08000105  ................
 0a20 10060300 09000001 05090300 09040001  ................
 0a30 05190603 04090400 01030109 14000105  ................
 0a40 21000204 0206037b 09000001 051b0002  !......{........
 0a50 04010300 09040001 05090002 04010300  ................
 0a60 09080001 050d0603 01090400 01051006  ................
 0a70 03000900 00010511 06032309 08000105  ..........#.....
 0a80 19036409 08000103 01091400 01030309  ..d.............
 0a90 04000103 01091400 01030309 04000103  ................
 0aa0 01091400 01030309 04000103 01091400  ................
 0ab0 01051706 036d0904 0001051e 03000904  .....m..........
 0ac0 00010517 03000908 00010515 06030109  ................
 0ad0 04000105 18060300 09000001 051a0603  ................
 0ae0 04090800 01051d06 03000900 0001051a  ................
 0af0 06030409 08000105 1d060300 09000001  ................
 0b00 051a0603 04090800 01051d06 03000900  ................
 0b10 0001051a 06030409 08000105 1d060300  ................
 0b20 09000001 051a0603 0a090800 01051d06  ................
 0b30 03000900 00010519 06030109 08000103  ................
 0b40 01090c00 01050506 03080904 00010407  ................
 0b50 050c0603 b27e0914 00010505 03030908  .....~..........
 0b60 00010301 09100001 03010914 00010302  ................
 0b70 09100001 04080366 09000001 04020509  .......f........
 0b80 03770900 00010524 06030009 00000104  .w.....$........
 0b90 07050506 0326090c 00010300 09000001  .....&..........
 0ba0 03000908 00010302 09040001 03000900  ................
 0bb0 00010300 09000001 0301090c 00010300  ................
 0bc0 09000001 03000900 00010300 09000001  ................
 0bd0 03000904 00010300 090c0001 05010603  ................
 0be0 01090400 01050d06 031f090c 00010505  ................
 0bf0 03010908 00010002 04010301 090c0001  ................
 0c00 050d0002 04010300 09000001 05190370  ...............p
 0c10 09040001 05050301 090c0001 03020900  ................
 0c20 00010513 06030009 00000105 0a030009  ................
 0c30 10000105 09060301 09040001 05390301  .............9..
 0c40 09080001 05660300 090c0001 05090304  .....f..........
 0c50 09000001 0512037d 09140001 05010603  .......}........
 0c60 05090400 01050c06 03670910 00010505  .........g......
 0c70 03010908 00010516 03000900 00010300  ................
 0c80 09000001 03000904 00010505 03010900  ................
 0c90 00010301 09000001 03010900 00010507  ................
 0ca0 06030009 00000105 09060301 09080001  ................
 0cb0 05260301 09080001 053b0300 09040001  .&.......;......
 0cc0 05010603 06090000 01051206 037b090c  .............{..
 0cd0 00010509 03030904 0001050d 03170904  ................
 0ce0 00010505 0301090c 0001050f 03000900  ................
 0cf0 00010505 03010900 00010301 090c0001  ................
 0d00 0302090c 00010408 03b47f09 00000104  ................
 0d10 02050903 79090000 01052406 03000900  ....y.....$.....
 0d20 00010407 05050603 d400090c 00010408  ................
 0d30 03b17f09 00000104 02050903 7b090000  ............{...
 0d40 01052406 03000900 00010407 05050603  ..$.............
 0d50 d5000904 0001050a 03000900 0001050e  ................
 0d60 06030009 00000105 05030009 04000105  ................
 0d70 09060301 09040001 04080505 03ae7f09  ................
 0d80 00000104 02050903 78090000 01051006  ........x.......
 0d90 03000900 00010407 050903da 00090800  ................
 0da0 01040805 050603af 7f090400 01040205  ................
 0db0 09037b09 00000105 24060300 09000001  ..{.....$.......
 0dc0 04070509 0603d700 09040001 05200300  ............. ..
 0dd0 09180001 051a0603 7e090000 01050500  ........~.......
 0de0 02040103 00090400 01060304 09080001  ................
 0df0 0301090c 00010301 090c0001 0301090c  ................
 0e00 00010301 090c0001 00020401 03010904  ................
 0e10 0001050d 00020401 03000900 00010904  ................
 0e20 00000101 b6000000 03002800 00000101  ..........(.....
 0e30 fb0e0d00 01010101 00000001 0000012e  ................
 0e40 2e2f636f 6d6d6f6e 00007374 6172742e  ./common..start.
 0e50 53000100 00000005 02000000 f9030901  S...............
 0e60 032a0908 00010303 09040001 03010908  .*..............
 0e70 00010301 09080001 03010904 00010302  ................
 0e80 09040001 03010904 00010301 09040001  ................
 0e90 03010904 00010301 09040001 03040904  ................
 0ea0 00010301 09040001 03010904 00010302  ................
 0eb0 09040001 03010904 00010301 09040001  ................
 0ec0 03040904 00010303 09040001 03020904  ................
 0ed0 00010305 09040001 09040000 01010d01  ................
 0ee0 00000300 27000000 0101fb0e 0d000101  ....'...........
 0ef0 01010000 00010000 012e2e2f 636f6d6d  .........../comm
 0f00 6f6e0000 74726170 2e530001 00000000  on..trap.S......
 0f10 05025807 00f91503 01090400 01030109  ..X.............
 0f20 04000103 01090400 01030109 04000103  ................
 0f30 01090400 01030109 04000103 01090400  ................
 0f40 01030109 04000103 01090400 01030109  ................
 0f50 04000103 01090400 01030109 04000103  ................
 0f60 01090400 01030109 04000103 01090400  ................
 0f70 01030109 04000103 01090400 01030109  ................
 0f80 04000103 01090400 01030109 04000103  ................
 0f90 01090400 01030109 04000103 01090400  ................
 0fa0 01030109 04000103 01090400 01030109  ................
 0fb0 04000103 01090400 01030109 04000103  ................
 0fc0 01090400 01030109 04000103 01090400  ................
 0fd0 01030109 04000103 01090400 01030109  ................
 0fe0 04000103 01090400 01090400 000101    ............... 
Contents of section .debug_str:
 0000 53595354 454d5f53 50495f30 5f494f5f  SYSTEM_SPI_0_IO_
 0010 4354524c 20307866 38303134 30303000  CTRL 0xf8014000.
 0020 504c4943 5f454e41 424c455f 5045525f  PLIC_ENABLE_PER_
 0030 48415254 20307838 30005749 4e545f4d  HART 0x80.WINT_M
 0040 494e2028 5f5f5749 4e545f4d 494e5f5f  IN (__WINT_MIN__
 0050 29005f5f 6d616c6c 6f635f6c 696b6520  ).__malloc_like 
 0060 5f5f6174 74726962 7574655f 5f28285f  __attribute__((_
 0070 5f6d616c 6c6f635f 5f292900 5f524545  _malloc__))._REE
 0080 4e545f4d 505f5245 53554c54 5f4b2870  NT_MP_RESULT_K(p
 0090 74722920 28287074 72292d3e 5f726573  tr) ((ptr)->_res
 00a0 756c745f 6b29005f 5f535649 445f5649  ult_k).__SVID_VI
 00b0 5349424c 45203100 636f6e66 69674d54  SIBLE 1.configMT
 00c0 494d455f 42415345 5f414444 52455353  IME_BASE_ADDRESS
 00d0 20284253 505f434c 494e5420 2b203078   (BSP_CLINT + 0x
 00e0 42464638 29005f5f 72697363 76203100  BFF8).__riscv 1.
 00f0 5f5f464c 54313238 5f4d494e 5f31305f  __FLT128_MIN_10_
 0100 4558505f 5f20282d 34393331 29005f5f  EXP__ (-4931).__
 0110 44454331 32385f45 5053494c 4f4e5f5f  DEC128_EPSILON__
 0120 2031452d 3333444c 005f5f49 4e544d41   1E-33DL.__INTMA
 0130 585f4328 63292063 20232320 4c4c005f  X_C(c) c ## LL._
 0140 5f636f6d 7061725f 666e5f74 5f646566  _compar_fn_t_def
 0150 696e6564 20005f5f 43435f53 5550504f  ined .__CC_SUPPO
 0160 5254535f 494e4c49 4e452031 005f5f47  RTS_INLINE 1.__G
 0170 43435f41 544f4d49 435f5743 4841525f  CC_ATOMIC_WCHAR_
 0180 545f4c4f 434b5f46 52454520 31004d53  T_LOCK_FREE 1.MS
 0190 54415455 535f4d50 52562030 78303030  TATUS_MPRV 0x000
 01a0 32303030 30005f5f 43484152 5f554e53  20000.__CHAR_UNS
 01b0 49474e45 445f5f20 31005f47 4c4f4241  IGNED__ 1._GLOBA
 01c0 4c5f4154 45584954 20285f47 4c4f4241  L_ATEXIT (_GLOBA
 01d0 4c5f5245 454e542d 3e5f6174 65786974  L_REENT->_atexit
 01e0 29005f5f 464c5431 32385f44 4543494d  ).__FLT128_DECIM
 01f0 414c5f44 49475f5f 20333600 6373725f  AL_DIG__ 36.csr_
 0200 72656164 5f636c65 61722863 73722c76  read_clear(csr,v
 0210 616c2920 287b2075 6e736967 6e656420  al) ({ unsigned 
 0220 6c6f6e67 205f5f76 203d2028 756e7369  long __v = (unsi
 0230 676e6564 206c6f6e 67292876 616c293b  gned long)(val);
 0240 205f5f61 736d5f5f 205f5f76 6f6c6174   __asm__ __volat
 0250 696c655f 5f202822 63737272 63202530  ile__ ("csrrc %0
 0260 2c202220 23637372 20222c20 25312220  , " #csr ", %1" 
 0270 3a20223d 72222028 5f5f7629 203a2022  : "=r" (__v) : "
 0280 724b2220 285f5f76 29293b20 5f5f763b  rK" (__v)); __v;
 0290 207d2900 53595354 454d5f55 4152545f   }).SYSTEM_UART_
 02a0 305f494f 5f504152 414d4554 45525f55  0_IO_PARAMETER_U
 02b0 4152545f 4354524c 5f434f4e 4649475f  ART_CTRL_CONFIG_
 02c0 52585f53 414d504c 455f5045 525f4249  RX_SAMPLE_PER_BI
 02d0 54203800 5f5f464c 5436345f 4841535f  T 8.__FLT64_HAS_
 02e0 494e4649 4e495459 5f5f2031 005f5f76  INFINITY__ 1.__v
 02f0 616c7565 004d5354 41545553 5f55584c  alue.MSTATUS_UXL
 0300 20307830 30303030 30303330 30303030   0x0000000300000
 0310 30303000 4e554c4c 20282876 6f696420  000.NULL ((void 
 0320 2a293029 005f5f5f 696e745f 73697a65  *)0).___int_size
 0330 5f745f68 20005f5f 7366005f 5f505452  _t_h .__sf.__PTR
 0340 44494646 5f4d4158 5f5f2030 78376666  DIFF_MAX__ 0x7ff
 0350 66666666 66005f5f 474e5543 4c494b45  fffff.__GNUCLIKE
 0360 5f5f5f53 45435449 4f4e2031 005f4c4f  ___SECTION 1._LO
 0370 4e475f44 4f55424c 45206c6f 6e672064  NG_DOUBLE long d
 0380 6f75626c 65006973 67726561 74657228  ouble.isgreater(
 0390 5f5f782c 5f5f7929 20285f5f 6275696c  __x,__y) (__buil
 03a0 74696e5f 69736772 65617465 7220285f  tin_isgreater (_
 03b0 5f782c20 5f5f7929 2900494e 545f4c45  _x, __y)).INT_LE
 03c0 41535438 5f4d494e 20282d5f 5f494e54  AST8_MIN (-__INT
 03d0 5f4c4541 5354385f 4d41585f 5f202d20  _LEAST8_MAX__ - 
 03e0 3129005f 55494e54 33325f54 5f444543  1)._UINT32_T_DEC
 03f0 4c415245 4420005f 72656164 005f5f49  LARED ._read.__I
 0400 4e544d41 585f4d41 585f5f20 30783766  NTMAX_MAX__ 0x7f
 0410 66666666 66666666 66666666 66664c4c  ffffffffffffffLL
 0420 005f5f44 45433332 5f535542 4e4f524d  .__DEC32_SUBNORM
 0430 414c5f4d 494e5f5f 20302e30 30303030  AL_MIN__ 0.00000
 0440 31452d39 35444600 5f5f6e65 65645f73  1E-95DF.__need_s
 0450 697a655f 74005f5f 6c6f636b 5f696e69  ize_t.__lock_ini
 0460 745f7265 63757273 69766528 6c6f636b  t_recursive(lock
 0470 29202828 766f6964 29203029 005f5f46  ) ((void) 0).__F
 0480 4c543332 585f4d49 4e5f4558 505f5f20  LT32X_MIN_EXP__ 
 0490 282d3130 32312900 5f524545 4e545f53  (-1021)._REENT_S
 04a0 49474e41 4c5f5349 5a452032 3400504d  IGNAL_SIZE 24.PM
 04b0 505f4c20 30783830 005f5245 454e545f  P_L 0x80._REENT_
 04c0 57435254 4f4d425f 53544154 45287074  WCRTOMB_STATE(pt
 04d0 72292028 28707472 292d3e5f 6e65772e  r) ((ptr)->_new.
 04e0 5f726565 6e742e5f 77637274 6f6d625f  _reent._wcrtomb_
 04f0 73746174 6529005f 5f41544f 4d49435f  state).__ATOMIC_
 0500 434f4e53 554d4520 31004249 545f3238  CONSUME 1.BIT_28
 0510 20283120 3c3c2032 3829005f 5f726973   (1 << 28).__ris
 0520 63765f6d 756c6469 76203100 4249545f  cv_muldiv 1.BIT_
 0530 35202831 203c3c20 3529005f 5f464c54  5 (1 << 5).__FLT
 0540 3634585f 4449475f 5f203333 005f5f46  64X_DIG__ 33.__F
 0550 4c543634 585f4550 53494c4f 4e5f5f20  LT64X_EPSILON__ 
 0560 312e3932 35393239 39343433 38373233  1.92592994438723
 0570 35383533 30353539 37373934 32353834  5853055977942584
 0580 39323733 32652d33 34463634 78005f5f  92732e-34F64x.__
 0590 474e5543 4c494b45 5f5f5f54 5950454f  GNUCLIKE___TYPEO
 05a0 46203100 5f5f696e 7432305f 5f005f53  F 1.__int20__._S
 05b0 59535f5f 4c4f4341 4c455f48 20004249  YS__LOCALE_H .BI
 05c0 545f3135 20283120 3c3c2031 35290052  T_15 (1 << 15).R
 05d0 44435943 4c452030 78433030 005f5f53  DCYCLE 0xC00.__S
 05e0 495a454f 465f4c4f 4e475f4c 4f4e475f  IZEOF_LONG_LONG_
 05f0 5f203800 5f617363 74696d65 5f627566  _ 8._asctime_buf
 0600 005f5f44 424c5f4d 41585f31 305f4558  .__DBL_MAX_10_EX
 0610 505f5f20 33303800 5f637674 6c656e00  P__ 308._cvtlen.
 0620 5f5f4445 4336345f 45505349 4c4f4e5f  __DEC64_EPSILON_
 0630 5f203145 2d313544 44005349 5a455f4d  _ 1E-15DD.SIZE_M
 0640 41582028 5f5f5349 5a455f4d 41585f5f  AX (__SIZE_MAX__
 0650 29005f5f 504f5349 585f5649 5349424c  ).__POSIX_VISIBL
 0660 45203230 30383039 005f5f73 74726f6e  E 200809.__stron
 0670 675f7265 66657265 6e636528 73796d2c  g_reference(sym,
 0680 616c6961 7373796d 29206578 7465726e  aliassym) extern
 0690 205f5f74 7970656f 66202873 796d2920   __typeof (sym) 
 06a0 616c6961 7373796d 205f5f61 74747269  aliassym __attri
 06b0 62757465 5f5f2028 285f5f61 6c696173  bute__ ((__alias
 06c0 5f5f2028 2373796d 29292900 5f5f4445  __ (#sym))).__DE
 06d0 4333325f 4d494e5f 5f203145 2d393544  C32_MIN__ 1E-95D
 06e0 46005f5f 494e544d 41585f57 49445448  F.__INTMAX_WIDTH
 06f0 5f5f2036 34005f5f 4f524445 525f5044  __ 64.__ORDER_PD
 0700 505f454e 4449414e 5f5f2033 34313200  P_ENDIAN__ 3412.
 0710 5f5f5349 5a455f54 5950455f 5f20756e  __SIZE_TYPE__ un
 0720 7369676e 65642069 6e74005f 5f444543  signed int.__DEC
 0730 36345f4d 41585f45 58505f5f 20333835  64_MAX_EXP__ 385
 0740 004d5f32 5f504920 302e3633 36363139  .M_2_PI 0.636619
 0750 37373233 36373538 31333433 3038005f  77236758134308._
 0760 5f464c54 5f484153 5f44454e 4f524d5f  _FLT_HAS_DENORM_
 0770 5f203100 55494e54 5f464153 5431365f  _ 1.UINT_FAST16_
 0780 4d415820 285f5f55 494e545f 46415354  MAX (__UINT_FAST
 0790 31365f4d 41585f5f 29004249 545f3136  16_MAX__).BIT_16
 07a0 20283120 3c3c2031 36290048 5547455f   (1 << 16).HUGE_
 07b0 56414c20 285f5f62 75696c74 696e5f68  VAL (__builtin_h
 07c0 7567655f 76616c28 2929005f 5f464c54  uge_val()).__FLT
 07d0 33325f44 4543494d 414c5f44 49475f5f  32_DECIMAL_DIG__
 07e0 2039005f 5f4f5244 45525f4c 4954544c   9.__ORDER_LITTL
 07f0 455f454e 4449414e 5f5f2031 32333400  E_ENDIAN__ 1234.
 0800 6273705f 7072696e 74486578 5f6c6f77  bsp_printHex_low
 0810 6572005f 5f535444 435f5554 465f3136  er.__STDC_UTF_16
 0820 5f5f2031 005f4e75 6c6c6162 6c652000  __ 1._Nullable .
 0830 5f5f746d 00646967 69747300 5f6e6275  __tm.digits._nbu
 0840 66005f5f 746d5f73 6563005f 5f55494e  f.__tm_sec.__UIN
 0850 54385f43 28632920 63005f5f 494e5431  T8_C(c) c.__INT1
 0860 365f5459 50455f5f 2073686f 72742069  6_TYPE__ short i
 0870 6e740042 53505f4c 45445f4d 41534b20  nt.BSP_LED_MASK 
 0880 30786600 5f6c3634 615f6275 66004d5f  0xf._l64a_buf.M_
 0890 53515254 50492031 2e373732 34353338  SQRTPI 1.7724538
 08a0 35303930 35353136 30323739 32393831  5090551602792981
 08b0 005f5f46 4c543634 585f4d41 585f5f20  .__FLT64X_MAX__ 
 08c0 312e3138 39373331 34393533 35373233  1.18973149535723
 08d0 31373635 30383537 35393332 36363238  1765085759326628
 08e0 30303730 32652b34 39333246 36347800  00702e+4932F64x.
 08f0 5f5f494e 54382022 68682200 5f5f6861  __INT8 "hh".__ha
 0900 735f6275 696c7469 6e287829 20300053  s_builtin(x) 0.S
 0910 59535445 4d5f5541 52545f30 5f494f5f  YSTEM_UART_0_IO_
 0920 50415241 4d455445 525f5458 5f464946  PARAMETER_TX_FIF
 0930 4f5f4445 50544820 31323800 494e545f  O_DEPTH 128.INT_
 0940 4c454153 5431365f 4d415820 285f5f49  LEAST16_MAX (__I
 0950 4e545f4c 45415354 31365f4d 41585f5f  NT_LEAST16_MAX__
 0960 29005f5f 4758585f 4142495f 56455253  ).__GXX_ABI_VERS
 0970 494f4e20 31303133 00494e54 5f464153  ION 1013.INT_FAS
 0980 5431365f 4d415820 285f5f49 4e545f46  T16_MAX (__INT_F
 0990 41535431 365f4d41 585f5f29 005f504f  AST16_MAX__)._PO
 09a0 494e5445 525f494e 54206c6f 6e67005f  INTER_INT long._
 09b0 5f534947 5f41544f 4d49435f 54595045  _SIG_ATOMIC_TYPE
 09c0 5f5f2069 6e74005f 73697a65 005f5245  __ int._size._RE
 09d0 454e545f 4d505f52 4553554c 54287074  ENT_MP_RESULT(pt
 09e0 72292028 28707472 292d3e5f 72657375  r) ((ptr)->_resu
 09f0 6c742900 5f5f494e 545f4641 53543634  lt).__INT_FAST64
 0a00 5f545950 455f5f20 6c6f6e67 206c6f6e  _TYPE__ long lon
 0a10 6720696e 74004d5f 53515254 3320312e  g int.M_SQRT3 1.
 0a20 37333230 35303830 37353638 38373731  7320508075688771
 0a30 39303030 00535354 41545553 33325f53  9000.SSTATUS32_S
 0a40 44203078 38303030 30303030 00494e54  D 0x80000000.INT
 0a50 385f4d41 5820285f 5f494e54 385f4d41  8_MAX (__INT8_MA
 0a60 585f5f29 004d5f31 5f504920 302e3331  X__).M_1_PI 0.31
 0a70 38333039 38383631 38333739 30363731  8309886183790671
 0a80 3534005f 6c6f636b 005f5f46 4c543332  54._lock.__FLT32
 0a90 5f4d494e 5f5f2031 2e313735 34393433  _MIN__ 1.1754943
 0aa0 35303832 32323837 35303739 36383733  5082228750796873
 0ab0 36353337 32323232 34353638 652d3338  653722224568e-38
 0ac0 46333200 50545244 4946465f 4d415820  F32.PTRDIFF_MAX 
 0ad0 285f5f50 54524449 46465f4d 41585f5f  (__PTRDIFF_MAX__
 0ae0 29005f5f 464c5433 325f4d41 585f3130  ).__FLT32_MAX_10
 0af0 5f455850 5f5f2033 38005359 5354454d  _EXP__ 38.SYSTEM
 0b00 5f504c49 435f5359 5354454d 5f434f52  _PLIC_SYSTEM_COR
 0b10 45535f30 5f455854 45524e41 4c5f494e  ES_0_EXTERNAL_IN
 0b20 54455252 55505420 3000434c 494e545f  TERRUPT 0.CLINT_
 0b30 434d505f 41444452 20307834 30303000  CMP_ADDR 0x4000.
 0b40 5f524545 4e545f4d 505f4652 45454c49  _REENT_MP_FREELI
 0b50 53542870 74722920 28287074 72292d3e  ST(ptr) ((ptr)->
 0b60 5f667265 656c6973 7429005f 5f6e6565  _freelist).__nee
 0b70 645f7763 6861725f 74005f5f 464c5433  d_wchar_t.__FLT3
 0b80 325f4d49 4e5f4558 505f5f20 282d3132  2_MIN_EXP__ (-12
 0b90 3529005f 5f464c54 3634585f 4d494e5f  5).__FLT64X_MIN_
 0ba0 4558505f 5f20282d 31363338 3129004d  EXP__ (-16381).M
 0bb0 5f535152 54315f32 20302e37 30373130  _SQRT1_2 0.70710
 0bc0 36373831 31383635 34373532 34343000  678118654752440.
 0bd0 77726974 655f7533 32005f5f 50545244  write_u32.__PTRD
 0be0 4946465f 5420005f 67657464 6174655f  IFF_T ._getdate_
 0bf0 65727200 5f6d756c 7400494e 5431365f  err._mult.INT16_
 0c00 4d415820 285f5f49 4e543136 5f4d4158  MAX (__INT16_MAX
 0c10 5f5f2900 5f5f464c 5436345f 4d494e5f  __).__FLT64_MIN_
 0c20 31305f45 58505f5f 20282d33 30372900  10_EXP__ (-307).
 0c30 504c4943 5f544852 4553484f 4c445f42  PLIC_THRESHOLD_B
 0c40 41534520 30783230 30303030 005f5f73  ASE 0x200000.__s
 0c50 697a655f 7420005f 5f626f75 6e646564  ize_t .__bounded
 0c60 20005f5f 696e745f 66617374 33325f74   .__int_fast32_t
 0c70 5f646566 696e6564 2031005f 5f494e54  _defined 1.__INT
 0c80 5f464153 5436345f 57494454 485f5f20  _FAST64_WIDTH__ 
 0c90 3634005f 5f464c54 36345f44 4543494d  64.__FLT64_DECIM
 0ca0 414c5f44 49475f5f 20313700 5f5f5f69  AL_DIG__ 17.___i
 0cb0 6e745f77 63686172 5f745f68 20005f52  nt_wchar_t_h ._R
 0cc0 45454e54 5f494e49 545f5054 52287661  EENT_INIT_PTR(va
 0cd0 7229207b 206d656d 73657428 28766172  r) { memset((var
 0ce0 292c2030 2c207369 7a656f66 282a2876  ), 0, sizeof(*(v
 0cf0 61722929 293b205f 5245454e 545f494e  ar))); _REENT_IN
 0d00 49545f50 54525f5a 45524f45 44287661  IT_PTR_ZEROED(va
 0d10 72293b20 7d00494e 5431365f 43287829  r); }.INT16_C(x)
 0d20 205f5f49 4e543136 5f432878 29005353   __INT16_C(x).SS
 0d30 54415455 5336345f 53442030 78383030  TATUS64_SD 0x800
 0d40 30303030 30303030 30303030 30005f5f  0000000000000.__
 0d50 434f4e43 41543128 782c7929 20782023  CONCAT1(x,y) x #
 0d60 23207900 504d505f 58203078 3034005f  # y.PMP_X 0x04._
 0d70 5f494e54 33325f43 28632920 63202323  _INT32_C(c) c ##
 0d80 204c005f 5f4f5244 45525f42 49475f45   L.__ORDER_BIG_E
 0d90 4e444941 4e5f5f20 34333231 005f5f44  NDIAN__ 4321.__D
 0da0 45433132 385f4d49 4e5f5f20 31452d36  EC128_MIN__ 1E-6
 0db0 31343344 4c00494e 54385f4d 494e2028  143DL.INT8_MIN (
 0dc0 2d5f5f49 4e54385f 4d41585f 5f202d20  -__INT8_MAX__ - 
 0dd0 31290046 4c545f45 56414c5f 4d455448  1).FLT_EVAL_METH
 0de0 4f44005f 5f464c54 3132385f 4841535f  OD.__FLT128_HAS_
 0df0 51554945 545f4e41 4e5f5f20 31005f53  QUIET_NAN__ 1._S
 0e00 59535f5f 53544449 4e545f48 2000494e  YS__STDINT_H .IN
 0e10 545f4c45 41535436 345f4d41 5820285f  T_LEAST64_MAX (_
 0e20 5f494e54 5f4c4541 53543634 5f4d4158  _INT_LEAST64_MAX
 0e30 5f5f2900 53595354 454d5f52 49534356  __).SYSTEM_RISCV
 0e40 5f495341 5f455854 5f5a4946 454e4345  _ISA_EXT_ZIFENCE
 0e50 2031005f 5f505452 44494646 5f574944   1.__PTRDIFF_WID
 0e60 54485f5f 20333200 53595354 454d5f43  TH__ 32.SYSTEM_C
 0e70 4c494e54 5f435452 4c5f5349 5a452030  LINT_CTRL_SIZE 0
 0e80 78313030 3030005f 5f776561 6b5f7265  x10000.__weak_re
 0e90 66657265 6e636528 73796d2c 616c6961  ference(sym,alia
 0ea0 7329205f 5f61736d 5f5f2822 2e776561  s) __asm__(".wea
 0eb0 6b202220 23616c69 6173293b 205f5f61  k " #alias); __a
 0ec0 736d5f5f 28222e65 71752022 2023616c  sm__(".equ " #al
 0ed0 69617320 222c2022 20237379 6d29005f  ias ", " #sym)._
 0ee0 5f55494e 545f4641 5354385f 4d41585f  _UINT_FAST8_MAX_
 0ef0 5f203078 66666666 66666666 55005f4e  _ 0xffffffffU._N
 0f00 4f544852 4f572000 5f5f4445 4333325f  OTHROW .__DEC32_
 0f10 45505349 4c4f4e5f 5f203145 2d364446  EPSILON__ 1E-6DF
 0f20 005f5f68 61735f65 7874656e 73696f6e  .__has_extension
 0f30 205f5f68 61735f66 65617475 7265005f   __has_feature._
 0f40 5f776368 005f5245 454e545f 43484543  _wch._REENT_CHEC
 0f50 4b5f4d50 28707472 2920005f 5f494e54  K_MP(ptr) .__INT
 0f60 5f4c4541 53543634 5f545950 455f5f20  _LEAST64_TYPE__ 
 0f70 6c6f6e67 206c6f6e 6720696e 7400494e  long long int.IN
 0f80 545f4c45 41535438 5f4d4158 20285f5f  T_LEAST8_MAX (__
 0f90 494e545f 4c454153 54385f4d 41585f5f  INT_LEAST8_MAX__
 0fa0 29005f5f 464c5436 34585f4d 41585f31  ).__FLT64X_MAX_1
 0fb0 305f4558 505f5f20 34393332 005f5f53  0_EXP__ 4932.__S
 0fc0 43484152 5f574944 54485f5f 20380043  CHAR_WIDTH__ 8.C
 0fd0 41555345 5f494c4c 4547414c 5f494e53  AUSE_ILLEGAL_INS
 0fe0 54525543 54494f4e 2032005f 5f494e54  TRUCTION 2.__INT
 0ff0 5f464153 5431365f 57494454 485f5f20  _FAST16_WIDTH__ 
 1000 3332005f 5245454e 54205f69 6d707572  32._REENT _impur
 1010 655f7074 72004d49 455f4d45 49452028  e_ptr.MIE_MEIE (
 1020 31203c3c 20434155 53455f4d 41434849  1 << CAUSE_MACHI
 1030 4e455f45 58544552 4e414c29 004d5f4c  NE_EXTERNAL).M_L
 1040 4e324849 20362e39 33313437 31383033  N2HI 6.931471803
 1050 36393132 33383136 3439452d 31005f5f  6912381649E-1.__
 1060 4c454153 54333220 226c2200 5f5f494e  LEAST32 "l".__IN
 1070 54363420 226c6c22 005f5f47 43435f41  T64 "ll".__GCC_A
 1080 544f4d49 435f504f 494e5445 525f4c4f  TOMIC_POINTER_LO
 1090 434b5f46 52454520 31005f66 696c6500  CK_FREE 1._file.
 10a0 5f5f5549 4e545f46 41535431 365f4d41  __UINT_FAST16_MA
 10b0 585f5f20 30786666 66666666 66665500  X__ 0xffffffffU.
 10c0 494e545f 4c454153 5436345f 4d494e20  INT_LEAST64_MIN 
 10d0 282d5f5f 494e545f 4c454153 5436345f  (-__INT_LEAST64_
 10e0 4d41585f 5f202d20 3129005f 6f6e5f65  MAX__ - 1)._on_e
 10f0 7869745f 61726773 0046505f 4e414e20  xit_args.FP_NAN 
 1100 30005f5f 494e5450 54525f4d 41585f5f  0.__INTPTR_MAX__
 1110 20307837 66666666 66666600 4d5f4c4f   0x7fffffff.M_LO
 1120 47313045 20302e34 33343239 34343831  G10E 0.434294481
 1130 39303332 35313832 37363500 4d535441  90325182765.MSTA
 1140 5455535f 53505020 30783030 30303031  TUS_SPP 0x000001
 1150 3030005f 4e6f6e6e 756c6c20 00454e41  00._Nonnull .ENA
 1160 424c455f 42524944 47455f46 554c4c5f  BLE_BRIDGE_FULL_
 1170 544f5f4c 49544520 31004d49 44454c45  TO_LITE 1.MIDELE
 1180 475f5355 50455256 49534f52 5f534f46  G_SUPERVISOR_SOF
 1190 54574152 45202831 203c3c20 3129005f  TWARE (1 << 1)._
 11a0 5f474e55 435f5052 45524551 286d616a  _GNUC_PREREQ(maj
 11b0 2c6d696e 29202828 5f5f474e 55435f5f  ,min) ((__GNUC__
 11c0 203c3c20 31362920 2b205f5f 474e5543   << 16) + __GNUC
 11d0 5f4d494e 4f525f5f 203e3d20 28286d61  _MINOR__ >= ((ma
 11e0 6a29203c 3c203136 29202b20 286d696e  j) << 16) + (min
 11f0 2929005f 545f5743 48415220 005f4e5f  ))._T_WCHAR ._N_
 1200 4c495354 53203330 005f494e 54505452  LISTS 30._INTPTR
 1210 5f545f44 45434c41 52454420 005f5641  _T_DECLARED ._VA
 1220 5f4c4953 545f545f 4820005f 5f464c54  _LIST_T_H .__FLT
 1230 3332585f 4841535f 494e4649 4e495459  32X_HAS_INFINITY
 1240 5f5f2031 00494e54 5f464153 5433325f  __ 1.INT_FAST32_
 1250 4d494e20 282d5f5f 494e545f 46415354  MIN (-__INT_FAST
 1260 33325f4d 41585f5f 202d2031 29005359  32_MAX__ - 1).SY
 1270 5354454d 5f504c49 435f4354 524c5f53  STEM_PLIC_CTRL_S
 1280 495a4520 30783430 30303030 005f5f52  IZE 0x400000.__R
 1290 43534944 5f534f55 52434528 73292073  CSID_SOURCE(s) s
 12a0 74727563 74205f5f 6861636b 005f5245  truct __hack._RE
 12b0 454e545f 52414e44 34385f53 45454428  ENT_RAND48_SEED(
 12c0 70747229 20282870 7472292d 3e5f6e65  ptr) ((ptr)->_ne
 12d0 772e5f72 65656e74 2e5f7234 382e5f73  w._reent._r48._s
 12e0 65656429 005f5f55 494e545f 4c454153  eed).__UINT_LEAS
 12f0 54385f54 5950455f 5f20756e 7369676e  T8_TYPE__ unsign
 1300 65642063 68617200 5f737472 746f6b5f  ed char._strtok_
 1310 6c617374 005f5f6c 6f636b73 5f657863  last.__locks_exc
 1320 6c757369 7665282e 2e2e2920 5f5f6c6f  lusive(...) __lo
 1330 636b5f61 6e6e6f74 61746528 6578636c  ck_annotate(excl
 1340 75736976 655f6c6f 636b5f66 756e6374  usive_lock_funct
 1350 696f6e28 5f5f5641 5f415247 535f5f29  ion(__VA_ARGS__)
 1360 29005f6d 62726c65 6e5f7374 61746500  )._mbrlen_state.
 1370 706c6963 5f736574 5f707269 6f726974  plic_set_priorit
 1380 79005f5f 72697363 765f666c 6f61745f  y.__riscv_float_
 1390 6162695f 736f6674 20310053 59535445  abi_soft 1.SYSTE
 13a0 4d5f5541 52545f30 5f494f5f 50415241  M_UART_0_IO_PARA
 13b0 4d455445 525f5541 52545f43 54524c5f  METER_UART_CTRL_
 13c0 434f4e46 49475f52 54535f47 454e2030  CONFIG_RTS_GEN 0
 13d0 005f5f49 4e545f46 41535436 345f4d41  .__INT_FAST64_MA
 13e0 585f5f20 30783766 66666666 66666666  X__ 0x7fffffffff
 13f0 66666666 66664c4c 005f5f46 4c543332  ffffffLL.__FLT32
 1400 585f4445 43494d41 4c5f4449 475f5f20  X_DECIMAL_DIG__ 
 1410 31370049 4e46494e 49545920 285f5f62  17.INFINITY (__b
 1420 75696c74 696e5f69 6e666628 2929005f  uiltin_inff())._
 1430 5f464c54 3332585f 4841535f 51554945  _FLT32X_HAS_QUIE
 1440 545f4e41 4e5f5f20 31005f5f 52414e44  T_NAN__ 1.__RAND
 1450 5f4d4158 20307837 66666666 66666600  _MAX 0x7fffffff.
 1460 5f707574 63686172 5f73005f 5f5f696e  _putchar_s.___in
 1470 745f6c65 61737431 365f745f 64656669  t_least16_t_defi
 1480 6e656420 31005f5f 44454331 32385f4d  ned 1.__DEC128_M
 1490 494e5f45 58505f5f 20282d36 31343229  IN_EXP__ (-6142)
 14a0 004d4154 485f4552 52455843 45505420  .MATH_ERREXCEPT 
 14b0 32005f5f 494e545f 46415354 385f5459  2.__INT_FAST8_TY
 14c0 50455f5f 20696e74 005f4e4f 494e4c49  PE__ int._NOINLI
 14d0 4e45205f 5f617474 72696275 74655f5f  NE __attribute__
 14e0 2028285f 5f6e6f69 6e6c696e 655f5f29   ((__noinline__)
 14f0 29005f5f 73697a65 5f745f5f 20005f5f  ).__size_t__ .__
 1500 464c5431 32385f4d 494e5f45 58505f5f  FLT128_MIN_EXP__
 1510 20282d31 36333831 29006373 725f7265   (-16381).csr_re
 1520 61642863 73722920 287b2072 65676973  ad(csr) ({ regis
 1530 74657220 756e7369 676e6564 206c6f6e  ter unsigned lon
 1540 67205f5f 763b205f 5f61736d 5f5f205f  g __v; __asm__ _
 1550 5f766f6c 6174696c 655f5f20 28226373  _volatile__ ("cs
 1560 72722025 302c2022 20236373 72203a20  rr %0, " #csr : 
 1570 223d7222 20285f5f 7629293b 205f5f76  "=r" (__v)); __v
 1580 3b207d29 005f5245 454e545f 52414e44  ; })._REENT_RAND
 1590 5f4e4558 54287074 72292028 28707472  _NEXT(ptr) ((ptr
 15a0 292d3e5f 6e65772e 5f726565 6e742e5f  )->_new._reent._
 15b0 72616e64 5f6e6578 7429005f 5f55494e  rand_next).__UIN
 15c0 544d4158 5f432863 29206320 23232055  TMAX_C(c) c ## U
 15d0 4c4c0048 4156455f 494e4954 46494e49  LL.HAVE_INITFINI
 15e0 5f415252 41592031 005f5f53 495a454f  _ARRAY 1.__SIZEO
 15f0 465f504f 494e5445 525f5f20 3400494e  F_POINTER__ 4.IN
 1600 545f4641 53543634 5f4d494e 20282d5f  T_FAST64_MIN (-_
 1610 5f494e54 5f464153 5436345f 4d41585f  _INT_FAST64_MAX_
 1620 5f202d20 3129005f 6c6f6361 6c74696d  _ - 1)._localtim
 1630 655f6275 66005f42 53445f57 43484152  e_buf._BSD_WCHAR
 1640 5f545f20 005f5f47 43435f41 544f4d49  _T_ .__GCC_ATOMI
 1650 435f424f 4f4c5f4c 4f434b5f 46524545  C_BOOL_LOCK_FREE
 1660 2031005f 5f4c4f43 4b5f494e 49545f52   1.__LOCK_INIT_R
 1670 45435552 53495645 28636c61 73732c6c  ECURSIVE(class,l
 1680 6f636b29 20737461 74696320 696e7420  ock) static int 
 1690 6c6f636b 203d2030 3b005f5f 5f696e74  lock = 0;.___int
 16a0 36345f74 5f646566 696e6564 2031005f  64_t_defined 1._
 16b0 5f464c54 3634585f 4841535f 44454e4f  _FLT64X_HAS_DENO
 16c0 524d5f5f 2031005f 5f736275 66006469  RM__ 1.__sbuf.di
 16d0 67690055 494e5450 54525f4d 41582028  gi.UINTPTR_MAX (
 16e0 5f5f5549 4e545054 525f4d41 585f5f29  __UINTPTR_MAX__)
 16f0 005f5f46 4c543332 5f4d4158 5f455850  .__FLT32_MAX_EXP
 1700 5f5f2031 3238006d 61696e00 5f5f5549  __ 128.main.__UI
 1710 4e544d41 585f5459 50455f5f 206c6f6e  NTMAX_TYPE__ lon
 1720 67206c6f 6e672075 6e736967 6e656420  g long unsigned 
 1730 696e7400 5f415445 5849545f 53495a45  int._ATEXIT_SIZE
 1740 20333200 5f666e74 79706573 005f5f4c   32._fntypes.__L
 1750 44424c5f 44454e4f 524d5f4d 494e5f5f  DBL_DENORM_MIN__
 1760 20362e34 37353137 35313139 34333830   6.4751751194380
 1770 32353131 30393234 34333839 35383232  2511092443895822
 1780 37363436 3535652d 34393636 4c00504d  764655e-4966L.PM
 1790 505f4120 30783138 00776f72 64005f55  P_A 0x18.word._U
 17a0 494e5436 345f545f 4445434c 41524544  INT64_T_DECLARED
 17b0 20005f53 495a455f 545f4445 434c4152   ._SIZE_T_DECLAR
 17c0 45442000 4d535441 5455535f 58532030  ED .MSTATUS_XS 0
 17d0 78303030 31383030 30005f5f 43484152  x00018000.__CHAR
 17e0 33325f54 5950455f 5f206c6f 6e672075  32_TYPE__ long u
 17f0 6e736967 6e656420 696e7400 4249545f  nsigned int.BIT_
 1800 34202831 203c3c20 3429005f 5f43435f  4 (1 << 4).__CC_
 1810 53555050 4f525453 5f44594e 414d4943  SUPPORTS_DYNAMIC
 1820 5f415252 41595f49 4e495420 31005f5f  _ARRAY_INIT 1.__
 1830 756e7573 6564205f 5f617474 72696275  unused __attribu
 1840 74655f5f 28285f5f 756e7573 65645f5f  te__((__unused__
 1850 2929005f 5f55494e 545f4641 53543332  )).__UINT_FAST32
 1860 5f4d4158 5f5f2030 78666666 66666666  _MAX__ 0xfffffff
 1870 6655005f 5f746d5f 6d6f6e00 5f5f464c  fU.__tm_mon.__FL
 1880 545f4d41 585f4558 505f5f20 31323800  T_MAX_EXP__ 128.
 1890 5f5f5349 5a454f46 5f4c4f4e 475f5f20  __SIZEOF_LONG__ 
 18a0 34005359 5354454d 5f493243 5f415f41  4.SYSTEM_I2C_A_A
 18b0 50422053 59535445 4d5f4932 435f305f  PB SYSTEM_I2C_0_
 18c0 494f5f41 5042004d 4944454c 45475f53  IO_APB.MIDELEG_S
 18d0 55504552 5649534f 525f4558 5445524e  UPERVISOR_EXTERN
 18e0 414c2028 31203c3c 20392900 46505f53  AL (1 << 9).FP_S
 18f0 55424e4f 524d414c 2033005f 52454144  UBNORMAL 3._READ
 1900 5f575249 54455f42 55465349 5a455f54  _WRITE_BUFSIZE_T
 1910 59504520 696e7400 4c4f4f50 5f554445  YPE int.LOOP_UDE
 1920 4c415920 31303030 3030005f 5f53495a  LAY 100000.__SIZ
 1930 454f465f 444f5542 4c455f5f 2038005f  EOF_DOUBLE__ 8._
 1940 5f494e54 5f4c4541 53543332 5f574944  _INT_LEAST32_WID
 1950 54485f5f 20333200 5f434c4f 434b5f54  TH__ 32._CLOCK_T
 1960 5f20756e 7369676e 6564206c 6f6e6700  _ unsigned long.
 1970 5f54494d 455f545f 205f5f69 6e745f6c  _TIME_T_ __int_l
 1980 65617374 36345f74 005f5f4c 44424c5f  east64_t.__LDBL_
 1990 4d41585f 31305f45 58505f5f 20343933  MAX_10_EXP__ 493
 19a0 32005359 5354454d 5f434f52 45535f30  2.SYSTEM_CORES_0
 19b0 5f434655 20300074 72617000 5f5f7379  _CFU 0.trap.__sy
 19c0 6d5f636f 6d706174 2873796d 2c696d70  m_compat(sym,imp
 19d0 6c2c7665 72696429 205f5f61 736d5f5f  l,verid) __asm__
 19e0 28222e73 796d7665 72202220 23696d70  (".symver " #imp
 19f0 6c20222c 20222023 73796d20 22402220  l ", " #sym "@" 
 1a00 23766572 69642900 5f5f4641 53543136  #verid).__FAST16
 1a10 20005353 54415455 535f5550 49452030   .SSTATUS_UPIE 0
 1a20 78303030 30303031 30005f5f 4c415247  x00000010.__LARG
 1a30 4546494c 455f5649 5349424c 45203000  EFILE_VISIBLE 0.
 1a40 5f5f4445 4336345f 4d41585f 5f20392e  __DEC64_MAX__ 9.
 1a50 39393939 39393939 39393939 39393945  999999999999999E
 1a60 33383444 44005f5f 4e45574c 49425f5f  384DD.__NEWLIB__
 1a70 2033005f 5f726973 63765f64 69762031   3.__riscv_div 1
 1a80 00455849 545f5355 43434553 53203000  .EXIT_SUCCESS 0.
 1a90 5f5f464c 545f4d49 4e5f3130 5f455850  __FLT_MIN_10_EXP
 1aa0 5f5f2028 2d333729 005f5f41 534d4e41  __ (-37).__ASMNA
 1ab0 4d452863 6e616d65 29205f5f 58535452  ME(cname) __XSTR
 1ac0 494e4720 285f5f55 5345525f 4c414245  ING (__USER_LABE
 1ad0 4c5f5052 45464958 5f5f2920 636e616d  L_PREFIX__) cnam
 1ae0 65006d61 74685f65 72726861 6e646c69  e.math_errhandli
 1af0 6e67204d 4154485f 4552524e 4f005f5f  ng MATH_ERRNO.__
 1b00 464c545f 44454349 4d414c5f 4449475f  FLT_DECIMAL_DIG_
 1b10 5f203900 4253505f 4d414348 494e455f  _ 9.BSP_MACHINE_
 1b20 54494d45 525f485a 20535953 54454d5f  TIMER_HZ SYSTEM_
 1b30 434c494e 545f485a 005f756e 75736564  CLINT_HZ._unused
 1b40 5f72616e 64005f55 494e5438 5f545f44  _rand._UINT8_T_D
 1b50 45434c41 52454420 00524443 59434c45  ECLARED .RDCYCLE
 1b60 48203078 43383000 5f5f6173 73657274  H 0xC80.__assert
 1b70 735f6578 636c7573 69766528 2e2e2e29  s_exclusive(...)
 1b80 205f5f6c 6f636b5f 616e6e6f 74617465   __lock_annotate
 1b90 28617373 6572745f 6578636c 75736976  (assert_exclusiv
 1ba0 655f6c6f 636b285f 5f56415f 41524753  e_lock(__VA_ARGS
 1bb0 5f5f2929 00494e54 4d41585f 4d494e20  __)).INTMAX_MIN 
 1bc0 282d494e 544d4158 5f4d4158 202d2031  (-INTMAX_MAX - 1
 1bd0 29005f5f 464c5433 325f4445 4e4f524d  ).__FLT32_DENORM
 1be0 5f4d494e 5f5f2031 2e343031 32393834  _MIN__ 1.4012984
 1bf0 36343332 34383137 30373039 32333732  6432481707092372
 1c00 39353833 32383939 31363133 652d3435  958328991613e-45
 1c10 46333200 5f5f7074 725f7420 766f6964  F32.__ptr_t void
 1c20 202a005f 5f474e55 435f5354 44435f49   *.__GNUC_STDC_I
 1c30 4e4c494e 455f5f20 31005f52 45454e54  NLINE__ 1._REENT
 1c40 5f52414e 4434385f 41444428 70747229  _RAND48_ADD(ptr)
 1c50 20282870 7472292d 3e5f6e65 772e5f72   ((ptr)->_new._r
 1c60 65656e74 2e5f7234 382e5f61 64642900  eent._r48._add).
 1c70 57434841 525f4d49 4e20285f 5f574348  WCHAR_MIN (__WCH
 1c80 41525f4d 494e5f5f 29005f5f 494e5436  AR_MIN__).__INT6
 1c90 345f4328 63292063 20232320 4c4c005f  4_C(c) c ## LL._
 1ca0 5245454e 545f4348 45434b5f 4d495343  REENT_CHECK_MISC
 1cb0 28707472 2920005f 5f464c54 5f484153  (ptr) .__FLT_HAS
 1cc0 5f515549 45545f4e 414e5f5f 2031005f  _QUIET_NAN__ 1._
 1cd0 5f474e55 435f5041 5443484c 4556454c  _GNUC_PATCHLEVEL
 1ce0 5f5f2030 005f5f47 43435f41 544f4d49  __ 0.__GCC_ATOMI
 1cf0 435f4348 41523332 5f545f4c 4f434b5f  C_CHAR32_T_LOCK_
 1d00 46524545 20310069 73756e6f 72646572  FREE 1.isunorder
 1d10 6564285f 5f782c5f 5f792920 285f5f62  ed(__x,__y) (__b
 1d20 75696c74 696e5f69 73756e6f 72646572  uiltin_isunorder
 1d30 65642028 5f5f782c 205f5f79 2929005f  ed (__x, __y))._
 1d40 5f616c6c 6f635f61 6c69676e 28782920  _alloc_align(x) 
 1d50 5f5f6174 74726962 7574655f 5f28285f  __attribute__((_
 1d60 5f616c6c 6f635f61 6c69676e 5f5f2878  _alloc_align__(x
 1d70 29292900 5f574944 455f4f52 49454e54  )))._WIDE_ORIENT
 1d80 2031005f 5f55494e 545f4c45 41535431   1.__UINT_LEAST1
 1d90 365f4d41 585f5f20 30786666 6666005f  6_MAX__ 0xffff._
 1da0 7374646f 7574005f 5f73796d 5f646566  stdout.__sym_def
 1db0 61756c74 2873796d 2c696d70 6c2c7665  ault(sym,impl,ve
 1dc0 72696429 205f5f61 736d5f5f 28222e73  rid) __asm__(".s
 1dd0 796d7665 72202220 23696d70 6c20222c  ymver " #impl ",
 1de0 20222023 73796d20 22404022 20237665   " #sym "@@" #ve
 1df0 72696429 005f5f53 5444435f 56455253  rid).__STDC_VERS
 1e00 494f4e5f 5f203230 31373130 4c005f4d  ION__ 201710L._M
 1e10 425f4c45 4e5f4d41 58203100 5f5f7072  B_LEN_MAX 1.__pr
 1e20 65646963 745f7472 75652865 78702920  edict_true(exp) 
 1e30 5f5f6275 696c7469 6e5f6578 70656374  __builtin_expect
 1e40 28286578 70292c20 3129005f 5f464c54  ((exp), 1).__FLT
 1e50 3332585f 44454e4f 524d5f4d 494e5f5f  32X_DENORM_MIN__
 1e60 20342e39 34303635 36343538 34313234   4.9406564584124
 1e70 36353434 31373635 36383739 32383638  6544176568792868
 1e80 32323133 3732652d 33323446 33327800  221372e-324F32x.
 1e90 6c6f6732 28782920 286c6f67 20287829  log2(x) (log (x)
 1ea0 202f205f 4d5f4c4e 3229005f 5f464c54   / _M_LN2).__FLT
 1eb0 36345f4d 41585f31 305f4558 505f5f20  64_MAX_10_EXP__ 
 1ec0 33303800 4d535441 5455535f 46532030  308.MSTATUS_FS 0
 1ed0 78303030 30363030 30005359 5354454d  x00006000.SYSTEM
 1ee0 5f524953 43565f49 53415f45 58545f5a  _RISCV_ISA_EXT_Z
 1ef0 49435352 2031005f 5f617474 72696275  ICSR 1.__attribu
 1f00 74655f66 6f726d61 745f7374 72666d6f  te_format_strfmo
 1f10 6e5f5f28 612c6229 20005f42 53445f53  n__(a,b) ._BSD_S
 1f20 495a455f 545f4445 46494e45 445f2000  IZE_T_DEFINED_ .
 1f30 5f5f5549 4e545f46 41535433 325f5459  __UINT_FAST32_TY
 1f40 50455f5f 20756e73 69676e65 6420696e  PE__ unsigned in
 1f50 74005f5f 53544443 5f555446 5f33325f  t.__STDC_UTF_32_
 1f60 5f203100 5f5f464c 5436345f 4841535f  _ 1.__FLT64_HAS_
 1f70 51554945 545f4e41 4e5f5f20 31005f5f  QUIET_NAN__ 1.__
 1f80 464c5433 325f4550 53494c4f 4e5f5f20  FLT32_EPSILON__ 
 1f90 312e3139 32303932 38393535 30373831  1.19209289550781
 1fa0 32353030 30303030 30303030 30303030  2500000000000000
 1fb0 30303030 30652d37 46333200 5f5f474e  00000e-7F32.__GN
 1fc0 55434c49 4b455f4d 4154485f 4255494c  UCLIKE_MATH_BUIL
 1fd0 54494e5f 52454c4f 50532000 5f5f464c  TIN_RELOPS .__FL
 1fe0 545f4d41 585f3130 5f455850 5f5f2033  T_MAX_10_EXP__ 3
 1ff0 38005f5f 504d5428 61726773 29206172  8.__PMT(args) ar
 2000 6773005f 5f444543 3132385f 4d41585f  gs.__DEC128_MAX_
 2010 5f20392e 39393939 39393939 39393939  _ 9.999999999999
 2020 39393939 39393939 39393939 39393939  9999999999999999
 2030 39393939 39453631 3434444c 005f5f44  99999E6144DL.__D
 2040 45433132 385f4d41 585f4558 505f5f20  EC128_MAX_EXP__ 
 2050 36313435 005f5359 535f4344 4546535f  6145._SYS_CDEFS_
 2060 485f2000 5f5f666f 726d6174 5f617267  H_ .__format_arg
 2070 28666d74 61726729 205f5f61 74747269  (fmtarg) __attri
 2080 62757465 5f5f2828 5f5f666f 726d6174  bute__((__format
 2090 5f617267 5f5f2028 666d7461 72672929  _arg__ (fmtarg))
 20a0 29005f5f 494e545f 46415354 33325f4d  ).__INT_FAST32_M
 20b0 41585f5f 20307837 66666666 66666600  AX__ 0x7fffffff.
 20c0 5f5f4154 4f4d4943 5f534551 5f435354  __ATOMIC_SEQ_CST
 20d0 20350073 72632f6d 61696e2e 63004253   5.src/main.c.BS
 20e0 505f504c 49432053 59535445 4d5f504c  P_PLIC SYSTEM_PL
 20f0 49435f43 54524c00 53535441 5455535f  IC_CTRL.SSTATUS_
 2100 55584c20 30783030 30303030 30333030  UXL 0x0000000300
 2110 30303030 3030005f 756e7370 65636966  000000._unspecif
 2120 6965645f 6c6f6361 6c655f69 6e666f00  ied_locale_info.
 2130 5f5f6e65 65645f77 696e745f 7400434c  __need_wint_t.CL
 2140 494e545f 54494d45 5f414444 52203078  INT_TIME_ADDR 0x
 2150 42464638 00535953 54454d5f 504c4943  BFF8.SYSTEM_PLIC
 2160 5f535953 54454d5f 5350495f 305f494f  _SYSTEM_SPI_0_IO
 2170 5f494e54 45525255 50542034 00494e54  _INTERRUPT 4.INT
 2180 5f464153 54385f4d 41582028 5f5f494e  _FAST8_MAX (__IN
 2190 545f4641 5354385f 4d41585f 5f290047  T_FAST8_MAX__).G
 21a0 50494f5f 494e5055 54203078 3030005f  PIO_INPUT 0x00._
 21b0 7265656e 74005549 4e544d41 585f4d41  reent.UINTMAX_MA
 21c0 5820285f 5f55494e 544d4158 5f4d4158  X (__UINTMAX_MAX
 21d0 5f5f2900 4d535441 5455535f 4d585220  __).MSTATUS_MXR 
 21e0 30783030 30383030 3030005f 5f627569  0x00080000.__bui
 21f0 6c74696e 5f76615f 6c697374 005f4841  ltin_va_list._HA
 2200 56455f4c 4f4e475f 444f5542 4c452031  VE_LONG_DOUBLE 1
 2210 005f5f69 6e745f66 61737436 345f745f  .__int_fast64_t_
 2220 64656669 6e656420 31005f52 45454e54  defined 1._REENT
 2230 5f454d45 5247454e 43595f53 495a4520  _EMERGENCY_SIZE 
 2240 32350043 4c494e54 5f495049 5f414444  25.CLINT_IPI_ADD
 2250 52203078 30303030 005f5f4c 44424c5f  R 0x0000.__LDBL_
 2260 4d41585f 4558505f 5f203136 33383400  MAX_EXP__ 16384.
 2270 72656164 5265675f 75333228 6e616d65  readReg_u32(name
 2280 2c6f6666 73657429 20737461 74696320  ,offset) static 
 2290 696e6c69 6e652075 3332206e 616d6528  inline u32 name(
 22a0 75333220 72656729 7b207265 7475726e  u32 reg){ return
 22b0 20726561 645f7533 32287265 67202b20   read_u32(reg + 
 22c0 6f666673 6574293b 207d005f 5f53495a  offset); }.__SIZ
 22d0 454f465f 53484f52 545f5f20 32005f5f  EOF_SHORT__ 2.__
 22e0 50287072 6f746f73 29207072 6f746f73  P(protos) protos
 22f0 00434155 53455f53 43414c4c 2039005f  .CAUSE_SCALL 9._
 2300 756e7573 6564005f 5f676e75 635f7661  unused.__gnuc_va
 2310 5f6c6973 74005f5f 464c545f 4d41585f  _list.__FLT_MAX_
 2320 5f20332e 34303238 32333436 36333835  _ 3.402823466385
 2330 32383835 39383131 37303431 38333438  2885981170418348
 2340 34353136 39323565 2b333846 005f5359  4516925e+38F._SY
 2350 535f4645 41545552 45535f48 20005f69  S_FEATURES_H ._i
 2360 6e63005f 4d414348 5354444c 49425f48  nc._MACHSTDLIB_H
 2370 5f20005f 5f44424c 5f444543 494d414c  _ .__DBL_DECIMAL
 2380 5f444947 5f5f2031 37005f5f 474e5543  _DIG__ 17.__GNUC
 2390 4c494b45 5f425549 4c54494e 5f4e4558  LIKE_BUILTIN_NEX
 23a0 545f4152 47203100 5f504f53 49585f20  T_ARG 1._POSIX_ 
 23b0 5f5f6664 6c69626d 5f706f73 6978005f  __fdlibm_posix._
 23c0 5f464c54 3132385f 4d494e5f 5f20332e  _FLT128_MIN__ 3.
 23d0 33363231 30333134 33313132 30393335  3621031431120935
 23e0 30363236 32363737 38313733 32313735  0626267781732175
 23f0 32363065 2d343933 32463132 38006973  260e-4932F128.is
 2400 6c657373 65717561 6c285f5f 782c5f5f  lessequal(__x,__
 2410 79292028 5f5f6275 696c7469 6e5f6973  y) (__builtin_is
 2420 6c657373 65717561 6c20285f 5f782c20  lessequal (__x, 
 2430 5f5f7929 29005f5f 50524147 4d415f52  __y)).__PRAGMA_R
 2440 45444546 494e455f 4558544e 414d4520  EDEFINE_EXTNAME 
 2450 31005f53 54444445 465f485f 20005f49  1._STDDEF_H_ ._I
 2460 4545455f 205f5f66 646c6962 6d5f6965  EEE_ __fdlibm_ie
 2470 65650053 59535445 4d5f5541 52545f30  ee.SYSTEM_UART_0
 2480 5f494f5f 50415241 4d455445 525f5541  _IO_PARAMETER_UA
 2490 52545f43 54524c5f 434f4e46 49475f50  RT_CTRL_CONFIG_P
 24a0 52455f53 414d504c 494e475f 53495a45  RE_SAMPLING_SIZE
 24b0 20310049 4e544d41 585f4328 7829205f   1.INTMAX_C(x) _
 24c0 5f494e54 4d41585f 43287829 00505452  _INTMAX_C(x).PTR
 24d0 44494646 5f4d494e 20282d50 54524449  DIFF_MIN (-PTRDI
 24e0 46465f4d 4158202d 20312900 76615f73  FF_MAX - 1).va_s
 24f0 74617274 28762c6c 29205f5f 6275696c  tart(v,l) __buil
 2500 74696e5f 76615f73 74617274 28762c6c  tin_va_start(v,l
 2510 29004d5f 4c4e3130 20322e33 30323538  ).M_LN10 2.30258
 2520 35303932 39393430 34353638 34303200  509299404568402.
 2530 5f666e73 005f5f57 43484152 5f4d4158  _fns.__WCHAR_MAX
 2540 5f5f2030 78376666 66666666 66005f5f  __ 0x7fffffff.__
 2550 55494e54 5f464153 5436345f 54595045  UINT_FAST64_TYPE
 2560 5f5f206c 6f6e6720 6c6f6e67 20756e73  __ long long uns
 2570 69676e65 6420696e 74005f52 45454e54  igned int._REENT
 2580 5f4d4252 544f5743 5f535441 54452870  _MBRTOWC_STATE(p
 2590 74722920 28287074 72292d3e 5f6e6577  tr) ((ptr)->_new
 25a0 2e5f7265 656e742e 5f6d6272 746f7763  ._reent._mbrtowc
 25b0 5f737461 74652900 5f57494e 545f5420  _state)._WINT_T 
 25c0 005f6d62 72746f77 635f7374 61746500  ._mbrtowc_state.
 25d0 5f5f6c6f 636b5f63 6c6f7365 286c6f63  __lock_close(loc
 25e0 6b292028 28766f69 64292030 29005f63  k) ((void) 0)._c
 25f0 6c6f7365 004d4544 454c4547 5f555345  lose.MEDELEG_USE
 2600 525f454e 5649524f 4e4e454d 454e545f  R_ENVIRONNEMENT_
 2610 43414c4c 20283120 3c3c2038 29007369  CALL (1 << 8).si
 2620 676e6761 6d20282a 5f5f7369 676e6761  gngam (*__signga
 2630 6d282929 0046505f 5a45524f 2032005f  m()).FP_ZERO 2._
 2640 5f424947 47455354 5f414c49 474e4d45  _BIGGEST_ALIGNME
 2650 4e545f5f 20313600 5349475f 41544f4d  NT__ 16.SIG_ATOM
 2660 49435f4d 41582028 5f5f5354 44494e54  IC_MAX (__STDINT
 2670 5f455850 28494e54 5f4d4158 2929005f  _EXP(INT_MAX))._
 2680 5f6e6f69 6e6c696e 65205f5f 61747472  _noinline __attr
 2690 69627574 655f5f20 28285f5f 6e6f696e  ibute__ ((__noin
 26a0 6c696e65 5f5f2929 00636c69 6e745f67  line__)).clint_g
 26b0 65745469 6d654c6f 77006d61 6368696e  etTimeLow.machin
 26c0 6554696d 65725f73 6574436d 7028702c  eTimer_setCmp(p,
 26d0 636d7029 20636c69 6e745f73 6574436d  cmp) clint_setCm
 26e0 7028702c 20636d70 2c203029 3b005f5f  p(p, cmp, 0);.__
 26f0 44454333 325f4d49 4e5f4558 505f5f20  DEC32_MIN_EXP__ 
 2700 282d3934 29004750 494f5f4f 55545055  (-94).GPIO_OUTPU
 2710 54203078 30340053 59535445 4d5f4932  T 0x04.SYSTEM_I2
 2720 435f315f 494f5f43 54524c5f 53495a45  C_1_IO_CTRL_SIZE
 2730 20307831 3030005f 5f776561 6b5f7379   0x100.__weak_sy
 2740 6d626f6c 205f5f61 74747269 62757465  mbol __attribute
 2750 5f5f2828 5f5f7765 616b5f5f 29290053  __((__weak__)).S
 2760 59535445 4d5f5350 495f305f 494f5f43  YSTEM_SPI_0_IO_C
 2770 54524c5f 53495a45 20307831 30303000  TRL_SIZE 0x1000.
 2780 5f5f7573 6564205f 5f617474 72696275  __used __attribu
 2790 74655f5f 28285f5f 75736564 5f5f2929  te__((__used__))
 27a0 005f5f67 656e6572 69632865 7870722c  .__generic(expr,
 27b0 742c7965 732c6e6f 29205f47 656e6572  t,yes,no) _Gener
 27c0 69632865 7870722c 20743a20 7965732c  ic(expr, t: yes,
 27d0 20646566 61756c74 3a206e6f 29005f52   default: no)._R
 27e0 45454e54 5f454d45 5247454e 43592870  EENT_EMERGENCY(p
 27f0 74722920 28287074 72292d3e 5f656d65  tr) ((ptr)->_eme
 2800 7267656e 63792900 53595354 454d5f55  rgency).SYSTEM_U
 2810 4152545f 305f494f 5f504152 414d4554  ART_0_IO_PARAMET
 2820 45525f49 4e49545f 434f4e46 49475f53  ER_INIT_CONFIG_S
 2830 544f5020 4f4e4500 5f5f5549 4e54385f  TOP ONE.__UINT8_
 2840 4d41585f 5f203078 6666005f 5f5f696e  MAX__ 0xff.___in
 2850 7431365f 745f6465 66696e65 64203100  t16_t_defined 1.
 2860 5f5f464c 545f4550 53494c4f 4e5f5f20  __FLT_EPSILON__ 
 2870 312e3139 32303932 38393535 30373831  1.19209289550781
 2880 32353030 30303030 30303030 30303030  2500000000000000
 2890 30303030 30652d37 46004249 545f3231  00000e-7F.BIT_21
 28a0 20283120 3c3c2032 31290062 73705f75   (1 << 21).bsp_u
 28b0 44656c61 79287573 65632920 636c696e  Delay(usec) clin
 28c0 745f7544 656c6179 28757365 632c2053  t_uDelay(usec, S
 28d0 59535445 4d5f434c 494e545f 485a2c20  YSTEM_CLINT_HZ, 
 28e0 53595354 454d5f43 4c494e54 5f435452  SYSTEM_CLINT_CTR
 28f0 4c293b00 5f737464 696e005f 5f444543  L);._stdin.__DEC
 2900 494d414c 5f444947 5f5f2033 36006770  IMAL_DIG__ 36.gp
 2910 696f5f67 65744f75 74707574 005f5f44  io_getOutput.__D
 2920 424c5f48 41535f44 454e4f52 4d5f5f20  BL_HAS_DENORM__ 
 2930 31006d61 6368696e 6554696d 65725f75  1.machineTimer_u
 2940 44656c61 79287573 65632c68 7a2c7265  Delay(usec,hz,re
 2950 67292063 6c696e74 5f754465 6c617928  g) clint_uDelay(
 2960 75736563 2c20687a 2c207265 67293b00  usec, hz, reg);.
 2970 5f5f4343 5f535550 504f5254 535f5f5f  __CC_SUPPORTS___
 2980 494e4c49 4e452031 00657874 65726e61  INLINE 1.externa
 2990 6c496e74 65727275 70740049 4e544d41  lInterrupt.INTMA
 29a0 585f4d41 5820285f 5f494e54 4d41585f  X_MAX (__INTMAX_
 29b0 4d41585f 5f290049 4e543332 5f4d4158  MAX__).INT32_MAX
 29c0 20285f5f 494e5433 325f4d41 585f5f29   (__INT32_MAX__)
 29d0 00677069 6f5f7365 744f7574 70757445  .gpio_setOutputE
 29e0 6e61626c 65005359 5354454d 5f524953  nable.SYSTEM_RIS
 29f0 43565f49 53415f45 58545f46 2030005f  CV_ISA_EXT_F 0._
 2a00 545f5054 52444946 465f2000 5f5f6174  T_PTRDIFF_ .__at
 2a10 74726962 7574655f 6d616c6c 6f635f5f  tribute_malloc__
 2a20 20004249 545f3232 20283120 3c3c2032   .BIT_22 (1 << 2
 2a30 3229005f 5f464c54 3132385f 4d41585f  2).__FLT128_MAX_
 2a40 4558505f 5f203136 33383400 5f5f4c45  EXP__ 16384.__LE
 2a50 41535438 20226868 22005f5f 6e656564  AST8 "hh".__need
 2a60 5f73697a 655f7420 00534f43 5f482000  _size_t .SOC_H .
 2a70 5f5f7265 7475726e 735f7477 69636520  __returns_twice 
 2a80 5f5f6174 74726962 7574655f 5f28285f  __attribute__((_
 2a90 5f726574 75726e73 5f747769 63655f5f  _returns_twice__
 2aa0 29290053 59535445 4d5f5541 52545f30  )).SYSTEM_UART_0
 2ab0 5f494f5f 50415241 4d455445 525f5541  _IO_PARAMETER_UA
 2ac0 52545f43 54524c5f 434f4e46 49475f53  RT_CTRL_CONFIG_S
 2ad0 414d504c 494e475f 53495a45 2035005f  AMPLING_SIZE 5._
 2ae0 454e445f 5354445f 43200069 736e616e  END_STD_C .isnan
 2af0 285f5f78 2920285f 5f627569 6c74696e  (__x) (__builtin
 2b00 5f69736e 616e2028 5f5f7829 2900504d  _isnan (__x)).PM
 2b10 505f5720 30783032 005f5f68 61735f69  P_W 0x02.__has_i
 2b20 6e636c75 64655f6e 65787428 53545229  nclude_next(STR)
 2b30 205f5f68 61735f69 6e636c75 64655f6e   __has_include_n
 2b40 6578745f 5f285354 52290045 5849545f  ext__(STR).EXIT_
 2b50 4641494c 55524520 31005549 4e545f4c  FAILURE 1.UINT_L
 2b60 45415354 31365f4d 41582028 5f5f5549  EAST16_MAX (__UI
 2b70 4e545f4c 45415354 31365f4d 41585f5f  NT_LEAST16_MAX__
 2b80 29005f5f 55494e54 33325f43 28632920  ).__UINT32_C(c) 
 2b90 63202323 20554c00 5f5f7374 72667469  c ## UL.__strfti
 2ba0 6d656c69 6b652866 6d746172 672c6669  melike(fmtarg,fi
 2bb0 72737476 61726172 6729205f 5f617474  rstvararg) __att
 2bc0 72696275 74655f5f 28285f5f 666f726d  ribute__((__form
 2bd0 61745f5f 20285f5f 73747266 74696d65  at__ (__strftime
 2be0 5f5f2c20 666d7461 72672c20 66697273  __, fmtarg, firs
 2bf0 74766172 61726729 2929005f 4e756c6c  tvararg)))._Null
 2c00 5f756e73 70656369 66696564 20004249  _unspecified .BI
 2c10 545f3233 20283120 3c3c2032 3329005f  T_23 (1 << 23)._
 2c20 5f474343 5f41544f 4d49435f 53484f52  _GCC_ATOMIC_SHOR
 2c30 545f4c4f 434b5f46 52454520 31005f57  T_LOCK_FREE 1._W
 2c40 43484152 5f545f44 4546494e 45445f20  CHAR_T_DEFINED_ 
 2c50 00425350 5f4d4143 48494e45 5f54494d  .BSP_MACHINE_TIM
 2c60 45522053 59535445 4d5f434c 494e545f  ER SYSTEM_CLINT_
 2c70 4354524c 0046505f 494c4f47 424e414e  CTRL.FP_ILOGBNAN
 2c80 205f5f49 4e545f4d 41585f5f 00485547   __INT_MAX__.HUG
 2c90 455f5641 4c4c2028 5f5f6275 696c7469  E_VALL (__builti
 2ca0 6e5f6875 67655f76 616c6c28 2929004d  n_huge_vall()).M
 2cb0 5f4c4f47 32452031 2e343432 36393530  _LOG2E 1.4426950
 2cc0 34303838 38393633 34303734 00424954  408889634074.BIT
 2cd0 5f332028 31203c3c 20332900 4249545f  _3 (1 << 3).BIT_
 2ce0 31302028 31203c3c 20313029 00494e54  10 (1 << 10).INT
 2cf0 5f4c4541 53543332 5f4d4158 20285f5f  _LEAST32_MAX (__
 2d00 494e545f 4c454153 5433325f 4d41585f  INT_LEAST32_MAX_
 2d10 5f29005f 6c6f6361 6c650049 4e545f4c  _)._locale.INT_L
 2d20 45415354 33325f4d 494e2028 2d5f5f49  EAST32_MIN (-__I
 2d30 4e545f4c 45415354 33325f4d 41585f5f  NT_LEAST32_MAX__
 2d40 202d2031 29005541 52545f46 52414d45   - 1).UART_FRAME
 2d50 5f434f4e 46494720 30783043 00424954  _CONFIG 0x0C.BIT
 2d60 5f323420 2831203c 3c203234 29006373  _24 (1 << 24).cs
 2d70 725f636c 65617228 6373722c 76616c29  r_clear(csr,val)
 2d80 20287b20 756e7369 676e6564 206c6f6e   ({ unsigned lon
 2d90 67205f5f 76203d20 28756e73 69676e65  g __v = (unsigne
 2da0 64206c6f 6e672928 76616c29 3b205f5f  d long)(val); __
 2db0 61736d5f 5f205f5f 766f6c61 74696c65  asm__ __volatile
 2dc0 5f5f2028 22637372 63202220 23637372  __ ("csrc " #csr
 2dd0 20222c20 25302220 3a203a20 22724b22   ", %0" : : "rK"
 2de0 20285f5f 7629293b 207d2900 6373725f   (__v)); }).csr_
 2df0 72656164 5f736574 28637372 2c76616c  read_set(csr,val
 2e00 2920287b 20756e73 69676e65 64206c6f  ) ({ unsigned lo
 2e10 6e67205f 5f76203d 2028756e 7369676e  ng __v = (unsign
 2e20 6564206c 6f6e6729 2876616c 293b205f  ed long)(val); _
 2e30 5f61736d 5f5f205f 5f766f6c 6174696c  _asm__ __volatil
 2e40 655f5f20 28226373 72727320 25302c20  e__ ("csrrs %0, 
 2e50 22202363 73722022 2c202531 22203a20  " #csr ", %1" : 
 2e60 223d7222 20285f5f 7629203a 2022724b  "=r" (__v) : "rK
 2e70 2220285f 5f762929 3b205f5f 763b207d  " (__v)); __v; }
 2e80 29005f5f 4743435f 41544f4d 49435f54  ).__GCC_ATOMIC_T
 2e90 4553545f 414e445f 5345545f 54525545  EST_AND_SET_TRUE
 2ea0 56414c20 3100636c 696e745f 7544656c  VAL 1.clint_uDel
 2eb0 61790045 4e41424c 455f4650 5f455850  ay.ENABLE_FP_EXP
 2ec0 4f4e454e 5449414c 5f535550 504f5254  ONENTIAL_SUPPORT
 2ed0 2030005f 5f4d4953 435f5649 5349424c   0.__MISC_VISIBL
 2ee0 45203100 5f56415f 4c495354 5f444546  E 1._VA_LIST_DEF
 2ef0 494e4544 20005f5f 57434841 525f4d49  INED .__WCHAR_MI
 2f00 4e5f5f20 282d5f5f 57434841 525f4d41  N__ (-__WCHAR_MA
 2f10 585f5f20 2d203129 005f5f46 4c543332  X__ - 1).__FLT32
 2f20 5f484153 5f515549 45545f4e 414e5f5f  _HAS_QUIET_NAN__
 2f30 2031005f 5f4f4253 4f4c4554 455f4d41   1.__OBSOLETE_MA
 2f40 5448205f 5f4f4253 4f4c4554 455f4d41  TH __OBSOLETE_MA
 2f50 54485f44 45464155 4c54004d 5f4c4e32  TH_DEFAULT.M_LN2
 2f60 4c4f2031 2e393038 32313439 32393237  LO 1.90821492927
 2f70 30353837 37303030 452d3130 005f5f61  05877000E-10.__a
 2f80 6c6c6f63 5f73697a 6532286e 2c782920  lloc_size2(n,x) 
 2f90 5f5f6174 74726962 7574655f 5f28285f  __attribute__((_
 2fa0 5f616c6c 6f635f73 697a655f 5f286e2c  _alloc_size__(n,
 2fb0 20782929 29004249 545f3237 20283120   x))).BIT_27 (1 
 2fc0 3c3c2032 3729006c 696d6974 005f5f44  << 27).limit.__D
 2fd0 45433332 5f4d4158 5f5f2039 2e393939  EC32_MAX__ 9.999
 2fe0 39393945 39364446 005f5f46 4c543332  999E96DF.__FLT32
 2ff0 585f4d41 585f3130 5f455850 5f5f2033  X_MAX_10_EXP__ 3
 3000 30380050 4d505f54 4f522030 78303800  08.PMP_TOR 0x08.
 3010 53595354 454d5f55 4152545f 305f494f  SYSTEM_UART_0_IO
 3020 5f504152 414d4554 45525f42 55535f43  _PARAMETER_BUS_C
 3030 414e5f57 52495445 5f465241 4d455f43  AN_WRITE_FRAME_C
 3040 4f4e4649 47203100 5f5f6465 61643220  ONFIG 1.__dead2 
 3050 5f5f6174 74726962 7574655f 5f28285f  __attribute__((_
 3060 5f6e6f72 65747572 6e5f5f29 29005f5f  _noreturn__)).__
 3070 6f666673 65746f66 28747970 652c6669  offsetof(type,fi
 3080 656c6429 206f6666 7365746f 66287479  eld) offsetof(ty
 3090 70652c20 6669656c 64290055 53455f47  pe, field).USE_G
 30a0 50203100 5f5f5349 475f4154 4f4d4943  P 1.__SIG_ATOMIC
 30b0 5f4d494e 5f5f2028 2d5f5f53 49475f41  _MIN__ (-__SIG_A
 30c0 544f4d49 435f4d41 585f5f20 2d203129  TOMIC_MAX__ - 1)
 30d0 00535953 54454d5f 42524944 47455f42  .SYSTEM_BRIDGE_B
 30e0 4d422030 78300053 59535445 4d5f504c  MB 0x0.SYSTEM_PL
 30f0 49435f53 59535445 4d5f5541 52545f30  IC_SYSTEM_UART_0
 3100 5f494f5f 494e5445 52525550 54203100  _IO_INTERRUPT 1.
 3110 5f5f5549 4e545f4c 45415354 385f4d41  __UINT_LEAST8_MA
 3120 585f5f20 30786666 005f5f47 43435f41  X__ 0xff.__GCC_A
 3130 544f4d49 435f4c4f 4e475f4c 4f434b5f  TOMIC_LONG_LOCK_
 3140 46524545 2031005f 5f444543 36345f4d  FREE 1.__DEC64_M
 3150 494e5f45 58505f5f 20282d33 38322900  IN_EXP__ (-382).
 3160 4d535441 5455535f 53554d20 30783030  MSTATUS_SUM 0x00
 3170 30343030 30300062 75666665 72005f5f  040000.buffer.__
 3180 464c5436 34585f48 41535f49 4e46494e  FLT64X_HAS_INFIN
 3190 4954595f 5f203100 53595354 454d5f49  ITY__ 1.SYSTEM_I
 31a0 32435f31 5f494f5f 4354524c 20307866  2C_1_IO_CTRL 0xf
 31b0 38303137 30303000 5349475f 41544f4d  8017000.SIG_ATOM
 31c0 49435f4d 494e2028 2d5f5f53 5444494e  IC_MIN (-__STDIN
 31d0 545f4558 5028494e 545f4d41 5829202d  T_EXP(INT_MAX) -
 31e0 20312900 5f636f6f 6b696500 5f5f4442   1)._cookie.__DB
 31f0 4c5f4d41 585f5f20 2828646f 75626c65  L_MAX__ ((double
 3200 29312e37 39373639 33313334 38363233  )1.7976931348623
 3210 31353730 38313435 32373432 33373331  1570814527423731
 3220 37303433 3537652b 3330384c 29005f49  704357e+308L)._I
 3230 4e543136 5f545f44 45434c41 52454420  NT16_T_DECLARED 
 3240 00696e73 74727563 74696f6e 5f636163  .instruction_cac
 3250 68655f69 6e76616c 69646174 65282920  he_invalidate() 
 3260 61736d28 2266656e 63652e69 22293b00  asm("fence.i");.
 3270 4249545f 31342028 31203c3c 20313429  BIT_14 (1 << 14)
 3280 005f5741 4e545f49 4f5f4c4f 4e475f44  ._WANT_IO_LONG_D
 3290 4f55424c 45203100 5f776473 004e414e  OUBLE 1._wds.NAN
 32a0 20285f5f 6275696c 74696e5f 6e616e66   (__builtin_nanf
 32b0 28222229 29005f5f 494e545f 4c454153  ("")).__INT_LEAS
 32c0 5431365f 57494454 485f5f20 31360053  T16_WIDTH__ 16.S
 32d0 59535445 4d5f5541 52545f30 5f494f5f  YSTEM_UART_0_IO_
 32e0 50415241 4d455445 525f4255 535f4341  PARAMETER_BUS_CA
 32f0 4e5f5752 4954455f 434c4f43 4b5f4449  N_WRITE_CLOCK_DI
 3300 56494445 525f434f 4e464947 2031005f  VIDER_CONFIG 1._
 3310 41544558 49545f49 4e495420 7b5f4e55  ATEXIT_INIT {_NU
 3320 4c4c2c20 302c207b 5f4e554c 4c7d2c20  LL, 0, {_NULL}, 
 3330 7b7b5f4e 554c4c7d 2c207b5f 4e554c4c  {{_NULL}, {_NULL
 3340 7d2c2030 2c20307d 7d005f73 69675f66  }, 0, 0}}._sig_f
 3350 756e6300 5f5f4445 4336345f 5355424e  unc.__DEC64_SUBN
 3360 4f524d41 4c5f4d49 4e5f5f20 302e3030  ORMAL_MIN__ 0.00
 3370 30303030 30303030 30303030 31452d33  0000000000001E-3
 3380 38334444 00535953 54454d5f 434f5245  83DD.SYSTEM_CORE
 3390 535f305f 53555045 52564953 4f522030  S_0_SUPERVISOR 0
 33a0 00667063 6c617373 69667928 5f5f7829  .fpclassify(__x)
 33b0 20285f5f 6275696c 74696e5f 6670636c   (__builtin_fpcl
 33c0 61737369 66792028 46505f4e 414e2c20  assify (FP_NAN, 
 33d0 46505f49 4e46494e 4954452c 2046505f  FP_INFINITE, FP_
 33e0 4e4f524d 414c2c20 46505f53 55424e4f  NORMAL, FP_SUBNO
 33f0 524d414c 2c204650 5f5a4552 4f2c205f  RMAL, FP_ZERO, _
 3400 5f782929 005f5f5f 696e745f 6c656173  _x)).___int_leas
 3410 7433325f 745f6465 66696e65 64203100  t32_t_defined 1.
 3420 53535441 5455535f 53494520 30783030  SSTATUS_SIE 0x00
 3430 30303030 3032005f 6f666673 65740042  000002._offset.B
 3440 49545f31 37202831 203c3c20 31372900  IT_17 (1 << 17).
 3450 4d535441 5455535f 53504945 20307830  MSTATUS_SPIE 0x0
 3460 30303030 30323000 5f637674 62756600  0000020._cvtbuf.
 3470 5f5f5553 45525f4c 4142454c 5f505245  __USER_LABEL_PRE
 3480 4649585f 5f20005f 5f55494e 5436345f  FIX__ .__UINT64_
 3490 4d41585f 5f203078 66666666 66666666  MAX__ 0xffffffff
 34a0 66666666 66666666 554c4c00 5f696f62  ffffffffULL._iob
 34b0 73005549 4e543332 5f432878 29205f5f  s.UINT32_C(x) __
 34c0 55494e54 33325f43 28782900 5f415446  UINT32_C(x)._ATF
 34d0 494c455f 534f5552 43450049 4e545f46  ILE_SOURCE.INT_F
 34e0 41535431 365f4d49 4e20282d 5f5f494e  AST16_MIN (-__IN
 34f0 545f4641 53543136 5f4d4158 5f5f202d  T_FAST16_MAX__ -
 3500 20312900 5f524545 4e545f4d 424c454e   1)._REENT_MBLEN
 3510 5f535441 54452870 74722920 28287074  _STATE(ptr) ((pt
 3520 72292d3e 5f6e6577 2e5f7265 656e742e  r)->_new._reent.
 3530 5f6d626c 656e5f73 74617465 29005f5f  _mblen_state).__
 3540 7472796c 6f636b73 5f736861 72656428  trylocks_shared(
 3550 2e2e2e29 205f5f6c 6f636b5f 616e6e6f  ...) __lock_anno
 3560 74617465 28736861 7265645f 7472796c  tate(shared_tryl
 3570 6f636b5f 66756e63 74696f6e 285f5f56  ock_function(__V
 3580 415f4152 47535f5f 2929005f 5f494e54  A_ARGS__)).__INT
 3590 5f4c4541 5354385f 4d41585f 5f203078  _LEAST8_MAX__ 0x
 35a0 3766005f 5f4e4557 4c49425f 485f5f20  7f.__NEWLIB_H__ 
 35b0 3100494e 5433325f 4d494e20 282d5f5f  1.INT32_MIN (-__
 35c0 494e5433 325f4d41 585f5f20 2d203129  INT32_MAX__ - 1)
 35d0 00697366 696e6974 65285f5f 78292028  .isfinite(__x) (
 35e0 5f5f6275 696c7469 6e5f6973 66696e69  __builtin_isfini
 35f0 74652028 5f5f7829 29004249 545f3138  te (__x)).BIT_18
 3600 20283120 3c3c2031 38290075 6e736967   (1 << 18).unsig
 3610 6e656420 7369676e 6564004d 5f494e56  ned signed.M_INV
 3620 4c4e3220 312e3434 32363935 30343038  LN2 1.4426950408
 3630 38383936 33333837 30453000 53535441  889633870E0.SSTA
 3640 5455535f 53505020 30783030 30303031  TUS_SPP 0x000001
 3650 3030005f 494e5450 54525f45 515f494e  00._INTPTR_EQ_IN
 3660 5420005f 5f464c54 3332585f 4d41585f  T .__FLT32X_MAX_
 3670 4558505f 5f203130 3234005f 5f686173  EXP__ 1024.__has
 3680 5f696e63 6c756465 28535452 29205f5f  _include(STR) __
 3690 6861735f 696e636c 7564655f 5f285354  has_include__(ST
 36a0 52290063 6f6e6669 674d5449 4d45434d  R).configMTIMECM
 36b0 505f4241 53455f41 44445245 53532028  P_BASE_ADDRESS (
 36c0 4253505f 434c494e 54202b20 30783430  BSP_CLINT + 0x40
 36d0 30302900 5f5f5549 4e545f4c 45415354  00).__UINT_LEAST
 36e0 33325f4d 41585f5f 20307866 66666666  32_MAX__ 0xfffff
 36f0 66666655 4c00454e 41424c45 5f464c4f  fffUL.ENABLE_FLO
 3700 4154494e 475f504f 494e545f 53555050  ATING_POINT_SUPP
 3710 4f525420 53595354 454d5f43 4f524553  ORT SYSTEM_CORES
 3720 5f305f46 50550053 59535445 4d5f5241  _0_FPU.SYSTEM_RA
 3730 4d5f415f 4354524c 20307866 39303030  M_A_CTRL 0xf9000
 3740 30303000 5f5f7365 6374696f 6e287829  000.__section(x)
 3750 205f5f61 74747269 62757465 5f5f2828   __attribute__((
 3760 5f5f7365 6374696f 6e5f5f28 78292929  __section__(x)))
 3770 004d5354 41545553 5f53584c 20307830  .MSTATUS_SXL 0x0
 3780 30303030 30304330 30303030 30303000  000000C00000000.
 3790 5f5f494e 545f4c45 41535436 345f5749  __INT_LEAST64_WI
 37a0 4454485f 5f203634 005f5f46 4c545f48  DTH__ 64.__FLT_H
 37b0 41535f49 4e46494e 4954595f 5f203100  AS_INFINITY__ 1.
 37c0 77726974 65526567 5f753332 286e616d  writeReg_u32(nam
 37d0 652c6f66 66736574 29207374 61746963  e,offset) static
 37e0 20696e6c 696e6520 766f6964 206e616d   inline void nam
 37f0 65287533 32207265 672c2075 33322076  e(u32 reg, u32 v
 3800 616c7565 297b2077 72697465 5f753332  alue){ write_u32
 3810 2876616c 75652c20 72656720 2b206f66  (value, reg + of
 3820 66736574 293b207d 005f5f49 4e54385f  fset); }.__INT8_
 3830 4d41585f 5f203078 3766005f 5f474343  MAX__ 0x7f.__GCC
 3840 5f484156 455f4457 41524632 5f434649  _HAVE_DWARF2_CFI
 3850 5f41534d 2031005f 5f5f696e 74385f74  _ASM 1.___int8_t
 3860 5f646566 696e6564 2031005f 70357300  _defined 1._p5s.
 3870 5f5f4743 435f4945 435f3535 395f434f  __GCC_IEC_559_CO
 3880 4d504c45 58203000 5f535953 5f5f5459  MPLEX 0._SYS__TY
 3890 5045535f 4820005f 5f474e55 435f5f20  PES_H .__GNUC__ 
 38a0 38005f5f 55494e54 31365f54 5950455f  8.__UINT16_TYPE_
 38b0 5f207368 6f727420 756e7369 676e6564  _ short unsigned
 38c0 20696e74 005f504f 5349585f 534f5552   int._POSIX_SOUR
 38d0 43450052 414e445f 4d415820 5f5f5241  CE.RAND_MAX __RA
 38e0 4e445f4d 41580053 59535445 4d5f4932  ND_MAX.SYSTEM_I2
 38f0 435f305f 494f5f43 54524c20 30786638  C_0_IO_CTRL 0xf8
 3900 30313630 3030005f 5f4c4442 4c5f4445  016000.__LDBL_DE
 3910 43494d41 4c5f4449 475f5f20 3336005f  CIMAL_DIG__ 36._
 3920 5f464c54 3634585f 4d494e5f 31305f45  _FLT64X_MIN_10_E
 3930 58505f5f 20282d34 39333129 005f5f55  XP__ (-4931).__U
 3940 494e5433 325f4d41 585f5f20 30786666  INT32_MAX__ 0xff
 3950 66666666 6666554c 005f5f73 64696469  ffffffUL.__sdidi
 3960 6e697400 5f5f4445 4333325f 4d41585f  nit.__DEC32_MAX_
 3970 4558505f 5f203937 005f545f 53495a45  EXP__ 97._T_SIZE
 3980 5f20005f 5f464c54 5f455641 4c5f4d45  _ .__FLT_EVAL_ME
 3990 54484f44 5f54535f 31383636 315f335f  THOD_TS_18661_3_
 39a0 5f203000 74617267 65740069 6e74202b  _ 0.target.int +
 39b0 32006770 696f5f73 6574496e 74657272  2.gpio_setInterr
 39c0 75707452 69736545 6e61626c 6500494e  uptRiseEnable.IN
 39d0 54385f43 28782920 5f5f494e 54385f43  T8_C(x) __INT8_C
 39e0 28782900 5f5f6c6f 636b5f61 63717569  (x).__lock_acqui
 39f0 72655f72 65637572 73697665 286c6f63  re_recursive(loc
 3a00 6b292028 28766f69 64292030 29005f5f  k) ((void) 0).__
 3a10 72657374 72696374 20726573 74726963  restrict restric
 3a20 74005f5f 55494e54 5f464153 54385f54  t.__UINT_FAST8_T
 3a30 5950455f 5f20756e 7369676e 65642069  YPE__ unsigned i
 3a40 6e740050 4d505f4e 41504f54 20307831  nt.PMP_NAPOT 0x1
 3a50 38005359 5354454d 5f434f52 45535f30  8.SYSTEM_CORES_0
 3a60 5f4d4d55 2030005f 4c49425f 56455253  _MMU 0._LIB_VERS
 3a70 494f4e20 5f5f6664 6c69625f 76657273  ION __fdlib_vers
 3a80 696f6e00 5f5f7265 71756972 65735f75  ion.__requires_u
 3a90 6e6c6f63 6b656428 2e2e2e29 205f5f6c  nlocked(...) __l
 3aa0 6f636b5f 616e6e6f 74617465 286c6f63  ock_annotate(loc
 3ab0 6b735f65 78636c75 64656428 5f5f5641  ks_excluded(__VA
 3ac0 5f415247 535f5f29 2900454e 41424c45  _ARGS__)).ENABLE
 3ad0 5f53454d 49484f53 54494e47 5f505249  _SEMIHOSTING_PRI
 3ae0 4e542030 005f5f49 4e543332 5f4d4158  NT 0.__INT32_MAX
 3af0 5f5f2030 78376666 66666666 664c005f  __ 0x7fffffffL._
 3b00 5f6d696e 5f73697a 65287829 20737461  _min_size(x) sta
 3b10 74696320 28782900 5f54494d 45525f54  tic (x)._TIMER_T
 3b20 5f20756e 7369676e 6564206c 6f6e6700  _ unsigned long.
 3b30 5f4c4f43 4b5f5245 43555253 4956455f  _LOCK_RECURSIVE_
 3b40 54005f5f 494e545f 4c454153 5436345f  T.__INT_LEAST64_
 3b50 4d41585f 5f203078 37666666 66666666  MAX__ 0x7fffffff
 3b60 66666666 66666666 4c4c005f 5f6e756c  ffffffffLL.__nul
 3b70 6c5f7365 6e74696e 656c205f 5f617474  l_sentinel __att
 3b80 72696275 74655f5f 28285f5f 73656e74  ribute__((__sent
 3b90 696e656c 5f5f2929 005f5f6e 6565645f  inel__)).__need_
 3ba0 4e554c4c 20004249 545f3920 2831203c  NULL .BIT_9 (1 <
 3bb0 3c203929 005f4445 4641554c 545f534f  < 9)._DEFAULT_SO
 3bc0 55524345 2031005f 5f464c54 33325f4d  URCE 1.__FLT32_M
 3bd0 414e545f 4449475f 5f203234 006f6666  ANT_DIG__ 24.off
 3be0 7365746f 66285459 50452c4d 454d4245  setof(TYPE,MEMBE
 3bf0 5229205f 5f627569 6c74696e 5f6f6666  R) __builtin_off
 3c00 7365746f 66202854 5950452c 204d454d  setof (TYPE, MEM
 3c10 42455229 005f5f55 494e5436 345f4328  BER).__UINT64_C(
 3c20 63292063 20232320 554c4c00 5f5f5549  c) c ## ULL.__UI
 3c30 4e545f4c 45415354 36345f54 5950455f  NT_LEAST64_TYPE_
 3c40 5f206c6f 6e67206c 6f6e6720 756e7369  _ long long unsi
 3c50 676e6564 20696e74 004d4154 485f4552  gned int.MATH_ER
 3c60 524e4f20 31005f5f 464c5436 34585f4d  RNO 1.__FLT64X_M
 3c70 414e545f 4449475f 5f203131 33005f57  ANT_DIG__ 113._W
 3c80 43484152 5f545f44 4546494e 45442000  CHAR_T_DEFINED .
 3c90 5f5f4743 435f4154 4f4d4943 5f434841  __GCC_ATOMIC_CHA
 3ca0 5231365f 545f4c4f 434b5f46 52454520  R16_T_LOCK_FREE 
 3cb0 31006373 725f7772 69746528 6373722c  1.csr_write(csr,
 3cc0 76616c29 20287b20 756e7369 676e6564  val) ({ unsigned
 3cd0 206c6f6e 67205f5f 76203d20 28756e73   long __v = (uns
 3ce0 69676e65 64206c6f 6e672928 76616c29  igned long)(val)
 3cf0 3b205f5f 61736d5f 5f205f5f 766f6c61  ; __asm__ __vola
 3d00 74696c65 5f5f2028 22637372 77202220  tile__ ("csrw " 
 3d10 23637372 20222c20 25302220 3a203a20  #csr ", %0" : : 
 3d20 22724b22 20285f5f 7629293b 207d2900  "rK" (__v)); }).
 3d30 4d535441 5455535f 48505020 30783030  MSTATUS_HPP 0x00
 3d40 30303036 3030005f 5f4e554c 4c414249  000600.__NULLABI
 3d50 4c495459 5f505241 474d415f 50555348  LITY_PRAGMA_PUSH
 3d60 20005f73 69676e61 6c5f6275 66005f5f   ._signal_buf.__
 3d70 44424c5f 4d41585f 4558505f 5f203130  DBL_MAX_EXP__ 10
 3d80 3234005f 5f464153 54363420 226c6c22  24.__FAST64 "ll"
 3d90 005f5f41 544f4d49 435f5245 4c454153  .__ATOMIC_RELEAS
 3da0 45203300 756e7369 676e6564 202b3000  E 3.unsigned +0.
 3db0 5f5f464c 54333258 5f484153 5f44454e  __FLT32X_HAS_DEN
 3dc0 4f524d5f 5f203100 5f5f464c 545f4d41  ORM__ 1.__FLT_MA
 3dd0 4e545f44 49475f5f 20323400 5f52414e  NT_DIG__ 24._RAN
 3de0 4434385f 53454544 5f312028 30786162  D48_SEED_1 (0xab
 3df0 63642900 5f5f494e 545f4641 53543332  cd).__INT_FAST32
 3e00 5f545950 455f5f20 696e7400 5f535444  _TYPE__ int._STD
 3e10 4152475f 4820005f 5f5f696e 745f7074  ARG_H .___int_pt
 3e20 72646966 665f745f 6820005f 5f4f5054  rdiff_t_h .__OPT
 3e30 494d495a 455f5f20 31004d45 44454c45  IMIZE__ 1.MEDELE
 3e40 475f4c4f 41445f50 4147455f 4641554c  G_LOAD_PAGE_FAUL
 3e50 54202831 203c3c20 31332900 5f494e54  T (1 << 13)._INT
 3e60 33325f54 5f444543 4c415245 4420005f  32_T_DECLARED ._
 3e70 42696769 6e74005f 5f464c54 36345f4d  Bigint.__FLT64_M
 3e80 494e5f5f 20322e32 32353037 33383538  IN__ 2.225073858
 3e90 35303732 30313338 33303930 32333237  5072013830902327
 3ea0 31373333 32343034 3036652d 33303846  1733240406e-308F
 3eb0 3634005f 5f696e74 3230202b 32005f5f  64.__int20 +2.__
 3ec0 494e5436 345f4d41 585f5f20 30783766  INT64_MAX__ 0x7f
 3ed0 66666666 66666666 66666666 66664c4c  ffffffffffffffLL
 3ee0 00454e41 424c455f 4253505f 5052494e  .ENABLE_BSP_PRIN
 3ef0 54462031 005f5f49 4e545054 525f5459  TF 1.__INTPTR_TY
 3f00 50455f5f 20696e74 005f5f46 4c543332  PE__ int.__FLT32
 3f10 585f4d49 4e5f3130 5f455850 5f5f2028  X_MIN_10_EXP__ (
 3f20 2d333037 29006973 6e6f726d 616c285f  -307).isnormal(_
 3f30 5f782920 285f5f62 75696c74 696e5f69  _x) (__builtin_i
 3f40 736e6f72 6d616c20 285f5f78 2929005f  snormal (__x))._
 3f50 5245454e 545f4348 45434b5f 5349474e  REENT_CHECK_SIGN
 3f60 414c5f42 55462870 74722920 00424954  AL_BUF(ptr) .BIT
 3f70 5f322028 31203c3c 20322900 5f5f636c  _2 (1 << 2).__cl
 3f80 65616e75 70004d53 54415455 535f4d50  eanup.MSTATUS_MP
 3f90 49452030 78303030 30303038 30005f61  IE 0x00000080._a
 3fa0 74657869 7430005f 5245454e 545f534d  texit0._REENT_SM
 3fb0 414c4c5f 43484543 4b5f494e 49542870  ALL_CHECK_INIT(p
 3fc0 74722920 004d5354 41545553 5f554945  tr) .MSTATUS_UIE
 3fd0 20307830 30303030 30303100 5f5f6e65   0x00000001.__ne
 3fe0 65645f70 74726469 66665f74 00616c6c  ed_ptrdiff_t.all
 3ff0 6f636128 73697a65 29205f5f 6275696c  oca(size) __buil
 4000 74696e5f 616c6c6f 63612873 697a6529  tin_alloca(size)
 4010 005f5f4c 4f4e475f 57494454 485f5f20  .__LONG_WIDTH__ 
 4020 33320073 69676e62 6974285f 5f782920  32.signbit(__x) 
 4030 28287369 7a656f66 285f5f78 29203d3d  ((sizeof(__x) ==
 4040 2073697a 656f6628 666c6f61 74292920   sizeof(float)) 
 4050 3f205f5f 6275696c 74696e5f 7369676e  ? __builtin_sign
 4060 62697466 285f5f78 29203a20 2873697a  bitf(__x) : (siz
 4070 656f6628 5f5f7829 203d3d20 73697a65  eof(__x) == size
 4080 6f662864 6f75626c 65292920 3f205f5f  of(double)) ? __
 4090 6275696c 74696e5f 7369676e 62697420  builtin_signbit 
 40a0 285f5f78 29203a20 5f5f6275 696c7469  (__x) : __builti
 40b0 6e5f7369 676e6269 746c285f 5f782929  n_signbitl(__x))
 40c0 005f545f 57434841 525f2000 636f6e66  ._T_WCHAR_ .conf
 40d0 69674350 555f434c 4f434b5f 485a2028  igCPU_CLOCK_HZ (
 40e0 20282075 696e7433 325f7420 29202820   ( uint32_t ) ( 
 40f0 4253505f 434c494e 545f485a 20292029  BSP_CLINT_HZ ) )
 4100 005f5f77 61726e5f 72656665 72656e63  .__warn_referenc
 4110 65732873 796d2c6d 73672920 5f5f6173  es(sym,msg) __as
 4120 6d5f5f28 222e7365 6374696f 6e202e67  m__(".section .g
 4130 6e752e77 61726e69 6e672e22 20237379  nu.warning." #sy
 4140 6d293b20 5f5f6173 6d5f5f28 222e6173  m); __asm__(".as
 4150 63697a20 5c222220 6d736720 225c2222  ciz \"" msg "\""
 4160 293b205f 5f61736d 5f5f2822 2e707265  ); __asm__(".pre
 4170 76696f75 73222900 53535441 5455535f  vious").SSTATUS_
 4180 53554d20 30783030 30343030 30300070  SUM 0x00040000.p
 4190 6c69635f 7365745f 656e6162 6c650057  lic_set_enable.W
 41a0 43484152 5f4d4158 20285f5f 57434841  CHAR_MAX (__WCHA
 41b0 525f4d41 585f5f29 005f5f73 69676e67  R_MAX__).__signg
 41c0 616d5f72 28707472 29205f52 45454e54  am_r(ptr) _REENT
 41d0 5f534947 4e47414d 28707472 29005f4e  _SIGNGAM(ptr)._N
 41e0 45574c49 425f5645 5253494f 4e5f485f  EWLIB_VERSION_H_
 41f0 5f203100 6973696e 66285f5f 78292028  _ 1.isinf(__x) (
 4200 5f5f6275 696c7469 6e5f6973 696e665f  __builtin_isinf_
 4210 7369676e 20285f5f 78292900 5f5f5349  sign (__x)).__SI
 4220 5a455f4d 41585f5f 20307866 66666666  ZE_MAX__ 0xfffff
 4230 66666655 005f5f75 696e7433 325f7400  fffU.__uint32_t.
 4240 5f656d65 7267656e 6379005f 4c49425f  _emergency._LIB_
 4250 56455253 494f4e5f 54595045 20656e75  VERSION_TYPE enu
 4260 6d205f5f 66646c69 626d5f76 65727369  m __fdlibm_versi
 4270 6f6e0063 73725f73 65742863 73722c76  on.csr_set(csr,v
 4280 616c2920 287b2075 6e736967 6e656420  al) ({ unsigned 
 4290 6c6f6e67 205f5f76 203d2028 756e7369  long __v = (unsi
 42a0 676e6564 206c6f6e 67292876 616c293b  gned long)(val);
 42b0 205f5f61 736d5f5f 205f5f76 6f6c6174   __asm__ __volat
 42c0 696c655f 5f202822 63737273 20222023  ile__ ("csrs " #
 42d0 63737220 222c2025 3022203a 203a2022  csr ", %0" : : "
 42e0 724b2220 285f5f76 29293b20 7d29005f  rK" (__v)); })._
 42f0 5f464c54 5f524144 49585f5f 2032005f  _FLT_RADIX__ 2._
 4300 5f464c54 33325f48 41535f49 4e46494e  _FLT32_HAS_INFIN
 4310 4954595f 5f203100 5f524545 4e545f52  ITY__ 1._REENT_R
 4320 414e4434 385f4d55 4c542870 74722920  AND48_MULT(ptr) 
 4330 28287074 72292d3e 5f6e6577 2e5f7265  ((ptr)->_new._re
 4340 656e742e 5f723438 2e5f6d75 6c742900  ent._r48._mult).
 4350 4249545f 32392028 31203c3c 20323929  BIT_29 (1 << 29)
 4360 0055494e 5433325f 4d415820 285f5f55  .UINT32_MAX (__U
 4370 494e5433 325f4d41 585f5f29 005f5f77  INT32_MAX__).__w
 4380 63686172 5f745f5f 20005f5f 4c44424c  char_t__ .__LDBL
 4390 5f484153 5f515549 45545f4e 414e5f5f  _HAS_QUIET_NAN__
 43a0 2031005f 5f6e6565 645f4e55 4c4c004d   1.__need_NULL.M
 43b0 5f4c4f47 325f4520 5f4d5f4c 4e32005f  _LOG2_E _M_LN2._
 43c0 5f4c4f4e 475f4c4f 4e475f57 49445448  _LONG_LONG_WIDTH
 43d0 5f5f2036 34005f6e 696f6273 0057494e  __ 64._niobs.WIN
 43e0 545f4d41 5820285f 5f57494e 545f4d41  T_MAX (__WINT_MA
 43f0 585f5f29 005f5f6e 6565645f 77636861  X__).__need_wcha
 4400 725f7420 00706c69 635f7265 6c656173  r_t .plic_releas
 4410 65004d53 54415455 535f5456 4d203078  e.MSTATUS_TVM 0x
 4420 30303130 30303030 00535354 41545553  00100000.SSTATUS
 4430 5f465320 30783030 30303630 3030005f  _FS 0x00006000._
 4440 5f6c6f63 616c655f 74005f52 45454e54  _locale_t._REENT
 4450 5f434845 434b5f41 53435449 4d455f42  _CHECK_ASCTIME_B
 4460 55462870 74722920 005f5f72 69736376  UF(ptr) .__riscv
 4470 5f636d6f 64656c5f 6d65646c 6f772031  _cmodel_medlow 1
 4480 005f5f49 4e545054 525f5749 4454485f  .__INTPTR_WIDTH_
 4490 5f203332 005f5f47 43435f41 544f4d49  _ 32.__GCC_ATOMI
 44a0 435f4c4c 4f4e475f 4c4f434b 5f465245  C_LLONG_LOCK_FRE
 44b0 45203100 504c4943 5f454e41 424c455f  E 1.PLIC_ENABLE_
 44c0 42415345 20307832 30303000 443a5c5f  BASE 0x2000.D:\_
 44d0 756e6f5c 32343033 2d476974 4875625c  uno\2403-GitHub\
 44e0 74657374 2d726570 6f2d3234 30345c65  test-repo-2404\e
 44f0 78616d70 6c655f78 796c6f6e 695f3173  xample_xyloni_1s
 4500 74675c65 6d626564 6465645f 73775c73  tg\embedded_sw\s
 4510 61705c73 6f667477 6172655c 7374616e  ap\software\stan
 4520 64616c6f 6e655c67 70696f44 656d6f5f  dalone\gpioDemo_
 4530 5472696e 69746100 5f6e6d61 6c6c6f63  Trinita._nmalloc
 4540 005f5f46 4c543634 5f4d4158 5f455850  .__FLT64_MAX_EXP
 4550 5f5f2031 30323400 53595354 454d5f52  __ 1024.SYSTEM_R
 4560 414d5f41 5f53495a 45203831 3932005f  AM_A_SIZE 8192._
 4570 5f574348 41525f54 20005f5f 5359535f  _WCHAR_T .__SYS_
 4580 434f4e46 49475f48 5f5f2000 5f5f7074  CONFIG_H__ .__pt
 4590 7276616c 75652000 5f5f474e 55435f56  rvalue .__GNUC_V
 45a0 415f4c49 53545f43 4f4d5041 54494249  A_LIST_COMPATIBI
 45b0 4c495459 2031005f 5f5f696e 7433325f  LITY 1.___int32_
 45c0 745f6465 66696e65 64203100 5f67616d  t_defined 1._gam
 45d0 6d615f73 69676e67 616d005f 5f4c4442  ma_signgam.__LDB
 45e0 4c5f4d41 585f5f20 312e3138 39373331  L_MAX__ 1.189731
 45f0 34393533 35373233 31373635 30383537  4953572317650857
 4600 35393332 36363238 30303730 32652b34  5932662800702e+4
 4610 3933324c 00504d50 5f534849 46542032  932L.PMP_SHIFT 2
 4620 005f5f57 494e545f 57494454 485f5f20  .__WINT_WIDTH__ 
 4630 3332005f 5f494e54 36345f54 5950455f  32.__INT64_TYPE_
 4640 5f206c6f 6e67206c 6f6e6720 696e7400  _ long long int.
 4650 5f5f7472 796c6f63 6b735f65 78636c75  __trylocks_exclu
 4660 73697665 282e2e2e 29205f5f 6c6f636b  sive(...) __lock
 4670 5f616e6e 6f746174 65286578 636c7573  _annotate(exclus
 4680 6976655f 7472796c 6f636b5f 66756e63  ive_trylock_func
 4690 74696f6e 285f5f56 415f4152 47535f5f  tion(__VA_ARGS__
 46a0 29290055 494e5431 365f4d41 5820285f  )).UINT16_MAX (_
 46b0 5f55494e 5431365f 4d41585f 5f29005f  _UINT16_MAX__)._
 46c0 5f53495a 454f465f 57434841 525f545f  _SIZEOF_WCHAR_T_
 46d0 5f203400 5f52414e 4434385f 53454544  _ 4._RAND48_SEED
 46e0 5f302028 30783333 30652900 494e545f  _0 (0x330e).INT_
 46f0 4c454153 5431365f 4d494e20 282d5f5f  LEAST16_MIN (-__
 4700 494e545f 4c454153 5431365f 4d41585f  INT_LEAST16_MAX_
 4710 5f202d20 3129006d 61736b00 5f5f6e6f  _ - 1).mask.__no
 4720 6e6e756c 6c5f616c 6c205f5f 61747472  nnull_all __attr
 4730 69627574 655f5f28 285f5f6e 6f6e6e75  ibute__((__nonnu
 4740 6c6c5f5f 2929005f 5245454e 545f4d42  ll__))._REENT_MB
 4750 5352544f 5743535f 53544154 45287074  SRTOWCS_STATE(pt
 4760 72292028 28707472 292d3e5f 6e65772e  r) ((ptr)->_new.
 4770 5f726565 6e742e5f 6d627372 746f7763  _reent._mbsrtowc
 4780 735f7374 61746529 005f5f75 6e6c6f63  s_state).__unloc
 4790 6b73282e 2e2e2920 5f5f6c6f 636b5f61  ks(...) __lock_a
 47a0 6e6e6f74 61746528 756e6c6f 636b5f66  nnotate(unlock_f
 47b0 756e6374 696f6e28 5f5f5641 5f415247  unction(__VA_ARG
 47c0 535f5f29 2900454e 41424c45 5f425350  S__)).ENABLE_BSP
 47d0 5f505249 4e542031 005f6672 65656c69  _PRINT 1._freeli
 47e0 7374005f 5f6c6f63 6b5f7472 795f6163  st.__lock_try_ac
 47f0 71756972 65286c6f 636b2920 2828766f  quire(lock) ((vo
 4800 69642920 3029005f 5245454e 545f4d42  id) 0)._REENT_MB
 4810 524c454e 5f535441 54452870 74722920  RLEN_STATE(ptr) 
 4820 28287074 72292d3e 5f6e6577 2e5f7265  ((ptr)->_new._re
 4830 656e742e 5f6d6272 6c656e5f 73746174  ent._mbrlen_stat
 4840 6529005f 5f5f696e 745f6c65 61737436  e).___int_least6
 4850 345f745f 64656669 6e656420 3100504c  4_t_defined 1.PL
 4860 49435f43 4c41494d 5f424153 45203078  IC_CLAIM_BASE 0x
 4870 32303030 30340069 736c6573 73677265  200004.islessgre
 4880 61746572 285f5f78 2c5f5f79 2920285f  ater(__x,__y) (_
 4890 5f627569 6c74696e 5f69736c 65737367  _builtin_islessg
 48a0 72656174 65722028 5f5f782c 205f5f79  reater (__x, __y
 48b0 2929005f 5f544852 4f572000 5f676c75  )).__THROW ._glu
 48c0 65005f73 69676e00 5f5f494e 545f4c45  e._sign.__INT_LE
 48d0 41535433 325f4d41 585f5f20 30783766  AST32_MAX__ 0x7f
 48e0 66666666 66664c00 4750494f 5f494e54  ffffffL.GPIO_INT
 48f0 45525255 50545f52 4953455f 454e4142  ERRUPT_RISE_ENAB
 4900 4c452030 78323000 5f524545 4e545f4c  LE 0x20._REENT_L
 4910 3634415f 42554628 70747229 20282870  64A_BUF(ptr) ((p
 4920 7472292d 3e5f6e65 772e5f72 65656e74  tr)->_new._reent
 4930 2e5f6c36 34615f62 75662900 5f415446  ._l64a_buf)._ATF
 4940 494c455f 534f5552 43452031 005f5f53  ILE_SOURCE 1.__S
 4950 5444494e 545f4558 50287829 205f5f20  TDINT_EXP(x) __ 
 4960 23237820 23235f5f 005f5f45 58502878  ##x ##__.__EXP(x
 4970 29205f5f 20232378 2023235f 5f004d42  ) __ ##x ##__.MB
 4980 5f435552 5f4d4158 205f5f6c 6f63616c  _CUR_MAX __local
 4990 655f6d62 5f637572 5f6d6178 2829005f  e_mb_cur_max()._
 49a0 5f425954 455f4f52 4445525f 5f205f5f  _BYTE_ORDER__ __
 49b0 4f524445 525f4c49 54544c45 5f454e44  ORDER_LITTLE_END
 49c0 49414e5f 5f005f5f 57434841 525f5459  IAN__.__WCHAR_TY
 49d0 50455f5f 20696e74 005f414e 53494445  PE__ int._ANSIDE
 49e0 434c5f48 5f20005f 414e5349 5f535444  CL_H_ ._ANSI_STD
 49f0 4445465f 4820005f 77637372 746f6d62  DEF_H ._wcsrtomb
 4a00 735f7374 61746500 5f57414e 545f494f  s_state._WANT_IO
 4a10 5f433939 5f464f52 4d415453 2031005f  _C99_FORMATS 1._
 4a20 53495a45 5f545f44 4546494e 45442000  SIZE_T_DEFINED .
 4a30 5f5f5749 4e545f54 5950455f 5f20756e  __WINT_TYPE__ un
 4a40 7369676e 65642069 6e74005f 5f696e74  signed int.__int
 4a50 5f666173 7431365f 745f6465 66696e65  _fast16_t_define
 4a60 64203100 4d5f5049 5f342030 2e373835  d 1.M_PI_4 0.785
 4a70 33393831 36333339 37343438 33303936  3981633974483096
 4a80 32005f42 53445f50 54524449 46465f54  2._BSD_PTRDIFF_T
 4a90 5f20006d 61636869 6e655469 6d65725f  _ .machineTimer_
 4aa0 67657454 696d6528 70292063 6c696e74  getTime(p) clint
 4ab0 5f676574 54696d65 2870293b 00454e41  _getTime(p);.ENA
 4ac0 424c455f 4253505f 5052494e 54465f46  BLE_BSP_PRINTF_F
 4ad0 554c4c20 30005f66 6c616773 3200494e  ULL 0._flags2.IN
 4ae0 5436345f 4d415820 285f5f49 4e543634  T64_MAX (__INT64
 4af0 5f4d4158 5f5f2900 75617274 5f777269  _MAX__).uart_wri
 4b00 7465005f 5f4c4442 4c5f4841 535f494e  te.__LDBL_HAS_IN
 4b10 46494e49 54595f5f 20310053 53544154  FINITY__ 1.SSTAT
 4b20 55535f53 50494520 30783030 30303030  US_SPIE 0x000000
 4b30 3230005f 5f4e4557 4c49425f 4d494e4f  20.__NEWLIB_MINO
 4b40 525f5f20 31005f52 45454e54 5f4d4254  R__ 1._REENT_MBT
 4b50 4f57435f 53544154 45287074 72292028  OWC_STATE(ptr) (
 4b60 28707472 292d3e5f 6e65772e 5f726565  (ptr)->_new._ree
 4b70 6e742e5f 6d62746f 77635f73 74617465  nt._mbtowc_state
 4b80 29005f5f 464c545f 4d494e5f 4558505f  ).__FLT_MIN_EXP_
 4b90 5f20282d 31323529 005f5f44 45435f45  _ (-125).__DEC_E
 4ba0 56414c5f 4d455448 4f445f5f 20320053  VAL_METHOD__ 2.S
 4bb0 59535445 4d5f424d 425f5045 52495048  YSTEM_BMB_PERIPH
 4bc0 4552414c 5f424d42 20307866 38303030  ERAL_BMB 0xf8000
 4bd0 30303000 6f70636f 64655f52 286f7063  000.opcode_R(opc
 4be0 6f64652c 66756e63 332c6675 6e63372c  ode,func3,func7,
 4bf0 7273312c 72733229 20287b20 72656769  rs1,rs2) ({ regi
 4c00 73746572 20756e73 69676e65 64206c6f  ster unsigned lo
 4c10 6e67205f 5f763b20 61736d20 766f6c61  ng __v; asm vola
 4c20 74696c65 2820222e 776f7264 20282822  tile( ".word (("
 4c30 20236f70 636f6465 20222920 7c202872   #opcode ") | (r
 4c40 65676e75 6d5f2530 203c3c20 3729207c  egnum_%0 << 7) |
 4c50 20287265 676e756d 5f253120 3c3c2031   (regnum_%1 << 1
 4c60 3529207c 20287265 676e756d 5f253220  5) | (regnum_%2 
 4c70 3c3c2032 3029207c 20282822 20236675  << 20) | ((" #fu
 4c80 6e633320 2229203c 3c203132 29207c20  nc3 ") << 12) | 
 4c90 28282220 2366756e 63372022 29203c3c  ((" #func7 ") <<
 4ca0 20323529 293b2220 3a205b72 645d2022   25));" : [rd] "
 4cb0 3d722220 285f5f76 29203a20 22722220  =r" (__v) : "r" 
 4cc0 28727331 292c2022 72222028 72733229  (rs1), "r" (rs2)
 4cd0 20293b20 5f5f763b 207d2900 64617461   ); __v; }).data
 4ce0 5f636163 68655f69 6e76616c 69646174  _cache_invalidat
 4cf0 655f616c 6c282920 61736d28 222e776f  e_all() asm(".wo
 4d00 72642830 78353030 46292229 3b005549  rd(0x500F)");.UI
 4d10 4e545f46 41535438 5f4d4158 20285f5f  NT_FAST8_MAX (__
 4d20 55494e54 5f464153 54385f4d 41585f5f  UINT_FAST8_MAX__
 4d30 29005f5f 41545452 49425554 455f494d  ).__ATTRIBUTE_IM
 4d40 50555245 5f505452 5f5f2000 494e545f  PURE_PTR__ .INT_
 4d50 46415354 385f4d49 4e20282d 5f5f494e  FAST8_MIN (-__IN
 4d60 545f4641 5354385f 4d41585f 5f202d20  T_FAST8_MAX__ - 
 4d70 3129005f 5f464c54 3332585f 4d41585f  1).__FLT32X_MAX_
 4d80 5f20312e 37393736 39333133 34383632  _ 1.797693134862
 4d90 33313537 30383134 35323734 32333733  3157081452742373
 4da0 31373034 33353765 2b333038 46333278  1704357e+308F32x
 4db0 005f5f46 4c543634 5f484153 5f44454e  .__FLT64_HAS_DEN
 4dc0 4f524d5f 5f203100 5f5f464c 545f4449  ORM__ 1.__FLT_DI
 4dd0 475f5f20 36005f68 5f657272 6e6f005f  G__ 6._h_errno._
 4de0 46565752 4954455f 494e5f53 54524541  FVWRITE_IN_STREA
 4df0 4d494f20 31005f57 43484152 5f545f44  MIO 1._WCHAR_T_D
 4e00 45434c41 52454420 005f5f43 4841525f  ECLARED .__CHAR_
 4e10 4249545f 5f203800 5f535953 5f524545  BIT__ 8._SYS_REE
 4e20 4e545f48 5f20005f 5f464c54 5f455641  NT_H_ .__FLT_EVA
 4e30 4c5f4d45 54484f44 5f5f2030 00535953  L_METHOD__ 0.SYS
 4e40 54454d5f 504c4943 5f535953 54454d5f  TEM_PLIC_SYSTEM_
 4e50 4750494f 5f305f49 4f5f494e 54455252  GPIO_0_IO_INTERR
 4e60 55505453 5f312031 33005f5f 53434841  UPTS_1 13.__SCHA
 4e70 525f4d41 585f5f20 30783766 005f5f49  R_MAX__ 0x7f.__I
 4e80 4e545f46 41535438 5f574944 54485f5f  NT_FAST8_WIDTH__
 4e90 20333200 5f5f494e 54313620 22682200   32.__INT16 "h".
 4ea0 5f5f464c 54313238 5f455053 494c4f4e  __FLT128_EPSILON
 4eb0 5f5f2031 2e393235 39323939 34343338  __ 1.92592994438
 4ec0 37323335 38353330 35353937 37393432  7235853055977942
 4ed0 35383439 32373332 652d3334 46313238  58492732e-34F128
 4ee0 00554152 545f4441 54412030 78303000  .UART_DATA 0x00.
 4ef0 5f5f494e 545f4c45 41535431 365f4d41  __INT_LEAST16_MA
 4f00 585f5f20 30783766 6666005f 545f5054  X__ 0x7fff._T_PT
 4f10 52444946 4620004d 5f54574f 50492028  RDIFF .M_TWOPI (
 4f20 4d5f5049 202a2032 2e302900 5f776372  M_PI * 2.0)._wcr
 4f30 746f6d62 5f737461 7465005f 5f464c54  tomb_state.__FLT
 4f40 3132385f 4d41585f 31305f45 58505f5f  128_MAX_10_EXP__
 4f50 20343933 32005f5f 4743435f 4945435f   4932.__GCC_IEC_
 4f60 35353920 30005f4e 45574c49 425f414c  559 0._NEWLIB_AL
 4f70 4c4f4341 5f482000 5f5f746d 5f6d6461  LOCA_H .__tm_mda
 4f80 7900616c 6c6f6361 00424954 5f382028  y.alloca.BIT_8 (
 4f90 31203c3c 20382900 5f5f5354 44435f5f  1 << 8).__STDC__
 4fa0 2031005f 6e657700 5f5f5f69 6e745f6c   1._new.___int_l
 4fb0 65617374 385f745f 64656669 6e656420  east8_t_defined 
 4fc0 31005f75 62756600 5f5f464c 4f41545f  1._ubuf.__FLOAT_
 4fd0 574f5244 5f4f5244 45525f5f 205f5f4f  WORD_ORDER__ __O
 4fe0 52444552 5f4c4954 544c455f 454e4449  RDER_LITTLE_ENDI
 4ff0 414e5f5f 00424954 5f333020 2831203c  AN__.BIT_30 (1 <
 5000 3c203330 29005f5f 55494e54 385f5459  < 30).__UINT8_TY
 5010 50455f5f 20756e73 69676e65 64206368  PE__ unsigned ch
 5020 6172005f 73746465 7272005f 5f696e74  ar._stderr.__int
 5030 5f666173 74385f74 5f646566 696e6564  _fast8_t_defined
 5040 2031005f 5f455850 4f525420 005f7763   1.__EXPORT ._wc
 5050 746f6d62 5f737461 7465005f 5f4f4253  tomb_state.__OBS
 5060 4f4c4554 455f4d41 54485f44 45464155  OLETE_MATH_DEFAU
 5070 4c542031 005f6d62 73746174 65005f5f  LT 1._mbstate.__
 5080 53434353 49442873 29207374 72756374  SCCSID(s) struct
 5090 205f5f68 61636b00 6d54696d 65506572   __hack.mTimePer
 50a0 55736563 004d5f50 4920332e 31343135  Usec.M_PI 3.1415
 50b0 39323635 33353839 37393332 33383436  9265358979323846
 50c0 005f5f53 4852545f 57494454 485f5f20  .__SHRT_WIDTH__ 
 50d0 3136005f 72616e64 5f6e6578 74005f5f  16._rand_next.__
 50e0 44454331 32385f4d 414e545f 4449475f  DEC128_MANT_DIG_
 50f0 5f203334 005f666c 61677300 5f5f494d  _ 34._flags.__IM
 5100 504f5254 20005353 54415455 535f5549  PORT .SSTATUS_UI
 5110 45203078 30303030 30303031 005f5054  E 0x00000001._PT
 5120 52444946 465f545f 4445434c 41524544  RDIFF_T_DECLARED
 5130 20005f5f 766f6c61 74696c65 20766f6c   .__volatile vol
 5140 6174696c 65006164 64726573 73004249  atile.address.BI
 5150 545f3331 20283120 3c3c2033 3129005f  T_31 (1 << 31)._
 5160 57414e54 5f524547 49535445 525f4649  WANT_REGISTER_FI
 5170 4e492031 005f5f47 43435f41 544f4d49  NI 1.__GCC_ATOMI
 5180 435f4348 41525f4c 4f434b5f 46524545  C_CHAR_LOCK_FREE
 5190 2031005f 5f415446 494c455f 56495349   1.__ATFILE_VISI
 51a0 424c4520 31005f61 74657869 74004253  BLE 1._atexit.BS
 51b0 505f4c45 445f4750 494f2053 59535445  P_LED_GPIO SYSTE
 51c0 4d5f4750 494f5f30 5f494f5f 4354524c  M_GPIO_0_IO_CTRL
 51d0 004d5f53 51525432 20312e34 31343231  .M_SQRT2 1.41421
 51e0 33353632 33373330 39353034 38383000  356237309504880.
 51f0 5f5f4e55 4c4c4142 494c4954 595f5052  __NULLABILITY_PR
 5200 41474d41 5f504f50 20005f5f 70726564  AGMA_POP .__pred
 5210 6963745f 66616c73 65286578 7029205f  ict_false(exp) _
 5220 5f627569 6c74696e 5f657870 65637428  _builtin_expect(
 5230 28657870 292c2030 29005359 5354454d  (exp), 0).SYSTEM
 5240 5f554152 545f305f 494f5f43 54524c20  _UART_0_IO_CTRL 
 5250 30786638 30313030 30300052 4454494d  0xf8010000.RDTIM
 5260 45482030 78433831 00434155 53455f4d  EH 0xC81.CAUSE_M
 5270 41434849 4e455f45 58544552 4e414c20  ACHINE_EXTERNAL 
 5280 3131004d 53544154 55535f54 53522030  11.MSTATUS_TSR 0
 5290 78303034 30303030 30005f5f 53545249  x00400000.__STRI
 52a0 4e472878 29202378 00535354 41545553  NG(x) #x.SSTATUS
 52b0 5f585320 30783030 30313830 3030005f  _XS 0x00018000._
 52c0 5f726573 756c745f 7573655f 63686563  _result_use_chec
 52d0 6b205f5f 61747472 69627574 655f5f28  k __attribute__(
 52e0 285f5f77 61726e5f 756e7573 65645f72  (__warn_unused_r
 52f0 6573756c 745f5f29 29005f5f 494e5438  esult__)).__INT8
 5300 5f545950 455f5f20 7369676e 65642063  _TYPE__ signed c
 5310 68617200 53595354 454d5f47 50494f5f  har.SYSTEM_GPIO_
 5320 305f494f 5f435452 4c5f5349 5a452030  0_IO_CTRL_SIZE 0
 5330 78313030 00424954 5f312028 31203c3c  x100.BIT_1 (1 <<
 5340 20312900 5f5f464c 5433325f 4d494e5f   1).__FLT32_MIN_
 5350 31305f45 58505f5f 20282d33 3729004d  10_EXP__ (-37).M
 5360 49505f53 54495020 2831203c 3c203529  IP_STIP (1 << 5)
 5370 005f5f63 6f756e74 005f5f47 4e55435f  .__count.__GNUC_
 5380 56415f4c 49535420 005f5f49 534f5f43  VA_LIST .__ISO_C
 5390 5f564953 49424c45 20323031 3100494e  _VISIBLE 2011.IN
 53a0 5431365f 4d494e20 282d5f5f 494e5431  T16_MIN (-__INT1
 53b0 365f4d41 585f5f20 2d203129 005f5f73  6_MAX__ - 1).__s
 53c0 697a655f 74006973 6c657373 285f5f78  ize_t.isless(__x
 53d0 2c5f5f79 2920285f 5f627569 6c74696e  ,__y) (__builtin
 53e0 5f69736c 65737320 285f5f78 2c205f5f  _isless (__x, __
 53f0 79292900 5f5f464c 545f4445 4e4f524d  y)).__FLT_DENORM
 5400 5f4d494e 5f5f2031 2e343031 32393834  _MIN__ 1.4012984
 5410 36343332 34383137 30373039 32333732  6432481707092372
 5420 39353833 32383939 31363133 652d3435  958328991613e-45
 5430 46005f5f 44454333 325f4d41 4e545f44  F.__DEC32_MANT_D
 5440 49475f5f 20370075 73656300 5f4d4143  IG__ 7.usec._MAC
 5450 48494e45 5f5f4445 4641554c 545f5459  HINE__DEFAULT_TY
 5460 5045535f 4820004d 5f4c4e32 205f4d5f  PES_H .M_LN2 _M_
 5470 4c4e3200 52495343 565f5345 4d49484f  LN2.RISCV_SEMIHO
 5480 5354494e 475f4341 4c4c5f4e 554d4245  STING_CALL_NUMBE
 5490 52203700 5f5f6861 735f6665 61747572  R 7.__has_featur
 54a0 65287829 2030005f 4743435f 50545244  e(x) 0._GCC_PTRD
 54b0 4946465f 5420005f 5f4c4442 4c5f4d41  IFF_T .__LDBL_MA
 54c0 4e545f44 49475f5f 20313133 005f5f4c  NT_DIG__ 113.__L
 54d0 45415354 36342022 6c6c2200 5f5f4c4f  EAST64 "ll".__LO
 54e0 434b5f49 4e495428 636c6173 732c6c6f  CK_INIT(class,lo
 54f0 636b2920 73746174 69632069 6e74206c  ck) static int l
 5500 6f636b20 3d20303b 00756172 745f7772  ock = 0;.uart_wr
 5510 69746541 7661696c 6162696c 69747900  iteAvailability.
 5520 5f5f746d 5f776461 7900706c 69635f63  __tm_wday.plic_c
 5530 6c61696d 005f5f73 69676e65 64207369  laim.__signed si
 5540 676e6564 005f4841 56455f43 435f494e  gned._HAVE_CC_IN
 5550 48494249 545f4c4f 4f505f54 4f5f4c49  HIBIT_LOOP_TO_LI
 5560 4243414c 4c203100 5f5f4c4f 4e475f4c  BCALL 1.__LONG_L
 5570 4f4e475f 4d41585f 5f203078 37666666  ONG_MAX__ 0x7fff
 5580 66666666 66666666 66666666 4c4c005f  ffffffffffffLL._
 5590 46534545 4b5f4f50 54494d49 5a415449  FSEEK_OPTIMIZATI
 55a0 4f4e2031 004d5354 41545553 33325f53  ON 1.MSTATUS32_S
 55b0 44203078 38303030 30303030 005f5f74  D 0x80000000.__t
 55c0 6d5f7964 61790062 73705f70 72696e74  m_yday.bsp_print
 55d0 665f5800 4d454445 4c45475f 494e5354  f_X.MEDELEG_INST
 55e0 52554354 494f4e5f 50414745 5f464155  RUCTION_PAGE_FAU
 55f0 4c542028 31203c3c 20313229 005f5f47  LT (1 << 12).__G
 5600 4e55434c 494b455f 4255494c 54494e5f  NUCLIKE_BUILTIN_
 5610 56415241 52475320 31004d5f 4520322e  VARARGS 1.M_E 2.
 5620 37313832 38313832 38343539 30343532  7182818284590452
 5630 33353400 5f5f464c 54363458 5f484153  354.__FLT64X_HAS
 5640 5f515549 45545f4e 414e5f5f 2031005f  _QUIET_NAN__ 1._
 5650 5f464c54 3132385f 4449475f 5f203333  _FLT128_DIG__ 33
 5660 005f5f49 4e54385f 43286329 2063005f  .__INT8_C(c) c._
 5670 5f736361 6e666c69 6b652866 6d746172  _scanflike(fmtar
 5680 672c6669 72737476 61726172 6729205f  g,firstvararg) _
 5690 5f617474 72696275 74655f5f 28285f5f  _attribute__((__
 56a0 666f726d 61745f5f 20285f5f 7363616e  format__ (__scan
 56b0 665f5f2c 20666d74 6172672c 20666972  f__, fmtarg, fir
 56c0 73747661 72617267 29292900 5f5f464c  stvararg))).__FL
 56d0 5433325f 4d41585f 5f20332e 34303238  T32_MAX__ 3.4028
 56e0 32333436 36333835 32383835 39383131  2346638528859811
 56f0 37303431 38333438 34353136 39323565  704183484516925e
 5700 2b333846 33320062 73705f70 72696e74  +38F32.bsp_print
 5710 665f6300 6273705f 7072696e 74665f64  f_c.bsp_printf_d
 5720 005f454c 49444142 4c455f49 4e4c494e  ._ELIDABLE_INLIN
 5730 45207374 61746963 205f5f69 6e6c696e  E static __inlin
 5740 655f5f00 5f5f464c 54363458 5f44454e  e__.__FLT64X_DEN
 5750 4f524d5f 4d494e5f 5f20362e 34373531  ORM_MIN__ 6.4751
 5760 37353131 39343338 30323531 31303932  7511943802511092
 5770 34343338 39353832 32373634 36353565  443895822764655e
 5780 2d343936 36463634 78005f5f 44424c5f  -4966F64x.__DBL_
 5790 4d494e5f 4558505f 5f20282d 31303231  MIN_EXP__ (-1021
 57a0 29005f5f 53495a45 5f542000 5f5f7075  ).__SIZE_T .__pu
 57b0 7265205f 5f617474 72696275 74655f5f  re __attribute__
 57c0 28285f5f 70757265 5f5f2929 00535953  ((__pure__)).SYS
 57d0 54454d5f 504c4943 5f535953 54454d5f  TEM_PLIC_SYSTEM_
 57e0 4932435f 315f494f 5f494e54 45525255  I2C_1_IO_INTERRU
 57f0 50542039 005f7365 6564005f 5f707269  PT 9._seed.__pri
 5800 6e746630 6c696b65 28666d74 6172672c  ntf0like(fmtarg,
 5810 66697273 74766172 61726729 20004253  firstvararg) .BS
 5820 505f504c 49435f43 50555f30 20535953  P_PLIC_CPU_0 SYS
 5830 54454d5f 504c4943 5f535953 54454d5f  TEM_PLIC_SYSTEM_
 5840 434f5245 535f305f 45585445 524e414c  CORES_0_EXTERNAL
 5850 5f494e54 45525255 50540042 49545f31  _INTERRUPT.BIT_1
 5860 31202831 203c3c20 31312900 6273705f  1 (1 << 11).bsp_
 5870 7072696e 74665f73 005f5f46 4c543332  printf_s.__FLT32
 5880 5f444947 5f5f2036 005f7365 656b005f  _DIG__ 6._seek._
 5890 5f535444 435f484f 53544544 5f5f2031  _STDC_HOSTED__ 1
 58a0 00627370 5f707269 6e74665f 7800474e  .bsp_printf_x.GN
 58b0 55204331 3720382e 332e3020 2d6d6172  U C17 8.3.0 -mar
 58c0 63683d72 76333269 6d202d6d 6162693d  ch=rv32im -mabi=
 58d0 696c7033 32202d67 33202d4f 67005359  ilp32 -g3 -Og.SY
 58e0 5354454d 5f52414d 5f415f43 54524c5f  STEM_RAM_A_CTRL_
 58f0 53495a45 20307832 30303000 5f5f464c  SIZE 0x2000.__FL
 5900 54363458 5f444543 494d414c 5f444947  T64X_DECIMAL_DIG
 5910 5f5f2033 36005549 4e544d41 585f4328  __ 36.UINTMAX_C(
 5920 7829205f 5f55494e 544d4158 5f432878  x) __UINTMAX_C(x
 5930 29004249 545f3235 20283120 3c3c2032  ).BIT_25 (1 << 2
 5940 3529005f 5f455850 005f6670 6f735f74  5).__EXP._fpos_t
 5950 005f5f4c 44424c5f 4841535f 44454e4f  .__LDBL_HAS_DENO
 5960 524d5f5f 2031005f 5f776368 62005f5f  RM__ 1.__wchb.__
 5970 464c5433 32585f4d 494e5f5f 20322e32  FLT32X_MIN__ 2.2
 5980 32353037 33383538 35303732 30313338  2507385850720138
 5990 33303930 32333237 31373333 32343034  3090232717332404
 59a0 3036652d 33303846 33327800 5f5f4245  06e-308F32x.__BE
 59b0 47494e5f 4445434c 53200042 49545f31  GIN_DECLS .BIT_1
 59c0 32202831 203c3c20 31322900 5f474343  2 (1 << 12)._GCC
 59d0 5f574348 41525f54 20005f4d 5f4c4e32  _WCHAR_T ._M_LN2
 59e0 20302e36 39333134 37313830 35353939   0.6931471805599
 59f0 34353330 39343137 005f5f49 4e545f4c  45309417.__INT_L
 5a00 45415354 33325f54 5950455f 5f206c6f  EAST32_TYPE__ lo
 5a10 6e672069 6e74005f 6d62746f 77635f73  ng int._mbtowc_s
 5a20 74617465 00424954 5f323620 2831203c  tate.BIT_26 (1 <
 5a30 3c203236 29005f5f 55494e54 5f4c4541  < 26).__UINT_LEA
 5a40 53543634 5f4d4158 5f5f2030 78666666  ST64_MAX__ 0xfff
 5a50 66666666 66666666 66666666 66554c4c  fffffffffffffULL
 5a60 005f5f46 4c543132 385f4841 535f494e  .__FLT128_HAS_IN
 5a70 46494e49 54595f5f 2031005f 5f55494e  FINITY__ 1.__UIN
 5a80 545f4641 53543634 5f4d4158 5f5f2030  T_FAST64_MAX__ 0
 5a90 78666666 66666666 66666666 66666666  xfffffffffffffff
 5aa0 66554c4c 005f5f41 544f4d49 435f4143  fULL.__ATOMIC_AC
 5ab0 51554952 45203200 5f5f544d 505f464c  QUIRE 2.__TMP_FL
 5ac0 545f4556 414c5f4d 4554484f 4420005f  T_EVAL_METHOD ._
 5ad0 5f494e54 5f574944 54485f5f 20333200  _INT_WIDTH__ 32.
 5ae0 5f5f4e45 574c4942 5f504154 43484c45  __NEWLIB_PATCHLE
 5af0 56454c5f 5f203000 5f5f4253 445f5649  VEL__ 0.__BSD_VI
 5b00 5349424c 45203100 5f5f464c 5436345f  SIBLE 1.__FLT64_
 5b10 4d41585f 5f20312e 37393736 39333133  MAX__ 1.79769313
 5b20 34383632 33313537 30383134 35323734  4862315708145274
 5b30 32333733 31373034 33353765 2b333038  23731704357e+308
 5b40 46363400 4249545f 31332028 31203c3c  F64.BIT_13 (1 <<
 5b50 20313329 005f5f53 49475f41 544f4d49   13).__SIG_ATOMI
 5b60 435f4d41 585f5f20 30783766 66666666  C_MAX__ 0x7fffff
 5b70 66660042 49545f31 39202831 203c3c20  ff.BIT_19 (1 << 
 5b80 31392900 5f5f444f 5453202c 202e2e2e  19).__DOTS , ...
 5b90 005f5f44 45433634 5f4d414e 545f4449  .__DEC64_MANT_DI
 5ba0 475f5f20 31360053 59535445 4d5f5541  G__ 16.SYSTEM_UA
 5bb0 52545f30 5f494f5f 50415241 4d455445  RT_0_IO_PARAMETE
 5bc0 525f5541 52545f43 54524c5f 434f4e46  R_UART_CTRL_CONF
 5bd0 49475f50 4f53545f 53414d50 4c494e47  IG_POST_SAMPLING
 5be0 5f53495a 45203200 55494e54 5f4c4541  _SIZE 2.UINT_LEA
 5bf0 53543634 5f4d4158 20285f5f 55494e54  ST64_MAX (__UINT
 5c00 5f4c4541 53543634 5f4d4158 5f5f2900  _LEAST64_MAX__).
 5c10 5f5f616c 6c6f635f 73697a65 28782920  __alloc_size(x) 
 5c20 5f5f6174 74726962 7574655f 5f28285f  __attribute__((_
 5c30 5f616c6c 6f635f73 697a655f 5f287829  _alloc_size__(x)
 5c40 2929005f 5f474e55 434c494b 455f4255  )).__GNUCLIKE_BU
 5c50 494c5449 4e5f434f 4e535441 4e545f50  ILTIN_CONSTANT_P
 5c60 2031005f 5f534852 545f4d41 585f5f20   1.__SHRT_MAX__ 
 5c70 30783766 6666005f 5245454e 545f5743  0x7fff._REENT_WC
 5c80 5352544f 4d42535f 53544154 45287074  SRTOMBS_STATE(pt
 5c90 72292028 28707472 292d3e5f 6e65772e  r) ((ptr)->_new.
 5ca0 5f726565 6e742e5f 77637372 746f6d62  _reent._wcsrtomb
 5cb0 735f7374 61746529 005f5f50 54524449  s_state).__PTRDI
 5cc0 46465f54 5950455f 5f20696e 7400504c  FF_TYPE__ int.PL
 5cd0 49435f50 454e4449 4e475f42 41534520  IC_PENDING_BASE 
 5ce0 30783130 3030005f 5f57494e 545f4d41  0x1000.__WINT_MA
 5cf0 585f5f20 30786666 66666666 66665500  X__ 0xffffffffU.
 5d00 55415254 5f434c4f 434b5f44 49564944  UART_CLOCK_DIVID
 5d10 45522030 78303800 5f5f474e 555f5649  ER 0x08.__GNU_VI
 5d20 5349424c 45203000 5f52414e 4434385f  SIBLE 0._RAND48_
 5d30 4d554c54 5f322028 30783030 30352900  MULT_2 (0x0005).
 5d40 53595354 454d5f52 49534356 5f495341  SYSTEM_RISCV_ISA
 5d50 5f455854 5f432030 005f5245 454e545f  _EXT_C 0._REENT_
 5d60 5743544f 4d425f53 54415445 28707472  WCTOMB_STATE(ptr
 5d70 29202828 70747229 2d3e5f6e 65772e5f  ) ((ptr)->_new._
 5d80 7265656e 742e5f77 63746f6d 625f7374  reent._wctomb_st
 5d90 61746529 005f6473 6f5f6861 6e646c65  ate)._dso_handle
 5da0 005f5f49 4e545f46 41535431 365f5459  .__INT_FAST16_TY
 5db0 50455f5f 20696e74 005f5549 4e544d41  PE__ int._UINTMA
 5dc0 585f545f 4445434c 41524544 20005f50  X_T_DECLARED ._P
 5dd0 4f534958 5f435f53 4f555243 45203230  OSIX_C_SOURCE 20
 5de0 30383039 4c005f72 616e6434 38005f5f  0809L._rand48.__
 5df0 55494e54 5f4c4541 53543136 5f545950  UINT_LEAST16_TYP
 5e00 455f5f20 73686f72 7420756e 7369676e  E__ short unsign
 5e10 65642069 6e74005f 494e544d 41585f54  ed int._INTMAX_T
 5e20 5f444543 4c415245 4420005f 545f5349  _DECLARED ._T_SI
 5e30 5a452000 5f5f4348 41523136 5f545950  ZE .__CHAR16_TYP
 5e40 455f5f20 73686f72 7420756e 7369676e  E__ short unsign
 5e50 65642069 6e740053 59535445 4d5f5249  ed int.SYSTEM_RI
 5e60 5343565f 4953415f 52563332 49203100  SCV_ISA_RV32I 1.
 5e70 4d494445 4c45475f 53555045 52564953  MIDELEG_SUPERVIS
 5e80 4f525f54 494d4552 20283120 3c3c2035  OR_TIMER (1 << 5
 5e90 29005f5f 464c5433 32585f44 49475f5f  ).__FLT32X_DIG__
 5ea0 20313500 494e5436 345f4328 7829205f   15.INT64_C(x) _
 5eb0 5f494e54 36345f43 28782900 53595354  _INT64_C(x).SYST
 5ec0 454d5f52 49534356 5f495341 5f455854  EM_RISCV_ISA_EXT
 5ed0 5f412030 005f5245 454e545f 41534354  _A 0._REENT_ASCT
 5ee0 494d455f 42554628 70747229 20282870  IME_BUF(ptr) ((p
 5ef0 7472292d 3e5f6e65 772e5f72 65656e74  tr)->_new._reent
 5f00 2e5f6173 6374696d 655f6275 6629005f  ._asctime_buf)._
 5f10 5f686964 64656e20 5f5f6174 74726962  _hidden __attrib
 5f20 7574655f 5f28285f 5f766973 6962696c  ute__((__visibil
 5f30 6974795f 5f282268 69646465 6e222929  ity__("hidden"))
 5f40 29005359 5354454d 5f524953 43565f49  ).SYSTEM_RISCV_I
 5f50 53415f45 58545f4d 2031005f 5f46494e  SA_EXT_M 1.__FIN
 5f60 4954455f 4d415448 5f4f4e4c 595f5f20  ITE_MATH_ONLY__ 
 5f70 30005f5f 494e545f 46415354 31365f4d  0.__INT_FAST16_M
 5f80 41585f5f 20307837 66666666 66666600  AX__ 0x7fffffff.
 5f90 5f5f6861 76655f6c 6f6e676c 6f6e6736  __have_longlong6
 5fa0 34203100 454e4142 4c455f50 54524449  4 1.ENABLE_PTRDI
 5fb0 46465f53 5550504f 52542030 00535953  FF_SUPPORT 0.SYS
 5fc0 54454d5f 55415254 5f305f49 4f5f5041  TEM_UART_0_IO_PA
 5fd0 52414d45 5445525f 494e4954 5f434f4e  RAMETER_INIT_CON
 5fe0 4649475f 50415249 5459204e 4f4e4500  FIG_PARITY NONE.
 5ff0 53595354 454d5f43 4c494e54 5f435452  SYSTEM_CLINT_CTR
 6000 4c203078 66386230 30303030 005f626c  L 0xf8b00000._bl
 6010 6b73697a 65005359 5354454d 5f434c49  ksize.SYSTEM_CLI
 6020 4e545f48 5a203130 30303030 3030005f  NT_HZ 10000000._
 6030 5f726973 63765f78 6c656e20 3332005f  _riscv_xlen 32._
 6040 5245454e 545f4d50 5f503553 28707472  REENT_MP_P5S(ptr
 6050 29202828 70747229 2d3e5f70 35732900  ) ((ptr)->_p5s).
 6060 5f55494e 54505452 5f545f44 45434c41  _UINTPTR_T_DECLA
 6070 52454420 004d5f32 5f535152 54504920  RED .M_2_SQRTPI 
 6080 312e3132 38333739 31363730 39353531  1.12837916709551
 6090 32353733 39300053 59535445 4d5f5541  257390.SYSTEM_UA
 60a0 52545f41 5f415042 20535953 54454d5f  RT_A_APB SYSTEM_
 60b0 55415254 5f305f49 4f5f4150 42005f62  UART_0_IO_APB._b
 60c0 61736500 5f5f5549 4e545054 525f4d41  ase.__UINTPTR_MA
 60d0 585f5f20 30786666 66666666 66665500  X__ 0xffffffffU.
 60e0 64617461 5f636163 68655f69 6e76616c  data_cache_inval
 60f0 69646174 655f6164 64726573 73286164  idate_address(ad
 6100 64726573 73292028 7b206173 6d20766f  dress) ({ asm vo
 6110 6c617469 6c652820 222e776f 72642028  latile( ".word (
 6120 28307835 30304629 207c2028 7265676e  (0x500F) | (regn
 6130 756d5f25 30203c3c 20313529 293b2220  um_%0 << 15));" 
 6140 3a203a20 22722220 28616464 72657373  : : "r" (address
 6150 2920293b 207d2900 5f4d4154 485f485f  ) ); })._MATH_H_
 6160 20005359 5354454d 5f554152 545f305f   .SYSTEM_UART_0_
 6170 494f5f50 4152414d 45544552 5f494e49  IO_PARAMETER_INI
 6180 545f434f 4e464947 5f424155 44524154  T_CONFIG_BAUDRAT
 6190 45203131 35323030 004d5f33 50495f34  E 115200.M_3PI_4
 61a0 20322e33 35363139 34343930 31393233   2.3561944901923
 61b0 34343833 37304530 005f5f49 4545455f  448370E0.__IEEE_
 61c0 4c495454 4c455f45 4e444941 4e200053  LITTLE_ENDIAN .S
 61d0 59535445 4d5f5541 52545f30 5f494f5f  YSTEM_UART_0_IO_
 61e0 50415241 4d455445 525f494e 49545f43  PARAMETER_INIT_C
 61f0 4f4e4649 475f4441 54415f4c 454e4754  ONFIG_DATA_LENGT
 6200 48203700 5f5f4343 5f535550 504f5254  H 7.__CC_SUPPORT
 6210 535f5641 52414449 435f5858 58203100  S_VARADIC_XXX 1.
 6220 5f524545 4e545f54 4d287074 72292028  _REENT_TM(ptr) (
 6230 26287074 72292d3e 5f6e6577 2e5f7265  &(ptr)->_new._re
 6240 656e742e 5f6c6f63 616c7469 6d655f62  ent._localtime_b
 6250 75662900 53595354 454d5f55 4152545f  uf).SYSTEM_UART_
 6260 305f494f 5f504152 414d4554 45525f55  0_IO_PARAMETER_U
 6270 4152545f 4354524c 5f434f4e 4649475f  ART_CTRL_CONFIG_
 6280 44415441 5f574944 54485f4d 41582038  DATA_WIDTH_MAX 8
 6290 005f5f61 72675f74 7970655f 74616728  .__arg_type_tag(
 62a0 6172675f 6b696e64 2c617267 5f696478  arg_kind,arg_idx
 62b0 2c747970 655f7461 675f6964 78292000  ,type_tag_idx) .
 62c0 4249545f 37202831 203c3c20 3729005f  BIT_7 (1 << 7)._
 62d0 5f636f6e 7461696e 65726f66 28782c73  _containerof(x,s
 62e0 2c6d2920 287b2063 6f6e7374 20766f6c  ,m) ({ const vol
 62f0 6174696c 65205f5f 74797065 6f662828  atile __typeof((
 6300 2873202a 2930292d 3e6d2920 2a5f5f78  (s *)0)->m) *__x
 6310 203d2028 78293b20 5f5f4445 5155414c   = (x); __DEQUAL
 6320 49465928 73202a2c 2028636f 6e737420  IFY(s *, (const 
 6330 766f6c61 74696c65 20636861 72202a29  volatile char *)
 6340 5f5f7820 2d205f5f 6f666673 65746f66  __x - __offsetof
 6350 28732c20 6d29293b 7d29005f 5f6c6f63  (s, m));}).__loc
 6360 6b5f636c 6f73655f 72656375 72736976  k_close_recursiv
 6370 65286c6f 636b2920 2828766f 69642920  e(lock) ((void) 
 6380 3029005f 4253445f 53495a45 5f545f20  0)._BSD_SIZE_T_ 
 6390 005f5f69 6e743230 5f5f202b 32005f5f  .__int20__ +2.__
 63a0 6e6f5f6c 6f636b5f 616e616c 79736973  no_lock_analysis
 63b0 205f5f6c 6f636b5f 616e6e6f 74617465   __lock_annotate
 63c0 286e6f5f 74687265 61645f73 61666574  (no_thread_safet
 63d0 795f616e 616c7973 69732900 4750494f  y_analysis).GPIO
 63e0 5f4f5554 5055545f 454e4142 4c452030  _OUTPUT_ENABLE 0
 63f0 78303800 5f666c6f 636b5f74 005f5245  x08._flock_t._RE
 6400 454e545f 53544449 4f5f5354 5245414d  ENT_STDIO_STREAM
 6410 28766172 2c696e64 65782920 26287661  (var,index) &(va
 6420 72292d3e 5f5f7366 5b696e64 65785d00  r)->__sf[index].
 6430 5f5f4649 4c450048 5547455f 56414c46  __FILE.HUGE_VALF
 6440 20285f5f 6275696c 74696e5f 68756765   (__builtin_huge
 6450 5f76616c 66282929 005f4245 47494e5f  _valf())._BEGIN_
 6460 5354445f 4320005f 5f76615f 636f7079  STD_C .__va_copy
 6470 28642c73 29205f5f 6275696c 74696e5f  (d,s) __builtin_
 6480 76615f63 6f707928 642c7329 004d5354  va_copy(d,s).MST
 6490 41545553 5f4d5050 20307830 30303031  ATUS_MPP 0x00001
 64a0 38303000 5f434c4f 434b4944 5f545f20  800._CLOCKID_T_ 
 64b0 756e7369 676e6564 206c6f6e 67005f52  unsigned long._R
 64c0 45454e54 5f434845 434b5f54 4d287074  EENT_CHECK_TM(pt
 64d0 72292000 4d535441 5455535f 48504945  r) .MSTATUS_HPIE
 64e0 20307830 30303030 30343000 5f6d6273   0x00000040._mbs
 64f0 74617465 5f74005f 5f494e54 5f574348  tate_t.__INT_WCH
 6500 41525f54 5f482000 4750494f 5f494e54  AR_T_H .GPIO_INT
 6510 45525255 50545f46 414c4c5f 454e4142  ERRUPT_FALL_ENAB
 6520 4c452030 78323400 53595354 454d5f50  LE 0x24.SYSTEM_P
 6530 4c49435f 53595354 454d5f47 50494f5f  LIC_SYSTEM_GPIO_
 6540 305f494f 5f494e54 45525255 5054535f  0_IO_INTERRUPTS_
 6550 30203132 005f7234 38005f5f 454c465f  0 12._r48.__ELF_
 6560 5f203100 5f5f474e 55434c49 4b455f43  _ 1.__GNUCLIKE_C
 6570 544f525f 53454354 494f4e5f 48414e44  TOR_SECTION_HAND
 6580 4c494e47 20310053 59535445 4d5f5541  LING 1.SYSTEM_UA
 6590 52545f30 5f494f5f 50415241 4d455445  RT_0_IO_PARAMETE
 65a0 525f5258 5f464946 4f5f4445 50544820  R_RX_FIFO_DEPTH 
 65b0 31323800 5f707574 63686172 00425350  128._putchar.BSP
 65c0 5f434c49 4e545f48 5a205359 5354454d  _CLINT_HZ SYSTEM
 65d0 5f434c49 4e545f48 5a00504d 505f5220  _CLINT_HZ.PMP_R 
 65e0 30783031 00475049 4f5f494e 54455252  0x01.GPIO_INTERR
 65f0 5550545f 4c4f575f 454e4142 4c452030  UPT_LOW_ENABLE 0
 6600 78326300 5f5f4442 4c5f4d49 4e5f5f20  x2c.__DBL_MIN__ 
 6610 2828646f 75626c65 29322e32 32353037  ((double)2.22507
 6620 33383538 35303732 30313338 33303930  3858507201383090
 6630 32333237 31373333 32343034 3036652d  23271733240406e-
 6640 3330384c 29005f5f 464c5436 34585f4d  308L).__FLT64X_M
 6650 494e5f5f 20332e33 36323130 33313433  IN__ 3.362103143
 6660 31313230 39333530 36323632 36373738  1120935062626778
 6670 31373332 31373532 3630652d 34393332  1732175260e-4932
 6680 46363478 005f414e 53495f53 54444152  F64x._ANSI_STDAR
 6690 475f485f 2000706c 69635f73 65745f74  G_H_ .plic_set_t
 66a0 68726573 686f6c64 0055494e 5436345f  hreshold.UINT64_
 66b0 43287829 205f5f55 494e5436 345f4328  C(x) __UINT64_C(
 66c0 7829005f 5f6c6f63 6b5f696e 6974286c  x).__lock_init(l
 66d0 6f636b29 20282876 6f696429 20302900  ock) ((void) 0).
 66e0 5f646174 61005549 4e545f4c 45415354  _data.UINT_LEAST
 66f0 385f4d41 5820285f 5f55494e 545f4c45  8_MAX (__UINT_LE
 6700 41535438 5f4d4158 5f5f2900 5f5f474e  AST8_MAX__).__GN
 6710 55435f4d 494e4f52 5f5f2033 005f5f6c  UC_MINOR__ 3.__l
 6720 6f636b5f 72656c65 6173655f 72656375  ock_release_recu
 6730 72736976 65286c6f 636b2920 2828766f  rsive(lock) ((vo
 6740 69642920 3029005f 5f55494e 545f4c45  id) 0).__UINT_LE
 6750 41535433 325f5459 50455f5f 206c6f6e  AST32_TYPE__ lon
 6760 6720756e 7369676e 65642069 6e74005f  g unsigned int._
 6770 5f4c4442 4c5f4d49 4e5f3130 5f455850  _LDBL_MIN_10_EXP
 6780 5f5f2028 2d343933 31290050 4c49435f  __ (-4931).PLIC_
 6790 434f4e54 4558545f 5045525f 48415254  CONTEXT_PER_HART
 67a0 20307831 30303000 5f5f7265 71756972   0x1000.__requir
 67b0 65735f65 78636c75 73697665 282e2e2e  es_exclusive(...
 67c0 29205f5f 6c6f636b 5f616e6e 6f746174  ) __lock_annotat
 67d0 65286578 636c7573 6976655f 6c6f636b  e(exclusive_lock
 67e0 735f7265 71756972 6564285f 5f56415f  s_required(__VA_
 67f0 41524753 5f5f2929 005f5241 4e443438  ARGS__))._RAND48
 6800 5f4d554c 545f3120 28307864 65656329  _MULT_1 (0xdeec)
 6810 005f5f49 4e544d41 585f5459 50455f5f  .__INTMAX_TYPE__
 6820 206c6f6e 67206c6f 6e672069 6e74005f   long long int._
 6830 5f474343 5f41544f 4d49435f 494e545f  _GCC_ATOMIC_INT_
 6840 4c4f434b 5f465245 45203100 73686f72  LOCK_FREE 1.shor
 6850 74005359 5354454d 5f434f52 45535f30  t.SYSTEM_CORES_0
 6860 5f465055 2030005f 5f464c54 3332585f  _FPU 0.__FLT32X_
 6870 45505349 4c4f4e5f 5f20322e 32323034  EPSILON__ 2.2204
 6880 34363034 39323530 33313330 38303834  4604925031308084
 6890 37323633 33333631 38313634 30363265  726333618164062e
 68a0 2d313646 33327800 5f474343 5f4d4158  -16F32x._GCC_MAX
 68b0 5f414c49 474e5f54 20004253 505f5541  _ALIGN_T .BSP_UA
 68c0 52545f54 45524d49 4e414c20 53595354  RT_TERMINAL SYST
 68d0 454d5f55 4152545f 305f494f 5f435452  EM_UART_0_IO_CTR
 68e0 4c005f53 5452494e 47535f48 5f20005f  L._STRINGS_H_ ._
 68f0 53495a45 545f2000 5f535444 4c49425f  SIZET_ ._STDLIB_
 6900 485f2000 5f5f4442 4c5f4841 535f5155  H_ .__DBL_HAS_QU
 6910 4945545f 4e414e5f 5f203100 53595354  IET_NAN__ 1.SYST
 6920 454d5f47 50494f5f 305f494f 5f435452  EM_GPIO_0_IO_CTR
 6930 4c203078 66383031 35303030 00494e54  L 0xf8015000.INT
 6940 33325f43 28782920 5f5f494e 5433325f  32_C(x) __INT32_
 6950 43287829 00535953 54454d5f 4750494f  C(x).SYSTEM_GPIO
 6960 5f415f41 50422053 59535445 4d5f4750  _A_APB SYSTEM_GP
 6970 494f5f30 5f494f5f 41504200 5f4e4f49  IO_0_IO_APB._NOI
 6980 4e4c494e 455f5354 41544943 205f4e4f  NLINE_STATIC _NO
 6990 494e4c49 4e452073 74617469 63004650  INLINE static.FP
 69a0 5f4e4f52 4d414c20 34005f5f 636f6e73  _NORMAL 4.__cons
 69b0 7420636f 6e737400 55494e54 5f4c4541  t const.UINT_LEA
 69c0 53543332 5f4d4158 20285f5f 55494e54  ST32_MAX (__UINT
 69d0 5f4c4541 53543332 5f4d4158 5f5f2900  _LEAST32_MAX__).
 69e0 5f5f434f 50595249 47485428 73292073  __COPYRIGHT(s) s
 69f0 74727563 74205f5f 6861636b 005f5245  truct __hack._RE
 6a00 454e545f 43484543 4b5f454d 45524745  ENT_CHECK_EMERGE
 6a10 4e435928 70747229 20005f5f 464c5431  NCY(ptr) .__FLT1
 6a20 32385f44 454e4f52 4d5f4d49 4e5f5f20  28_DENORM_MIN__ 
 6a30 362e3437 35313735 31313934 33383032  6.47517511943802
 6a40 35313130 39323434 33383935 38323237  5110924438958227
 6a50 36343635 35652d34 39363646 31323800  64655e-4966F128.
 6a60 63726173 68006368 6172202b 30005549  crash.char +0.UI
 6a70 4e545f46 41535433 325f4d41 5820285f  NT_FAST32_MAX (_
 6a80 5f55494e 545f4641 53543332 5f4d4158  _UINT_FAST32_MAX
 6a90 5f5f2900 6373725f 73776170 28637372  __).csr_swap(csr
 6aa0 2c76616c 2920287b 20756e73 69676e65  ,val) ({ unsigne
 6ab0 64206c6f 6e67205f 5f76203d 2028756e  d long __v = (un
 6ac0 7369676e 6564206c 6f6e6729 2876616c  signed long)(val
 6ad0 293b205f 5f61736d 5f5f205f 5f766f6c  ); __asm__ __vol
 6ae0 6174696c 655f5f20 28226373 72727720  atile__ ("csrrw 
 6af0 25302c20 22202363 73722022 2c202531  %0, " #csr ", %1
 6b00 22203a20 223d7222 20285f5f 7629203a  " : "=r" (__v) :
 6b10 2022724b 2220285f 5f762929 3b205f5f   "rK" (__v)); __
 6b20 763b207d 29005f5f 55494e54 5054525f  v; }).__UINTPTR_
 6b30 54595045 5f5f2075 6e736967 6e656420  TYPE__ unsigned 
 6b40 696e7400 5f5f5245 47495354 45525f50  int.__REGISTER_P
 6b50 52454649 585f5f20 005f5f44 45433132  REFIX__ .__DEC12
 6b60 385f5355 424e4f52 4d414c5f 4d494e5f  8_SUBNORMAL_MIN_
 6b70 5f20302e 30303030 30303030 30303030  _ 0.000000000000
 6b80 30303030 30303030 30303030 30303030  0000000000000000
 6b90 30303030 31452d36 31343344 4c005f5f  00001E-6143DL.__
 6ba0 44424c5f 4449475f 5f203135 005f5549  DBL_DIG__ 15._UI
 6bb0 4e543136 5f545f44 45434c41 52454420  NT16_T_DECLARED 
 6bc0 005f5f52 43534944 28732920 73747275  .__RCSID(s) stru
 6bd0 6374205f 5f686163 6b005f5f 53495a45  ct __hack.__SIZE
 6be0 4f465f53 495a455f 545f5f20 34005244  OF_SIZE_T__ 4.RD
 6bf0 54494d45 20307843 30310066 6f726d61  TIME 0xC01.forma
 6c00 74005f5f 55494e54 36345f54 5950455f  t.__UINT64_TYPE_
 6c10 5f206c6f 6e67206c 6f6e6720 756e7369  _ long long unsi
 6c20 676e6564 20696e74 005f5f46 4c543634  gned int.__FLT64
 6c30 5f455053 494c4f4e 5f5f2032 2e323230  _EPSILON__ 2.220
 6c40 34343630 34393235 30333133 30383038  4460492503130808
 6c50 34373236 33333336 31383136 34303632  4726333618164062
 6c60 652d3136 46363400 53595354 454d5f42  e-16F64.SYSTEM_B
 6c70 4d425f50 45524950 48455241 4c5f424d  MB_PERIPHERAL_BM
 6c80 425f5349 5a452030 78313030 30303030  B_SIZE 0x1000000
 6c90 005f5f45 4e445f44 45434c53 20005f5f  .__END_DECLS .__
 6ca0 64617461 74797065 5f747970 655f7461  datatype_type_ta
 6cb0 67286b69 6e642c74 79706529 20005359  g(kind,type) .SY
 6cc0 5354454d 5f554152 545f305f 494f5f43  STEM_UART_0_IO_C
 6cd0 54524c5f 53495a45 20307834 30005f5f  TRL_SIZE 0x40.__
 6ce0 616c6967 6e656428 7829205f 5f617474  aligned(x) __att
 6cf0 72696275 74655f5f 28285f5f 616c6967  ribute__((__alig
 6d00 6e65645f 5f287829 29290075 6e736967  ned__(x))).unsig
 6d10 6e656400 5f6d626c 656e5f73 74617465  ned._mblen_state
 6d20 00627370 5f707269 6e744865 78005541  .bsp_printHex.UA
 6d30 52545f53 54415455 53203078 3034004d  RT_STATUS 0x04.M
 6d40 53544154 55535f55 50494520 30783030  STATUS_UPIE 0x00
 6d50 30303030 3130005f 53545249 4e475f48  000010._STRING_H
 6d60 5f20005f 5f70745f 67756172 6465645f  _ .__pt_guarded_
 6d70 62792878 29205f5f 6c6f636b 5f616e6e  by(x) __lock_ann
 6d80 6f746174 65287074 5f677561 72646564  otate(pt_guarded
 6d90 5f627928 78292900 5f5f6775 61726465  _by(x)).__guarde
 6da0 645f6279 28782920 5f5f6c6f 636b5f61  d_by(x) __lock_a
 6db0 6e6e6f74 61746528 67756172 6465645f  nnotate(guarded_
 6dc0 62792878 29290076 615f6172 6728762c  by(x)).va_arg(v,
 6dd0 6c29205f 5f627569 6c74696e 5f76615f  l) __builtin_va_
 6de0 61726728 762c6c29 005f5359 535f5349  arg(v,l)._SYS_SI
 6df0 5a455f54 5f482000 5f5f5549 4e543136  ZE_T_H .__UINT16
 6e00 5f432863 29206300 5f5f464c 5436345f  _C(c) c.__FLT64_
 6e10 4d494e5f 4558505f 5f20282d 31303231  MIN_EXP__ (-1021
 6e20 29005f5f 53495a45 4f465f50 54524449  ).__SIZEOF_PTRDI
 6e30 46465f54 5f5f2034 005f5f43 435f5355  FF_T__ 4.__CC_SU
 6e40 50504f52 54535f5f 5f494e4c 494e455f  PPORTS___INLINE_
 6e50 5f203100 5f5f4c45 41535431 36202268  _ 1.__LEAST16 "h
 6e60 22005f5f 7072696e 74666c69 6b652866  ".__printflike(f
 6e70 6d746172 672c6669 72737476 61726172  mtarg,firstvarar
 6e80 6729205f 5f617474 72696275 74655f5f  g) __attribute__
 6e90 28285f5f 666f726d 61745f5f 20285f5f  ((__format__ (__
 6ea0 7072696e 74665f5f 2c20666d 74617267  printf__, fmtarg
 6eb0 2c206669 72737476 61726172 67292929  , firstvararg)))
 6ec0 00494e54 5054525f 4d415820 285f5f49  .INTPTR_MAX (__I
 6ed0 4e545054 525f4d41 585f5f29 005f5f66  NTPTR_MAX__).__f
 6ee0 61737463 616c6c20 5f5f6174 74726962  astcall __attrib
 6ef0 7574655f 5f28285f 5f666173 7463616c  ute__((__fastcal
 6f00 6c5f5f29 2900494e 5436345f 4d494e20  l__)).INT64_MIN 
 6f10 282d5f5f 494e5436 345f4d41 585f5f20  (-__INT64_MAX__ 
 6f20 2d203129 005f5f46 4c543634 585f4d41  - 1).__FLT64X_MA
 6f30 585f4558 505f5f20 31363338 34005f52  X_EXP__ 16384._R
 6f40 45454e54 5f534947 4e414c5f 42554628  EENT_SIGNAL_BUF(
 6f50 70747229 20282870 7472292d 3e5f6e65  ptr) ((ptr)->_ne
 6f60 772e5f72 65656e74 2e5f7369 676e616c  w._reent._signal
 6f70 5f627566 29005f5f 41544f4d 49435f52  _buf).__ATOMIC_R
 6f80 454c4158 45442030 005f4154 54524942  ELAXED 0._ATTRIB
 6f90 55544528 61747472 7329205f 5f617474  UTE(attrs) __att
 6fa0 72696275 74655f5f 20286174 74727329  ribute__ (attrs)
 6fb0 005f5f72 65717569 7265735f 73686172  .__requires_shar
 6fc0 6564282e 2e2e2920 5f5f6c6f 636b5f61  ed(...) __lock_a
 6fd0 6e6e6f74 61746528 73686172 65645f6c  nnotate(shared_l
 6fe0 6f636b73 5f726571 75697265 64285f5f  ocks_required(__
 6ff0 56415f41 5247535f 5f292900 5f4b6d61  VA_ARGS__))._Kma
 7000 78202873 697a656f 66202873 697a655f  x (sizeof (size_
 7010 7429203c 3c203329 005f5f44 424c5f48  t) << 3).__DBL_H
 7020 41535f49 4e46494e 4954595f 5f203100  AS_INFINITY__ 1.
 7030 504d505f 4e413420 30783130 0055494e  PMP_NA4 0x10.UIN
 7040 545f4641 53543634 5f4d4158 20285f5f  T_FAST64_MAX (__
 7050 55494e54 5f464153 5436345f 4d41585f  UINT_FAST64_MAX_
 7060 5f290055 494e5436 345f4d41 5820285f  _).UINT64_MAX (_
 7070 5f55494e 5436345f 4d41585f 5f290053  _UINT64_MAX__).S
 7080 59535445 4d5f5541 52545f30 5f494f5f  YSTEM_UART_0_IO_
 7090 50415241 4d455445 525f5541 52545f43  PARAMETER_UART_C
 70a0 54524c5f 434f4e46 49475f43 54535f47  TRL_CONFIG_CTS_G
 70b0 454e2030 00424954 5f362028 31203c3c  EN 0.BIT_6 (1 <<
 70c0 20362900 5f5f7261 6e67656f 66287479   6).__rangeof(ty
 70d0 70652c73 74617274 2c656e64 2920285f  pe,start,end) (_
 70e0 5f6f6666 7365746f 66287479 70652c20  _offsetof(type, 
 70f0 656e6429 202d205f 5f6f6666 7365746f  end) - __offseto
 7100 66287479 70652c20 73746172 74292900  f(type, start)).
 7110 7375626f 70746172 67005f5f 474e5543  suboptarg.__GNUC
 7120 4c494b45 5f5f5f4f 46465345 544f4620  LIKE___OFFSETOF 
 7130 31006973 67726561 74657265 7175616c  1.isgreaterequal
 7140 285f5f78 2c5f5f79 2920285f 5f627569  (__x,__y) (__bui
 7150 6c74696e 5f697367 72656174 65726571  ltin_isgreatereq
 7160 75616c20 285f5f78 2c205f5f 79292900  ual (__x, __y)).
 7170 5f5f5349 5a454f46 5f464c4f 41545f5f  __SIZEOF_FLOAT__
 7180 20340055 494e5438 5f432878 29205f5f   4.UINT8_C(x) __
 7190 55494e54 385f4328 7829005f 5f444543  UINT8_C(x).__DEC
 71a0 36345f4d 494e5f5f 2031452d 33383344  64_MIN__ 1E-383D
 71b0 44005244 494e5354 52455448 20307843  D.RDINSTRETH 0xC
 71c0 38320067 70696f5f 7365744f 75747075  82.gpio_setOutpu
 71d0 74005f6d 61787764 73005f5f 68617665  t._maxwds.__have
 71e0 5f6c6f6e 67333220 31005f47 4c4f4241  _long32 1._GLOBA
 71f0 4c5f5245 454e5420 5f676c6f 62616c5f  L_REENT _global_
 7200 696d7075 72655f70 7472005f 4e554c4c  impure_ptr._NULL
 7210 2030005f 5f666c65 78617272 205b305d   0.__flexarr [0]
 7220 006d6361 75736500 5f5f746d 5f796561  .mcause.__tm_yea
 7230 72005f52 4541445f 57524954 455f5245  r._READ_WRITE_RE
 7240 5455524e 5f545950 45205f73 73697a65  TURN_TYPE _ssize
 7250 5f74005f 5f494e54 31365f4d 41585f5f  _t.__INT16_MAX__
 7260 20307837 66666600 5f5f7269 7363765f   0x7fff.__riscv_
 7270 6d756c20 31005359 5354454d 5f493243  mul 1.SYSTEM_I2C
 7280 5f305f49 4f5f4354 524c5f53 495a4520  _0_IO_CTRL_SIZE 
 7290 30783130 30005f5f 4445564f 4c415449  0x100.__DEVOLATI
 72a0 4c452874 7970652c 76617229 20282874  LE(type,var) ((t
 72b0 79706529 285f5f75 696e7470 74725f74  ype)(__uintptr_t
 72c0 2928766f 6c617469 6c652076 6f696420  )(volatile void 
 72d0 2a292876 61722929 005f5f57 43484152  *)(var)).__WCHAR
 72e0 5f545f5f 20005f5f 5353505f 464f5254  _T__ .__SSP_FORT
 72f0 4946595f 4c455645 4c203000 5f5f474e  IFY_LEVEL 0.__GN
 7300 55434c49 4b455f42 55494c54 494e5f53  UCLIKE_BUILTIN_S
 7310 54444152 47203100 5f5f5349 5a455f54  TDARG 1.__SIZE_T
 7320 5f5f2000 5f5f5853 495f5649 5349424c  __ .__XSI_VISIBL
 7330 45203000 5f726573 756c745f 6b005f5f  E 0._result_k.__
 7340 464c5431 32385f4d 414e545f 4449475f  FLT128_MANT_DIG_
 7350 5f203131 33005f5f 73747266 6d6f6e6c  _ 113.__strfmonl
 7360 696b6528 666d7461 72672c66 69727374  ike(fmtarg,first
 7370 76617261 72672920 5f5f6174 74726962  vararg) __attrib
 7380 7574655f 5f28285f 5f666f72 6d61745f  ute__((__format_
 7390 5f20285f 5f737472 666d6f6e 5f5f2c20  _ (__strfmon__, 
 73a0 666d7461 72672c20 66697273 74766172  fmtarg, firstvar
 73b0 61726729 2929004d 5f49564c 4e313020  arg))).M_IVLN10 
 73c0 302e3433 34323934 34383139 30333235  0.43429448190325
 73d0 31383237 3635005f 5f464153 54333220  182765.__FAST32 
 73e0 005f5f53 49475f41 544f4d49 435f5749  .__SIG_ATOMIC_WI
 73f0 4454485f 5f203332 005f5f47 4e55435f  DTH__ 32.__GNUC_
 7400 50524552 45515f5f 286d612c 6d692920  PREREQ__(ma,mi) 
 7410 5f5f474e 55435f50 52455245 51286d61  __GNUC_PREREQ(ma
 7420 2c206d69 29005f5f 6578706f 72746564  , mi).__exported
 7430 205f5f61 74747269 62757465 5f5f2828   __attribute__((
 7440 5f5f7669 73696269 6c697479 5f5f2822  __visibility__("
 7450 64656661 756c7422 29292900 5f5f7075  default"))).__pu
 7460 72653220 5f5f6174 74726962 7574655f  re2 __attribute_
 7470 5f28285f 5f636f6e 73745f5f 2929005f  _((__const__))._
 7480 5f464253 44494428 73292073 74727563  _FBSDID(s) struc
 7490 74205f5f 6861636b 0076615f 656e6428  t __hack.va_end(
 74a0 7629205f 5f627569 6c74696e 5f76615f  v) __builtin_va_
 74b0 656e6428 7629005f 5f756e72 65616368  end(v).__unreach
 74c0 61626c65 2829205f 5f627569 6c74696e  able() __builtin
 74d0 5f756e72 65616368 61626c65 2829005f  _unreachable()._
 74e0 6c626673 697a6500 5f5f5349 5a454f46  lbfsize.__SIZEOF
 74f0 5f57494e 545f545f 5f203400 5f696e64  _WINT_T__ 4._ind
 7500 005f554e 4255465f 53545245 414d5f4f  ._UNBUF_STREAM_O
 7510 50542031 00676174 65776179 005f5f6c  PT 1.gateway.__l
 7520 6f636b73 5f736861 72656428 2e2e2e29  ocks_shared(...)
 7530 205f5f6c 6f636b5f 616e6e6f 74617465   __lock_annotate
 7540 28736861 7265645f 6c6f636b 5f66756e  (shared_lock_fun
 7550 6374696f 6e285f5f 56415f41 5247535f  ction(__VA_ARGS_
 7560 5f292900 5f5f474e 55434c49 4b455f41  _)).__GNUCLIKE_A
 7570 534d2033 00475049 4f302053 59535445  SM 3.GPIO0 SYSTE
 7580 4d5f4750 494f5f30 5f494f5f 4354524c  M_GPIO_0_IO_CTRL
 7590 005f5f49 4e545f46 41535438 5f4d4158  .__INT_FAST8_MAX
 75a0 5f5f2030 78376666 66666666 66005f5f  __ 0x7fffffff.__
 75b0 464c5433 325f4841 535f4445 4e4f524d  FLT32_HAS_DENORM
 75c0 5f5f2031 004d4158 464c4f41 5420332e  __ 1.MAXFLOAT 3.
 75d0 34303238 32333437 652b3338 46004650  40282347e+38F.FP
 75e0 5f494c4f 47423020 282d5f5f 494e545f  _ILOGB0 (-__INT_
 75f0 4d41585f 5f29005f 5f464153 54382000  MAX__).__FAST8 .
 7600 5f524545 4e545f53 49474e47 414d2870  _REENT_SIGNGAM(p
 7610 74722920 28287074 72292d3e 5f6e6577  tr) ((ptr)->_new
 7620 2e5f7265 656e742e 5f67616d 6d615f73  ._reent._gamma_s
 7630 69676e67 616d2900 5f4d4143 48494e45  igngam)._MACHINE
 7640 5f5f5459 5045535f 4820005f 5f494e54  __TYPES_H .__INT
 7650 5f464153 5433325f 57494454 485f5f20  _FAST32_WIDTH__ 
 7660 3332005f 4e45574c 49425f56 45525349  32._NEWLIB_VERSI
 7670 4f4e2022 332e312e 3022005f 52414e44  ON "3.1.0"._RAND
 7680 34385f4d 554c545f 30202830 78653636  48_MULT_0 (0xe66
 7690 6429005f 69735f63 7861005f 5f474e55  d)._is_cxa.__GNU
 76a0 434c494b 455f4255 494c5449 4e5f5641  CLIKE_BUILTIN_VA
 76b0 414c4953 54203100 5f5f5349 5a454f46  ALIST 1.__SIZEOF
 76c0 5f4c4f4e 475f444f 55424c45 5f5f2031  _LONG_DOUBLE__ 1
 76d0 36004d49 455f4d54 49452028 31203c3c  6.MIE_MTIE (1 <<
 76e0 20434155 53455f4d 41434849 4e455f54   CAUSE_MACHINE_T
 76f0 494d4552 29005f6e 65787466 005f5f49  IMER)._nextf.__I
 7700 4e543332 20226c22 005f5f6c 6f636b5f  NT32 "l".__lock_
 7710 616e6e6f 74617465 28782920 00524449  annotate(x) .RDI
 7720 4e535452 45542030 78433032 00737472  NSTRET 0xC02.str
 7730 746f6466 20737472 746f6600 5f5f464c  todf strtof.__FL
 7740 54313238 5f4d4158 5f5f2031 2e313839  T128_MAX__ 1.189
 7750 37333134 39353335 37323331 37363530  7314953572317650
 7760 38353735 39333236 36323830 30373032  8575932662800702
 7770 652b3439 33324631 3238005f 5f55494e  e+4932F128.__UIN
 7780 5433325f 54595045 5f5f206c 6f6e6720  T32_TYPE__ long 
 7790 756e7369 676e6564 20696e74 005f5f47  unsigned int.__G
 77a0 4e55434c 494b455f 4d415448 5f425549  NUCLIKE_MATH_BUI
 77b0 4c54494e 5f434f4e 5354414e 54532000  LTIN_CONSTANTS .
 77c0 454e4142 4c455f50 52494e54 465f5741  ENABLE_PRINTF_WA
 77d0 524e494e 47203100 454e4142 4c455f4c  RNING 1.ENABLE_L
 77e0 4f4e475f 4c4f4e47 5f535550 504f5254  ONG_LONG_SUPPORT
 77f0 2030005f 44454641 554c545f 534f5552   0._DEFAULT_SOUR
 7800 4345005f 5f464c54 3132385f 4841535f  CE.__FLT128_HAS_
 7810 44454e4f 524d5f5f 2031005f 5f564552  DENORM__ 1.__VER
 7820 53494f4e 5f5f2022 382e332e 3022005f  SION__ "8.3.0"._
 7830 5f43435f 53555050 4f525453 5f574152  _CC_SUPPORTS_WAR
 7840 4e494e47 20310070 6c696300 5f5f554c  NING 1.plic.__UL
 7850 6f6e6700 5f5f6173 73657274 735f7368  ong.__asserts_sh
 7860 61726564 282e2e2e 29205f5f 6c6f636b  ared(...) __lock
 7870 5f616e6e 6f746174 65286173 73657274  _annotate(assert
 7880 5f736861 7265645f 6c6f636b 285f5f56  _shared_lock(__V
 7890 415f4152 47535f5f 2929005f 5245454e  A_ARGS__))._REEN
 78a0 545f4348 45434b5f 52414e44 34382870  T_CHECK_RAND48(p
 78b0 74722920 005f494e 54385f54 5f444543  tr) ._INT8_T_DEC
 78c0 4c415245 4420005f 5f6c6f63 6b5f7265  LARED .__lock_re
 78d0 6c656173 65286c6f 636b2920 2828766f  lease(lock) ((vo
 78e0 69642920 3029005f 5f53495a 454f465f  id) 0).__SIZEOF_
 78f0 494e545f 5f203400 5f425344 5f574348  INT__ 4._BSD_WCH
 7900 41525f54 5f005549 4e543136 5f432878  AR_T_.UINT16_C(x
 7910 29205f5f 55494e54 31365f43 28782900  ) __UINT16_C(x).
 7920 53595354 454d5f52 49534356 5f495341  SYSTEM_RISCV_ISA
 7930 5f455854 5f442030 005f5f6c 6f636b5f  _EXT_D 0.__lock_
 7940 61637175 69726528 6c6f636b 29202828  acquire(lock) ((
 7950 766f6964 29203029 00627370 5f707574  void) 0).bsp_put
 7960 43686172 28632920 75617274 5f777269  Char(c) uart_wri
 7970 74652842 53505f55 4152545f 5445524d  te(BSP_UART_TERM
 7980 494e414c 2c206329 3b005f53 59535f5f  INAL, c);._SYS__
 7990 494e5453 55505f48 20007265 61645f75  INTSUP_H .read_u
 79a0 3332004d 53544154 55533634 5f534420  32.MSTATUS64_SD 
 79b0 30783830 30303030 30303030 30303030  0x80000000000000
 79c0 3030005f 5f474e55 434c494b 455f4255  00.__GNUCLIKE_BU
 79d0 494c5449 4e5f4d45 4d435059 2031004d  ILTIN_MEMCPY 1.M
 79e0 5f50495f 3220312e 35373037 39363332  _PI_2 1.57079632
 79f0 36373934 38393636 31393233 005f7265  679489661923._re
 7a00 73756c74 00494e54 5f464153 5436345f  sult.INT_FAST64_
 7a10 4d415820 285f5f49 4e545f46 41535436  MAX (__INT_FAST6
 7a20 345f4d41 585f5f29 005f5f6c 6f636b61  4_MAX__).__locka
 7a30 626c6520 5f5f6c6f 636b5f61 6e6e6f74  ble __lock_annot
 7a40 61746528 6c6f636b 61626c65 29005f50  ate(lockable)._P
 7a50 4f534958 5f534f55 52434520 31005f5f  OSIX_SOURCE 1.__
 7a60 4c44424c 5f4d494e 5f5f2033 2e333632  LDBL_MIN__ 3.362
 7a70 31303331 34333131 32303933 35303632  1031431120935062
 7a80 36323637 37383137 33323137 35323630  6267781732175260
 7a90 652d3439 33324c00 5f5f5549 4e545f46  e-4932L.__UINT_F
 7aa0 41535431 365f5459 50455f5f 20756e73  AST16_TYPE__ uns
 7ab0 69676e65 6420696e 7400696e 74657272  igned int.interr
 7ac0 75707400 5f5f6e65 65645f77 696e745f  upt.__need_wint_
 7ad0 74200053 59535445 4d5f5541 52545f30  t .SYSTEM_UART_0
 7ae0 5f494f5f 50415241 4d455445 525f5541  _IO_PARAMETER_UA
 7af0 52545f43 54524c5f 434f4e46 49475f43  RT_CTRL_CONFIG_C
 7b00 4c4f434b 5f444956 49444552 5f574944  LOCK_DIVIDER_WID
 7b10 54482032 30005f5f 53495a45 5f574944  TH 20.__SIZE_WID
 7b20 54485f5f 20333200 464c545f 4556414c  TH__ 32.FLT_EVAL
 7b30 5f4d4554 484f4420 5f5f464c 545f4556  _METHOD __FLT_EV
 7b40 414c5f4d 4554484f 445f5f00 5f535953  AL_METHOD__._SYS
 7b50 5f535452 494e475f 4820005f 5f57494e  _STRING_H .__WIN
 7b60 545f4d49 4e5f5f20 3055005f 6f66665f  T_MIN__ 0U._off_
 7b70 74005f5f 464c5436 345f4449 475f5f20  t.__FLT64_DIG__ 
 7b80 3135005f 494e5433 325f4551 5f4c4f4e  15._INT32_EQ_LON
 7b90 4720005f 5f464c54 5f4d494e 5f5f2031  G .__FLT_MIN__ 1
 7ba0 2e313735 34393433 35303832 32323837  .175494350822287
 7bb0 35303739 36383733 36353337 32323232  5079687365372222
 7bc0 34353638 652d3338 46005f5f 43435f53  4568e-38F.__CC_S
 7bd0 5550504f 5254535f 5f5f4655 4e435f5f  UPPORTS___FUNC__
 7be0 2031005f 5f494e54 5f4c4541 5354385f   1.__INT_LEAST8_
 7bf0 57494454 485f5f20 38005f5f 6c6f6e67  WIDTH__ 8.__long
 7c00 5f646f75 626c655f 74206c6f 6e672064  _double_t long d
 7c10 6f75626c 65005f5f 494e545f 4c454153  ouble.__INT_LEAS
 7c20 5431365f 54595045 5f5f2073 686f7274  T16_TYPE__ short
 7c30 20696e74 005f6164 64005f5f 58535452   int._add.__XSTR
 7c40 494e4728 7829205f 5f535452 494e4728  ING(x) __STRING(
 7c50 7829005f 5f444543 4f4e5354 28747970  x).__DECONST(typ
 7c60 652c7661 72292028 28747970 6529285f  e,var) ((type)(_
 7c70 5f75696e 74707472 5f742928 636f6e73  _uintptr_t)(cons
 7c80 7420766f 6964202a 29287661 72292900  t void *)(var)).
 7c90 43415553 455f4d41 4348494e 455f5449  CAUSE_MACHINE_TI
 7ca0 4d455220 3700666c 6f617400 4d535441  MER 7.float.MSTA
 7cb0 5455535f 54572030 78303032 30303030  TUS_TW 0x0020000
 7cc0 30005f5f 746d5f68 6f757200 5f524545  0.__tm_hour._REE
 7cd0 4e545f47 45544441 54455f45 52525f50  NT_GETDATE_ERR_P
 7ce0 28707472 29202826 28287074 72292d3e  (ptr) (&((ptr)->
 7cf0 5f6e6577 2e5f7265 656e742e 5f676574  _new._reent._get
 7d00 64617465 5f657272 2929005f 5f734649  date_err)).__sFI
 7d10 4c45005f 5f464c54 36345f4d 414e545f  LE.__FLT64_MANT_
 7d20 4449475f 5f203533 005f5f4c 44424c5f  DIG__ 53.__LDBL_
 7d30 4d494e5f 4558505f 5f20282d 31363338  MIN_EXP__ (-1638
 7d40 3129005f 5f636f6d 70696c65 725f6d65  1).__compiler_me
 7d50 6d626172 2829205f 5f61736d 205f5f76  mbar() __asm __v
 7d60 6f6c6174 696c6528 22202220 3a203a20  olatile(" " : : 
 7d70 3a20226d 656d6f72 79222900 4d535441  : "memory").MSTA
 7d80 5455535f 53494520 30783030 30303030  TUS_SIE 0x000000
 7d90 3032005f 5245454e 545f5354 52544f4b  02._REENT_STRTOK
 7da0 5f4c4153 54287074 72292028 28707472  _LAST(ptr) ((ptr
 7db0 292d3e5f 6e65772e 5f726565 6e742e5f  )->_new._reent._
 7dc0 73747274 6f6b5f6c 61737429 005f5f46  strtok_last).__F
 7dd0 4c543634 5f44454e 4f524d5f 4d494e5f  LT64_DENORM_MIN_
 7de0 5f20342e 39343036 35363435 38343132  _ 4.940656458412
 7df0 34363534 34313736 35363837 39323836  4654417656879286
 7e00 38323231 33373265 2d333234 46363400  8221372e-324F64.
 7e10 5f5f4442 4c5f4550 53494c4f 4e5f5f20  __DBL_EPSILON__ 
 7e20 2828646f 75626c65 29322e32 32303434  ((double)2.22044
 7e30 36303439 32353033 31333038 30383437  6049250313080847
 7e40 32363333 33363138 31363430 3632652d  26333618164062e-
 7e50 31364c29 005f5f6e 6565645f 5f5f7661  16L).__need___va
 7e60 5f6c6973 74005f5f 6c6f636b 5f747279  _list.__lock_try
 7e70 5f616371 75697265 5f726563 75727369  _acquire_recursi
 7e80 7665286c 6f636b29 20282876 6f696429  ve(lock) ((void)
 7e90 20302900 53595354 454d5f50 4c49435f   0).SYSTEM_PLIC_
 7ea0 53595354 454d5f49 32435f30 5f494f5f  SYSTEM_I2C_0_IO_
 7eb0 494e5445 52525550 54203800 5f6d6273  INTERRUPT 8._mbs
 7ec0 72746f77 63735f73 74617465 005f5f61  rtowcs_state.__a
 7ed0 74747269 62757465 5f707572 655f5f20  ttribute_pure__ 
 7ee0 0055494e 54385f4d 41582028 5f5f5549  .UINT8_MAX (__UI
 7ef0 4e54385f 4d41585f 5f29005f 5f4c4f4e  NT8_MAX__).__LON
 7f00 475f4d41 585f5f20 30783766 66666666  G_MAX__ 0x7fffff
 7f10 66664c00 5f5f4c44 424c5f45 5053494c  ffL.__LDBL_EPSIL
 7f20 4f4e5f5f 20312e39 32353932 39393434  ON__ 1.925929944
 7f30 33383732 33353835 33303535 39373739  3872358530559779
 7f40 34323538 34393237 3332652d 33344c00  4258492732e-34L.
 7f50 4750494f 5f494e54 45525255 50545f48  GPIO_INTERRUPT_H
 7f60 4947485f 454e4142 4c452030 78323800  IGH_ENABLE 0x28.
 7f70 6c6f6e67 202b3400 5f5f696e 7433325f  long +4.__int32_
 7f80 74005f5f 6e6f6e6e 756c6c28 7829205f  t.__nonnull(x) _
 7f90 5f617474 72696275 74655f5f 28285f5f  _attribute__((__
 7fa0 6e6f6e6e 756c6c5f 5f207829 29005f52  nonnull__ x))._R
 7fb0 414e4434 385f4144 44202830 78303030  AND48_ADD (0x000
 7fc0 6229004d 53544154 55535f4d 49452030  b).MSTATUS_MIE 0
 7fd0 78303030 30303030 38005353 54415455  x00000008.SSTATU
 7fe0 535f4d58 52203078 30303038 30303030  S_MXR 0x00080000
 7ff0 00424954 5f302028 31203c3c 20302900  .BIT_0 (1 << 0).
 8000 4249545f 32302028 31203c3c 20323029  BIT_20 (1 << 20)
 8010 00535953 54454d5f 504c4943 5f435452  .SYSTEM_PLIC_CTR
 8020 4c203078 66386330 30303030 005f5f46  L 0xf8c00000.__F
 8030 4c543332 585f4d41 4e545f44 49475f5f  LT32X_MANT_DIG__
 8040 20353300 6273705f 696e6974 2829207b   53.bsp_init() {
 8050 7d005f5f 57434841 525f5749 4454485f  }.__WCHAR_WIDTH_
 8060 5f203332 005f494e 5436345f 545f4445  _ 32._INT64_T_DE
 8070 434c4152 45442000 5f5f7367 6c756500  CLARED .__sglue.
 8080 5f5f434f 4e434154 28782c79 29205f5f  __CONCAT(x,y) __
 8090 434f4e43 41543128 782c7929 00636861  CONCAT1(x,y).cha
 80a0 72616374 6572005f 5f494e54 31365f43  racter.__INT16_C
 80b0 28632920 63006273 705f7072 696e7466  (c) c.bsp_printf
 80c0 005f5f76 615f6c69 73745f5f 20005f66  .__va_list__ ._f
 80d0 6e617267 73007368 6f727420 2b31005f  nargs.short +1._
 80e0 5f746d5f 69736473 74005f5f 44455155  _tm_isdst.__DEQU
 80f0 414c4946 59287479 70652c76 61722920  ALIFY(type,var) 
 8100 28287479 70652928 5f5f7569 6e747074  ((type)(__uintpt
 8110 725f7429 28636f6e 73742076 6f6c6174  r_t)(const volat
 8120 696c6520 766f6964 202a2928 76617229  ile void *)(var)
 8130 29005f52 45454e54 5f494e49 545f5054  )._REENT_INIT_PT
 8140 525f5a45 524f4544 28766172 29207b20  R_ZEROED(var) { 
 8150 28766172 292d3e5f 73746469 6e203d20  (var)->_stdin = 
 8160 5f524545 4e545f53 5444494f 5f535452  _REENT_STDIO_STR
 8170 45414d28 7661722c 2030293b 20287661  EAM(var, 0); (va
 8180 72292d3e 5f737464 6f757420 3d205f52  r)->_stdout = _R
 8190 45454e54 5f535444 494f5f53 54524541  EENT_STDIO_STREA
 81a0 4d287661 722c2031 293b2028 76617229  M(var, 1); (var)
 81b0 2d3e5f73 74646572 72203d20 5f524545  ->_stderr = _REE
 81c0 4e545f53 5444494f 5f535452 45414d28  NT_STDIO_STREAM(
 81d0 7661722c 2032293b 20287661 72292d3e  var, 2); (var)->
 81e0 5f6e6577 2e5f7265 656e742e 5f72616e  _new._reent._ran
 81f0 645f6e65 7874203d 20313b20 28766172  d_next = 1; (var
 8200 292d3e5f 6e65772e 5f726565 6e742e5f  )->_new._reent._
 8210 7234382e 5f736565 645b305d 203d205f  r48._seed[0] = _
 8220 52414e44 34385f53 4545445f 303b2028  RAND48_SEED_0; (
 8230 76617229 2d3e5f6e 65772e5f 7265656e  var)->_new._reen
 8240 742e5f72 34382e5f 73656564 5b315d20  t._r48._seed[1] 
 8250 3d205f52 414e4434 385f5345 45445f31  = _RAND48_SEED_1
 8260 3b202876 6172292d 3e5f6e65 772e5f72  ; (var)->_new._r
 8270 65656e74 2e5f7234 382e5f73 6565645b  eent._r48._seed[
 8280 325d203d 205f5241 4e443438 5f534545  2] = _RAND48_SEE
 8290 445f323b 20287661 72292d3e 5f6e6577  D_2; (var)->_new
 82a0 2e5f7265 656e742e 5f723438 2e5f6d75  ._reent._r48._mu
 82b0 6c745b30 5d203d20 5f52414e 4434385f  lt[0] = _RAND48_
 82c0 4d554c54 5f303b20 28766172 292d3e5f  MULT_0; (var)->_
 82d0 6e65772e 5f726565 6e742e5f 7234382e  new._reent._r48.
 82e0 5f6d756c 745b315d 203d205f 52414e44  _mult[1] = _RAND
 82f0 34385f4d 554c545f 313b2028 76617229  48_MULT_1; (var)
 8300 2d3e5f6e 65772e5f 7265656e 742e5f72  ->_new._reent._r
 8310 34382e5f 6d756c74 5b325d20 3d205f52  48._mult[2] = _R
 8320 414e4434 385f4d55 4c545f32 3b202876  AND48_MULT_2; (v
 8330 6172292d 3e5f6e65 772e5f72 65656e74  ar)->_new._reent
 8340 2e5f7234 382e5f61 6464203d 205f5241  ._r48._add = _RA
 8350 4e443438 5f414444 3b207d00 4546585f  ND48_ADD; }.EFX_
 8360 53454d49 484f5354 494e475f 4820005f  SEMIHOSTING_H ._
 8370 5f41544f 4d49435f 4143515f 52454c20  _ATOMIC_ACQ_REL 
 8380 34005f5f 494e545f 4c454153 54385f54  4.__INT_LEAST8_T
 8390 5950455f 5f207369 676e6564 20636861  YPE__ signed cha
 83a0 72005f5f 494e5433 325f5459 50455f5f  r.__INT32_TYPE__
 83b0 206c6f6e 6720696e 74005f5f 7061636b   long int.__pack
 83c0 6564205f 5f617474 72696275 74655f5f  ed __attribute__
 83d0 28285f5f 7061636b 65645f5f 2929005f  ((__packed__))._
 83e0 5f44424c 5f4d494e 5f31305f 4558505f  _DBL_MIN_10_EXP_
 83f0 5f20282d 33303729 004d5354 41545553  _ (-307).MSTATUS
 8400 5f484945 20307830 30303030 30303400  _HIE 0x00000004.
 8410 5f57414e 545f494f 5f4c4f4e 475f4c4f  _WANT_IO_LONG_LO
 8420 4e472031 0046505f 494e4649 4e495445  NG 1.FP_INFINITE
 8430 2031005f 5f44424c 5f44454e 4f524d5f   1.__DBL_DENORM_
 8440 4d494e5f 5f202828 646f7562 6c652934  MIN__ ((double)4
 8450 2e393430 36353634 35383431 32343635  .940656458412465
 8460 34343137 36353638 37393238 36383232  4417656879286822
 8470 31333732 652d3332 344c2900 4253505f  1372e-324L).BSP_
 8480 434c494e 54205359 5354454d 5f434c49  CLINT SYSTEM_CLI
 8490 4e545f43 54524c00 5f5f4c44 424c5f44  NT_CTRL.__LDBL_D
 84a0 49475f5f 20333300 5f5f696e 74323000  IG__ 33.__int20.
 84b0 494e545f 46415354 33325f4d 41582028  INT_FAST32_MAX (
 84c0 5f5f494e 545f4641 53543332 5f4d4158  __INT_FAST32_MAX
 84d0 5f5f2900 5f5f746d 5f6d696e 005f5245  __).__tm_min._RE
 84e0 454e545f 41534354 494d455f 53495a45  ENT_ASCTIME_SIZE
 84f0 20323600 494e5450 54525f4d 494e2028   26.INTPTR_MIN (
 8500 2d5f5f49 4e545054 525f4d41 585f5f20  -__INTPTR_MAX__ 
 8510 2d203129 00504c49 435f5052 494f5249  - 1).PLIC_PRIORI
 8520 54595f42 41534520 30783030 30300062  TY_BASE 0x0000.b
 8530 73705f70 75745374 72696e67 28732920  sp_putString(s) 
 8540 75617274 5f777269 74655374 72284253  uart_writeStr(BS
 8550 505f5541 52545f54 45524d49 4e414c2c  P_UART_TERMINAL,
 8560 2073293b 005f5641 5f4c4953 545f2000   s);._VA_LIST_ .
 8570 5f504f53 49585f43 5f534f55 52434500  _POSIX_C_SOURCE.
 8580 5f5f5549 4e544d41 585f4d41 585f5f20  __UINTMAX_MAX__ 
 8590 30786666 66666666 66666666 66666666  0xffffffffffffff
 85a0 6666554c 4c005f5f 44424c5f 4d414e54  ffULL.__DBL_MANT
 85b0 5f444947 5f5f2035 33005f5f 756e626f  _DIG__ 53.__unbo
 85c0 756e6465 6420005f 52414e44 34385f53  unded ._RAND48_S
 85d0 4545445f 32202830 78313233 3429005f  EED_2 (0x1234)._
 85e0 5f535953 5f4c4f43 4b5f485f 5f20005f  _SYS_LOCK_H__ ._
 85f0 5245454e 545f494e 49545f41 54455849  REENT_INIT_ATEXI
 8600 54205f4e 554c4c2c 205f4154 45584954  T _NULL, _ATEXIT
 8610 5f494e49 542c005f 4743435f 53495a45  _INIT,._GCC_SIZE
 8620 5f542000 4d454445 4c45475f 53544f52  _T .MEDELEG_STOR
 8630 455f5041 47455f46 41554c54 20283120  E_PAGE_FAULT (1 
 8640 3c3c2031 3529005f 5f494e54 5f4d4158  << 15).__INT_MAX
 8650 5f5f2030 78376666 66666666 66005f5f  __ 0x7fffffff.__
 8660 55494e54 31365f4d 41585f5f 20307866  UINT16_MAX__ 0xf
 8670 66666600 5f524545 4e545f49 4e495428  fff._REENT_INIT(
 8680 76617229 207b2030 2c205f52 45454e54  var) { 0, _REENT
 8690 5f535444 494f5f53 54524541 4d282628  _STDIO_STREAM(&(
 86a0 76617229 2c203029 2c205f52 45454e54  var), 0), _REENT
 86b0 5f535444 494f5f53 54524541 4d282628  _STDIO_STREAM(&(
 86c0 76617229 2c203129 2c205f52 45454e54  var), 1), _REENT
 86d0 5f535444 494f5f53 54524541 4d282628  _STDIO_STREAM(&(
 86e0 76617229 2c203229 2c20302c 2022222c  var), 2), 0, "",
 86f0 20302c20 5f4e554c 4c2c2030 2c205f4e   0, _NULL, 0, _N
 8700 554c4c2c 205f4e55 4c4c2c20 302c205f  ULL, _NULL, 0, _
 8710 4e554c4c 2c205f4e 554c4c2c 20302c20  NULL, _NULL, 0, 
 8720 5f4e554c 4c2c207b 207b2030 2c205f4e  _NULL, { { 0, _N
 8730 554c4c2c 2022222c 207b302c 20302c20  ULL, "", {0, 0, 
 8740 302c2030 2c20302c 20302c20 302c2030  0, 0, 0, 0, 0, 0
 8750 2c20307d 2c20302c 20312c20 7b207b5f  , 0}, 0, 1, { {_
 8760 52414e44 34385f53 4545445f 302c205f  RAND48_SEED_0, _
 8770 52414e44 34385f53 4545445f 312c205f  RAND48_SEED_1, _
 8780 52414e44 34385f53 4545445f 327d2c20  RAND48_SEED_2}, 
 8790 7b5f5241 4e443438 5f4d554c 545f302c  {_RAND48_MULT_0,
 87a0 205f5241 4e443438 5f4d554c 545f312c   _RAND48_MULT_1,
 87b0 205f5241 4e443438 5f4d554c 545f327d   _RAND48_MULT_2}
 87c0 2c205f52 414e4434 385f4144 44207d2c  , _RAND48_ADD },
 87d0 207b302c 207b307d 7d2c207b 302c207b   {0, {0}}, {0, {
 87e0 307d7d2c 207b302c 207b307d 7d2c2022  0}}, {0, {0}}, "
 87f0 222c2022 222c2030 2c207b30 2c207b30  ", "", 0, {0, {0
 8800 7d7d2c20 7b302c20 7b307d7d 2c207b30  }}, {0, {0}}, {0
 8810 2c207b30 7d7d2c20 7b302c20 7b307d7d  , {0}}, {0, {0}}
 8820 2c207b30 2c207b30 7d7d207d 207d2c20  , {0, {0}} } }, 
 8830 5f524545 4e545f49 4e49545f 41544558  _REENT_INIT_ATEX
 8840 4954205f 4e554c4c 2c207b5f 4e554c4c  IT _NULL, {_NULL
 8850 2c20302c 205f4e55 4c4c7d20 7d005f5f  , 0, _NULL} }.__
 8860 616c7761 79735f69 6e6c696e 65205f5f  always_inline __
 8870 696e6c69 6e655f5f 205f5f61 74747269  inline__ __attri
 8880 62757465 5f5f2828 5f5f616c 77617973  bute__((__always
 8890 5f696e6c 696e655f 5f292900 5f5f4c6f  _inline__)).__Lo
 88a0 6e67206c 6f6e6700 2e2e2f63 6f6d6d6f  ng long.../commo
 88b0 6e2f7374 6172742e 5300474e 55204153  n/start.S.GNU AS
 88c0 20322e33 32002e2e 2f636f6d 6d6f6e2f   2.32.../common/
 88d0 74726170 2e5300                      trap.S.         
Contents of section .comment:
 0000 4743433a 20287850 61636b20 474e5520  GCC: (xPack GNU 
 0010 52495343 2d562045 6d626564 64656420  RISC-V Embedded 
 0020 4743432c 2036342d 62697429 20382e33  GCC, 64-bit) 8.3
 0030 2e3000                               .0.             
Contents of section .debug_frame:
 0000 0c000000 ffffffff 0100017c 010d0200  ...........|....
 0010 0c000000 00000000 f40000f9 10000000  ................
 0020 20000000 00000000 040100f9 3c000000   ...........<...
 0030 440e104c 81018802 89035cc1 44c844c9  D..L......\.D.D.
 0040 440e0000 0c000000 00000000 400100f9  D...........@...
 0050 34000000 18000000 00000000 740100f9  4...........t...
 0060 20000000 440e1044 810150c1 440e0000   ...D..D..P.D...
 0070 1c000000 00000000 940100f9 34000000  ............4...
 0080 440e1048 81018802 5cc144c8 440e0000  D..H....\.D.D...
 0090 20000000 00000000 c80100f9 54000000   ...........T...
 00a0 440e104c 81018802 890374c1 44c844c9  D..L......t.D.D.
 00b0 440e0000 20000000 00000000 1c0200f9  D... ...........
 00c0 54000000 440e104c 81018802 890374c1  T...D..L......t.
 00d0 44c844c9 440e0000 18000000 00000000  D.D.D...........
 00e0 700200f9 1c000000 440e1044 81014cc1  p.......D..D..L.
 00f0 440e0000 18000000 00000000 8c0200f9  D...............
 0100 18000000 440e1044 810148c1 440e0000  ....D..D..H.D...
 0110 20000000 00000000 a40200f9 80000000   ...............
 0120 440e304c 81018802 89030260 c144c844  D.0L.......`.D.D
 0130 c9440e00 18000000 00000000 240300f9  .D..........$...
 0140 40000000 440e1044 810170c1 440e0000  @...D..D..p.D...
 0150 18000000 00000000 640300f9 40000000  ........d...@...
 0160 440e1044 810170c1 440e0000 0c000000  D..D..p.D.......
 0170 00000000 a40300f9 10000000 0c000000  ................
 0180 00000000 b40300f9 4c000000 0c000000  ........L.......
 0190 00000000 000400f9 18000000 0c000000  ................
 01a0 00000000 180400f9 1c000000 0c000000  ................
 01b0 00000000 340400f9 1c000000 24000000  ....4.......$...
 01c0 00000000 500400f9 38010000 440e404c  ....P...8...D.@L
 01d0 8109880a 890b0318 01c144c8 44c9440e  ..........D.D.D.
 01e0 00000000 18000000 00000000 880500f9  ................
 01f0 80000000 440e1044 81010270 c1440e00  ....D..D...p.D..
 0200 14000000 00000000 080600f9 18000000  ................
 0210 440e1044 81010000 1c000000 00000000  D..D............
 0220 200600f9 5c000000 440e1048 81018802   ...\...D..H....
 0230 0244c144 c8440e00 1c000000 00000000  .D.D.D..........
 0240 7c0600f9 34000000 440e1044 81015c0a  |...4...D..D..\.
 0250 c1440e00 440b0000 14000000 00000000  .D..D...........
 0260 b00600f9 a8000000 440e1048 81018802  ........D..H....
 0270 0c000000 ffffffff 0100017c 010d0200  ...........|....
 0280 28000000 70020000 600000f9 94000000  (...p...`.......
 0290 440e1048 88029204 5c810189 030258c1  D..H....\.....X.
 02a0 44c844c9 44d2440e 00000000           D.D.D.D.....    

Disassembly of section .rom_section.init:

f9000000 <_start>:

_start:
#ifdef USE_GP
.option push
.option norelax
	la gp, __global_pointer$
f9000000:	00081197          	auipc	gp,0x81
f9000004:	97018193          	addi	gp,gp,-1680 # f9080970 <__global_pointer$>

f9000008 <init>:
	sw a0, smp_lottery_lock, a1
    ret
#endif

init:
	la sp, _sp
f9000008:	a2018113          	addi	sp,gp,-1504 # f9080390 <__freertos_irq_stack_top>

	/* Load data section */
	la a0, _data_lma
f900000c:	00080517          	auipc	a0,0x80
f9000010:	ff450513          	addi	a0,a0,-12 # f9080000 <__init_array_end>
	la a1, _data
f9000014:	00080597          	auipc	a1,0x80
f9000018:	fec58593          	addi	a1,a1,-20 # f9080000 <__init_array_end>
	la a2, _edata
f900001c:	81c18613          	addi	a2,gp,-2020 # f908018c <__bss_start>
	bgeu a1, a2, 2f
f9000020:	00c5fc63          	bgeu	a1,a2,f9000038 <init+0x30>
1:
	lw t0, (a0)
f9000024:	00052283          	lw	t0,0(a0)
	sw t0, (a1)
f9000028:	0055a023          	sw	t0,0(a1)
	addi a0, a0, 4
f900002c:	00450513          	addi	a0,a0,4
	addi a1, a1, 4
f9000030:	00458593          	addi	a1,a1,4
	bltu a1, a2, 1b
f9000034:	fec5e8e3          	bltu	a1,a2,f9000024 <init+0x1c>
2:

	/* Clear bss section */
	la a0, __bss_start
f9000038:	81c18513          	addi	a0,gp,-2020 # f908018c <__bss_start>
	la a1, _end
f900003c:	82018593          	addi	a1,gp,-2016 # f9080190 <_end>
	bgeu a0, a1, 2f
f9000040:	00b57863          	bgeu	a0,a1,f9000050 <init+0x48>
1:
	sw zero, (a0)
f9000044:	00052023          	sw	zero,0(a0)
	addi a0, a0, 4
f9000048:	00450513          	addi	a0,a0,4
	bltu a0, a1, 1b
f900004c:	feb56ce3          	bltu	a0,a1,f9000044 <init+0x3c>
2:

#ifndef NO_LIBC_INIT_ARRAY
	call __libc_init_array
f9000050:	010000ef          	jal	ra,f9000060 <__libc_init_array>
#endif

	call main
f9000054:	65c000ef          	jal	ra,f90006b0 <main>

f9000058 <mainDone>:
mainDone:
    j mainDone
f9000058:	0000006f          	j	f9000058 <mainDone>

f900005c <_init>:


	.globl _init
_init:
    ret
f900005c:	00008067          	ret

Disassembly of section .rom_section.text:

f9000060 <__libc_init_array>:
f9000060:	ff010113          	addi	sp,sp,-16
f9000064:	00812423          	sw	s0,8(sp)
f9000068:	01212023          	sw	s2,0(sp)
f900006c:	00080417          	auipc	s0,0x80
f9000070:	f9440413          	addi	s0,s0,-108 # f9080000 <__init_array_end>
f9000074:	00080917          	auipc	s2,0x80
f9000078:	f8c90913          	addi	s2,s2,-116 # f9080000 <__init_array_end>
f900007c:	40890933          	sub	s2,s2,s0
f9000080:	00112623          	sw	ra,12(sp)
f9000084:	00912223          	sw	s1,4(sp)
f9000088:	40295913          	srai	s2,s2,0x2
f900008c:	00090e63          	beqz	s2,f90000a8 <__libc_init_array+0x48>
f9000090:	00000493          	li	s1,0
f9000094:	00042783          	lw	a5,0(s0)
f9000098:	00148493          	addi	s1,s1,1
f900009c:	00440413          	addi	s0,s0,4
f90000a0:	000780e7          	jalr	a5
f90000a4:	fe9918e3          	bne	s2,s1,f9000094 <__libc_init_array+0x34>
f90000a8:	00080417          	auipc	s0,0x80
f90000ac:	f5840413          	addi	s0,s0,-168 # f9080000 <__init_array_end>
f90000b0:	00080917          	auipc	s2,0x80
f90000b4:	f5090913          	addi	s2,s2,-176 # f9080000 <__init_array_end>
f90000b8:	40890933          	sub	s2,s2,s0
f90000bc:	40295913          	srai	s2,s2,0x2
f90000c0:	00090e63          	beqz	s2,f90000dc <__libc_init_array+0x7c>
f90000c4:	00000493          	li	s1,0
f90000c8:	00042783          	lw	a5,0(s0)
f90000cc:	00148493          	addi	s1,s1,1
f90000d0:	00440413          	addi	s0,s0,4
f90000d4:	000780e7          	jalr	a5
f90000d8:	fe9918e3          	bne	s2,s1,f90000c8 <__libc_init_array+0x68>
f90000dc:	00c12083          	lw	ra,12(sp)
f90000e0:	00812403          	lw	s0,8(sp)
f90000e4:	00412483          	lw	s1,4(sp)
f90000e8:	00012903          	lw	s2,0(sp)
f90000ec:	01010113          	addi	sp,sp,16
f90000f0:	00008067          	ret

f90000f4 <uart_writeAvailability>:
#include "type.h"
#include "soc.h"


    static inline u32 read_u32(u32 address){
        return *((volatile u32*) address);
f90000f4:	00452503          	lw	a0,4(a0)
        enum UartStop stop;
        u32 clockDivider;
    } Uart_Config;
    
    static u32 uart_writeAvailability(u32 reg){
        return (read_u32(reg + UART_STATUS) >> 16) & 0xFF;
f90000f8:	01055513          	srli	a0,a0,0x10
    }
f90000fc:	0ff57513          	andi	a0,a0,255
f9000100:	00008067          	ret

f9000104 <uart_write>:
    static u32 uart_readOccupancy(u32 reg){
        return read_u32(reg + UART_STATUS) >> 24;
    }
    
    static void uart_write(u32 reg, char data){
f9000104:	ff010113          	addi	sp,sp,-16
f9000108:	00112623          	sw	ra,12(sp)
f900010c:	00812423          	sw	s0,8(sp)
f9000110:	00912223          	sw	s1,4(sp)
f9000114:	00050413          	mv	s0,a0
f9000118:	00058493          	mv	s1,a1
        while(uart_writeAvailability(reg) == 0);
f900011c:	00040513          	mv	a0,s0
f9000120:	fd5ff0ef          	jal	ra,f90000f4 <uart_writeAvailability>
f9000124:	fe050ce3          	beqz	a0,f900011c <uart_write+0x18>
    }
    
    static inline void write_u32(u32 data, u32 address){
        *((volatile u32*) address) = data;
f9000128:	00942023          	sw	s1,0(s0)
        write_u32(data, reg + UART_DATA);
    }
f900012c:	00c12083          	lw	ra,12(sp)
f9000130:	00812403          	lw	s0,8(sp)
f9000134:	00412483          	lw	s1,4(sp)
f9000138:	01010113          	addi	sp,sp,16
f900013c:	00008067          	ret

f9000140 <clint_uDelay>:
    
        return (((u64)hi) << 32) | lo;
    }
    
    static void clint_uDelay(u32 usec, u32 hz, u32 reg){
        u32 mTimePerUsec = hz/1000000;
f9000140:	000f47b7          	lui	a5,0xf4
f9000144:	24078793          	addi	a5,a5,576 # f4240 <__stack_size+0xf4040>
f9000148:	02f5d5b3          	divu	a1,a1,a5
    readReg_u32 (clint_getTimeLow , CLINT_TIME_ADDR)
f900014c:	0000c7b7          	lui	a5,0xc
f9000150:	ff878793          	addi	a5,a5,-8 # bff8 <__stack_size+0xbdf8>
f9000154:	00f60633          	add	a2,a2,a5
        return *((volatile u32*) address);
f9000158:	00062783          	lw	a5,0(a2)
        u32 limit = clint_getTimeLow(reg) + usec*mTimePerUsec;
f900015c:	02a58533          	mul	a0,a1,a0
f9000160:	00f50533          	add	a0,a0,a5
f9000164:	00062783          	lw	a5,0(a2)
        while((int32_t)(limit-(clint_getTimeLow(reg))) >= 0);
f9000168:	40f507b3          	sub	a5,a0,a5
f900016c:	fe07dce3          	bgez	a5,f9000164 <clint_uDelay+0x24>
    }
f9000170:	00008067          	ret

f9000174 <_putchar>:
// use bsp_printf_full as bsp_printf
#define ENABLE_BRIDGE_FULL_TO_LITE          1 // If this is enabled, bsp_printf_full can be called with bsp_printf. Enabling both ENABLE_BSP_PRINTF and ENABLE_BSP_PRINTF_FULL, bsp_printf_full will be remained as bsp_printf_full. Default: Enable
#define ENABLE_PRINTF_WARNING               1 // Print warning when the specifier not supported. Default: Enable


    static void _putchar(char character){
f9000174:	ff010113          	addi	sp,sp,-16
f9000178:	00112623          	sw	ra,12(sp)
        #if (ENABLE_SEMIHOSTING_PRINT == 1)
            sh_writec(character);
        #else
            bsp_putChar(character);
f900017c:	00050593          	mv	a1,a0
f9000180:	f8010537          	lui	a0,0xf8010
f9000184:	f81ff0ef          	jal	ra,f9000104 <uart_write>
        #endif // (ENABLE_SEMIHOSTING_PRINT == 1)
    }
f9000188:	00c12083          	lw	ra,12(sp)
f900018c:	01010113          	addi	sp,sp,16
f9000190:	00008067          	ret

f9000194 <_putchar_s>:

    static void _putchar_s(char *p)
    {
f9000194:	ff010113          	addi	sp,sp,-16
f9000198:	00112623          	sw	ra,12(sp)
f900019c:	00812423          	sw	s0,8(sp)
f90001a0:	00050413          	mv	s0,a0
    #if (ENABLE_SEMIHOSTING_PRINT == 1)
        sh_write0(p);
    #else
        while (*p)
f90001a4:	00044503          	lbu	a0,0(s0)
f90001a8:	00050863          	beqz	a0,f90001b8 <_putchar_s+0x24>
            _putchar(*(p++));
f90001ac:	00140413          	addi	s0,s0,1
f90001b0:	fc5ff0ef          	jal	ra,f9000174 <_putchar>
f90001b4:	ff1ff06f          	j	f90001a4 <_putchar_s+0x10>
    #endif // (ENABLE_SEMIHOSTING_PRINT == 1)
    }
f90001b8:	00c12083          	lw	ra,12(sp)
f90001bc:	00812403          	lw	s0,8(sp)
f90001c0:	01010113          	addi	sp,sp,16
f90001c4:	00008067          	ret

f90001c8 <bsp_printHex>:


    //bsp_printHex is used in BSP_PRINTF
    static void bsp_printHex(uint32_t val)
    {
f90001c8:	ff010113          	addi	sp,sp,-16
f90001cc:	00112623          	sw	ra,12(sp)
f90001d0:	00812423          	sw	s0,8(sp)
f90001d4:	00912223          	sw	s1,4(sp)
f90001d8:	00050493          	mv	s1,a0
        uint32_t digits;
        digits =8;

        for (int i = (4*digits)-4; i >= 0; i -= 4) {
f90001dc:	01c00413          	li	s0,28
f90001e0:	0240006f          	j	f9000204 <bsp_printHex+0x3c>
            _putchar("0123456789ABCDEF"[(val >> i) % 16]);
f90001e4:	0084d7b3          	srl	a5,s1,s0
f90001e8:	00f7f713          	andi	a4,a5,15
f90001ec:	f90807b7          	lui	a5,0xf9080
f90001f0:	00078793          	mv	a5,a5
f90001f4:	00e787b3          	add	a5,a5,a4
f90001f8:	0007c503          	lbu	a0,0(a5) # f9080000 <__global_pointer$+0xfffff690>
f90001fc:	f79ff0ef          	jal	ra,f9000174 <_putchar>
        for (int i = (4*digits)-4; i >= 0; i -= 4) {
f9000200:	ffc40413          	addi	s0,s0,-4
f9000204:	fe0450e3          	bgez	s0,f90001e4 <bsp_printHex+0x1c>
        }
    }
f9000208:	00c12083          	lw	ra,12(sp)
f900020c:	00812403          	lw	s0,8(sp)
f9000210:	00412483          	lw	s1,4(sp)
f9000214:	01010113          	addi	sp,sp,16
f9000218:	00008067          	ret

f900021c <bsp_printHex_lower>:

    static void bsp_printHex_lower(uint32_t val)
        {
f900021c:	ff010113          	addi	sp,sp,-16
f9000220:	00112623          	sw	ra,12(sp)
f9000224:	00812423          	sw	s0,8(sp)
f9000228:	00912223          	sw	s1,4(sp)
f900022c:	00050493          	mv	s1,a0
            uint32_t digits;
            digits =8;

            for (int i = (4*digits)-4; i >= 0; i -= 4) {
f9000230:	01c00413          	li	s0,28
f9000234:	0240006f          	j	f9000258 <bsp_printHex_lower+0x3c>
                _putchar("0123456789abcdef"[(val >> i) % 16]);
f9000238:	0084d7b3          	srl	a5,s1,s0
f900023c:	00f7f713          	andi	a4,a5,15
f9000240:	f90807b7          	lui	a5,0xf9080
f9000244:	01478793          	addi	a5,a5,20 # f9080014 <__global_pointer$+0xfffff6a4>
f9000248:	00e787b3          	add	a5,a5,a4
f900024c:	0007c503          	lbu	a0,0(a5)
f9000250:	f25ff0ef          	jal	ra,f9000174 <_putchar>
            for (int i = (4*digits)-4; i >= 0; i -= 4) {
f9000254:	ffc40413          	addi	s0,s0,-4
f9000258:	fe0450e3          	bgez	s0,f9000238 <bsp_printHex_lower+0x1c>

            }
        }
f900025c:	00c12083          	lw	ra,12(sp)
f9000260:	00812403          	lw	s0,8(sp)
f9000264:	00412483          	lw	s1,4(sp)
f9000268:	01010113          	addi	sp,sp,16
f900026c:	00008067          	ret

f9000270 <bsp_printf_c>:
    #endif //#if (ENABLE_FLOATING_POINT_SUPPORT)

    

    static void bsp_printf_c(int c)
    {
f9000270:	ff010113          	addi	sp,sp,-16
f9000274:	00112623          	sw	ra,12(sp)
        _putchar(c);
f9000278:	0ff57513          	andi	a0,a0,255
f900027c:	ef9ff0ef          	jal	ra,f9000174 <_putchar>
    }
f9000280:	00c12083          	lw	ra,12(sp)
f9000284:	01010113          	addi	sp,sp,16
f9000288:	00008067          	ret

f900028c <bsp_printf_s>:

    static void bsp_printf_s(char *p)
    {
f900028c:	ff010113          	addi	sp,sp,-16
f9000290:	00112623          	sw	ra,12(sp)
        _putchar_s(p);
f9000294:	f01ff0ef          	jal	ra,f9000194 <_putchar_s>
    }
f9000298:	00c12083          	lw	ra,12(sp)
f900029c:	01010113          	addi	sp,sp,16
f90002a0:	00008067          	ret

f90002a4 <bsp_printf_d>:



    static void bsp_printf_d(int val)
    {
f90002a4:	fd010113          	addi	sp,sp,-48
f90002a8:	02112623          	sw	ra,44(sp)
f90002ac:	02812423          	sw	s0,40(sp)
f90002b0:	02912223          	sw	s1,36(sp)
f90002b4:	00050493          	mv	s1,a0
        char buffer[32];
        char *p = buffer;
        if (val < 0) {
f90002b8:	00054663          	bltz	a0,f90002c4 <bsp_printf_d+0x20>
    {
f90002bc:	00010413          	mv	s0,sp
f90002c0:	02c0006f          	j	f90002ec <bsp_printf_d+0x48>
            bsp_printf_c('-');
f90002c4:	02d00513          	li	a0,45
f90002c8:	fa9ff0ef          	jal	ra,f9000270 <bsp_printf_c>
            val = -val;
f90002cc:	409004b3          	neg	s1,s1
f90002d0:	fedff06f          	j	f90002bc <bsp_printf_d+0x18>
        }
        while (val || p == buffer) {
            *(p++) = '0' + val % 10;
f90002d4:	00a00713          	li	a4,10
f90002d8:	02e4e7b3          	rem	a5,s1,a4
f90002dc:	03078793          	addi	a5,a5,48
f90002e0:	00f40023          	sb	a5,0(s0)
            val = val / 10;
f90002e4:	02e4c4b3          	div	s1,s1,a4
            *(p++) = '0' + val % 10;
f90002e8:	00140413          	addi	s0,s0,1
        while (val || p == buffer) {
f90002ec:	fe0494e3          	bnez	s1,f90002d4 <bsp_printf_d+0x30>
f90002f0:	00010793          	mv	a5,sp
f90002f4:	fef400e3          	beq	s0,a5,f90002d4 <bsp_printf_d+0x30>
f90002f8:	0100006f          	j	f9000308 <bsp_printf_d+0x64>
        }
        while (p != buffer)
            bsp_printf_c(*(--p));
f90002fc:	fff40413          	addi	s0,s0,-1
f9000300:	00044503          	lbu	a0,0(s0)
f9000304:	f6dff0ef          	jal	ra,f9000270 <bsp_printf_c>
        while (p != buffer)
f9000308:	00010793          	mv	a5,sp
f900030c:	fef418e3          	bne	s0,a5,f90002fc <bsp_printf_d+0x58>
    }
f9000310:	02c12083          	lw	ra,44(sp)
f9000314:	02812403          	lw	s0,40(sp)
f9000318:	02412483          	lw	s1,36(sp)
f900031c:	03010113          	addi	sp,sp,48
f9000320:	00008067          	ret

f9000324 <bsp_printf_x>:

    static void bsp_printf_x(int val)
    {
f9000324:	ff010113          	addi	sp,sp,-16
f9000328:	00112623          	sw	ra,12(sp)
        int i,digi=2;

        for(i=0;i<8;i++)
f900032c:	00000713          	li	a4,0
f9000330:	00700793          	li	a5,7
f9000334:	02e7c063          	blt	a5,a4,f9000354 <bsp_printf_x+0x30>
        {
            if((val & (0xFFFFFFF0 <<(4*i))) == 0)
f9000338:	00271693          	slli	a3,a4,0x2
f900033c:	ff000793          	li	a5,-16
f9000340:	00d797b3          	sll	a5,a5,a3
f9000344:	00f577b3          	and	a5,a0,a5
f9000348:	00078663          	beqz	a5,f9000354 <bsp_printf_x+0x30>
        for(i=0;i<8;i++)
f900034c:	00170713          	addi	a4,a4,1
f9000350:	fe1ff06f          	j	f9000330 <bsp_printf_x+0xc>
            {
                digi=i+1;
                break;
            }
        }
        bsp_printHex_lower(val);
f9000354:	ec9ff0ef          	jal	ra,f900021c <bsp_printHex_lower>
    }
f9000358:	00c12083          	lw	ra,12(sp)
f900035c:	01010113          	addi	sp,sp,16
f9000360:	00008067          	ret

f9000364 <bsp_printf_X>:

    static void bsp_printf_X(int val)
        {
f9000364:	ff010113          	addi	sp,sp,-16
f9000368:	00112623          	sw	ra,12(sp)
            int i,digi=2;

            for(i=0;i<8;i++)
f900036c:	00000713          	li	a4,0
f9000370:	00700793          	li	a5,7
f9000374:	02e7c063          	blt	a5,a4,f9000394 <bsp_printf_X+0x30>
            {
                if((val & (0xFFFFFFF0 <<(4*i))) == 0)
f9000378:	00271693          	slli	a3,a4,0x2
f900037c:	ff000793          	li	a5,-16
f9000380:	00d797b3          	sll	a5,a5,a3
f9000384:	00f577b3          	and	a5,a0,a5
f9000388:	00078663          	beqz	a5,f9000394 <bsp_printf_X+0x30>
            for(i=0;i<8;i++)
f900038c:	00170713          	addi	a4,a4,1
f9000390:	fe1ff06f          	j	f9000370 <bsp_printf_X+0xc>
                {
                    digi=i+1;
                    break;
                }
            }
            bsp_printHex(val);
f9000394:	e35ff0ef          	jal	ra,f90001c8 <bsp_printHex>
        }
f9000398:	00c12083          	lw	ra,12(sp)
f900039c:	01010113          	addi	sp,sp,16
f90003a0:	00008067          	ret

f90003a4 <plic_set_priority>:
#define PLIC_CLAIM_BASE         0x200004
#define PLIC_ENABLE_PER_HART    0x80
#define PLIC_CONTEXT_PER_HART   0x1000

    static void plic_set_priority(u32 plic, u32 gateway, u32 priority){
        write_u32(priority, plic + PLIC_PRIORITY_BASE + gateway*4);
f90003a4:	00259593          	slli	a1,a1,0x2
f90003a8:	00a585b3          	add	a1,a1,a0
        *((volatile u32*) address) = data;
f90003ac:	00c5a023          	sw	a2,0(a1)
    }
f90003b0:	00008067          	ret

f90003b4 <plic_set_enable>:
    static u32 plic_get_priority(u32 plic, u32 gateway){
        return read_u32(plic + PLIC_PRIORITY_BASE + gateway*4);
    }
    
    static void plic_set_enable(u32 plic, u32 target,u32 gateway, u32 enable){
        u32 word = plic + PLIC_ENABLE_BASE + target * PLIC_ENABLE_PER_HART + (gateway / 32 * 4);
f90003b4:	00759593          	slli	a1,a1,0x7
f90003b8:	00a58533          	add	a0,a1,a0
f90003bc:	00565593          	srli	a1,a2,0x5
f90003c0:	00259593          	slli	a1,a1,0x2
f90003c4:	00b50533          	add	a0,a0,a1
f90003c8:	000025b7          	lui	a1,0x2
f90003cc:	00b50533          	add	a0,a0,a1
        u32 mask = 1 << (gateway % 32);
f90003d0:	00100793          	li	a5,1
f90003d4:	00c797b3          	sll	a5,a5,a2
        if (enable)
f90003d8:	00068a63          	beqz	a3,f90003ec <plic_set_enable+0x38>
        return *((volatile u32*) address);
f90003dc:	00052603          	lw	a2,0(a0) # f8010000 <__global_pointer$+0xfef8f690>
            write_u32(read_u32(word) | mask, word);
f90003e0:	00c7e7b3          	or	a5,a5,a2
        *((volatile u32*) address) = data;
f90003e4:	00f52023          	sw	a5,0(a0)
f90003e8:	00008067          	ret
        return *((volatile u32*) address);
f90003ec:	00052603          	lw	a2,0(a0)
        else
            write_u32(read_u32(word) & ~mask, word);
f90003f0:	fff7c793          	not	a5,a5
f90003f4:	00c7f7b3          	and	a5,a5,a2
        *((volatile u32*) address) = data;
f90003f8:	00f52023          	sw	a5,0(a0)
    }
f90003fc:	00008067          	ret

f9000400 <plic_set_threshold>:
    
    static void plic_set_threshold(u32 plic, u32 target, u32 threshold){
        write_u32(threshold, plic + PLIC_THRESHOLD_BASE + target*PLIC_CONTEXT_PER_HART);
f9000400:	00c59593          	slli	a1,a1,0xc
f9000404:	00a585b3          	add	a1,a1,a0
f9000408:	00200537          	lui	a0,0x200
f900040c:	00a585b3          	add	a1,a1,a0
f9000410:	00c5a023          	sw	a2,0(a1) # 2000 <__stack_size+0x1e00>
    }
f9000414:	00008067          	ret

f9000418 <plic_claim>:
    static u32 plic_get_threshold(u32 plic, u32 target){
        return read_u32(plic + PLIC_THRESHOLD_BASE + target*PLIC_CONTEXT_PER_HART);
    }
    
    static u32 plic_claim(u32 plic, u32 target){
        return read_u32(plic + PLIC_CLAIM_BASE + target*PLIC_CONTEXT_PER_HART);
f9000418:	00c59593          	slli	a1,a1,0xc
f900041c:	00a585b3          	add	a1,a1,a0
f9000420:	00200537          	lui	a0,0x200
f9000424:	00450513          	addi	a0,a0,4 # 200004 <__stack_size+0x1ffe04>
f9000428:	00a585b3          	add	a1,a1,a0
        return *((volatile u32*) address);
f900042c:	0005a503          	lw	a0,0(a1)
    }
f9000430:	00008067          	ret

f9000434 <plic_release>:
    
    static void plic_release(u32 plic, u32 target, u32 gateway){
        write_u32(gateway,plic + PLIC_CLAIM_BASE + target*PLIC_CONTEXT_PER_HART);
f9000434:	00c59593          	slli	a1,a1,0xc
f9000438:	00a585b3          	add	a1,a1,a0
f900043c:	00200537          	lui	a0,0x200
f9000440:	00450513          	addi	a0,a0,4 # 200004 <__stack_size+0x1ffe04>
f9000444:	00a585b3          	add	a1,a1,a0
        *((volatile u32*) address) = data;
f9000448:	00c5a023          	sw	a2,0(a1)
    }
f900044c:	00008067          	ret

f9000450 <bsp_printf>:
#if (ENABLE_SEMIHOSTING_PRINT == 0)
    static void bsp_printf(const char *format, ...)
    {
f9000450:	fc010113          	addi	sp,sp,-64
f9000454:	00112e23          	sw	ra,28(sp)
f9000458:	00812c23          	sw	s0,24(sp)
f900045c:	00912a23          	sw	s1,20(sp)
f9000460:	00050493          	mv	s1,a0
f9000464:	02b12223          	sw	a1,36(sp)
f9000468:	02c12423          	sw	a2,40(sp)
f900046c:	02d12623          	sw	a3,44(sp)
f9000470:	02e12823          	sw	a4,48(sp)
f9000474:	02f12a23          	sw	a5,52(sp)
f9000478:	03012c23          	sw	a6,56(sp)
f900047c:	03112e23          	sw	a7,60(sp)
        int i;
        va_list ap;

        va_start(ap, format);
f9000480:	02410793          	addi	a5,sp,36
f9000484:	00f12623          	sw	a5,12(sp)

        for (i = 0; format[i]; i++)
f9000488:	00000413          	li	s0,0
f900048c:	01c0006f          	j	f90004a8 <bsp_printf+0x58>
            if (format[i] == '%') {
                while (format[++i]) {
                    if (format[i] == 'c') {
                        bsp_printf_c(va_arg(ap,int));
f9000490:	00c12783          	lw	a5,12(sp)
f9000494:	00478713          	addi	a4,a5,4
f9000498:	00e12623          	sw	a4,12(sp)
f900049c:	0007a503          	lw	a0,0(a5)
f90004a0:	dd1ff0ef          	jal	ra,f9000270 <bsp_printf_c>
        for (i = 0; format[i]; i++)
f90004a4:	00140413          	addi	s0,s0,1
f90004a8:	008487b3          	add	a5,s1,s0
f90004ac:	0007c503          	lbu	a0,0(a5)
f90004b0:	0c050263          	beqz	a0,f9000574 <bsp_printf+0x124>
            if (format[i] == '%') {
f90004b4:	02500793          	li	a5,37
f90004b8:	06f50663          	beq	a0,a5,f9000524 <bsp_printf+0xd4>
                        break;
                    }
#endif //#if (ENABLE_FLOATING_POINT_SUPPORT)
                }
            } else
                bsp_printf_c(format[i]);
f90004bc:	db5ff0ef          	jal	ra,f9000270 <bsp_printf_c>
f90004c0:	fe5ff06f          	j	f90004a4 <bsp_printf+0x54>
                        bsp_printf_s(va_arg(ap,char*));
f90004c4:	00c12783          	lw	a5,12(sp)
f90004c8:	00478713          	addi	a4,a5,4
f90004cc:	00e12623          	sw	a4,12(sp)
f90004d0:	0007a503          	lw	a0,0(a5)
f90004d4:	db9ff0ef          	jal	ra,f900028c <bsp_printf_s>
                        break;
f90004d8:	fcdff06f          	j	f90004a4 <bsp_printf+0x54>
                        bsp_printf_d(va_arg(ap,int));
f90004dc:	00c12783          	lw	a5,12(sp)
f90004e0:	00478713          	addi	a4,a5,4
f90004e4:	00e12623          	sw	a4,12(sp)
f90004e8:	0007a503          	lw	a0,0(a5)
f90004ec:	db9ff0ef          	jal	ra,f90002a4 <bsp_printf_d>
                        break;
f90004f0:	fb5ff06f          	j	f90004a4 <bsp_printf+0x54>
                        bsp_printf_X(va_arg(ap,int));
f90004f4:	00c12783          	lw	a5,12(sp)
f90004f8:	00478713          	addi	a4,a5,4
f90004fc:	00e12623          	sw	a4,12(sp)
f9000500:	0007a503          	lw	a0,0(a5)
f9000504:	e61ff0ef          	jal	ra,f9000364 <bsp_printf_X>
                        break;
f9000508:	f9dff06f          	j	f90004a4 <bsp_printf+0x54>
                        bsp_printf_x(va_arg(ap,int));
f900050c:	00c12783          	lw	a5,12(sp)
f9000510:	00478713          	addi	a4,a5,4
f9000514:	00e12623          	sw	a4,12(sp)
f9000518:	0007a503          	lw	a0,0(a5)
f900051c:	e09ff0ef          	jal	ra,f9000324 <bsp_printf_x>
                        break;
f9000520:	f85ff06f          	j	f90004a4 <bsp_printf+0x54>
                while (format[++i]) {
f9000524:	00140413          	addi	s0,s0,1
f9000528:	008487b3          	add	a5,s1,s0
f900052c:	0007c783          	lbu	a5,0(a5)
f9000530:	f6078ae3          	beqz	a5,f90004a4 <bsp_printf+0x54>
                    if (format[i] == 'c') {
f9000534:	06300713          	li	a4,99
f9000538:	f4e78ce3          	beq	a5,a4,f9000490 <bsp_printf+0x40>
                    else if (format[i] == 's') {
f900053c:	07300713          	li	a4,115
f9000540:	f8e782e3          	beq	a5,a4,f90004c4 <bsp_printf+0x74>
                    else if (format[i] == 'd') {
f9000544:	06400713          	li	a4,100
f9000548:	f8e78ae3          	beq	a5,a4,f90004dc <bsp_printf+0x8c>
                    else if (format[i] == 'X') {
f900054c:	05800713          	li	a4,88
f9000550:	fae782e3          	beq	a5,a4,f90004f4 <bsp_printf+0xa4>
                    else if (format[i] == 'x') {
f9000554:	07800713          	li	a4,120
f9000558:	fae78ae3          	beq	a5,a4,f900050c <bsp_printf+0xbc>
                    else if (format[i] == 'f') {
f900055c:	06600713          	li	a4,102
f9000560:	fce792e3          	bne	a5,a4,f9000524 <bsp_printf+0xd4>
                        bsp_printf_s("<Floating point printing not enable. Please Enable it at bsp.h first...>");
f9000564:	f9080537          	lui	a0,0xf9080
f9000568:	02850513          	addi	a0,a0,40 # f9080028 <__global_pointer$+0xfffff6b8>
f900056c:	d21ff0ef          	jal	ra,f900028c <bsp_printf_s>
                        break;
f9000570:	f35ff06f          	j	f90004a4 <bsp_printf+0x54>

        va_end(ap);
    }
f9000574:	01c12083          	lw	ra,28(sp)
f9000578:	01812403          	lw	s0,24(sp)
f900057c:	01412483          	lw	s1,20(sp)
f9000580:	04010113          	addi	sp,sp,64
f9000584:	00008067          	ret

f9000588 <init>:
void trap();
void crash();
void trap_entry();
void externalInterrupt();

void init(){
f9000588:	ff010113          	addi	sp,sp,-16
f900058c:	00112623          	sw	ra,12(sp)
    //configure PLIC
    //cpu 0 accept all interrupts with priority above 0
    plic_set_threshold(BSP_PLIC, BSP_PLIC_CPU_0, 0); 
f9000590:	00000613          	li	a2,0
f9000594:	00000593          	li	a1,0
f9000598:	f8c00537          	lui	a0,0xf8c00
f900059c:	e65ff0ef          	jal	ra,f9000400 <plic_set_threshold>
    plic_set_enable(BSP_PLIC, BSP_PLIC_CPU_0, SYSTEM_PLIC_SYSTEM_GPIO_0_IO_INTERRUPTS_0, 1);
f90005a0:	00100693          	li	a3,1
f90005a4:	00c00613          	li	a2,12
f90005a8:	00000593          	li	a1,0
f90005ac:	f8c00537          	lui	a0,0xf8c00
f90005b0:	e05ff0ef          	jal	ra,f90003b4 <plic_set_enable>
    plic_set_priority(BSP_PLIC, SYSTEM_PLIC_SYSTEM_GPIO_0_IO_INTERRUPTS_0, 1);
f90005b4:	00100613          	li	a2,1
f90005b8:	00c00593          	li	a1,12
f90005bc:	f8c00537          	lui	a0,0xf8c00
f90005c0:	de5ff0ef          	jal	ra,f90003a4 <plic_set_priority>
f90005c4:	f80157b7          	lui	a5,0xf8015
f90005c8:	00100713          	li	a4,1
f90005cc:	02e7a023          	sw	a4,32(a5) # f8015020 <__global_pointer$+0xfef946b0>
    //Enable rising edge interrupts
    gpio_setInterruptRiseEnable(GPIO0, 1); 
    //enable interrupts
    //Set the machine trap vector (../common/trap.S)
    csr_write(mtvec, trap_entry); 
f90005d0:	f90007b7          	lui	a5,0xf9000
f90005d4:	75878793          	addi	a5,a5,1880 # f9000758 <__global_pointer$+0xfff7fde8>
f90005d8:	30579073          	csrw	mtvec,a5
    //Enable external interrupts
    csr_set(mie, MIE_MEIE); 
f90005dc:	000017b7          	lui	a5,0x1
f90005e0:	80078793          	addi	a5,a5,-2048 # 800 <__stack_size+0x600>
f90005e4:	3047a073          	csrs	mie,a5
    csr_write(mstatus, csr_read(mstatus) | MSTATUS_MPP | MSTATUS_MIE);
f90005e8:	300027f3          	csrr	a5,mstatus
f90005ec:	00002737          	lui	a4,0x2
f90005f0:	80870713          	addi	a4,a4,-2040 # 1808 <__stack_size+0x1608>
f90005f4:	00e7e7b3          	or	a5,a5,a4
f90005f8:	30079073          	csrw	mstatus,a5
}
f90005fc:	00c12083          	lw	ra,12(sp)
f9000600:	01010113          	addi	sp,sp,16
f9000604:	00008067          	ret

f9000608 <crash>:
        plic_release(BSP_PLIC, BSP_PLIC_CPU_0, claim); 
    }
}

//Used on unexpected trap/interrupt codes
void crash(){
f9000608:	ff010113          	addi	sp,sp,-16
f900060c:	00112623          	sw	ra,12(sp)
    bsp_printf("\r\n*** CRASH ***\r\n");
f9000610:	f9080537          	lui	a0,0xf9080
f9000614:	07450513          	addi	a0,a0,116 # f9080074 <__global_pointer$+0xfffff704>
f9000618:	e39ff0ef          	jal	ra,f9000450 <bsp_printf>
    while(1);
f900061c:	0000006f          	j	f900061c <crash+0x14>

f9000620 <externalInterrupt>:
void externalInterrupt(){
f9000620:	ff010113          	addi	sp,sp,-16
f9000624:	00112623          	sw	ra,12(sp)
f9000628:	00812423          	sw	s0,8(sp)
    while(claim = plic_claim(BSP_PLIC, BSP_PLIC_CPU_0)){
f900062c:	00000593          	li	a1,0
f9000630:	f8c00537          	lui	a0,0xf8c00
f9000634:	de5ff0ef          	jal	ra,f9000418 <plic_claim>
f9000638:	00050413          	mv	s0,a0
f900063c:	02050863          	beqz	a0,f900066c <externalInterrupt+0x4c>
        switch(claim){
f9000640:	00c00793          	li	a5,12
f9000644:	02f41263          	bne	s0,a5,f9000668 <externalInterrupt+0x48>
        case SYSTEM_PLIC_SYSTEM_GPIO_0_IO_INTERRUPTS_0: bsp_printf("gpio 0 interrupt routine \r\n"); break;
f9000648:	f9080537          	lui	a0,0xf9080
f900064c:	08850513          	addi	a0,a0,136 # f9080088 <__global_pointer$+0xfffff718>
f9000650:	e01ff0ef          	jal	ra,f9000450 <bsp_printf>
        plic_release(BSP_PLIC, BSP_PLIC_CPU_0, claim); 
f9000654:	00040613          	mv	a2,s0
f9000658:	00000593          	li	a1,0
f900065c:	f8c00537          	lui	a0,0xf8c00
f9000660:	dd5ff0ef          	jal	ra,f9000434 <plic_release>
f9000664:	fc9ff06f          	j	f900062c <externalInterrupt+0xc>
        default: crash(); break;
f9000668:	fa1ff0ef          	jal	ra,f9000608 <crash>
}
f900066c:	00c12083          	lw	ra,12(sp)
f9000670:	00812403          	lw	s0,8(sp)
f9000674:	01010113          	addi	sp,sp,16
f9000678:	00008067          	ret

f900067c <trap>:
void trap(){
f900067c:	ff010113          	addi	sp,sp,-16
f9000680:	00112623          	sw	ra,12(sp)
    int32_t mcause = csr_read(mcause);
f9000684:	342027f3          	csrr	a5,mcause
    if(interrupt){
f9000688:	0207d263          	bgez	a5,f90006ac <trap+0x30>
f900068c:	00f7f713          	andi	a4,a5,15
        switch(cause){
f9000690:	00b00793          	li	a5,11
f9000694:	00f71a63          	bne	a4,a5,f90006a8 <trap+0x2c>
        case CAUSE_MACHINE_EXTERNAL: externalInterrupt(); break;
f9000698:	f89ff0ef          	jal	ra,f9000620 <externalInterrupt>
}
f900069c:	00c12083          	lw	ra,12(sp)
f90006a0:	01010113          	addi	sp,sp,16
f90006a4:	00008067          	ret
        default: crash(); break;
f90006a8:	f61ff0ef          	jal	ra,f9000608 <crash>
        crash();
f90006ac:	f5dff0ef          	jal	ra,f9000608 <crash>

f90006b0 <main>:
}

void main() {
f90006b0:	ff010113          	addi	sp,sp,-16
f90006b4:	00112623          	sw	ra,12(sp)
f90006b8:	00812423          	sw	s0,8(sp)
    bsp_init();
    bsp_printf("gpio 0 demo ! \r\n");
f90006bc:	f9080537          	lui	a0,0xf9080
f90006c0:	0a450513          	addi	a0,a0,164 # f90800a4 <__global_pointer$+0xfffff734>
f90006c4:	d8dff0ef          	jal	ra,f9000450 <bsp_printf>
    bsp_printf("onboard LEDs blinking \r\n");
f90006c8:	f9080537          	lui	a0,0xf9080
f90006cc:	0b850513          	addi	a0,a0,184 # f90800b8 <__global_pointer$+0xfffff748>
f90006d0:	d81ff0ef          	jal	ra,f9000450 <bsp_printf>
f90006d4:	f80157b7          	lui	a5,0xf8015
f90006d8:	00e00713          	li	a4,14
f90006dc:	00e7a423          	sw	a4,8(a5) # f8015008 <__global_pointer$+0xfef94698>
f90006e0:	0007a223          	sw	zero,4(a5)
    //configure 4 bits gpio 0
    gpio_setOutputEnable(GPIO0, 0xe);
    gpio_setOutput(GPIO0, 0x0);
    for (int i=0; i<50; i=i+1) {
f90006e4:	00000413          	li	s0,0
f90006e8:	0300006f          	j	f9000718 <main+0x68>
        return *((volatile u32*) address);
f90006ec:	f8015737          	lui	a4,0xf8015
f90006f0:	00472783          	lw	a5,4(a4) # f8015004 <__global_pointer$+0xfef94694>
        gpio_setOutput(GPIO0, gpio_getOutput(GPIO0) ^ 0xe);
f90006f4:	00e7c793          	xori	a5,a5,14
        *((volatile u32*) address) = data;
f90006f8:	00f72223          	sw	a5,4(a4)
        bsp_uDelay(LOOP_UDELAY);
f90006fc:	f8b00637          	lui	a2,0xf8b00
f9000700:	009895b7          	lui	a1,0x989
f9000704:	68058593          	addi	a1,a1,1664 # 989680 <__stack_size+0x989480>
f9000708:	00018537          	lui	a0,0x18
f900070c:	6a050513          	addi	a0,a0,1696 # 186a0 <__stack_size+0x184a0>
f9000710:	a31ff0ef          	jal	ra,f9000140 <clint_uDelay>
    for (int i=0; i<50; i=i+1) {
f9000714:	00140413          	addi	s0,s0,1
f9000718:	03100793          	li	a5,49
f900071c:	fc87d8e3          	bge	a5,s0,f90006ec <main+0x3c>
    }
    bsp_printf("gpio 0 interrupt demo ! \r\n");
f9000720:	f9080537          	lui	a0,0xf9080
f9000724:	0d450513          	addi	a0,a0,212 # f90800d4 <__global_pointer$+0xfffff764>
f9000728:	d29ff0ef          	jal	ra,f9000450 <bsp_printf>
    bsp_printf("Ti180 press and release onboard button sw4 \r\n");
f900072c:	f9080537          	lui	a0,0xf9080
f9000730:	0f050513          	addi	a0,a0,240 # f90800f0 <__global_pointer$+0xfffff780>
f9000734:	d1dff0ef          	jal	ra,f9000450 <bsp_printf>
    bsp_printf("Ti60 press and release onboard button sw6 \r\n");
f9000738:	f9080537          	lui	a0,0xf9080
f900073c:	12050513          	addi	a0,a0,288 # f9080120 <__global_pointer$+0xfffff7b0>
f9000740:	d11ff0ef          	jal	ra,f9000450 <bsp_printf>
    bsp_printf("T120 press and release onboard button sw7 \r\n");
f9000744:	f9080537          	lui	a0,0xf9080
f9000748:	15050513          	addi	a0,a0,336 # f9080150 <__global_pointer$+0xfffff7e0>
f900074c:	d05ff0ef          	jal	ra,f9000450 <bsp_printf>
    init();
f9000750:	e39ff0ef          	jal	ra,f9000588 <init>
    while(1); 
f9000754:	0000006f          	j	f9000754 <main+0xa4>

f9000758 <trap_entry>:
.global  trap_entry
.align(2) //mtvec require 32 bits allignement
trap_entry:
  addi sp,sp, -16*4
f9000758:	fc010113          	addi	sp,sp,-64
  sw x1,   0*4(sp)
f900075c:	00112023          	sw	ra,0(sp)
  sw x5,   1*4(sp)
f9000760:	00512223          	sw	t0,4(sp)
  sw x6,   2*4(sp)
f9000764:	00612423          	sw	t1,8(sp)
  sw x7,   3*4(sp)
f9000768:	00712623          	sw	t2,12(sp)
  sw x10,  4*4(sp)
f900076c:	00a12823          	sw	a0,16(sp)
  sw x11,  5*4(sp)
f9000770:	00b12a23          	sw	a1,20(sp)
  sw x12,  6*4(sp)
f9000774:	00c12c23          	sw	a2,24(sp)
  sw x13,  7*4(sp)
f9000778:	00d12e23          	sw	a3,28(sp)
  sw x14,  8*4(sp)
f900077c:	02e12023          	sw	a4,32(sp)
  sw x15,  9*4(sp)
f9000780:	02f12223          	sw	a5,36(sp)
  sw x16, 10*4(sp)
f9000784:	03012423          	sw	a6,40(sp)
  sw x17, 11*4(sp)
f9000788:	03112623          	sw	a7,44(sp)
  sw x28, 12*4(sp)
f900078c:	03c12823          	sw	t3,48(sp)
  sw x29, 13*4(sp)
f9000790:	03d12a23          	sw	t4,52(sp)
  sw x30, 14*4(sp)
f9000794:	03e12c23          	sw	t5,56(sp)
  sw x31, 15*4(sp)
f9000798:	03f12e23          	sw	t6,60(sp)
  call trap
f900079c:	ee1ff0ef          	jal	ra,f900067c <trap>
  lw x1 ,  0*4(sp)
f90007a0:	00012083          	lw	ra,0(sp)
  lw x5,   1*4(sp)
f90007a4:	00412283          	lw	t0,4(sp)
  lw x6,   2*4(sp)
f90007a8:	00812303          	lw	t1,8(sp)
  lw x7,   3*4(sp)
f90007ac:	00c12383          	lw	t2,12(sp)
  lw x10,  4*4(sp)
f90007b0:	01012503          	lw	a0,16(sp)
  lw x11,  5*4(sp)
f90007b4:	01412583          	lw	a1,20(sp)
  lw x12,  6*4(sp)
f90007b8:	01812603          	lw	a2,24(sp)
  lw x13,  7*4(sp)
f90007bc:	01c12683          	lw	a3,28(sp)
  lw x14,  8*4(sp)
f90007c0:	02012703          	lw	a4,32(sp)
  lw x15,  9*4(sp)
f90007c4:	02412783          	lw	a5,36(sp)
  lw x16, 10*4(sp)
f90007c8:	02812803          	lw	a6,40(sp)
  lw x17, 11*4(sp)
f90007cc:	02c12883          	lw	a7,44(sp)
  lw x28, 12*4(sp)
f90007d0:	03012e03          	lw	t3,48(sp)
  lw x29, 13*4(sp)
f90007d4:	03412e83          	lw	t4,52(sp)
  lw x30, 14*4(sp)
f90007d8:	03812f03          	lw	t5,56(sp)
  lw x31, 15*4(sp)
f90007dc:	03c12f83          	lw	t6,60(sp)
  addi sp,sp, 16*4
f90007e0:	04010113          	addi	sp,sp,64
  mret
f90007e4:	30200073          	mret
