
build/gpioDemo_Trinita.elf:     file format elf32-littleriscv

Contents of section .rom_section.init:
 f9000000 97110800 93810197 17210800 13018118  .........!......
 f9000010 17050800 130505ff 97050800 938585fe  ................
 f9000020 1386c181 63fcc500 83220500 23a05500  ....c...."..#.U.
 f9000030 13054500 93854500 e3e8c5fe 1385c181  ..E...E.........
 f9000040 93850182 6378b500 23200500 13054500  ....cx..# ....E.
 f9000050 e36cb5fe ef000001 ef00c065 6f000000  .l.........eo...
 f9000060 67800000                             g...            
Contents of section .rom_section.text:
 f9000064 130101ff 23248100 23202101 17040800  ....#$..# !.....
 f9000074 130404f9 17090800 130989f8 33098940  ............3..@
 f9000084 23261100 23229100 13592940 630e0900  #&..#"...Y)@c...
 f9000094 93040000 83270400 93841400 13044400  .....'........D.
 f90000a4 e7800700 e31899fe 17040800 130444f5  ..............D.
 f90000b4 17090800 1309c9f4 33098940 13592940  ........3..@.Y)@
 f90000c4 630e0900 93040000 83270400 93841400  c........'......
 f90000d4 13044400 e7800700 e31899fe 8320c100  ..D.......... ..
 f90000e4 03248100 83244100 03290100 13010101  .$...$A..)......
 f90000f4 67800000 03254500 13550501 1375f50f  g....%E..U...u..
 f9000104 67800000 130101ff 23261100 23248100  g.......#&..#$..
 f9000114 23229100 13040500 93840500 13050400  #"..............
 f9000124 eff05ffd e30c05fe 23209400 8320c100  .._.....# ... ..
 f9000134 03248100 83244100 13010101 67800000  .$...$A.....g...
 f9000144 b7470f00 93870724 b3d5f502 b7c70000  .G.....$........
 f9000154 938787ff 3306f600 83270600 3385a502  ....3....'..3...
 f9000164 3305f500 83270600 b307f540 e3dc07fe  3....'.....@....
 f9000174 67800000 130101ff 23261100 93050500  g.......#&......
 f9000184 370501f8 eff01ff8 8320c100 13010101  7........ ......
 f9000194 67800000 130101ff 23261100 23248100  g.......#&..#$..
 f90001a4 13040500 03450400 63080500 13041400  .....E..c.......
 f90001b4 eff05ffc 6ff01fff 8320c100 03248100  .._.o.... ...$..
 f90001c4 13010101 67800000 130101ff 23261100  ....g.......#&..
 f90001d4 23248100 23229100 93040500 1304c001  #$..#"..........
 f90001e4 6f004002 b3d78400 13f7f700 b70708f9  o.@.............
 f90001f4 93870700 b387e700 03c50700 eff09ff7  ................
 f9000204 1304c4ff e35004fe 8320c100 03248100  .....P... ...$..
 f9000214 83244100 13010101 67800000 130101ff  .$A.....g.......
 f9000224 23261100 23248100 23229100 93040500  #&..#$..#"......
 f9000234 1304c001 6f004002 b3d78400 13f7f700  ....o.@.........
 f9000244 b70708f9 93874701 b387e700 03c50700  ......G.........
 f9000254 eff05ff2 1304c4ff e35004fe 8320c100  .._......P... ..
 f9000264 03248100 83244100 13010101 67800000  .$...$A.....g...
 f9000274 130101ff 23261100 1375f50f eff09fef  ....#&...u......
 f9000284 8320c100 13010101 67800000 130101ff  . ......g.......
 f9000294 23261100 eff01ff0 8320c100 13010101  #&....... ......
 f90002a4 67800000 130101fd 23261102 23248102  g.......#&..#$..
 f90002b4 23229102 93040500 63460500 13040100  #"......cF......
 f90002c4 6f00c002 1305d002 eff09ffa b3049040  o..............@
 f90002d4 6ff0dffe 1307a000 b3e7e402 93870703  o...............
 f90002e4 2300f400 b3c4e402 13041400 e39404fe  #...............
 f90002f4 93070100 e300f4fe 6f000001 1304f4ff  ........o.......
 f9000304 03450400 eff0dff6 93070100 e318f4fe  .E..............
 f9000314 8320c102 03248102 83244102 13010103  . ...$...$A.....
 f9000324 67800000 130101ff 23261100 13070000  g.......#&......
 f9000334 93077000 63c0e702 93162700 930700ff  ..p.c.....'.....
 f9000344 b397d700 b377f500 63860700 13071700  .....w..c.......
 f9000354 6ff01ffe eff09fec 8320c100 13010101  o........ ......
 f9000364 67800000 130101ff 23261100 13070000  g.......#&......
 f9000374 93077000 63c0e702 93162700 930700ff  ..p.c.....'.....
 f9000384 b397d700 b377f500 63860700 13071700  .....w..c.......
 f9000394 6ff01ffe eff05fe3 8320c100 13010101  o....._.. ......
 f90003a4 67800000 93952500 b385a500 23a0c500  g.....%.....#...
 f90003b4 67800000 93957500 3385a500 93555600  g.....u.3....UV.
 f90003c4 93952500 3305b500 b7250000 3305b500  ..%.3....%..3...
 f90003d4 93071000 b397c700 638a0600 03260500  ........c....&..
 f90003e4 b3e7c700 2320f500 67800000 03260500  ....# ..g....&..
 f90003f4 93c7f7ff b3f7c700 2320f500 67800000  ........# ..g...
 f9000404 9395c500 b385a500 37052000 b385a500  ........7. .....
 f9000414 23a0c500 67800000 9395c500 b385a500  #...g...........
 f9000424 37052000 13054500 b385a500 03a50500  7. ...E.........
 f9000434 67800000 9395c500 b385a500 37052000  g...........7. .
 f9000444 13054500 b385a500 23a0c500 67800000  ..E.....#...g...
 f9000454 130101fc 232e1100 232c8100 232a9100  ....#...#,..#*..
 f9000464 93040500 2322b102 2324c102 2326d102  ....#"..#$..#&..
 f9000474 2328e102 232af102 232c0103 232e1103  #(..#*..#,..#...
 f9000484 93074102 2326f100 13040000 6f00c001  ..A.#&......o...
 f9000494 8327c100 13874700 2326e100 03a50700  .'....G.#&......
 f90004a4 eff01fdd 13041400 b3878400 03c50700  ................
 f90004b4 6302050c 93075002 6306f506 eff05fdb  c.....P.c....._.
 f90004c4 6ff05ffe 8327c100 13874700 2326e100  o._..'....G.#&..
 f90004d4 03a50700 eff09fdb 6ff0dffc 8327c100  ........o....'..
 f90004e4 13874700 2326e100 03a50700 eff09fdb  ..G.#&..........
 f90004f4 6ff05ffb 8327c100 13874700 2326e100  o._..'....G.#&..
 f9000504 03a50700 eff01fe6 6ff0dff9 8327c100  ........o....'..
 f9000514 13874700 2326e100 03a50700 eff09fe0  ..G.#&..........
 f9000524 6ff05ff8 13041400 b3878400 83c70700  o._.............
 f9000534 e38a07f6 13073006 e38ce7f4 13073007  ......0.......0.
 f9000544 e382e7f8 13074006 e38ae7f8 13078005  ......@.........
 f9000554 e382e7fa 13078007 e38ae7fa 13076006  ..............`.
 f9000564 e392e7fc 370508f9 13058502 eff01fd2  ....7...........
 f9000574 6ff05ff3 8320c101 03248101 83244101  o._.. ...$...$A.
 f9000584 13010104 67800000 130101ff 23261100  ....g.......#&..
 f9000594 13060000 93050000 3705c0f8 eff05fe6  ........7....._.
 f90005a4 93061000 1306c000 93050000 3705c0f8  ............7...
 f90005b4 eff05fe0 13061000 9305c000 3705c0f8  .._.........7...
 f90005c4 eff05fde b76701f8 13071000 23a0e702  .._..g......#...
 f90005d4 b70700f9 9387c775 73905730 b7170000  .......us.W0....
 f90005e4 93870780 73a04730 f3270030 37270000  ....s.G0.'.07'..
 f90005f4 13078780 b3e7e700 73900730 8320c100  ........s..0. ..
 f9000604 13010101 67800000 130101ff 23261100  ....g.......#&..
 f9000614 370508f9 13054507 eff09fe3 6f000000  7.....E.....o...
 f9000624 130101ff 23261100 23248100 93050000  ....#&..#$......
 f9000634 3705c0f8 eff05fde 13040500 63080502  7....._.....c...
 f9000644 9307c000 6312f402 370508f9 13058508  ....c...7.......
 f9000654 eff01fe0 13060400 93050000 3705c0f8  ............7...
 f9000664 eff05fdd 6ff09ffc eff01ffa 8320c100  .._.o........ ..
 f9000674 03248100 13010101 67800000 130101ff  .$......g.......
 f9000684 23261100 f3272034 63d20702 13f7f700  #&...' 4c.......
 f9000694 9307b000 631af700 eff09ff8 8320c100  ....c........ ..
 f90006a4 13010101 67800000 eff01ff6 eff0dff5  ....g...........
 f90006b4 130101ff 23261100 23248100 370508f9  ....#&..#$..7...
 f90006c4 1305450a eff0dfd8 370508f9 1305850b  ..E.....7.......
 f90006d4 eff01fd8 b76701f8 1307e000 23a4e700  .....g......#...
 f90006e4 23a20700 13040000 6f000003 376701f8  #.......o...7g..
 f90006f4 83274700 93c7e700 2322f700 3706b0f8  .'G.....#"..7...
 f9000704 b7757804 9385058c 37850100 1305056a  .ux.....7......j
 f9000714 eff01fa3 13041400 93071003 e3d887fc  ................
 f9000724 370508f9 1305450d eff09fd2 370508f9  7.....E.....7...
 f9000734 1305050f eff0dfd1 370508f9 13050512  ........7.......
 f9000744 eff01fd1 370508f9 13050515 eff05fd0  ....7........._.
 f9000754 eff09fe3 6f000000 130101fc 23201100  ....o.......# ..
 f9000764 23225100 23246100 23267100 2328a100  #"Q.#$a.#&q.#(..
 f9000774 232ab100 232cc100 232ed100 2320e102  #*..#,..#...# ..
 f9000784 2322f102 23240103 23261103 2328c103  #"..#$..#&..#(..
 f9000794 232ad103 232ce103 232ef103 eff01fee  #*..#,..#.......
 f90007a4 83200100 83224100 03238100 8323c100  . ..."A..#...#..
 f90007b4 03250101 83254101 03268101 8326c101  .%...%A..&...&..
 f90007c4 03270102 83274102 03288102 8328c102  .'...'A..(...(..
 f90007d4 032e0103 832e4103 032f8103 832fc103  ......A../.../..
 f90007e4 13010104 73002030                    ....s. 0        
Contents of section .ram_section.data:
 f9080000 30313233 34353637 38394142 43444546  0123456789ABCDEF
 f9080010 00000000 30313233 34353637 38396162  ....0123456789ab
 f9080020 63646566 00000000 3c466c6f 6174696e  cdef....<Floatin
 f9080030 6720706f 696e7420 7072696e 74696e67  g point printing
 f9080040 206e6f74 20656e61 626c652e 20506c65   not enable. Ple
 f9080050 61736520 456e6162 6c652069 74206174  ase Enable it at
 f9080060 20627370 2e682066 69727374 2e2e2e3e   bsp.h first...>
 f9080070 00000000 0d0a2a2a 2a204352 41534820  ......*** CRASH 
 f9080080 2a2a2a0d 0a000000 6770696f 20302069  ***.....gpio 0 i
 f9080090 6e746572 72757074 20726f75 74696e65  nterrupt routine
 f90800a0 200d0a00 6770696f 20302064 656d6f20   ...gpio 0 demo 
 f90800b0 21200d0a 00000000 6f6e626f 61726420  ! ......onboard 
 f90800c0 4c454473 20626c69 6e6b696e 67200d0a  LEDs blinking ..
 f90800d0 00000000 6770696f 20302069 6e746572  ....gpio 0 inter
 f90800e0 72757074 2064656d 6f202120 0d0a0000  rupt demo ! ....
 f90800f0 54693138 30207072 65737320 616e6420  Ti180 press and 
 f9080100 72656c65 61736520 6f6e626f 61726420  release onboard 
 f9080110 62757474 6f6e2073 7734200d 0a000000  button sw4 .....
 f9080120 54693630 20707265 73732061 6e642072  Ti60 press and r
 f9080130 656c6561 7365206f 6e626f61 72642062  elease onboard b
 f9080140 7574746f 6e207377 36200d0a 00000000  utton sw6 ......
 f9080150 54313230 20707265 73732061 6e642072  T120 press and r
 f9080160 656c6561 7365206f 6e626f61 72642062  elease onboard b
 f9080170 7574746f 6e207377 37200d0a 00000000  utton sw7 ......
 f9080180 00000000 00000000 0000               ..........      
Contents of section .debug_info:
 0000 14160000 04000000 00000401 33590000  ............3Y..
 0010 0c7e2100 00381a00 00f80000 f9640600  .~!..8.......d..
 0020 00000000 00000000 00020106 a5530000  .............S..
 0030 020108ad 50000002 02056908 00000202  ....P.....i.....
 0040 07ca5e00 00033080 0000094d 18510000  ..^...0....M.Q..
 0050 00020405 7a840000 030e4300 00094f19  ....z.....C...O.
 0060 64000000 02040710 18000002 08059846  d..............F
 0070 00000208 07756c00 00040405 696e7400  .....ul.....int.
 0080 020407d0 1f000003 32800000 0a2c1345  ........2....,.E
 0090 00000003 10430000 0a301458 00000005  .....C...0.X....
 00a0 75333200 121e1593 00000003 b0230000  u32..........#..
 00b0 0b281bb7 00000006 04962200 0003f67e  .(........"....~
 00c0 00000b63 18ab0000 00021004 7a030000  ...c........z...
 00d0 07e22100 000c6501 17800000 0003157c  ..!...e........|
 00e0 00000d2e 0e510000 0003b059 00000d74  .....Q.....Y...t
 00f0 0e510000 00039d72 00000d93 17790000  .Q.....r.....y..
 0100 0008040d a5032301 00000990 0f00000d  ......#.........
 0110 a70cd000 000009ce 5900000d a8132301  ........Y.....#.
 0120 0000000a 30000000 33010000 0b800000  ....0...3.......
 0130 0003000c 080da209 57010000 0d0e5400  ........W.....T.
 0140 000da407 79000000 000ded02 00000da9  ....y...........
 0150 05010100 00040003 59650000 0daa0333  ........Ye.....3
 0160 0100000e 0403f678 00000e16 19640000  .......x.....d..
 0170 00030b3c 00000f0c 0d790000 00036164  ...<.....y....ad
 0180 00000e23 1b710100 000f4a3f 0000180e  ...#.q....J?....
 0190 3408e301 00000d73 5100000e 3613e301  4......sQ...6...
 01a0 00000010 5f6b000e 37077900 0000040d  ...._k..7.y.....
 01b0 25720000 0e370b79 00000008 0d324900  %r...7.y.....2I.
 01c0 000e3714 79000000 0c0d3c33 00000e37  ..7.y.....<3...7
 01d0 1b790000 0010105f 78000e38 0be90100  .y....._x..8....
 01e0 00140011 04890100 000a6501 0000f901  ..........e.....
 01f0 00000b80 00000000 000f3008 0000240e  ..........0...$.
 0200 3c087c02 00000d42 0800000e 3e097900  <.|....B....>.y.
 0210 0000000d d3850000 0e3f0979 00000004  .........?.y....
 0220 0d8c7d00 000e4009 79000000 080d1050  ..}...@.y......P
 0230 00000e41 09790000 000c0d99 1800000e  ...A.y..........
 0240 42097900 0000100d 7b720000 0e430979  B.y.....{r...C.y
 0250 00000014 0d8f5500 000e4409 79000000  ......U...D.y...
 0260 180d4256 00000e45 09790000 001c0da8  ..BV...E.y......
 0270 8100000e 46097900 00002000 12371100  ....F.y... ..7..
 0280 0008010e 4f08c102 00000d97 8100000e  ....O...........
 0290 500ac102 0000000d 1b5e0000 0e5109c1  P........^...Q..
 02a0 02000080 136a1700 000e530a 65010000  .....j....S.e...
 02b0 0001133d 7700000e 560a6501 00000401  ...=w...V.e.....
 02c0 000a6301 0000d102 00000b80 0000001f  ..c.............
 02d0 00124152 00009001 0e620814 0300000d  ..AR.....b......
 02e0 73510000 0e631214 03000000 0da67500  sQ...c........u.
 02f0 000e6406 79000000 040dc225 00000e66  ..d.y......%...f
 0300 091a0300 00080d37 1100000e 671e7c02  .......7....g.|.
 0310 00008800 1104d102 00000a2a 0300002a  ...........*...*
 0320 0300000b 80000000 1f001104 30030000  ............0...
 0330 140fed16 0000080e 7a085903 00000d2b  ........z.Y....+
 0340 6100000e 7b115903 0000000d c7090000  a...{.Y.........
 0350 0e7c0679 00000004 00110430 0000000f  .|.y.......0....
 0360 d57d0000 680eba08 a2040000 105f7000  .}..h........_p.
 0370 0ebb1259 03000000 105f7200 0ebc0779  ...Y....._r....y
 0380 00000004 105f7700 0ebd0779 00000008  ....._w....y....
 0390 0d905100 000ebe09 37000000 0c0de610  ..Q.....7.......
 03a0 00000ebf 09370000 000e105f 6266000e  .....7....._bf..
 03b0 c0113103 0000100d 32750000 0ec10779  ..1.....2u.....y
 03c0 00000018 0d883200 000ec80a 63010000  ......2.....c...
 03d0 1c0df703 00000eca 1d260600 00200d8e  .........&... ..
 03e0 4b00000e cc1d5006 0000240d 0e590000  K.....P...$..Y..
 03f0 0ecf0d74 06000028 0d802600 000ed009  ...t...(..&.....
 0400 8e060000 2c105f75 62000ed3 11310300  ....,._ub....1..
 0410 0030105f 7570000e d4125903 00003810  .0._up....Y...8.
 0420 5f757200 0ed50779 0000003c 0d5a5000  _ur....y...<.ZP.
 0430 000ed811 94060000 400d3c08 00000ed9  ........@.<.....
 0440 11a40600 0043105f 6c62000e dc113103  .....C._lb....1.
 0450 0000440d 93600000 0edf0779 0000004c  ..D..`.....y...L
 0460 0dfe3400 000ee00a dd000000 500d4d67  ..4.........P.Mg
 0470 00000ee3 12c00400 00540d83 0a00000e  .........T......
 0480 e70c7d01 0000580d 0d510000 0ee90e57  ..}...X..Q.....W
 0490 0100005c 0d684b00 000eea09 79000000  ...\.hK.....y...
 04a0 640015f5 000000c0 04000016 c0040000  d...............
 04b0 16630100 00161406 00001679 00000000  .c.........y....
 04c0 1104cb04 000017c0 04000018 5a220000  ............Z"..
 04d0 28040e65 02081406 00001952 4e00000e  (..e.......RN...
 04e0 67020779 00000000 19a72900 000e6c02  g..y......)...l.
 04f0 0b000700 0004192a 1e00000e 6c021400  .......*....l...
 0500 07000008 19bb5000 000e6c02 1e000700  ......P...l.....
 0510 000c1907 2400000e 6e020879 00000010  ....$...n..y....
 0520 19194300 000e6f02 08000900 001419c2  ..C...o.........
 0530 2100000e 72020779 00000030 19d02d00  !...r..y...0..-.
 0540 000e7302 16150900 00341900 3a00000e  ..s......4..:...
 0550 75020779 00000038 19574000 000e7702  u..y...8.W@...w.
 0560 0a260900 003c19a7 7a00000e 7a0213e3  .&...<..z...z...
 0570 01000040 19877300 000e7b02 07790000  ...@..s...{..y..
 0580 00441932 3900000e 7c0213e3 01000048  .D.29...|......H
 0590 19494800 000e7d02 142c0900 004c1918  .IH...}..,...L..
 05a0 0600000e 80020779 00000050 192f3500  .......y...P./5.
 05b0 000e8102 09140600 0054193b 5000000e  .........T.;P...
 05c0 a40207db 08000058 1a415200 000ea802  .......X.AR.....
 05d0 13140300 0048011a 79400000 0ea90212  .....H..y@......
 05e0 d1020000 4c011a11 3400000e ad020c3d  ....L...4......=
 05f0 090000dc 021a4181 00000eb2 0210c106  ......A.........
 0600 0000e002 1a360300 000eb402 0a490900  .....6.......I..
 0610 00ec0200 11041a06 00000201 08ac5300  ..............S.
 0620 00171a06 00001104 a2040000 15f50000  ................
 0630 004a0600 0016c004 00001663 01000016  .J.........c....
 0640 4a060000 16790000 00001104 21060000  J....y......!...
 0650 11042c06 000015e9 00000074 06000016  ..,........t....
 0660 c0040000 16630100 0016e900 00001679  .....c.........y
 0670 00000000 11045606 00001579 0000008e  ......V....y....
 0680 06000016 c0040000 16630100 00001104  .........c......
 0690 7a060000 0a300000 00a40600 000b8000  z....0..........
 06a0 00000200 0a300000 00b40600 000b8000  .....0..........
 06b0 00000000 079d6400 000e2401 1a5f0300  ......d...$.._..
 06c0 001b2c49 00000c0e 280108fa 06000019  ..,I....(.......
 06d0 73510000 0e2a0111 fa060000 0019af44  sQ...*.........D
 06e0 00000e2b 01077900 00000419 73350000  ...+..y.....s5..
 06f0 0e2c010b 00070000 08001104 c1060000  .,..............
 0700 1104b406 00001b6c 5e00000e 0e440108  .......l^....D..
 0710 3f070000 197a5800 000e4501 123f0700  ?....zX...E..?..
 0720 00001919 0c00000e 4601123f 07000006  ........F..?....
 0730 19ff7c00 000e4701 123e0000 000c000a  ..|...G..>......
 0740 3e000000 4f070000 0b800000 0002001c  >...O...........
 0750 d00e8502 07640800 0019c41b 00000e87  .....d..........
 0760 02188000 00000019 54130000 0e880212  ........T.......
 0770 14060000 0419f405 00000e89 02106408  ..............d.
 0780 00000819 73160000 0e8a0217 f9010000  ....s...........
 0790 24192246 00000e8b 020f7900 00004819  $."F......y...H.
 07a0 6e510000 0e8c022c 72000000 5019c265  nQ.....,r...P..e
 07b0 00000e8d 021a0607 00005819 776d0000  ..........X.wm..
 07c0 0e8e0216 57010000 68199d5a 00000e8f  ....W...h..Z....
 07d0 02165701 00007019 e5500000 0e900216  ..W...p..P......
 07e0 57010000 78198408 00000e91 02107408  W...x.........t.
 07f0 00008019 3d3e0000 0e920210 84080000  ....=>..........
 0800 88190c0c 00000e93 020f7900 0000a019  ..........y.....
 0810 ae130000 0e940216 57010000 a4195326  ........W.....S&
 0820 00000e95 02165701 0000ac19 747f0000  ......W.....t...
 0830 0e960216 57010000 b419c44f 00000e97  ....W......O....
 0840 02165701 0000bc19 684a0000 0e980216  ..W.....hJ......
 0850 57010000 c419504e 00000e99 02087900  W.....PN......y.
 0860 0000cc00 0a1a0600 00740800 000b8000  .........t......
 0870 00001900 0a1a0600 00840800 000b8000  ................
 0880 00000700 0a1a0600 00940800 000b8000  ................
 0890 00001700 1cf00e9e 0207bb08 000019a0  ................
 08a0 7700000e a1021bbb 08000000 19a54500  w.............E.
 08b0 000ea202 18cb0800 0078000a 59030000  .........x..Y...
 08c0 cb080000 0b800000 001d000a 80000000  ................
 08d0 db080000 0b800000 001d001d f00e8302  ................
 08e0 03000900 001e5a22 00000e9a 020b4f07  ......Z"......O.
 08f0 00001ea8 2300000e a3020b94 08000000  ....#...........
 0900 0a1a0600 00100900 000b8000 00001800  ................
 0910 1f184500 00110410 09000020 26090000  ..E........ &...
 0920 16c00400 00001104 1b090000 1104e301  ................
 0930 0000203d 09000016 79000000 00110443  .. =....y......C
 0940 09000011 04320900 000ab406 00005909  .....2........Y.
 0950 00000b80 00000002 00215610 00000e33  .........!V....3
 0960 0317c004 0000214b 7200000e 34031dc6  ......!Kr...4...
 0970 04000022 63710000 10670e14 06000002  ..."cq...g......
 0980 0404707d 00000208 047f0300 00233b43  ..p}.........#;C
 0990 00000504 79000000 115f0206 ad090000  ....y...._......
 09a0 24f72400 007f2594 4f000000 00214f3b  $.$...%.O....!O;
 09b0 00001168 02238d09 0000262d 17000007  ...h.#....&-....
 09c0 7106b406 00f9a800 0000019c b70b0000  q...............
 09d0 27000000 008f0a00 00286900 07780e79  '........(i..x.y
 09e0 00000000 00000029 08110000 f00600f9  .......)........
 09f0 08000000 07791f1f 0a00002a 19110000  .....y.....*....
 0a00 1f000000 2bfd1500 00f00600 f9080000  ....+...........
 0a10 00082705 2a0a1600 00370000 00000029  ..'.*....7.....)
 0a20 e2100000 fc0600f9 04000000 07790969  .............y.i
 0a30 0a00002a fb100000 4f000000 2aef1000  ...*....O...*...
 0a40 00620000 002bd715 0000fc06 00f90400  .b...+..........
 0a50 00000828 052af015 00007a00 00002ae4  ...(.*....z...*.
 0a60 1500004f 00000000 002c1807 00f93814  ...O.....,....8.
 0a70 00002d01 5a050ca0 8601002d 015b050c  ..-.Z......-.[..
 0a80 c0687804 2d015c05 118080c0 45000029  .hx.-.\.....E..)
 0a90 bc100000 d80600f9 0c000000 077605d9  .............v..
 0aa0 0a00002a d5100000 92000000 2ac91000  ...*........*...
 0ab0 00a60000 002bd715 0000d806 00f90c00  .....+..........
 0ac0 0000082a 052af015 0000be00 00002ae4  ...*.*........*.
 0ad0 15000092 00000000 0029e210 0000e406  .........)......
 0ae0 00f90400 00000777 05230b00 002afb10  .......w.#...*..
 0af0 0000d600 00002aef 100000ea 0000002b  ......*........+
 0b00 d7150000 e40600f9 04000000 0828052a  .............(.*
 0b10 f0150000 02010000 2ae41500 00d60000  ........*.......
 0b20 0000002e cc0600f9 26110000 3a0b0000  ........&...:...
 0b30 2d015a05 03a40008 f9002ed8 0600f926  -.Z............&
 0b40 11000051 0b00002d 015a0503 b80008f9  ...Q...-.Z......
 0b50 002e3007 00f92611 0000680b 00002d01  ..0...&...h...-.
 0b60 5a0503d4 0008f900 2e3c0700 f9261100  Z........<...&..
 0b70 007f0b00 002d015a 0503f000 08f9002e  .....-.Z........
 0b80 480700f9 26110000 960b0000 2d015a05  H...&.......-.Z.
 0b90 03200108 f9002e54 0700f926 110000ad  . .....T...&....
 0ba0 0b00002d 015a0503 500108f9 002f5807  ...-.Z..P..../X.
 0bb0 00f9e40c 00000026 c36a0000 076c060c  .......&.j...l..
 0bc0 0600f918 00000001 9ce10b00 002c2006  ............., .
 0bd0 00f92611 00002d01 5a050374 0008f900  ..&...-.Z..t....
 0be0 00263c2a 0000075e 06240600 f95c0000  .&<*...^.$...\..
 0bf0 00019c64 0c000030 9e550000 075f0e93  ...d...0.U..._..
 0c00 0000001a 0100002e 3c0600f9 7e0e0000  ........<...~...
 0c10 220c0000 2d015a04 4d46241f 2d015b01  "...-.Z.MF$.-.[.
 0c20 30002e58 0600f926 11000039 0c00002d  0..X...&...9...-
 0c30 015a0503 880008f9 002e6806 00f9160e  .Z........h.....
 0c40 00005a0c 00002d01 5a044d46 241f2d01  ..Z...-.Z.MF$.-.
 0c50 5b01302d 015c0278 00002f70 0600f9b7  [.0-.\.x../p....
 0c60 0b000000 26dd1900 00075006 800600f9  ....&.....P.....
 0c70 34000000 019ce40c 00003074 72000007  4.........0tr...
 0c80 510d8700 00003801 00003064 7b000007  Q.....8...0d{...
 0c90 520d8700 00005601 00003075 72000007  R.....V...0ur...
 0ca0 530d8700 00008201 00003188 0600f904  S.........1.....
 0cb0 000000c8 0c000028 5f5f7600 07511664  .......(__v..Q.d
 0cc0 00000038 01000000 2fa00600 f9e10b00  ...8..../.......
 0cd0 002fb006 00f9b70b 00002fb4 0600f9b7  ./......../.....
 0ce0 0b000000 26063a00 00073f06 8c0500f9  ....&.:...?.....
 0cf0 80000000 019c160e 000031d4 0500f90c  ..........1.....
 0d00 00000018 0d000028 5f5f7600 07490564  .......(__v..I.d
 0d10 000000be 01000000 31e00500 f90c0000  ........1.......
 0d20 00340d00 00325f5f 7600074b 05640000  .4...2__v..K.d..
 0d30 00000800 31ec0500 f9140000 006a0d00  ....1........j..
 0d40 00335f5f 7600074c 05640000 00015f34  .3__v..L.d...._4
 0d50 ec0500f9 04000000 285f5f76 00074c05  ........(__v..L.
 0d60 64000000 d1010000 00002996 100000c8  d.........).....
 0d70 0500f90c 00000007 4605b40d 00002aaf  ........F.....*.
 0d80 100000e4 0100002a a3100000 f8010000  .......*........
 0d90 2bd71500 00c80500 f90c0000 00082c05  +.............,.
 0da0 2af01500 00100200 002ae415 0000e401  *........*......
 0db0 00000000 2ea40500 f9d30e00 00d40d00  ................
 0dc0 002d015a 044d4624 1f2d015b 01302d01  .-.Z.MF$.-.[.0-.
 0dd0 5c013000 2eb80500 f93b0f00 00f90d00  \.0......;......
 0de0 002d015a 044d4624 1f2d015b 01302d01  .-.Z.MF$.-.[.0-.
 0df0 5c013c2d 015d0131 002cc805 00f93010  \.<-.].1.,....0.
 0e00 00002d01 5a044d46 241f2d01 5b013c2d  ..-.Z.MF$.-.[.<-
 0e10 015c0131 000035de 44000006 42113804  .\.1..5.D...B.8.
 0e20 00f91c00 0000019c 7e0e0000 36f17800  ........~...6.x.
 0e30 00064222 9f000000 28020000 364b3a00  ..B"....(...6K:.
 0e40 0006422c 9f000000 49020000 37bf7500  ..B,....I...7.u.
 0e50 00064238 9f000000 015c2bd7 1500004c  ..B8.....\+....L
 0e60 0400f904 00000006 43092af0 1500006a  ........C.*....j
 0e70 0200002a e4150000 7d020000 00003899  ...*....}.....8.
 0e80 55000006 3e109f00 00001c04 00f91c00  U...>...........
 0e90 0000019c d30e0000 36f17800 00063e1f  ........6.x...>.
 0ea0 9f000000 90020000 364b3a00 00063e29  ........6K:...>)
 0eb0 9f000000 b1020000 2bfd1500 00300400  ........+....0..
 0ec0 f9040000 00063f10 2a0a1600 00d20200  ......?.*.......
 0ed0 00000035 03670000 06361104 0400f918  ...5.g...6......
 0ee0 00000001 9c3b0f00 0036f178 00000636  .....;...6.x...6
 0ef0 289f0000 00e50200 00364b3a 00000636  (........6K:...6
 0f00 329f0000 00060300 00370c67 00000636  2........7.g...6
 0f10 3e9f0000 00015c2b d7150000 140400f9  >.....\+........
 0f20 04000000 0637092a f0150000 27030000  .....7.*....'...
 0f30 2ae41500 003a0300 00000035 68420000  *....:.....5hB..
 0f40 062d11b8 0300f94c 00000001 9c301000  .-.....L.....0..
 0f50 0036f178 0000062d 259f0000 004d0300  .6.x...-%....M..
 0f60 00364b3a 0000062d 2f9f0000 006e0300  .6K:...-/....n..
 0f70 0036bf75 0000062d 3a9f0000 008f0300  .6.u...-:.......
 0f80 00377142 0000062d 479f0000 00015d39  .7qB...-G.....]9
 0f90 bf170000 062e0d9f 00000001 5a308747  ............Z0.G
 0fa0 0000062f 0d9f0000 00c90300 0029fd15  .../.........)..
 0fb0 0000e003 00f90400 00000631 17cb0f00  ...........1....
 0fc0 002a0a16 00001b04 00000029 d7150000  .*.........)....
 0fd0 e80300f9 08000000 06310df2 0f00002a  .........1.....*
 0fe0 f0150000 2e040000 2ae41500 00410400  ........*....A..
 0ff0 000029fd 150000f0 0300f904 00000006  ..).............
 1000 33171010 00002a0a 16000054 04000000  3.....*....T....
 1010 2bd71500 00fc0300 f9040000 0006330d  +.............3.
 1020 3af01500 00015a3a e4150000 015f0000  :.....Z:....._..
 1030 35bc1300 00062511 a80300f9 10000000  5.....%.........
 1040 019c9610 000037f1 78000006 25279f00  ......7.x...%'..
 1050 0000015a 36bf7500 00062531 9f000000  ...Z6.u...%1....
 1060 67040000 37c51300 0006253e 9f000000  g...7.....%>....
 1070 015c2bd7 150000b0 0300f904 00000006  .\+.............
 1080 26092af0 15000088 0400002a e4150000  &.*........*....
 1090 9b040000 00003b59 3a000008 2c0503bc  ......;Y:...,...
 10a0 1000003c 72656700 082c059f 0000003d  ...<reg..,.....=
 10b0 ef020000 082c059f 00000000 3b842a00  .....,......;.*.
 10c0 00082a05 03e21000 003c7265 6700082a  ..*......<reg..*
 10d0 059f0000 003def02 0000082a 059f0000  .....=.....*....
 10e0 00003b16 72000008 28050308 1100003c  ..;.r...(......<
 10f0 72656700 0828059f 0000003d ef020000  reg..(.....=....
 1100 0828059f 00000000 3ec12900 00082705  .(......>.)...'.
 1110 9f000000 03261100 003c7265 67000827  .....&...<reg..'
 1120 059f0000 0000357f 81000005 df115404  ......5.......T.
 1130 00f93801 0000019c b3110000 365e6c00  ..8.........6^l.
 1140 0005df28 4a060000 ae040000 3f286900  ...(J.......?(i.
 1150 05e10d79 000000da 04000033 61700005  ...y.......3ap..
 1160 e211bd00 00000291 4c2fa804 00f9f012  ........L/......
 1170 00002fc4 0400f9f0 1200002f dc0400f9  ../......../....
 1180 ba120000 2ff40400 f9491200 002f0c05  ..../....I.../..
 1190 00f9b311 00002f24 0500f9fe 1100002c  ....../$.......,
 11a0 740500f9 ba120000 2d015a05 03280008  t.......-.Z..(..
 11b0 f9000035 4c560000 05d01168 0300f940  ...5LV.....h...@
 11c0 00000001 9cfe1100 00407661 6c0005d0  .........@val...
 11d0 22790000 00f90400 00286900 05d21179  "y.......(i....y
 11e0 0000001a 05000041 f4160000 05d21379  .......A.......y
 11f0 00000002 2f9c0300 f97b1300 00003526  ..../....{....5&
 1200 59000005 c1112803 00f94000 0000019c  Y.....(...@.....
 1210 49120000 4076616c 0005c122 79000000  I...@val..."y...
 1220 39050000 28690005 c30d7900 00005a05  9...(i....y...Z.
 1230 000041f4 16000005 c30f7900 0000022f  ..A.......y..../
 1240 5c0300f9 26130000 00359957 000005b1  \...&....5.W....
 1250 11a80200 f9800000 00019caa 12000040  ...............@
 1260 76616c00 05b12279 00000079 05000039  val..."y...y...9
 1270 3b320000 05b30eaa 12000002 91502870  ;2...........P(p
 1280 0005b40f 14060000 97050000 2ed00200  ................
 1290 f9f01200 00a01200 002d015a 02082d00  .........-.Z..-.
 12a0 2f0c0300 f9f01200 00000a1a 060000ba  /...............
 12b0 1200000b 80000000 1f0035f1 58000005  ..........5.X...
 12c0 aa119002 00f91800 0000019c f0120000  ................
 12d0 40700005 aa241406 0000cd05 00002c9c  @p...$........,.
 12e0 0200f9d0 1300002d 015a03f3 015a0000  .......-.Z...Z..
 12f0 358c5700 0005a511 740200f9 1c000000  5.W.....t.......
 1300 019c2613 00004063 0005a522 79000000  ..&...@c..."y...
 1310 ee050000 2c840200 f9fe1300 002d015a  ....,........-.Z
 1320 03f3015a 00003500 08000004 7f112002  ...Z..5....... .
 1330 00f95400 0000019c 7b130000 4076616c  ..T.....{...@val
 1340 00047f2d 93000000 0f060000 41350800  ...-........A5..
 1350 00048116 93000000 08343402 00f92c00  .........44...,.
 1360 00002869 00048416 79000000 3b060000  ..(i....y...;...
 1370 2f580200 f9fe1300 00000035 846d0000  /X.........5.m..
 1380 047511cc 0100f954 00000001 9cd01300  .u.....T........
 1390 00407661 6c000475 27930000 005a0600  .@val..u'....Z..
 13a0 00413508 00000477 12930000 000834e0  .A5....w......4.
 13b0 0100f92c 00000028 6900047a 12790000  ...,...(i..z.y..
 13c0 00860600 002f0402 00f9fe13 00000000  ...../..........
 13d0 35ac1400 00046911 980100f9 34000000  5.....i.....4...
 13e0 019cfe13 00004070 00046922 14060000  ......@p..i"....
 13f0 a5060000 2fb80100 f9fe1300 00003521  ..../.........5!
 1400 66000004 61117801 00f92000 0000019c  f...a.x... .....
 1410 38140000 36668100 0004611f 1a060000  8...6f....a.....
 1420 c3060000 2c8c0100 f9241500 002d015a  ....,....$...-.Z
 1430 05118080 84400000 35632f00 00033711  .....@..5c/...7.
 1440 440100f9 34000000 019c0615 000036b6  D...4.........6.
 1450 54000003 37229f00 0000e406 00004068  T...7"........@h
 1460 7a000337 2c9f0000 00050700 00407265  z..7,........@re
 1470 67000337 349f0000 00260700 00393051  g..74....&...90Q
 1480 00000338 0d9f0000 00015b39 8b300000  ...8......[9.0..
 1490 03390d9f 00000001 5a290615 00005001  .9......Z)....P.
 14a0 00f91000 00000339 15d11400 002a1715  .......9.....*..
 14b0 00004807 00002bfd 1500005c 0100f904  ..H...+....\....
 14c0 00000003 21052a0a 1600006a 07000000  ....!.*....j....
 14d0 002b0615 00006801 00f90400 0000033a  .+....h........:
 14e0 202a1715 00007d07 00002bfd 15000068   *....}...+....h
 14f0 0100f904 00000003 21052a0a 16000094  ........!.*.....
 1500 07000000 00003e3b 27000003 21059f00  ......>;'...!...
 1510 00000324 1500003c 72656700 0321059f  ...$...<reg..!..
 1520 00000000 358a4b00 00013411 080100f9  ....5.K...4.....
 1530 3c000000 019c9215 00004072 65670001  <.........@reg..
 1540 34209f00 0000a707 0000364e 67000001  4 ........6Ng...
 1550 342a1a06 0000d307 000029d7 1500002c  4*........)....,
 1560 0100f904 00000001 36098115 00002af0  ........6.....*.
 1570 150000f4 0700002a e4150000 07080000  .......*........
 1580 002c2801 00f99215 00002d01 5a027800  .,(.......-.Z.x.
 1590 00003878 55000001 2d109f00 0000f800  ..8xU...-.......
 15a0 00f91000 0000019c d7150000 40726567  ............@reg
 15b0 00012d2b 9f000000 1a080000 2bfd1500  ..-+........+...
 15c0 00f80000 f9040000 00012e11 2a0a1600  ............*...
 15d0 003b0800 0000003b f50b0000 02221803  .;.....;....."..
 15e0 fd150000 3d4e6700 00022226 9f000000  ....=Ng..."&....
 15f0 3de15100 00022230 9f000000 0042447a  =.Q..."0.....BDz
 1600 0000021e 179f0000 00033de1 51000002  ..........=.Q...
 1610 1e249f00 00000000 22000000 0200c003  .$......".......
 1620 00000401 2c0e0000 000000f9 640000f9  ....,.......d...
 1630 c7890000 381a0000 d9890000 01802200  ....8.........".
 1640 00000200 d4030000 0401e60e 00005c07  ..............\.
 1650 00f9ec07 00f9e589 0000381a 0000d989  ..........8.....
 1660 00000180                             ....            
Contents of section .debug_abbrev:
 0000 01110125 0e130b03 0e1b0e11 01120610  ...%............
 0010 17994217 00000224 000b0b3e 0b030e00  ..B....$...>....
 0020 00031600 030e3a0b 3b0b390b 49130000  ......:.;.9.I...
 0030 0424000b 0b3e0b03 08000005 16000308  .$...>..........
 0040 3a0b3b0b 390b4913 0000060f 000b0b03  :.;.9.I.........
 0050 0e000007 1600030e 3a0b3b05 390b4913  ........:.;.9.I.
 0060 00000817 010b0b3a 0b3b0b39 0b011300  .......:.;.9....
 0070 00090d00 030e3a0b 3b0b390b 49130000  ......:.;.9.I...
 0080 0a010149 13011300 000b2100 49132f0b  ...I......!.I./.
 0090 00000c13 010b0b3a 0b3b0b39 0b011300  .......:.;.9....
 00a0 000d0d00 030e3a0b 3b0b390b 4913380b  ......:.;.9.I.8.
 00b0 00000e0f 000b0b00 000f1301 030e0b0b  ................
 00c0 3a0b3b0b 390b0113 0000100d 0003083a  :.;.9..........:
 00d0 0b3b0b39 0b491338 0b000011 0f000b0b  .;.9.I.8........
 00e0 49130000 12130103 0e0b053a 0b3b0b39  I..........:.;.9
 00f0 0b011300 00130d00 030e3a0b 3b0b390b  ..........:.;.9.
 0100 49133805 00001415 00271900 00151501  I.8......'......
 0110 27194913 01130000 16050049 13000017  '.I........I....
 0120 26004913 00001813 01030e0b 053a0b3b  &.I..........:.;
 0130 05390b01 13000019 0d00030e 3a0b3b05  .9..........:.;.
 0140 390b4913 380b0000 1a0d0003 0e3a0b3b  9.I.8........:.;
 0150 05390b49 13380500 001b1301 030e0b0b  .9.I.8..........
 0160 3a0b3b05 390b0113 00001c13 010b0b3a  :.;.9..........:
 0170 0b3b0539 0b011300 001d1701 0b0b3a0b  .;.9..........:.
 0180 3b05390b 01130000 1e0d0003 0e3a0b3b  ;.9..........:.;
 0190 05390b49 1300001f 1300030e 3c190000  .9.I........<...
 01a0 20150127 19011300 00213400 030e3a0b   ..'.....!4...:.
 01b0 3b05390b 49133f19 3c190000 22340003  ;.9.I.?.<..."4..
 01c0 0e3a0b3b 0b390b49 133f193c 19000023  .:.;.9.I.?.<...#
 01d0 0401030e 3e0b0b0b 49133a0b 3b05390b  ....>...I.:.;.9.
 01e0 01130000 24280003 0e1c0d00 00252800  ....$(.......%(.
 01f0 030e1c0b 0000262e 013f1903 0e3a0b3b  ......&..?...:.;
 0200 0b390b11 01120640 18974219 01130000  .9.....@..B.....
 0210 270b0155 17011300 00283400 03083a0b  '..U.....(4...:.
 0220 3b0b390b 49130217 0000291d 01311311  ;.9.I.....)..1..
 0230 01120658 0b590b57 0b011300 002a0500  ...X.Y.W.....*..
 0240 31130217 00002b1d 01311311 01120658  1.....+..1.....X
 0250 0b590b57 0b00002c 89820101 11013113  .Y.W...,......1.
 0260 00002d8a 82010002 18914218 00002e89  ..-.......B.....
 0270 82010111 01311301 1300002f 89820100  .....1...../....
 0280 11013113 00003034 00030e3a 0b3b0b39  ..1...04...:.;.9
 0290 0b491302 17000031 0b011101 12060113  .I.....1........
 02a0 00003234 0003083a 0b3b0b39 0b49131c  ..24...:.;.9.I..
 02b0 05000033 34000308 3a0b3b0b 390b4913  ...34...:.;.9.I.
 02c0 02180000 340b0111 01120600 00352e01  ....4........5..
 02d0 030e3a0b 3b0b390b 27191101 12064018  ..:.;.9.'.....@.
 02e0 97421901 13000036 0500030e 3a0b3b0b  .B.....6....:.;.
 02f0 390b4913 02170000 37050003 0e3a0b3b  9.I.....7....:.;
 0300 0b390b49 13021800 00382e01 030e3a0b  .9.I.....8....:.
 0310 3b0b390b 27194913 11011206 40189742  ;.9.'.I.....@..B
 0320 19011300 00393400 030e3a0b 3b0b390b  .....94...:.;.9.
 0330 49130218 00003a05 00311302 1800003b  I.....:..1.....;
 0340 2e01030e 3a0b3b0b 390b2719 200b0113  ....:.;.9.'. ...
 0350 00003c05 0003083a 0b3b0b39 0b491300  ..<....:.;.9.I..
 0360 003d0500 030e3a0b 3b0b390b 49130000  .=....:.;.9.I...
 0370 3e2e0103 0e3a0b3b 0b390b27 19491320  >....:.;.9.'.I. 
 0380 0b011300 003f1800 00004005 0003083a  .....?....@....:
 0390 0b3b0b39 0b491302 17000041 3400030e  .;.9.I.....A4...
 03a0 3a0b3b0b 390b4913 1c0b0000 422e0103  :.;.9.I.....B...
 03b0 0e3a0b3b 0b390b27 19491320 0b000000  .:.;.9.'.I. ....
 03c0 01110010 06110112 01030e1b 0e250e13  .............%..
 03d0 05000000 01110010 06110112 01030e1b  ................
 03e0 0e250e13 05000000                    .%......        
Contents of section .debug_loc:
 0000 f0050000 f8050000 0200309f f8050000  ..........0.....
 0010 64060000 01005800 00000000 000000f8  d.....X.........
 0020 05000000 06000006 001180c0 85409f00  .............@..
 0030 00000000 000000f8 05000000 06000006  ................
 0040 001184c0 85409f00 00000000 00000004  .....@..........
 0050 06000008 06000001 005f0000 00000000  ........._......
 0060 00000406 00000806 00000600 1180c085  ................
 0070 409f0000 00000000 00000406 00000806  @...............
 0080 00000600 1184c085 409f0000 00000000  ........@.......
 0090 0000e005 0000ec05 00000200 3e9f0000  ............>...
 00a0 00000000 0000e005 0000ec05 00000600  ................
 00b0 1180c085 409f0000 00000000 0000e005  ....@...........
 00c0 0000ec05 00000600 1188c085 409f0000  ............@...
 00d0 00000000 0000ec05 0000f005 00000200  ................
 00e0 309f0000 00000000 0000ec05 0000f005  0...............
 00f0 00000600 1180c085 409f0000 00000000  ........@.......
 0100 0000ec05 0000f005 00000600 1184c085  ................
 0110 409f0000 00000000 00004805 00008005  @.........H.....
 0120 00000100 58800500 00880500 0001005a  ....X..........Z
 0130 00000000 00000000 94050000 a0050000  ................
 0140 01005fb8 050000bb 05000001 005f0000  .._.........._..
 0150 00000000 00009405 0000a005 00000800  ................
 0160 7f00302d 08ff1a9f b8050000 bb050000  ..0-............
 0170 08007f00 302d08ff 1a9f0000 00000000  ....0-..........
 0180 00009405 00009c05 00000500 7f003f1a  ..............?.
 0190 9f9c0500 00a70500 0001005e b4050000  ...........^....
 01a0 b7050000 01005eb8 050000bb 05000005  ......^.........
 01b0 007f003f 1a9f0000 00000000 0000e404  ...?............
 01c0 0000ec04 00000100 5f000000 00000000  ........_.......
 01d0 00f80400 00040500 0001005f 00000000  ..........._....
 01e0 00000000 d0040000 dc040000 0200319f  ..............1.
 01f0 00000000 00000000 d0040000 dc040000  ................
 0200 06001180 c085409f 00000000 00000000  ......@.........
 0210 d0040000 dc040000 060011a0 c085409f  ..............@.
 0220 00000000 00000000 40030000 4c030000  ........@...L...
 0230 01005a4c 0300005c 03000004 00f3015a  ..ZL...\.......Z
 0240 9f000000 00000000 00400300 00440300  .........@...D..
 0250 0001005b 44030000 5c030000 0400f301  ...[D...\.......
 0260 5b9f0000 00000000 00005403 00005803  [.........T...X.
 0270 00000100 5b000000 00000000 00540300  ....[........T..
 0280 00580300 0001005c 00000000 00000000  .X.....\........
 0290 24030000 30030000 01005a30 03000040  $...0.....Z0...@
 02a0 03000004 00f3015a 9f000000 00000000  .......Z........
 02b0 00240300 00280300 0001005b 28030000  .$...(.....[(...
 02c0 40030000 0400f301 5b9f0000 00000000  @.......[.......
 02d0 00003803 00003c03 00000100 5b000000  ..8...<.....[...
 02e0 00000000 000c0300 00180300 0001005a  ...............Z
 02f0 18030000 24030000 0400f301 5a9f0000  ....$.......Z...
 0300 00000000 00000c03 00001003 00000100  ................
 0310 5b100300 00240300 000400f3 015b9f00  [....$.......[..
 0320 00000000 0000001c 03000020 03000001  ........... ....
 0330 005b0000 00000000 00001c03 00002003  .[............ .
 0340 00000100 5c000000 00000000 00c00200  ....\...........
 0350 00c80200 0001005a c8020000 0c030000  .......Z........
 0360 0400f301 5a9f0000 00000000 0000c002  ....Z...........
 0370 0000c402 00000100 5bc40200 000c0300  ........[.......
 0380 000400f3 015b9f00 00000000 000000c0  .....[..........
 0390 020000ec 02000001 005cec02 0000f802  .........\......
 03a0 00000400 f3015c9f f8020000 fc020000  ......\.........
 03b0 01005cfc 0200000c 03000004 00f3015c  ..\............\
 03c0 9f000000 00000000 00e40200 00f00200  ................
 03d0 0001005f f0020000 f8020000 090031f3  ..._..........1.
 03e0 015c08ff 1a249ff8 02000000 03000001  .\...$..........
 03f0 005f0003 00000403 00000400 7f00209f  ._............ .
 0400 04030000 0c030000 090031f3 015c08ff  ..........1..\..
 0410 1a249f00 00000000 000000e8 020000ec  .$..............
 0420 02000001 005a0000 00000000 0000f002  .....Z..........
 0430 0000f802 00000100 5a000000 00000000  ........Z.......
 0440 00f00200 00f80200 0001005f 00000000  ..........._....
 0450 00000000 f8020000 fc020000 01005a00  ..............Z.
 0460 00000000 000000b0 020000b4 02000001  ................
 0470 005bb402 0000c002 00000400 f3015b9f  .[............[.
 0480 00000000 00000000 b8020000 bc020000  ................
 0490 01005b00 00000000 000000b8 020000bc  ..[.............
 04a0 02000001 005c0000 00000000 00005c03  .....\........\.
 04b0 00009c03 00000100 5a9c0300 008c0400  ........Z.......
 04c0 00010059 8c040000 94040000 0400f301  ...Y............
 04d0 5a9f0000 00000000 00009403 00009c03  Z...............
 04e0 00000200 309f9c03 00008804 00000100  ....0...........
 04f0 58000000 00000000 00700200 00a30200  X........p......
 0500 0001005a a3020000 b0020000 0400f301  ...Z............
 0510 5a9f0000 00000000 00007802 00007c02  Z.........x...|.
 0520 00000200 309f7c02 0000a302 00000100  ....0.|.........
 0530 5e000000 00000000 00300200 00630200  ^........0...c..
 0540 0001005a 63020000 70020000 0400f301  ...Zc...p.......
 0550 5a9f0000 00000000 00003802 00003c02  Z.........8...<.
 0560 00000200 309f3c02 00006302 00000100  ....0.<...c.....
 0570 5e000000 00000000 00b00100 00c80100  ^...............
 0580 0001005a c8010000 28020000 01005900  ...Z....(.....Y.
 0590 00000000 000000c4 010000e0 01000001  ................
 05a0 0052e001 0000e801 00000100 58e80100  .R..........X...
 05b0 00f80100 00030078 019ff801 00002402  .......x......$.
 05c0 00000100 58000000 00000000 00980100  ....X...........
 05d0 00a30100 0001005a a3010000 b0010000  .......Z........
 05e0 0400f301 5a9f0000 00000000 00007c01  ....Z.........|.
 05f0 00008801 00000100 5a880100 00980100  ........Z.......
 0600 000400f3 015a9f00 00000000 00000028  .....Z.........(
 0610 01000044 01000001 005a4401 00007401  ...D.....ZD...t.
 0620 00000100 59740100 007c0100 000400f3  ....Yt...|......
 0630 015a9f00 00000000 0000003c 01000044  .Z.........<...D
 0640 01000002 004c9f44 01000070 01000001  .....L.D...p....
 0650 00580000 00000000 0000d400 0000f000  .X..............
 0660 00000100 5af00000 00200100 00010059  ....Z.... .....Y
 0670 20010000 28010000 0400f301 5a9f0000   ...(.......Z...
 0680 00000000 0000e800 0000f000 00000200  ................
 0690 4c9ff000 00001c01 00000100 58000000  L...........X...
 06a0 00000000 00a00000 00b00000 0001005a  ...............Z
 06b0 b0000000 cc000000 01005800 00000000  ..........X.....
 06c0 00000080 00000090 00000001 005a9000  .............Z..
 06d0 0000a000 00000400 f3015a9f 00000000  ..........Z.....
 06e0 00000000 4c000000 6c000000 01005a6c  ....L...l.....Zl
 06f0 00000080 00000004 00f3015a 9f000000  ...........Z....
 0700 00000000 004c0000 00580000 0001005b  .....L...X.....[
 0710 58000000 80000000 0400f301 5b9f0000  X...........[...
 0720 00000000 00004c00 00006400 00000100  ......L...d.....
 0730 5c640000 00800000 0005007c 88807d9f  \d.........|..}.
 0740 00000000 00000000 58000000 64000000  ........X...d...
 0750 01005c64 00000068 00000005 007c8880  ..\d...h.....|..
 0760 7d9f0000 00000000 00006400 00006800  }.........d...h.
 0770 00000100 5c000000 00000000 00700000  ....\........p..
 0780 00740000 0005007c 88807d9f 00000000  .t.....|..}.....
 0790 00000000 70000000 74000000 01005c00  ....p...t.....\.
 07a0 00000000 00000010 00000028 00000001  ...........(....
 07b0 005a2800 00004000 00000100 58400000  .Z(...@.....X@..
 07c0 004c0000 000400f3 015a9f00 00000000  .L.......Z......
 07d0 00000010 00000028 00000001 005b2800  .......(.....[(.
 07e0 00004c00 00000400 f3015b9f 00000000  ..L.......[.....
 07f0 00000000 34000000 38000000 01005800  ....4...8.....X.
 0800 00000000 00000034 00000038 00000001  .......4...8....
 0810 00590000 00000000 00000000 00000400  .Y..............
 0820 00000100 5a040000 00100000 000400f3  ....Z...........
 0830 015a9f00 00000000 00000000 00000004  .Z..............
 0840 00000003 007a049f 00000000 00000000  .....z..........
Contents of section .debug_aranges:
 0000 1c000000 02000000 00000400 00000000  ................
 0010 f80000f9 64060000 00000000 00000000  ....d...........
 0020 1c000000 02001816 00000400 00000000  ................
 0030 000000f9 64000000 00000000 00000000  ....d...........
 0040 1c000000 02003e16 00000400 00000000  ......>.........
 0050 5c0700f9 90000000 00000000 00000000  \...............
Contents of section .debug_ranges:
 0000 f0050000 f8050000 f8050000 04060000  ................
 0010 04060000 2c060000 00000000 00000000  ....,...........
Contents of section .debug_macro:
 0000 04000200 00000007 e7010000 03000703  ................
 0010 2713050a 540e0000 030c0905 06bb5400  '...T.........T.
 0020 00030814 0516f623 0000031c 15074709  .......#......G.
 0030 00000407 69090000 0407f709 00000403  ....i...........
 0040 0d160748 0a000004 030e0a07 4b0b0000  ...H........K...
 0050 0407b50b 00000403 2804032c 1707940d  ........(..,....
 0060 00000403 2d01031a 12071e0f 00000403  ....-...........
 0070 1b02031b 170407e2 0f000004 07f20f00  ................
 0080 0004032e 03070e10 00000403 31180529  ............1..)
 0090 25840000 032d1903 1b1a0724 10000004  %....-.....$....
 00a0 07dc1100 00040530 e3540000 0407f211  .......0.T......
 00b0 000003a4 0105032a 0b07a412 00000403  .......*........
 00c0 2b100508 4e690000 030a1b07 fc120000  +...Ni..........
 00d0 04030b1c 05084a4a 0000030a 1d071513  ......JJ........
 00e0 00000403 0b1e0502 d0450000 03041b04  .........E......
 00f0 07671300 0004079b 13000004 07cf1300  .g..............
 0100 0003100c 07e51300 00040312 0e050b92  ................
 0110 4e000003 0d1c0403 0e0c07f3 14000004  N...............
 0120 030f0d07 80150000 03180c07 96150000  ................
 0130 04031b1f 0506e276 00000407 d9150000  .......v........
 0140 04070d16 00000322 0f071d16 00000407  ......."........
 0150 6f160000 04031320 052b0021 0000032f  o...... .+.!.../
 0160 0c0407f1 17000004 03142105 020c2400  ..........!...$.
 0170 00040316 22072a1b 00000407 401b0000  ....".*.....@...
 0180 04032d11 0503c561 00000307 1b040769  ..-....a.......i
 0190 1b000004 032e2307 121d0000 03110c07  ......#.........
 01a0 281d0000 04031424 0504ae05 00000403  (......$........
 01b0 1825051e 38690000 0403af01 26050df6  .%..8i......&...
 01c0 7b000004 04040403 2a08075d 1d000004  {.......*..]....
 01d0 032c0607 8b1d0000 0405313e 19000005  .,........1>....
 01e0 361f7600 00040004 00000500 30500000  6.v.........0P..
 01f0 0500801e 00000500 13080000 0500fd1f  ................
 0200 00000500 14590000 05005e39 00000500  .....Y....^9....
 0210 62670000 05005a1d 00000500 c5780000  bg....Z......x..
 0220 0500d96f 00000500 6b210000 05002b5b  ...o....k!....+[
 0230 00000500 6c3e0000 05003884 00000500  ....l>....8.....
 0240 f7040000 0500063f 00000500 e15f0000  .......?....._..
 0250 05009179 00000500 b6180000 0500dd05  ...y............
 0260 00000500 76230000 0500c371 00000500  ....v#.....q....
 0270 51190000 05006277 00000500 3d6c0000  Q.....bw....=l..
 0280 0500834e 00000500 d1260000 0500e307  ...N.....&......
 0290 00000500 a80d0000 0500f606 00000500  ................
 02a0 104a0000 05006050 00000500 35160000  .J....`P....5...
 02b0 05001007 00000500 3f5d0000 0500374a  ........?]....7J
 02c0 00000500 c24a0000 05006768 00000500  .....J....gh....
 02d0 32170000 0500ba5e 00000500 00180000  2......^........
 02e0 0500af09 00000500 97530000 05005a08  .........S....Z.
 02f0 00000500 6b840000 05008946 00000500  ....k......F....
 0300 9e500000 05006939 00000500 25780000  .P....i9....%x..
 0310 0500656c 00000500 4b840000 0500e07c  ..el....K......|
 0320 00000500 7f5a0000 0500a70f 00000500  .....Z..........
 0330 31130000 0500745e 00000500 9d670000  1.....t^.....g..
 0340 0500073d 00000500 fe140000 0500275e  ...=..........'^
 0350 00000500 cf3e0000 0500f409 00000500  .....>..........
 0360 c93a0000 0500427b 00000500 bb1f0000  .:....B{........
 0370 0500e025 00000500 d03f0000 0500896b  ...%.....?.....k
 0380 00000500 42370000 0500d62b 00000500  ....B7.....+....
 0390 62090000 0500e44e 00000500 e95c0000  b......N.....\..
 03a0 05004287 00000500 b37f0000 0500ed55  ..B............U
 03b0 00000500 c7250000 0500b32f 00000500  .....%...../....
 03c0 6d5d0000 0500057c 00000500 3b030000  m].....|....;...
 03d0 0500f542 00000500 09100000 05005c51  ...B..........\Q
 03e0 00000500 555b0000 0500ea40 00000500  ....U[.....@....
 03f0 98440000 05001b81 00000500 77460000  .D..........wF..
 0400 0500a40e 00000500 c07b0000 0500fd03  .........{......
 0410 00000500 29010000 05008d86 00000500  ....)...........
 0420 07160000 0500e206 00000500 db5b0000  .............[..
 0430 05006831 00000500 34740000 0500f038  ..h1....4t.....8
 0440 00000500 a6720000 0500c03b 00000500  .....r.....;....
 0450 993f0000 0500eb28 00000500 59870000  .?.....(....Y...
 0460 0500e439 00000500 4e350000 05005236  ...9....N5....R6
 0470 00000500 e6560000 05008d7c 00000500  .....V.....|....
 0480 d52a0000 05007081 00000500 5a330000  .*....p.....Z3..
 0490 05003849 00000500 940d0000 05006519  ..8I..........e.
 04a0 00000500 1d3c0000 0500151d 00000500  .....<..........
 04b0 57380000 0500d431 00000500 4b080000  W8.....1....K...
 04c0 05000e1e 00000500 5b6e0000 05009b37  ........[n.....7
 04d0 00000500 3f2c0000 0500bc5a 00000500  ....?,.....Z....
 04e0 f03c0000 05003b76 00000500 f74e0000  .<....;v.....N..
 04f0 0500f85f 00000500 37100000 05004d21  ..._....7.....M!
 0500 00000500 f5760000 05001d14 00000500  .....v..........
 0510 a00c0000 0500300f 00000500 ec100000  ......0.........
 0520 05007918 00000500 015b0000 05004e11  ..y......[....N.
 0530 00000500 5a450000 05003161 00000500  ....ZE....1a....
 0540 ee4f0000 05003739 00000500 a14e0000  .O....79.....N..
 0550 05002a3a 00000500 134c0000 0500c843  ..*:.....L.....C
 0560 00000500 a33e0000 0500424e 00000500  .....>....BN....
 0570 fc4b0000 05001b1b 00000500 a2180000  .K..............
 0580 05008720 00000500 891b0000 0500bf23  ... ...........#
 0590 00000500 3d7c0000 05001329 00000500  ....=|.....)....
 05a0 63540000 05005f07 00000500 70380000  cT...._.....p8..
 05b0 0500421d 00000500 b3860000 0500016c  ..B............l
 05c0 00000500 0f580000 0500a884 00000500  .....X..........
 05d0 493e0000 05000106 00000500 1c240000  I>...........$..
 05e0 05009032 00000500 71660000 0500a87e  ...2....qf.....~
 05f0 00000500 32850000 0500d029 00000500  ....2......)....
 0600 7c700000 05005a69 00000500 26550000  |p....Zi....&U..
 0610 05009785 00000500 f37d0000 0500c567  .........}.....g
 0620 00000500 04230000 0500af19 00000500  .....#..........
 0630 ae290000 0500ae39 00000500 31460000  .).....9....1F..
 0640 0500087b 00000500 cc7f0000 05007317  ...{..........s.
 0650 00000500 b8590000 05007330 00000500  .....Y....s0....
 0660 63440000 0500a23c 00000500 fe580000  cD.....<.....X..
 0670 05009f0b 00000500 e1530000 05001717  .........S......
 0680 00000500 e20a0000 0500cb07 00000500  ................
 0690 51570000 0500890a 00000500 29200000  QW..........) ..
 06a0 05005d1c 00000500 58760000 0500d843  ..].....Xv.....C
 06b0 00000500 d62f0000 0500dd7d 00000500  ...../.....}....
 06c0 1c7c0000 05006b6e 00000500 390c0000  .|....kn....9...
 06d0 0500ae45 00000500 361f0000 0500b80c  ...E....6.......
 06e0 00000500 8e5b0000 0500523f 00000500  .....[....R?....
 06f0 8c6c0000 0500ea3a 00000500 2b4e0000  .l.....:....+N..
 0700 0500d402 00000500 0f200000 05009173  ......... .....s
 0710 00000500 d4560000 05004a15 00000500  .....V....J.....
 0720 f0000000 0500f02a 00000500 d34f0000  .......*.....O..
 0730 0500e201 00000500 e6770000 05005124  .........w....Q$
 0740 00000500 1a4f0000 05007d6a 00000500  .....O....}j....
 0750 ad780000 0500e75a 00000500 340e0000  .x.....Z....4...
 0760 0500f680 00000500 185f0000 05007d04  ........._....}.
 0770 00000500 e43f0000 05002a37 00000500  .....?....*7....
 0780 ad300000 05004514 00000500 ed4d0000  .0....E......M..
 0790 0500d559 00000500 bd680000 0500d61e  ...Y.....h......
 07a0 00000500 8b3e0000 05007712 00000500  .....>....w.....
 07b0 7b140000 0500413d 00000500 3b050000  {.....A=....;...
 07c0 0500b80b 00000500 c6390000 0500886f  .........9.....o
 07d0 00000500 ee0f0000 05006359 00000500  ..........cY....
 07e0 b1080000 0500b366 00000500 4d050000  .......f....M...
 07f0 0500c957 00000500 d5160000 05004232  ...W..........B2
 0800 00000500 b9560000 0500a154 00000500  .....V.....T....
 0810 80270000 05000b3a 00000500 cc060000  .'.....:........
 0820 05009130 00000500 590f0000 05002104  ...0....Y.....!.
 0830 00000500 175c0000 05000b32 00000500  .....\.....2....
 0840 2b070000 0500ee71 00000500 cb1a0000  +......q........
 0850 05002006 00000500 1b340000 05007951  .. ......4....yQ
 0860 00000500 d2140000 0500e820 00000500  ........... ....
 0870 c20d0000 0500ae20 00000500 0e010000  ....... ........
 0880 0500bc6b 00000500 a76b0000 05003735  ...k.....k....75
 0890 00000500 ae1c0000 0500a601 00000500  ................
 08a0 91160000 05001052 00000500 6b3d0000  .......R....k=..
 08b0 0500701d 00000500 6d010000 0500dc2c  ..p.....m......,
 08c0 00000500 85680000 0500ed31 00000500  .....h.....1....
 08d0 6e450000 05003f2f 00000500 c5100000  nE....?/........
 08e0 05000239 00000500 c8240000 05002f47  ...9.....$..../G
 08f0 00000500 92750000 0500856e 00000500  .....u.....n....
 0900 e6000000 0500bb72 00000500 fe1a0000  .......r........
 0910 05001b05 00000500 9c600000 0500ce13  .........`......
 0920 00000500 42450000 0500c765 00000500  ....BE.....e....
 0930 04610000 0500b869 00000500 c8180000  .a.....i........
 0940 05005f31 00000004 00000504 b7420000  .._1.........B..
 0950 05060d77 00000507 f11a0000 0508ad4b  ...w...........K
 0960 00000509 665b0000 00040000 0521eb11  ....f[.......!..
 0970 00000528 4c740000 0683019d 78000005  ...(Lt......x...
 0980 8401903c 00000688 018c3900 00058901  ...<......9.....
 0990 f87a0000 068a017d 86000005 8b01545e  .z.....}......T^
 09a0 0000069e 01933500 00059f01 ad490000  ......5......I..
 09b0 05f7012e 52000005 fd017e5b 00000585  ....R.....~[....
 09c0 029e5d00 00058a02 26540000 059502b5  ..].....&T......
 09d0 1a000005 9902902f 0000059f 02520600  ......./.....R..
 09e0 0005af02 a7000000 05bf0277 73000005  ...........ws...
 09f0 ca023973 00000004 0000050f da490000  ..9s.........I..
 0a00 051a1660 00000521 2d720000 052f1e39  ...`...!-r.../.9
 0a10 0000053d fe280000 05530d46 0000056d  ...=.(...S.F...m
 0a20 c0160000 058c0140 50000005 a601b714  .......@P.......
 0a30 000005bc 01cc3400 0005ce01 b3480000  ......4......H..
 0a40 06f401aa 59000000 04000005 0a347a00  ....Y........4z.
 0a50 000510be 49000006 2bad5500 00062c6e  ....I...+.U...,n
 0a60 6d000006 2dac5300 00062ea2 68000002  m...-.S.....h...
 0a70 2f696e74 000630a7 85000006 31a40500  /int..0.....1...
 0a80 000632aa 09000005 33813e00 0005347f  ..2.....3.>...4.
 0a90 3e000005 35c96a00 0005369f 81000005  >...5.j...6.....
 0aa0 378e3f00 000538fe 63000005 39523a00  7.?...8.c...9R:.
 0ab0 00053a28 80000005 431a3700 00054a2d  ..:(....C.7...J-
 0ac0 7c000005 52f00800 00055d0e 4f000005  |...R.....].O...
 0ad0 68a77700 000571b8 10000005 78a17600  h.w...q.....x.v.
 0ae0 00058101 2e1a0000 0588012a 74000005  ...........*t...
 0af0 93015e3e 00000597 01092b00 0005a201  ..^>......+.....
 0b00 b76e0000 05ad01aa 10000005 b6013c55  .n............<U
 0b10 000006b8 01ad5500 0006b901 6e6d0000  ......U.....nm..
 0b20 06ba01ac 53000006 bb01a268 000002bc  ....S......h....
 0b30 01696e74 0006bd01 aa090000 06c201a7  .int............
 0b40 85000006 c301a405 00000004 0000050a  ................
 0b50 4f0e0000 05155f79 00000519 d11b0000  O....._y........
 0b60 051b1f39 00000521 d2320000 0525106c  ...9...!.2...%.l
 0b70 00000527 ff280000 052d373f 00000531  ...'.(...-7?...1
 0b80 e3030000 05330e46 00000539 2e810000  .....3.F...9....
 0b90 053dc417 0000053f c1160000 05449d5e  .=.....?.....D.^
 0ba0 00000549 3f5e0000 054e5512 00000553  ...I?^...NU....S
 0bb0 cd600000 00040000 05174150 0000051d  .`........AP....
 0bc0 b8140000 0523cd34 00000529 b4480000  .....#.4...).H..
 0bd0 0535c350 0000053f dd4a0000 0549870c  .5.P...?.J...I..
 0be0 00000553 bc220000 058001f3 85000005  ...S."..........
 0bf0 8101246f 00000582 01f91600 00059801  ..$o............
 0c00 db0d0000 0599014d 0a000005 9a01997f  .......M........
 0c10 000005a2 01ba0300 0005a301 ca0f0000  ................
 0c20 05a401e2 70000005 ae013b54 000005af  ....p.....;T....
 0c30 011f0c00 0005b001 13470000 05b8015c  .........G.....\
 0c40 47000005 b9013c09 000005ba 01172c00  G.....<.......,.
 0c50 0005c401 79360000 05c5016a 2a000005  ....y6.....j*...
 0c60 c6013a44 000005d4 01d82d00 0005d501  ..:D......-.....
 0c70 aa2d0000 05d6011b 6a000005 e601696f  .-......j.....io
 0c80 000005e7 01704b00 0005e801 c6700000  .....pK......p..
 0c90 05f6010c 11000005 f7015f0e 000005f8  .........._.....
 0ca0 016e5c00 00058602 c64d0000 05870228  .n\......M.....(
 0cb0 22000005 8802884d 00000596 02a23500  "......M......5.
 0cc0 00059702 79090000 05980274 07000005  ....y......t....
 0cd0 a6029112 000005a7 02af8500 0005a802  ................
 0ce0 d16a0000 05b6024a 16000005 b702af7a  .j.....J.......z
 0cf0 000005b8 02a07000 0005c602 4e2a0000  ......p.....N*..
 0d00 05c70240 1c000005 cf026122 000005d7  ...@......a"....
 0d10 023a0600 0005dd02 5c320000 05de02ea  .:......\2......
 0d20 26000005 e202c40a 000005e6 025f2500  &............_%.
 0d30 0005eb02 fb1c0000 05f60278 42000005  ...........xB...
 0d40 8003b644 00000585 033a0000 00058c03  ...D.....:......
 0d50 753a0000 058d03d6 71000005 98033b0d  u:......q.....;.
 0d60 00000599 03b07900 0005a403 a0690000  ......y......i..
 0d70 05a50379 35000005 b1032a5f 000005b2  ...y5.....*_....
 0d80 03166700 0005c103 45250000 05c2037d  ..g.....E%.....}
 0d90 59000000 04000005 02262b00 000503fa  Y........&+.....
 0da0 0a000005 04ab3100 00050514 86000005  ......1.........
 0db0 06002200 00050752 58000005 084c7f00  .."....RX....L..
 0dc0 00050922 5a000005 0a956500 00050bb7  ..."Z.....e.....
 0dd0 4e000005 0cdd5e00 00050dc8 5f000005  N.....^....._...
 0de0 0e425f00 00050fc6 5d000005 10992a00  .B_.....].....*.
 0df0 000511ca 79000005 12651f00 00051385  ....y....e......
 0e00 0e000005 141b0e00 00051544 53000005  ...........DS...
 0e10 16c16200 0005177d 7b000005 18052500  ..b....}{.....%.
 0e20 00051960 2b000005 1a2d5c00 00051bfc  ...`+....-\.....
 0e30 84000005 1ce71300 00051d94 02000005  ................
 0e40 1ecf6100 00051f3c 62000005 20436000  ..a....<b... C`.
 0e50 000521bb 28000005 22963300 000523d4  ..!.(...".3...#.
 0e60 30000005 240f0900 000525f4 65000005  0...$.....%.e...
 0e70 26c81900 000527a8 68000005 282d3b00  &.....'.h...(-;.
 0e80 0005294c 34000005 2a953100 00052bee  ..)L4...*.1...+.
 0e90 37000005 2c3d5100 00052d29 4c000005  7...,=Q...-)L...
 0ea0 2ecb6c00 00052fda 80000005 30ba1200  ..l.../.....0...
 0eb0 00053176 60000005 32b90e00 000533d5  ..1v`...2.....3.
 0ec0 52000005 34216d00 0005352c 7f000005  R...4!m...5,....
 0ed0 36584900 00053700 00000005 38f12700  6XI...7.....8.'.
 0ee0 0005393b 75000005 3aa92700 00053ba4  ..9;u...:.'...;.
 0ef0 7c000005 3cc97200 00053da3 89000005  |...<.r...=.....
 0f00 3e6b0b00 00053f12 28000005 40b15300  >k....?.(...@.S.
 0f10 000541dd 1f000005 426a4f00 00000400  ..A.....BjO.....
 0f20 00052553 67000005 26d25300 00052748  ..%Sg...&.S...'H
 0f30 40000005 288a2d00 00052922 18000005  @...(.-...)"....
 0f40 2a2c0500 00052b08 71000005 2c2d6300  *,....+.q...,-c.
 0f50 00052d21 50000005 2e813c00 00052f99  ..-!P.....<.../.
 0f60 2d000005 30e05800 00053197 7e000005  -...0.X...1.~...
 0f70 32ca5b00 00053314 33000005 34be0500  2.[...3.3...4...
 0f80 0005359a 07000005 36063500 000537c1  ..5.....6.5...7.
 0f90 36000005 38f95b00 000539a9 80000005  6...8.[...9.....
 0fa0 3a4d2900 00053baf 16000005 3ccb2c00  :M)...;.....<.,.
 0fb0 00053d1a 2e000005 3e995900 00053fab  ..=.....>.Y...?.
 0fc0 5a000005 40318700 0005410a 05000005  Z...@1....A.....
 0fd0 42294400 0005438d 50000005 44e95100  B)D...C.P...D.Q.
 0fe0 00000400 00053a87 38000005 3f1b2300  ......:.8...?.#.
 0ff0 00000400 00051d5b 4f000005 1e916d00  .......[O.....m.
 1000 00051f86 5d000005 20032e00 00000400  ....]... .......
 1010 00051dee 22000005 1e2a0b00 00051fe9  ...."....*......
 1020 21000000 04000005 1b1b1000 00051c5a  !..............Z
 1030 7d000005 1d9a2300 00051f04 53000005  }.....#.....S...
 1040 20595600 00052115 3f000005 22733300   YV...!.?..."s3.
 1050 00052387 26000005 24c61100 000525f6  ..#.&...$.....%.
 1060 5e000005 26ed1800 000527fc 53000005  ^...&.....'.S...
 1070 287c7700 00052962 10000005 2aa04000  (|w...)b....*.@.
 1080 00052b46 7e000005 2cc28400 00052d7b  ..+F~...,.....-{
 1090 80000005 2ea26d00 00052f17 35000005  ......m.../.5...
 10a0 30416500 00053161 40000005 32881100  0Ae...1a@...2...
 10b0 0005330b 3e000005 34fa6400 0005354f  ..3.>...4.d...5O
 10c0 1f000005 36ea1700 0005378e 01000005  ....6.....7.....
 10d0 38243200 0005397f 22000005 3aeb4400  8$2...9."...:.D.
 10e0 00053b76 7d000005 3c1e5300 00053d2a  ..;v}...<.S...=*
 10f0 56000005 3ef50200 00053f38 38000005  V...>.....?88...
 1100 404d7a00 000541a1 51000005 42e73400  @Mz...A.Q...B.4.
 1110 0005439d 1a000005 44954b00 00054503  ..C.....D.K...E.
 1120 37000005 46024500 000547b4 55000005  7...F.E...G.U...
 1130 48514200 00054992 80000005 4a350a00  HQB...I.....J5..
 1140 00054ba3 21000005 4c530d00 00054d47  ..K.!...LS....MG
 1150 66000005 4ecb2b00 00054f89 0d000005  f...N.+...O.....
 1160 50b41700 000551ae 04000005 526b4600  P.....Q.....RkF.
 1170 000553c7 30000005 54937000 000555b7  ..S.0...T.p...U.
 1180 40000005 57cf0500 00055951 6c000005  @...W.....YQl...
 1190 5bc77700 00055de4 1b000005 5ff65200  [.w...]....._.R.
 11a0 00056105 72000005 63f76a00 00056b66  ..a.r...c.j...kf
 11b0 15000005 738d3d00 00057aa9 2e000005  ....s.=...z.....
 11c0 82014c43 00000589 01fc0100 00059101  ..LC............
 11d0 2b2e0000 05dc014e 4c000000 04000005  +......NL.......
 11e0 1e564d00 0005214d 61000005 2be53200  .VM...!Ma...+.2.
 11f0 00000400 00053389 21000005 34a35800  ......3.!...4.X.
 1200 0005357b 85000005 362a6600 00053710  ..5{....6*f...7.
 1210 69000005 3a0e2d00 00053b9f 1b000005  i...:.-...;.....
 1220 3c4c2700 00053d25 4b000005 3ee52900  <L'...=%K...>.).
 1230 0005400d 81000005 41037a00 0005425e  ..@.....A.z...B^
 1240 29000005 433c8600 000546b8 00000005  )...C<....F.....
 1250 476a3700 000548a5 41000005 49495200  Gj7...H.A...IIR.
 1260 00054a73 08000005 51364800 000552bc  ..Js....Q6H...R.
 1270 3f000005 534f4b00 000554a5 3b000005  ?...SOK...T.;...
 1280 57bd3700 00055870 2f000005 592a6000  W.7...Xp/...Y*`.
 1290 00055a82 78000005 5da91100 00055e6a  ..Z.x...].....^j
 12a0 78000000 04000005 1fe73e00 000520f2  x.........>... .
 12b0 66000006 22ed7e00 00052716 54000005  f...".~...'.T...
 12c0 2f7e2500 000530ec 74000005 312a6e00  /~%...0.t...1*n.
 12d0 000534d6 64000005 36d46400 00056972  ..4.d...6.d...ir
 12e0 86000005 6c1c5400 00056fa1 2f000005  ....l.T...o./...
 12f0 72691200 0005758a 81000000 04000005  ri....u.........
 1300 c3012662 000005d1 03f35000 0005d403  ..&b......P.....
 1310 f02f0000 00040000 05086a36 00000512  ./........j6....
 1320 794a0000 0515d984 00000518 fa510000  yJ...........Q..
 1330 051b2533 00000528 991e0000 05321f16  ..%3...(.....2..
 1340 00000539 a8220000 053cca55 00000542  ...9."...<.U...B
 1350 594e0000 05451456 00000548 ff1d0000  YN...E.V...H....
 1360 054bab75 00000004 00000553 85720000  .K.u.......S.r..
 1370 05e0019d 09000006 e601a339 000005ea  ...........9....
 1380 01961400 0005fa01 db500000 05fe0197  .........P......
 1390 51000005 8b022119 00000004 0000051f  Q.....!.........
 13a0 c6640000 05209c2b 00000521 4f0f0000  .d... .+...!O...
 13b0 05256d03 0000052b ec6f0000 0545a657  .%m....+.o...E.W
 13c0 00000549 15150000 054adf69 00000004  ...I.....J.i....
 13d0 0000050d 172b0000 050ece44 0000050f  .....+.....D....
 13e0 743c0000 00040000 05bb013e 15000005  t<.........>....
 13f0 bc016b73 000005bd 01288700 0005be01  ..ks.....(......
 1400 4c6e0000 05bf0120 3a000005 c001b15e  Ln..... :......^
 1410 000005c1 01275800 0005c201 f4630000  .....'X......c..
 1420 05c301f0 63000005 c401a91f 000005c5  ....c...........
 1430 01892300 0005c601 a51f0000 05c701d8  ..#.............
 1440 17000005 c8012503 000005c9 01248700  ......%......$..
 1450 0005ca01 45690000 05d20172 0c000006  ....Ei.....r....
 1460 ee014804 0000058b 02564400 00058c02  ..H......VD.....
 1470 2c730000 058d0256 5a000005 8e029a41  ,s.....VZ......A
 1480 0000058f 023f1200 00059002 c5450000  .....?.......E..
 1490 05910286 16000005 92028216 00000593  ................
 14a0 02fb2c00 00059402 593d0000 05950269  ..,.....Y=.....i
 14b0 65000005 9602d10c 00000597 02646500  e............de.
 14c0 00059802 525a0000 05990270 4e000006  ....RZ.....pN...
 14d0 a602a279 000006db 02900b00 00069103  ...y............
 14e0 83440000 05960314 03000006 9c037c44  .D............|D
 14f0 00000004 00000527 5d4a0000 0528e424  .......']J...(.$
 1500 0000052a 584a0000 0589011a 55000005  ...*XJ......U...
 1510 8a01b22a 0000058b 01a34f00 00058c01  ...*......O.....
 1520 ff0b0000 058d0118 4b000005 8e01144b  ........K......K
 1530 0000058f 01f23e00 00059001 16550000  ......>......U..
 1540 059101b8 51000006 a101960f 000006ee  ....Q...........
 1550 01480400 0006db02 900b0000 06910383  .H..............
 1560 44000005 96031403 0000069c 037c4400  D............|D.
 1570 0005a103 b83c0000 05a603fe 68000000  .....<......h...
 1580 04000005 144f3900 00051617 2b000005  .....O9.....+...
 1590 176e7b00 00000400 0006a101 960f0000  .n{.............
 15a0 06ee0148 04000006 db02900b 000005e0  ...H............
 15b0 024a2600 0006e702 db210000 06910383  .J&......!......
 15c0 44000005 96031403 0000069c 037c4400  D............|D.
 15d0 0005a103 b83c0000 00040000 067f5a54  .....<........ZT
 15e0 00000592 01d23600 00069401 6e6d0000  ......6.....nm..
 15f0 05b3017e 19000005 bb019619 000005c0  ...~............
 1600 01116500 0005c501 f33b0000 00040000  ..e......;......
 1610 05115e72 00000515 97890000 00040000  ..^r............
 1620 0502ec86 0000050e 4b550000 050f5b75  ........KU....[u
 1630 00000510 30670000 05115604 00000512  ....0g....V.....
 1640 62260000 0513c863 00000514 e3790000  b&.....c.....y..
 1650 05158b3a 00000516 53480000 0517fe7e  ...:....SH.....~
 1660 00000518 71790000 05197367 00000004  ....qy....sg....
 1670 0000054d 5a170000 0569d633 0000056f  ...MZ....i.3...o
 1680 fc860000 05b70182 40000005 bd024447  ........@.....DG
 1690 000005be 02b73e00 0005bf02 d4860000  ......>.........
 16a0 05c00225 77000005 c1024f68 000005c2  ...%w.....Oh....
 16b0 02ae5d00 0005c302 66800000 05cf02d5  ..].....f.......
 16c0 22000005 d002dc85 000005d1 02980400  "...............
 16d0 0005a005 49120000 05bc056a 64000005  ....I......jd...
 16e0 bf056f87 000005ef 05fb8100 0005fd05  ..o.............
 16f0 45790000 05fe0590 4a000005 ff052b65  Ey......J.....+e
 1700 00000580 06234500 00058106 606a0000  .....#E.....`j..
 1710 0582062a 1d000005 83062a40 00000585  ...*......*@....
 1720 06aa7600 00058606 d1150000 058706f9  ..v.............
 1730 12000005 8806f143 00000589 06c51c00  .......C........
 1740 00058a06 cd090000 058b067c 00000005  ...........|....
 1750 8c06ac60 0000058d 06400b00 00058e06  ...`.....@......
 1760 5b5f0000 058f068d 62000005 90069128  [_......b......(
 1770 00000591 065d7e00 00059206 cb350000  .....]~......5..
 1780 059306c0 4b000005 9406df5d 00000595  ....K......]....
 1790 06774800 00059606 0c260000 059706b7  .wH......&......
 17a0 47000005 9806b904 00000599 06fd5c00  G.............\.
 17b0 00059a06 79490000 059b06a1 6f000005  ....yI......o...
 17c0 9c06967d 000005a0 06e30c00 0005a806  ...}............
 17d0 5f700000 05b006ac 4d000005 c0064f10  _p......M.....O.
 17e0 000005c3 063d7200 0005c906 ba010000  .....=r.........
 17f0 00040000 05319d20 00000532 0a5c0000  .....1. ...2.\..
 1800 05332349 00000536 341b0000 05399f1c  .3#I...64....9..
 1810 0000053a c47c0000 053cbf2a 0000053d  ...:.|...<.*...=
 1820 857f0000 053e821f 0000053f 66720000  .....>.....?fr..
 1830 05427c0c 00000543 c7860000 0544e245  .B|....C.....D.E
 1840 0000054e 720f0000 05510355 00000557  ...Nr....Q.U...W
 1850 fc080000 055e135a 0000055f f46c0000  .....^.Z..._.l..
 1860 056b0e76 0000056c 47780000 05708e05  .k.v...lGx...p..
 1870 00000571 6d710000 05725603 00000575  ...qmq...rV....u
 1880 d1650000 0578c95c 0000057f 82560000  .e...x.\.....V..
 1890 0580014f 73000005 81014577 00000585  ...Os.....Ew....
 18a0 01ee4500 00058c01 0d7e0000 05900133  ..E......~.....3
 18b0 24000005 91016720 00000594 016d7a00  $.....g .....mz.
 18c0 00059701 56010000 05980123 2a000005  ....V......#*...
 18d0 99019c6e 0000059b 01747c00 00059c01  ...n.....t|.....
 18e0 d9780000 059e0171 62000005 a0013118  .x.....qb.....1.
 18f0 000005b1 01080e00 0005b201 730d0000  ............s...
 1900 05b30149 81000005 b4013553 000005b5  ...I......5S....
 1910 01047d00 0005b701 0d6a0000 05b801a4  ..}......j......
 1920 55000005 b901cd51 000005e6 01c92700  U......Q......'.
 1930 0005f301 0c310000 05f401af 74000005  .....1......t...
 1940 f5015418 000005f6 01332800 0005f701  ..T......3(.....
 1950 83840000 05f80141 6d000005 f9010b38  .......Am......8
 1960 000005fc 01965c00 0005fd01 3a300000  ......\.....:0..
 1970 058302ca 1d000005 dc025428 000005ee  ..........T(....
 1980 02da3b00 0005f402 52000000 05f50231  ..;.....R......1
 1990 58000005 fc025989 00000582 03112700  X.....Y.......'.
 19a0 00058803 3a800000 0589038c 47000005  ....:.......G...
 19b0 9003406f 00000591 035c5300 00059803  ..@o.....\S.....
 19c0 2d2b0000 059e030a 75000005 b203b53a  -+......u......:
 19d0 000005d3 03a71e00 0005d403 a5520000  .............R..
 19e0 05db0346 3c000005 dc037974 000005df  ...F<.....yt....
 19f0 03955f00 0005e903 32310000 05ea0317  .._.....21......
 1a00 71000005 f4033c63 0000058a 04c56e00  q.....<c......n.
 1a10 00058c04 f4560000 058e040f 21000005  .....V......!...
 1a20 8f04a973 00000591 04552c00 00059b04  ...s.....U,.....
 1a30 80580000 05a00469 06000005 a504d80e  .X.....i........
 1a40 000005a8 04da4100 0005ac04 e2190000  ......A.........
 1a50 05ae0432 1e000005 d104d274 000005d5  ...2.......t....
 1a60 04246c00 0005d904 d9120000 05dd0416  .$l.............
 1a70 51000005 e104436a 000005e5 041d7d00  Q.....Cj......}.
 1a80 0005e904 e9720000 05ed04b3 81000005  .....r..........
 1a90 f4049f11 000005f5 04250800 0005f604  .........%......
 1aa0 b82c0000 05f70422 3e000005 f8048b52  .,.....">......R
 1ab0 0000058d 05fe6200 00058e05 016d0000  ......b......m..
 1ac0 05a005b3 77000005 a605d37a 000005a9  ....w......z....
 1ad0 05611300 0005ab05 c7750000 05af05c0  .a.......u......
 1ae0 46000005 b1050536 000005b5 05f94700  F......6......G.
 1af0 0005b805 f31b0000 05ba05fe 78000005  ............x...
 1b00 be05fe67 000005c0 05147000 0005c205  ...g......p.....
 1b10 5f3b0000 05c6050b 64000005 c905fb6d  _;......d......m
 1b20 000005ca 05c66d00 00000400 000508fe  ......m.........
 1b30 4f000006 0d1a5000 000510c6 40000000  O.....P.....@...
 1b40 04000005 383f0100 00053c08 2c000005  ....8?....<.,...
 1b50 3d0c1b00 00053f9a 39000005 43ef4900  =.....?.9...C.I.
 1b60 0005a801 d7770000 00040000 050d605a  .....w........`Z
 1b70 00000513 ab070000 0517a464 0000051b  ...........d....
 1b80 4a2d0000 051f5f14 00000523 41330000  J-...._....#A3..
 1b90 059101d2 7b000005 92013e5b 000006a8  ....{.....>[....
 1ba0 01f80d00 0005ab01 45110000 05ac01ee  ........E.......
 1bb0 84000005 ad01c726 000005ae 01121900  .......&........
 1bc0 0005af01 016a0000 05b20188 76000005  .....j......v...
 1bd0 b501322d 000005b9 01343d00 0005bc01  ..2-.....4=.....
 1be0 ed140000 05bf016d 1b000005 d3016834  .......m......h4
 1bf0 000005d7 01983600 0005da01 cd420000  ......6......B..
 1c00 05dd01a8 2b000005 df010140 000005f4  ....+......@....
 1c10 01fc4000 00058402 86030000 05850285  ..@.............
 1c20 71000005 86027269 00000587 02902400  q.....ri......$.
 1c30 00058802 e7480000 05890292 1d000005  .....H..........
 1c40 cd021b1f 000005b4 04b02600 0005b804  ..........&.....
 1c50 92420000 05bf046f 76000005 c1049f56  .B.....ov......V
 1c60 000005c2 046c2d00 0005c304 68110000  .....l-.....h...
 1c70 05c404d6 54000005 c504a425 000005c6  ....T......%....
 1c80 04a64a00 0005c704 897a0000 05c804f6  ..J......z......
 1c90 4a000005 c904650a 000005ca 04410700  J.....e......A..
 1ca0 0005cb04 e2600000 05cc046c 52000005  .....`.....lR...
 1cb0 cd04d40b 000005d3 04af4f00 0005d404  ..........O.....
 1cc0 06620000 05d5048e 08000005 d6041830  .b.............0
 1cd0 000005d7 04891000 0005d804 160a0000  ................
 1ce0 05d9040a 74000005 da048844 000005db  ....t......D....
 1cf0 04e23600 0005e504 24430000 05e60442  ..6.....$C.....B
 1d00 3b000005 ea04f024 000005eb 048c4f00  ;......$......O.
 1d10 00000400 000508ba 6d000005 0f172b00  ........m.....+.
 1d20 00051074 3c000000 04000006 a101960f  ...t<...........
 1d30 000006ee 01480400 0006db02 900b0000  .....H..........
 1d40 06910383 44000005 96031403 0000069c  ....D...........
 1d50 037c4400 0005a103 b83c0000 00040000  .|D......<......
 1d60 051d4a22 0000051e 98270000 051f4964  ..J".....'....Id
 1d70 00000520 ba800000 05217565 00000522  ... .....!ue..."
 1d80 08800000 05235266 00000004 0000051d  .....#Rf........
 1d90 a6460000 051e545d 0000051f 8d450000  .F....T].....E..
 1da0 0520550c 00000521 ce480000 05222000  . U....!.H..." .
 1db0 00000523 e1670000 00                 ...#.g...       
Contents of section .debug_line:
 0000 280e0000 03007903 00000101 fb0e0d00  (.....y.........
 0010 01010101 00000001 0000012e 2e2f6472  ............./dr
 0020 69766572 002e2e2f 2e2e2f2e 2e2f6273  iver.../../../bs
 0030 702f6566 696e6978 2f456678 53617070  p/efinix/EfxSapp
 0040 68697265 536f632f 696e636c 75646500  hireSoc/include.
 0050 2e2e2f2e 2e2f2e2e 2f627370 2f656669  ../../../bsp/efi
 0060 6e69782f 45667853 61707068 69726553  nix/EfxSapphireS
 0070 6f632f61 70700073 72630063 3a5c6566  oc/app.src.c:\ef
 0080 696e6974 795c6566 696e6974 792d7269  inity\efinity-ri
 0090 7363762d 6964652d 32303233 2e312e33  scv-ide-2023.1.3
 00a0 5c746f6f 6c636861 696e5c72 69736376  \toolchain\riscv
 00b0 2d6e6f6e 652d656d 6265645c 696e636c  -none-embed\incl
 00c0 7564655c 6d616368 696e6500 633a5c65  ude\machine.c:\e
 00d0 66696e69 74795c65 66696e69 74792d72  finity\efinity-r
 00e0 69736376 2d696465 2d323032 332e312e  iscv-ide-2023.1.
 00f0 335c746f 6f6c6368 61696e5c 72697363  3\toolchain\risc
 0100 762d6e6f 6e652d65 6d626564 5c696e63  v-none-embed\inc
 0110 6c756465 5c737973 00633a5c 6566696e  lude\sys.c:\efin
 0120 6974795c 6566696e 6974792d 72697363  ity\efinity-risc
 0130 762d6964 652d3230 32332e31 2e335c74  v-ide-2023.1.3\t
 0140 6f6f6c63 6861696e 5c6c6962 5c676363  oolchain\lib\gcc
 0150 5c726973 63762d6e 6f6e652d 656d6265  \riscv-none-embe
 0160 645c382e 332e305c 696e636c 75646500  d\8.3.0\include.
 0170 633a5c65 66696e69 74795c65 66696e69  c:\efinity\efini
 0180 74792d72 69736376 2d696465 2d323032  ty-riscv-ide-202
 0190 332e312e 335c746f 6f6c6368 61696e5c  3.1.3\toolchain\
 01a0 72697363 762d6e6f 6e652d65 6d626564  riscv-none-embed
 01b0 5c696e63 6c756465 00007561 72742e68  \include..uart.h
 01c0 00010000 696f2e68 00010000 636c696e  ....io.h....clin
 01d0 742e6800 01000062 73702e68 00020000  t.h....bsp.h....
 01e0 7072696e 742e6800 03000070 6c69632e  print.h....plic.
 01f0 68000100 006d6169 6e2e6300 04000067  h....main.c....g
 0200 70696f2e 68000100 005f6465 6661756c  pio.h...._defaul
 0210 745f7479 7065732e 68000500 005f7374  t_types.h...._st
 0220 64696e74 2e680006 00007374 64617267  dint.h....stdarg
 0230 2e680007 00007374 64646566 2e680007  .h....stddef.h..
 0240 00005f74 79706573 2e680006 00007265  .._types.h....re
 0250 656e742e 68000600 006c6f63 6b2e6800  ent.h....lock.h.
 0260 06000073 74646c69 622e6800 0800006d  ...stdlib.h....m
 0270 6174682e 68000800 00747970 652e6800  ath.h....type.h.
 0280 01000073 7464696e 742e6800 08000066  ...stdint.h....f
 0290 65617475 7265732e 68000600 005f6e65  eatures.h...._ne
 02a0 776c6962 5f766572 73696f6e 2e680008  wlib_version.h..
 02b0 00005f69 6e747375 702e6800 06000073  .._intsup.h....s
 02c0 6f632e68 00020000 73656d69 686f7374  oc.h....semihost
 02d0 696e672e 68000300 00766578 72697363  ing.h....vexrisc
 02e0 762e6800 01000072 69736376 2e680001  v.h....riscv.h..
 02f0 00006965 65656670 2e680005 00005f61  ..ieeefp.h...._a
 0300 6e73692e 68000800 006e6577 6c69622e  nsi.h....newlib.
 0310 68000800 00636f6e 6669672e 68000600  h....config.h...
 0320 005f7479 7065732e 68000500 00636465  ._types.h....cde
 0330 66732e68 00060000 7374646c 69622e68  fs.h....stdlib.h
 0340 00050000 616c6c6f 63612e68 00080000  ....alloca.h....
 0350 73747269 6e672e68 00080000 5f6c6f63  string.h...._loc
 0360 616c652e 68000600 00737472 696e6773  ale.h....strings
 0370 2e680008 00007374 72696e67 2e680006  .h....string.h..
 0380 00000005 2f000502 f80000f9 032c0105  ..../........,..
 0390 09030109 00000104 02037109 00000105  ..........q.....
 03a0 10060300 09000001 0401052d 030f0904  ...........-....
 03b0 00010505 03010904 0001052f 06030509  .........../....
 03c0 08000105 09030109 18000105 30000204  ............0...
 03d0 01030009 00000105 0f000204 01060300  ................
 03e0 09000001 050e0002 04010300 09080001  ................
 03f0 05090603 01090400 01040203 6d090000  ............m...
 0400 01052406 03000900 00010401 05050314  ..$.............
 0410 09040001 04030538 06030009 14000105  .......8........
 0420 09030109 00000105 0d060300 09000001  ................
 0430 05090603 01090c00 01050503 68090000  ............h...
 0440 01040205 09037e09 0c000105 10060300  ......~.........
 0450 09000001 04030531 031a0904 0001050d  .......1........
 0460 03000904 00010509 06030109 04000105  ................
 0470 3d000204 01030009 00000105 05000204  =...............
 0480 01036709 00000104 02050900 02040103  ..g.............
 0490 7e090000 01051000 02040106 03000900  ~...............
 04a0 00010403 051e0002 0401031b 09040001  ................
 04b0 050e0002 04010300 09040001 05050301  ................
 04c0 09040001 04040529 06032609 04000105  .......)..&.....
 04d0 0d030409 08000105 23030009 0c000105  ........#.......
 04e0 05060302 09000001 06030309 0c000105  ................
 04f0 09030409 10000105 10060300 09000001  ................
 0500 050f0300 09040001 050d0603 01090400  ................
 0510 01051906 03000900 0001050d 03000904  ................
 0520 00010505 03020908 00010603 05091000  ................
 0530 01050903 01091400 01030109 00000103  ................
 0540 02090000 01050e03 00090000 01051206  ................
 0550 03000900 00010509 03000904 0001050d  ................
 0560 00020403 06030109 04000105 2e000204  ................
 0570 03060300 09000001 05340002 04030300  .........4......
 0580 09040001 050d0002 04030300 09040001  ................
 0590 052e0002 0403037f 09140001 05090002  ................
 05a0 04010300 09040001 05050303 09040001  ................
 05b0 05090603 03091400 01050d03 01091400  ................
 05c0 01030109 00000103 02090000 01051203  ................
 05d0 00090000 01051606 03000900 0001050d  ................
 05e0 03000904 00010511 00020403 06030109  ................
 05f0 04000105 32000204 03060300 09000001  ....2...........
 0600 05380002 04030300 09040001 05110002  .8..............
 0610 04030300 09040001 05320002 0403037f  .........2......
 0620 09140001 050d0002 04010300 09040001  ................
 0630 05090304 09040001 04050505 06031e09  ................
 0640 14000105 09030109 08000105 05060301  ................
 0650 09080001 06030309 0c000105 09030109  ................
 0660 08000105 05060301 09040001 06030509  ................
 0670 0c000105 09030109 14000103 01090000  ................
 0680 01030109 00000105 0c060300 09000001  ................
 0690 0505037d 09040001 050d0603 04090800  ...}............
 06a0 01030109 08000105 11060300 09000001  ................
 06b0 050d0603 03090800 01052006 03000900  .......... .....
 06c0 0001051a 03000908 00010514 03000904  ................
 06d0 0001050d 06030109 04000105 11060300  ................
 06e0 09000001 0510037f 09040001 050f037f  ................
 06f0 09040001 05140002 04010300 09040001  ................
 0700 050d0603 05090c00 01050f06 037f090c  ................
 0710 00010505 03020908 00010603 03091400  ................
 0720 01050903 01090800 01030209 00000105  ................
 0730 0e060300 09000001 05090002 04010300  ................
 0740 09040001 050d0603 02090800 01052706  ..............'.
 0750 03000900 00010523 03000904 00010515  .......#........
 0760 03000908 0001050f 03000904 00010516  ................
 0770 00020402 037e0904 00010509 06030809  .....~..........
 0780 08000105 05060301 09040001 05090603  ................
 0790 03090c00 01050d03 01090800 01030209  ................
 07a0 00000105 12060300 09000001 050d0002  ................
 07b0 04010300 09040001 05110603 02090800  ................
 07c0 01052b06 03000900 00010527 03000904  ..+........'....
 07d0 00010519 03000908 00010513 03000904  ................
 07e0 0001051a 00020402 037e0904 0001050d  .........~......
 07f0 06030809 08000105 09060301 09040001  ................
 0800 04060547 0603c87e 090c0001 05090301  ...G...~........
 0810 09000001 05400603 00090000 01050903  .....@..........
 0820 00090400 01040206 037d0904 00010524  .........}.....$
 0830 06030009 00000104 06050503 04090400  ................
 0840 01054e06 03060904 00010509 03010900  ..N.............
 0850 00010535 06030009 00000105 2c030009  ...5........,...
 0860 04000105 57030009 04000105 5c030009  ....W.......\...
 0870 04000105 4c030009 04000105 0d030009  ....L...........
 0880 04000105 09060301 09080001 05160603  ................
 0890 00090000 01050906 03010908 0001050c  ................
 08a0 06030009 00000105 0d060301 09040001  ................
 08b0 04020509 036e0900 00010510 06030009  .....n..........
 08c0 00000104 06050d03 12090400 01040205  ................
 08d0 09060372 09040001 05240603 00090000  ...r.....$......
 08e0 01040605 0d060310 09080001 04020509  ................
 08f0 036c0900 00010510 06030009 00000104  .l..............
 0900 06052803 14090400 01050d03 00090400  ..(.............
 0910 01040205 09060370 09040001 05240603  .......p.....$..
 0920 00090000 01040605 05031109 04000105  ................
 0930 48060302 09040001 05090301 09000001  H...............
 0940 05410603 00090000 01053903 00090400  .A........9.....
 0950 01050903 00090400 01040206 036c0908  .............l..
 0960 00010524 06030009 00000104 06050503  ...$............
 0970 15090400 01053006 03060904 00010509  ......0.........
 0980 03010900 00010538 06030009 00000105  .......8........
 0990 30030009 04000105 10030009 04000104  0...............
 09a0 02050906 0360090c 00010510 06030009  .....`..........
 09b0 00000104 06050503 21090400 01054006  ........!.....@.
 09c0 03020904 00010509 03010900 0001053a  ...............:
 09d0 06030009 00000105 32030009 04000105  ........2.......
 09e0 09030009 04000104 02060360 090c0001  ...........`....
 09f0 05240603 00090000 01040605 05032109  .$............!.
 0a00 04000104 0506039c 01090400 01050903  ................
 0a10 01093000 01030109 00000103 02090000  ..0.............
 0a20 01030209 08000105 10060300 09000001  ................
 0a30 05090300 09040001 05190603 04090400  ................
 0a40 01030109 14000105 21000204 0206037b  ........!......{
 0a50 09000001 051b0002 04010300 09040001  ................
 0a60 05090002 04010300 09080001 050d0603  ................
 0a70 01090400 01051006 03000900 00010511  ................
 0a80 06032309 08000105 19036409 08000103  ..#.......d.....
 0a90 01091400 01030309 04000103 01091400  ................
 0aa0 01030309 04000103 01091400 01030309  ................
 0ab0 04000103 01091400 01051706 036d0904  .............m..
 0ac0 0001051e 03000904 00010517 03000908  ................
 0ad0 00010515 06030109 04000105 18060300  ................
 0ae0 09000001 051a0603 04090800 01051d06  ................
 0af0 03000900 0001051a 06030409 08000105  ................
 0b00 1d060300 09000001 051a0603 04090800  ................
 0b10 01051d06 03000900 0001051a 06030409  ................
 0b20 08000105 1d060300 09000001 051a0603  ................
 0b30 0a090800 01051d06 03000900 00010519  ................
 0b40 06030109 08000103 01090c00 01050506  ................
 0b50 03080904 00010407 050c0603 b27e0914  .............~..
 0b60 00010505 03030908 00010301 09100001  ................
 0b70 03010914 00010302 09100001 04080366  ...............f
 0b80 09000001 04020509 03770900 00010524  .........w.....$
 0b90 06030009 00000104 07050506 0326090c  .............&..
 0ba0 00010300 09000001 03000908 00010302  ................
 0bb0 09040001 03000900 00010300 09000001  ................
 0bc0 0301090c 00010300 09000001 03000900  ................
 0bd0 00010300 09000001 03000904 00010300  ................
 0be0 090c0001 05010603 01090400 01050d06  ................
 0bf0 031f090c 00010505 03010908 00010002  ................
 0c00 04010301 090c0001 050d0002 04010300  ................
 0c10 09000001 05190370 09040001 05050301  .......p........
 0c20 090c0001 03020900 00010513 06030009  ................
 0c30 00000105 0a030009 10000105 09060301  ................
 0c40 09040001 05390301 09080001 05660300  .....9.......f..
 0c50 090c0001 05090304 09000001 0512037d  ...............}
 0c60 09140001 05010603 05090400 01050c06  ................
 0c70 03670910 00010505 03010908 00010516  .g..............
 0c80 03000900 00010300 09000001 03000904  ................
 0c90 00010505 03010900 00010301 09000001  ................
 0ca0 03010900 00010507 06030009 00000105  ................
 0cb0 09060301 09080001 05260301 09080001  .........&......
 0cc0 053b0300 09040001 05010603 06090000  .;..............
 0cd0 01051206 037b090c 00010509 03030904  .....{..........
 0ce0 0001050d 03170904 00010505 0301090c  ................
 0cf0 0001050f 03000900 00010505 03010900  ................
 0d00 00010301 090c0001 0302090c 00010408  ................
 0d10 03b47f09 00000104 02050903 79090000  ............y...
 0d20 01052406 03000900 00010407 05050603  ..$.............
 0d30 d400090c 00010408 03b17f09 00000104  ................
 0d40 02050903 7b090000 01052406 03000900  ....{.....$.....
 0d50 00010407 05050603 d5000904 0001050a  ................
 0d60 03000900 0001050e 06030009 00000105  ................
 0d70 05030009 04000105 09060301 09040001  ................
 0d80 04080505 03ae7f09 00000104 02050903  ................
 0d90 78090000 01051006 03000900 00010407  x...............
 0da0 050903da 00090800 01040805 050603af  ................
 0db0 7f090400 01040205 09037b09 00000105  ..........{.....
 0dc0 24060300 09000001 04070509 0603d700  $...............
 0dd0 09040001 05200300 09180001 051a0603  ..... ..........
 0de0 7e090000 01050500 02040103 00090400  ~...............
 0df0 01060304 09080001 0301090c 00010301  ................
 0e00 090c0001 0301090c 00010301 090c0001  ................
 0e10 00020401 03010904 0001050d 00020401  ................
 0e20 03000900 00010904 00000101 b6000000  ................
 0e30 03002800 00000101 fb0e0d00 01010101  ..(.............
 0e40 00000001 0000012e 2e2f636f 6d6d6f6e  ........./common
 0e50 00007374 6172742e 53000100 00000005  ..start.S.......
 0e60 02000000 f9030901 032a0908 00010303  .........*......
 0e70 09080001 03010908 00010301 09080001  ................
 0e80 03010904 00010302 09040001 03010904  ................
 0e90 00010301 09040001 03010904 00010301  ................
 0ea0 09040001 03040904 00010301 09040001  ................
 0eb0 03010904 00010302 09040001 03010904  ................
 0ec0 00010301 09040001 03040904 00010303  ................
 0ed0 09040001 03020904 00010305 09040001  ................
 0ee0 09040000 01010d01 00000300 27000000  ............'...
 0ef0 0101fb0e 0d000101 01010000 00010000  ................
 0f00 012e2e2f 636f6d6d 6f6e0000 74726170  .../common..trap
 0f10 2e530001 00000000 05025c07 00f91503  .S........\.....
 0f20 01090400 01030109 04000103 01090400  ................
 0f30 01030109 04000103 01090400 01030109  ................
 0f40 04000103 01090400 01030109 04000103  ................
 0f50 01090400 01030109 04000103 01090400  ................
 0f60 01030109 04000103 01090400 01030109  ................
 0f70 04000103 01090400 01030109 04000103  ................
 0f80 01090400 01030109 04000103 01090400  ................
 0f90 01030109 04000103 01090400 01030109  ................
 0fa0 04000103 01090400 01030109 04000103  ................
 0fb0 01090400 01030109 04000103 01090400  ................
 0fc0 01030109 04000103 01090400 01030109  ................
 0fd0 04000103 01090400 01030109 04000103  ................
 0fe0 01090400 01030109 04000103 01090400  ................
 0ff0 01090400 000101                      .......         
Contents of section .debug_str:
 0000 53595354 454d5f53 50495f30 5f494f5f  SYSTEM_SPI_0_IO_
 0010 4354524c 20307866 38303134 30303000  CTRL 0xf8014000.
 0020 504c4943 5f454e41 424c455f 5045525f  PLIC_ENABLE_PER_
 0030 48415254 20307838 30005749 4e545f4d  HART 0x80.WINT_M
 0040 494e2028 5f5f5749 4e545f4d 494e5f5f  IN (__WINT_MIN__
 0050 29005f5f 6d616c6c 6f635f6c 696b6520  ).__malloc_like 
 0060 5f5f6174 74726962 7574655f 5f28285f  __attribute__((_
 0070 5f6d616c 6c6f635f 5f292900 5f524545  _malloc__))._REE
 0080 4e545f4d 505f5245 53554c54 5f4b2870  NT_MP_RESULT_K(p
 0090 74722920 28287074 72292d3e 5f726573  tr) ((ptr)->_res
 00a0 756c745f 6b29005f 5f535649 445f5649  ult_k).__SVID_VI
 00b0 5349424c 45203100 636f6e66 69674d54  SIBLE 1.configMT
 00c0 494d455f 42415345 5f414444 52455353  IME_BASE_ADDRESS
 00d0 20284253 505f434c 494e5420 2b203078   (BSP_CLINT + 0x
 00e0 42464638 29005f5f 72697363 76203100  BFF8).__riscv 1.
 00f0 5f5f464c 54313238 5f4d494e 5f31305f  __FLT128_MIN_10_
 0100 4558505f 5f20282d 34393331 29005f5f  EXP__ (-4931).__
 0110 44454331 32385f45 5053494c 4f4e5f5f  DEC128_EPSILON__
 0120 2031452d 3333444c 005f5f49 4e544d41   1E-33DL.__INTMA
 0130 585f4328 63292063 20232320 4c4c005f  X_C(c) c ## LL._
 0140 5f636f6d 7061725f 666e5f74 5f646566  _compar_fn_t_def
 0150 696e6564 20005f5f 43435f53 5550504f  ined .__CC_SUPPO
 0160 5254535f 494e4c49 4e452031 005f5f47  RTS_INLINE 1.__G
 0170 43435f41 544f4d49 435f5743 4841525f  CC_ATOMIC_WCHAR_
 0180 545f4c4f 434b5f46 52454520 31004d53  T_LOCK_FREE 1.MS
 0190 54415455 535f4d50 52562030 78303030  TATUS_MPRV 0x000
 01a0 32303030 30005f5f 43484152 5f554e53  20000.__CHAR_UNS
 01b0 49474e45 445f5f20 31005f47 4c4f4241  IGNED__ 1._GLOBA
 01c0 4c5f4154 45584954 20285f47 4c4f4241  L_ATEXIT (_GLOBA
 01d0 4c5f5245 454e542d 3e5f6174 65786974  L_REENT->_atexit
 01e0 29005f5f 464c5431 32385f44 4543494d  ).__FLT128_DECIM
 01f0 414c5f44 49475f5f 20333600 6373725f  AL_DIG__ 36.csr_
 0200 72656164 5f636c65 61722863 73722c76  read_clear(csr,v
 0210 616c2920 287b2075 6e736967 6e656420  al) ({ unsigned 
 0220 6c6f6e67 205f5f76 203d2028 756e7369  long __v = (unsi
 0230 676e6564 206c6f6e 67292876 616c293b  gned long)(val);
 0240 205f5f61 736d5f5f 205f5f76 6f6c6174   __asm__ __volat
 0250 696c655f 5f202822 63737272 63202530  ile__ ("csrrc %0
 0260 2c202220 23637372 20222c20 25312220  , " #csr ", %1" 
 0270 3a20223d 72222028 5f5f7629 203a2022  : "=r" (__v) : "
 0280 724b2220 285f5f76 29293b20 5f5f763b  rK" (__v)); __v;
 0290 207d2900 53595354 454d5f55 4152545f   }).SYSTEM_UART_
 02a0 305f494f 5f504152 414d4554 45525f55  0_IO_PARAMETER_U
 02b0 4152545f 4354524c 5f434f4e 4649475f  ART_CTRL_CONFIG_
 02c0 52585f53 414d504c 455f5045 525f4249  RX_SAMPLE_PER_BI
 02d0 54203800 5f5f464c 5436345f 4841535f  T 8.__FLT64_HAS_
 02e0 494e4649 4e495459 5f5f2031 005f5f76  INFINITY__ 1.__v
 02f0 616c7565 004d5354 41545553 5f55584c  alue.MSTATUS_UXL
 0300 20307830 30303030 30303330 30303030   0x0000000300000
 0310 30303000 4e554c4c 20282876 6f696420  000.NULL ((void 
 0320 2a293029 005f5f5f 696e745f 73697a65  *)0).___int_size
 0330 5f745f68 20005f5f 7366005f 5f505452  _t_h .__sf.__PTR
 0340 44494646 5f4d4158 5f5f2030 78376666  DIFF_MAX__ 0x7ff
 0350 66666666 66005f5f 474e5543 4c494b45  fffff.__GNUCLIKE
 0360 5f5f5f53 45435449 4f4e2031 005f4c4f  ___SECTION 1._LO
 0370 4e475f44 4f55424c 45206c6f 6e672064  NG_DOUBLE long d
 0380 6f75626c 65006973 67726561 74657228  ouble.isgreater(
 0390 5f5f782c 5f5f7929 20285f5f 6275696c  __x,__y) (__buil
 03a0 74696e5f 69736772 65617465 7220285f  tin_isgreater (_
 03b0 5f782c20 5f5f7929 2900494e 545f4c45  _x, __y)).INT_LE
 03c0 41535438 5f4d494e 20282d5f 5f494e54  AST8_MIN (-__INT
 03d0 5f4c4541 5354385f 4d41585f 5f202d20  _LEAST8_MAX__ - 
 03e0 3129005f 55494e54 33325f54 5f444543  1)._UINT32_T_DEC
 03f0 4c415245 4420005f 72656164 005f5f49  LARED ._read.__I
 0400 4e544d41 585f4d41 585f5f20 30783766  NTMAX_MAX__ 0x7f
 0410 66666666 66666666 66666666 66664c4c  ffffffffffffffLL
 0420 005f5f44 45433332 5f535542 4e4f524d  .__DEC32_SUBNORM
 0430 414c5f4d 494e5f5f 20302e30 30303030  AL_MIN__ 0.00000
 0440 31452d39 35444600 5f5f6e65 65645f73  1E-95DF.__need_s
 0450 697a655f 74005f5f 6c6f636b 5f696e69  ize_t.__lock_ini
 0460 745f7265 63757273 69766528 6c6f636b  t_recursive(lock
 0470 29202828 766f6964 29203029 005f5f46  ) ((void) 0).__F
 0480 4c543332 585f4d49 4e5f4558 505f5f20  LT32X_MIN_EXP__ 
 0490 282d3130 32312900 5f524545 4e545f53  (-1021)._REENT_S
 04a0 49474e41 4c5f5349 5a452032 3400504d  IGNAL_SIZE 24.PM
 04b0 505f4c20 30783830 005f5245 454e545f  P_L 0x80._REENT_
 04c0 57435254 4f4d425f 53544154 45287074  WCRTOMB_STATE(pt
 04d0 72292028 28707472 292d3e5f 6e65772e  r) ((ptr)->_new.
 04e0 5f726565 6e742e5f 77637274 6f6d625f  _reent._wcrtomb_
 04f0 73746174 6529005f 5f41544f 4d49435f  state).__ATOMIC_
 0500 434f4e53 554d4520 31004249 545f3238  CONSUME 1.BIT_28
 0510 20283120 3c3c2032 3829005f 5f726973   (1 << 28).__ris
 0520 63765f6d 756c6469 76203100 4249545f  cv_muldiv 1.BIT_
 0530 35202831 203c3c20 3529005f 5f464c54  5 (1 << 5).__FLT
 0540 3634585f 4449475f 5f203333 005f5f46  64X_DIG__ 33.__F
 0550 4c543634 585f4550 53494c4f 4e5f5f20  LT64X_EPSILON__ 
 0560 312e3932 35393239 39343433 38373233  1.92592994438723
 0570 35383533 30353539 37373934 32353834  5853055977942584
 0580 39323733 32652d33 34463634 78005f5f  92732e-34F64x.__
 0590 474e5543 4c494b45 5f5f5f54 5950454f  GNUCLIKE___TYPEO
 05a0 46203100 5f5f696e 7432305f 5f005f53  F 1.__int20__._S
 05b0 59535f5f 4c4f4341 4c455f48 20004249  YS__LOCALE_H .BI
 05c0 545f3135 20283120 3c3c2031 35290052  T_15 (1 << 15).R
 05d0 44435943 4c452030 78433030 005f5f53  DCYCLE 0xC00.__S
 05e0 495a454f 465f4c4f 4e475f4c 4f4e475f  IZEOF_LONG_LONG_
 05f0 5f203800 5f617363 74696d65 5f627566  _ 8._asctime_buf
 0600 005f5f44 424c5f4d 41585f31 305f4558  .__DBL_MAX_10_EX
 0610 505f5f20 33303800 5f637674 6c656e00  P__ 308._cvtlen.
 0620 5f5f4445 4336345f 45505349 4c4f4e5f  __DEC64_EPSILON_
 0630 5f203145 2d313544 44005349 5a455f4d  _ 1E-15DD.SIZE_M
 0640 41582028 5f5f5349 5a455f4d 41585f5f  AX (__SIZE_MAX__
 0650 29005f5f 504f5349 585f5649 5349424c  ).__POSIX_VISIBL
 0660 45203230 30383039 005f5f73 74726f6e  E 200809.__stron
 0670 675f7265 66657265 6e636528 73796d2c  g_reference(sym,
 0680 616c6961 7373796d 29206578 7465726e  aliassym) extern
 0690 205f5f74 7970656f 66202873 796d2920   __typeof (sym) 
 06a0 616c6961 7373796d 205f5f61 74747269  aliassym __attri
 06b0 62757465 5f5f2028 285f5f61 6c696173  bute__ ((__alias
 06c0 5f5f2028 2373796d 29292900 5f5f4445  __ (#sym))).__DE
 06d0 4333325f 4d494e5f 5f203145 2d393544  C32_MIN__ 1E-95D
 06e0 46005f5f 494e544d 41585f57 49445448  F.__INTMAX_WIDTH
 06f0 5f5f2036 34005f5f 4f524445 525f5044  __ 64.__ORDER_PD
 0700 505f454e 4449414e 5f5f2033 34313200  P_ENDIAN__ 3412.
 0710 5f5f5349 5a455f54 5950455f 5f20756e  __SIZE_TYPE__ un
 0720 7369676e 65642069 6e74005f 5f444543  signed int.__DEC
 0730 36345f4d 41585f45 58505f5f 20333835  64_MAX_EXP__ 385
 0740 004d5f32 5f504920 302e3633 36363139  .M_2_PI 0.636619
 0750 37373233 36373538 31333433 3038005f  77236758134308._
 0760 5f464c54 5f484153 5f44454e 4f524d5f  _FLT_HAS_DENORM_
 0770 5f203100 55494e54 5f464153 5431365f  _ 1.UINT_FAST16_
 0780 4d415820 285f5f55 494e545f 46415354  MAX (__UINT_FAST
 0790 31365f4d 41585f5f 29004249 545f3136  16_MAX__).BIT_16
 07a0 20283120 3c3c2031 36290048 5547455f   (1 << 16).HUGE_
 07b0 56414c20 285f5f62 75696c74 696e5f68  VAL (__builtin_h
 07c0 7567655f 76616c28 2929005f 5f464c54  uge_val()).__FLT
 07d0 33325f44 4543494d 414c5f44 49475f5f  32_DECIMAL_DIG__
 07e0 2039005f 5f4f5244 45525f4c 4954544c   9.__ORDER_LITTL
 07f0 455f454e 4449414e 5f5f2031 32333400  E_ENDIAN__ 1234.
 0800 6273705f 7072696e 74486578 5f6c6f77  bsp_printHex_low
 0810 6572005f 5f535444 435f5554 465f3136  er.__STDC_UTF_16
 0820 5f5f2031 005f4e75 6c6c6162 6c652000  __ 1._Nullable .
 0830 5f5f746d 00646967 69747300 5f6e6275  __tm.digits._nbu
 0840 66005f5f 746d5f73 6563005f 5f55494e  f.__tm_sec.__UIN
 0850 54385f43 28632920 63005f5f 494e5431  T8_C(c) c.__INT1
 0860 365f5459 50455f5f 2073686f 72742069  6_TYPE__ short i
 0870 6e740042 53505f4c 45445f4d 41534b20  nt.BSP_LED_MASK 
 0880 30786600 5f6c3634 615f6275 66004d5f  0xf._l64a_buf.M_
 0890 53515254 50492031 2e373732 34353338  SQRTPI 1.7724538
 08a0 35303930 35353136 30323739 32393831  5090551602792981
 08b0 005f5f46 4c543634 585f4d41 585f5f20  .__FLT64X_MAX__ 
 08c0 312e3138 39373331 34393533 35373233  1.18973149535723
 08d0 31373635 30383537 35393332 36363238  1765085759326628
 08e0 30303730 32652b34 39333246 36347800  00702e+4932F64x.
 08f0 5f5f494e 54382022 68682200 5f5f6861  __INT8 "hh".__ha
 0900 735f6275 696c7469 6e287829 20300053  s_builtin(x) 0.S
 0910 59535445 4d5f5541 52545f30 5f494f5f  YSTEM_UART_0_IO_
 0920 50415241 4d455445 525f5458 5f464946  PARAMETER_TX_FIF
 0930 4f5f4445 50544820 31323800 494e545f  O_DEPTH 128.INT_
 0940 4c454153 5431365f 4d415820 285f5f49  LEAST16_MAX (__I
 0950 4e545f4c 45415354 31365f4d 41585f5f  NT_LEAST16_MAX__
 0960 29005f5f 4758585f 4142495f 56455253  ).__GXX_ABI_VERS
 0970 494f4e20 31303133 00494e54 5f464153  ION 1013.INT_FAS
 0980 5431365f 4d415820 285f5f49 4e545f46  T16_MAX (__INT_F
 0990 41535431 365f4d41 585f5f29 005f504f  AST16_MAX__)._PO
 09a0 494e5445 525f494e 54206c6f 6e67005f  INTER_INT long._
 09b0 5f534947 5f41544f 4d49435f 54595045  _SIG_ATOMIC_TYPE
 09c0 5f5f2069 6e74005f 73697a65 005f5245  __ int._size._RE
 09d0 454e545f 4d505f52 4553554c 54287074  ENT_MP_RESULT(pt
 09e0 72292028 28707472 292d3e5f 72657375  r) ((ptr)->_resu
 09f0 6c742900 5f5f494e 545f4641 53543634  lt).__INT_FAST64
 0a00 5f545950 455f5f20 6c6f6e67 206c6f6e  _TYPE__ long lon
 0a10 6720696e 74004d5f 53515254 3320312e  g int.M_SQRT3 1.
 0a20 37333230 35303830 37353638 38373731  7320508075688771
 0a30 39303030 00535354 41545553 33325f53  9000.SSTATUS32_S
 0a40 44203078 38303030 30303030 00494e54  D 0x80000000.INT
 0a50 385f4d41 5820285f 5f494e54 385f4d41  8_MAX (__INT8_MA
 0a60 585f5f29 004d5f31 5f504920 302e3331  X__).M_1_PI 0.31
 0a70 38333039 38383631 38333739 30363731  8309886183790671
 0a80 3534005f 6c6f636b 005f5f46 4c543332  54._lock.__FLT32
 0a90 5f4d494e 5f5f2031 2e313735 34393433  _MIN__ 1.1754943
 0aa0 35303832 32323837 35303739 36383733  5082228750796873
 0ab0 36353337 32323232 34353638 652d3338  653722224568e-38
 0ac0 46333200 50545244 4946465f 4d415820  F32.PTRDIFF_MAX 
 0ad0 285f5f50 54524449 46465f4d 41585f5f  (__PTRDIFF_MAX__
 0ae0 29005f5f 464c5433 325f4d41 585f3130  ).__FLT32_MAX_10
 0af0 5f455850 5f5f2033 38005359 5354454d  _EXP__ 38.SYSTEM
 0b00 5f504c49 435f5359 5354454d 5f434f52  _PLIC_SYSTEM_COR
 0b10 45535f30 5f455854 45524e41 4c5f494e  ES_0_EXTERNAL_IN
 0b20 54455252 55505420 3000434c 494e545f  TERRUPT 0.CLINT_
 0b30 434d505f 41444452 20307834 30303000  CMP_ADDR 0x4000.
 0b40 5f524545 4e545f4d 505f4652 45454c49  _REENT_MP_FREELI
 0b50 53542870 74722920 28287074 72292d3e  ST(ptr) ((ptr)->
 0b60 5f667265 656c6973 74290053 59535445  _freelist).SYSTE
 0b70 4d5f5553 45525f54 494d4552 5f305f43  M_USER_TIMER_0_C
 0b80 54524c5f 53495a45 20307831 30303000  TRL_SIZE 0x1000.
 0b90 5f5f6e65 65645f77 63686172 5f74005f  __need_wchar_t._
 0ba0 5f464c54 33325f4d 494e5f45 58505f5f  _FLT32_MIN_EXP__
 0bb0 20282d31 32352900 5f5f464c 54363458   (-125).__FLT64X
 0bc0 5f4d494e 5f455850 5f5f2028 2d313633  _MIN_EXP__ (-163
 0bd0 38312900 4d5f5351 5254315f 3220302e  81).M_SQRT1_2 0.
 0be0 37303731 30363738 31313836 35343735  7071067811865475
 0bf0 32343430 00777269 74655f75 3332005f  2440.write_u32._
 0c00 5f505452 44494646 5f542000 5f676574  _PTRDIFF_T ._get
 0c10 64617465 5f657272 005f6d75 6c740049  date_err._mult.I
 0c20 4e543136 5f4d4158 20285f5f 494e5431  NT16_MAX (__INT1
 0c30 365f4d41 585f5f29 005f5f46 4c543634  6_MAX__).__FLT64
 0c40 5f4d494e 5f31305f 4558505f 5f20282d  _MIN_10_EXP__ (-
 0c50 33303729 00504c49 435f5448 52455348  307).PLIC_THRESH
 0c60 4f4c445f 42415345 20307832 30303030  OLD_BASE 0x20000
 0c70 30005f5f 73697a65 5f742000 5f5f626f  0.__size_t .__bo
 0c80 756e6465 6420005f 5f696e74 5f666173  unded .__int_fas
 0c90 7433325f 745f6465 66696e65 64203100  t32_t_defined 1.
 0ca0 5f5f494e 545f4641 53543634 5f574944  __INT_FAST64_WID
 0cb0 54485f5f 20363400 5f5f464c 5436345f  TH__ 64.__FLT64_
 0cc0 44454349 4d414c5f 4449475f 5f203137  DECIMAL_DIG__ 17
 0cd0 005f5f5f 696e745f 77636861 725f745f  .___int_wchar_t_
 0ce0 6820005f 5245454e 545f494e 49545f50  h ._REENT_INIT_P
 0cf0 54522876 61722920 7b206d65 6d736574  TR(var) { memset
 0d00 28287661 72292c20 302c2073 697a656f  ((var), 0, sizeo
 0d10 66282a28 76617229 29293b20 5f524545  f(*(var))); _REE
 0d20 4e545f49 4e49545f 5054525f 5a45524f  NT_INIT_PTR_ZERO
 0d30 45442876 6172293b 207d0049 4e543136  ED(var); }.INT16
 0d40 5f432878 29205f5f 494e5431 365f4328  _C(x) __INT16_C(
 0d50 78290053 53544154 55533634 5f534420  x).SSTATUS64_SD 
 0d60 30783830 30303030 30303030 30303030  0x80000000000000
 0d70 3030005f 5f434f4e 43415431 28782c79  00.__CONCAT1(x,y
 0d80 29207820 23232079 00504d50 5f582030  ) x ## y.PMP_X 0
 0d90 78303400 5f5f494e 5433325f 43286329  x04.__INT32_C(c)
 0da0 20632023 23204c00 5f5f4f52 4445525f   c ## L.__ORDER_
 0db0 4249475f 454e4449 414e5f5f 20343332  BIG_ENDIAN__ 432
 0dc0 31005f5f 44454331 32385f4d 494e5f5f  1.__DEC128_MIN__
 0dd0 2031452d 36313433 444c0049 4e54385f   1E-6143DL.INT8_
 0de0 4d494e20 282d5f5f 494e5438 5f4d4158  MIN (-__INT8_MAX
 0df0 5f5f202d 20312900 464c545f 4556414c  __ - 1).FLT_EVAL
 0e00 5f4d4554 484f4400 5f5f5028 70726f74  _METHOD.__P(prot
 0e10 6f732920 70726f74 6f730053 59535445  os) protos.SYSTE
 0e20 4d5f434c 494e545f 485a2037 35303030  M_CLINT_HZ 75000
 0e30 30303000 5f5f464c 54313238 5f484153  000.__FLT128_HAS
 0e40 5f515549 45545f4e 414e5f5f 2031005f  _QUIET_NAN__ 1._
 0e50 5359535f 5f535444 494e545f 48200049  SYS__STDINT_H .I
 0e60 4e545f4c 45415354 36345f4d 41582028  NT_LEAST64_MAX (
 0e70 5f5f494e 545f4c45 41535436 345f4d41  __INT_LEAST64_MA
 0e80 585f5f29 00535953 54454d5f 52495343  X__).SYSTEM_RISC
 0e90 565f4953 415f4558 545f5a49 46454e43  V_ISA_EXT_ZIFENC
 0ea0 45203100 5f5f5054 52444946 465f5749  E 1.__PTRDIFF_WI
 0eb0 4454485f 5f203332 00535953 54454d5f  DTH__ 32.SYSTEM_
 0ec0 434c494e 545f4354 524c5f53 495a4520  CLINT_CTRL_SIZE 
 0ed0 30783130 30303000 5f5f7765 616b5f72  0x10000.__weak_r
 0ee0 65666572 656e6365 2873796d 2c616c69  eference(sym,ali
 0ef0 61732920 5f5f6173 6d5f5f28 222e7765  as) __asm__(".we
 0f00 616b2022 2023616c 69617329 3b205f5f  ak " #alias); __
 0f10 61736d5f 5f28222e 65717520 22202361  asm__(".equ " #a
 0f20 6c696173 20222c20 22202373 796d2900  lias ", " #sym).
 0f30 5f5f5549 4e545f46 41535438 5f4d4158  __UINT_FAST8_MAX
 0f40 5f5f2030 78666666 66666666 6655005f  __ 0xffffffffU._
 0f50 4e4f5448 524f5720 005f5f44 45433332  NOTHROW .__DEC32
 0f60 5f455053 494c4f4e 5f5f2031 452d3644  _EPSILON__ 1E-6D
 0f70 46005f5f 6861735f 65787465 6e73696f  F.__has_extensio
 0f80 6e205f5f 6861735f 66656174 75726500  n __has_feature.
 0f90 5f5f7763 68005f5f 6e656564 5f707472  __wch.__need_ptr
 0fa0 64696666 5f74005f 5f494e54 5f4c4541  diff_t.__INT_LEA
 0fb0 53543634 5f545950 455f5f20 6c6f6e67  ST64_TYPE__ long
 0fc0 206c6f6e 6720696e 7400494e 545f4c45   long int.INT_LE
 0fd0 41535438 5f4d4158 20285f5f 494e545f  AST8_MAX (__INT_
 0fe0 4c454153 54385f4d 41585f5f 29005f5f  LEAST8_MAX__).__
 0ff0 464c5436 34585f4d 41585f31 305f4558  FLT64X_MAX_10_EX
 1000 505f5f20 34393332 005f5f53 43484152  P__ 4932.__SCHAR
 1010 5f574944 54485f5f 20380043 41555345  _WIDTH__ 8.CAUSE
 1020 5f494c4c 4547414c 5f494e53 54525543  _ILLEGAL_INSTRUC
 1030 54494f4e 2032005f 5f494e54 5f464153  TION 2.__INT_FAS
 1040 5431365f 57494454 485f5f20 3332005f  T16_WIDTH__ 32._
 1050 5245454e 54205f69 6d707572 655f7074  REENT _impure_pt
 1060 72004d49 455f4d45 49452028 31203c3c  r.MIE_MEIE (1 <<
 1070 20434155 53455f4d 41434849 4e455f45   CAUSE_MACHINE_E
 1080 58544552 4e414c29 004d5f4c 4e324849  XTERNAL).M_LN2HI
 1090 20362e39 33313437 31383033 36393132   6.9314718036912
 10a0 33383136 3439452d 31005f5f 4c454153  381649E-1.__LEAS
 10b0 54333220 226c2200 5f5f494e 54363420  T32 "l".__INT64 
 10c0 226c6c22 005f5f47 43435f41 544f4d49  "ll".__GCC_ATOMI
 10d0 435f504f 494e5445 525f4c4f 434b5f46  C_POINTER_LOCK_F
 10e0 52454520 31005f66 696c6500 5f5f5549  REE 1._file.__UI
 10f0 4e545f46 41535431 365f4d41 585f5f20  NT_FAST16_MAX__ 
 1100 30786666 66666666 66665500 494e545f  0xffffffffU.INT_
 1110 4c454153 5436345f 4d494e20 282d5f5f  LEAST64_MIN (-__
 1120 494e545f 4c454153 5436345f 4d41585f  INT_LEAST64_MAX_
 1130 5f202d20 3129005f 6f6e5f65 7869745f  _ - 1)._on_exit_
 1140 61726773 0046505f 4e414e20 30005f5f  args.FP_NAN 0.__
 1150 494e5450 54525f4d 41585f5f 20307837  INTPTR_MAX__ 0x7
 1160 66666666 66666600 4d5f4c4f 47313045  fffffff.M_LOG10E
 1170 20302e34 33343239 34343831 39303332   0.4342944819032
 1180 35313832 37363500 4d535441 5455535f  5182765.MSTATUS_
 1190 53505020 30783030 30303031 3030005f  SPP 0x00000100._
 11a0 4e6f6e6e 756c6c20 00454e41 424c455f  Nonnull .ENABLE_
 11b0 42524944 47455f46 554c4c5f 544f5f4c  BRIDGE_FULL_TO_L
 11c0 49544520 31004d49 44454c45 475f5355  ITE 1.MIDELEG_SU
 11d0 50455256 49534f52 5f534f46 54574152  PERVISOR_SOFTWAR
 11e0 45202831 203c3c20 3129005f 5f474e55  E (1 << 1).__GNU
 11f0 435f5052 45524551 286d616a 2c6d696e  C_PREREQ(maj,min
 1200 29202828 5f5f474e 55435f5f 203c3c20  ) ((__GNUC__ << 
 1210 31362920 2b205f5f 474e5543 5f4d494e  16) + __GNUC_MIN
 1220 4f525f5f 203e3d20 28286d61 6a29203c  OR__ >= ((maj) <
 1230 3c203136 29202b20 286d696e 2929005f  < 16) + (min))._
 1240 545f5743 48415220 005f4e5f 4c495354  T_WCHAR ._N_LIST
 1250 53203330 005f494e 54505452 5f545f44  S 30._INTPTR_T_D
 1260 45434c41 52454420 005f5641 5f4c4953  ECLARED ._VA_LIS
 1270 545f545f 4820005f 5f464c54 3332585f  T_T_H .__FLT32X_
 1280 4841535f 494e4649 4e495459 5f5f2031  HAS_INFINITY__ 1
 1290 00494e54 5f464153 5433325f 4d494e20  .INT_FAST32_MIN 
 12a0 282d5f5f 494e545f 46415354 33325f4d  (-__INT_FAST32_M
 12b0 41585f5f 202d2031 29005359 5354454d  AX__ - 1).SYSTEM
 12c0 5f504c49 435f4354 524c5f53 495a4520  _PLIC_CTRL_SIZE 
 12d0 30783430 30303030 005f5f52 43534944  0x400000.__RCSID
 12e0 5f534f55 52434528 73292073 74727563  _SOURCE(s) struc
 12f0 74205f5f 6861636b 005f5245 454e545f  t __hack._REENT_
 1300 52414e44 34385f53 45454428 70747229  RAND48_SEED(ptr)
 1310 20282870 7472292d 3e5f6e65 772e5f72   ((ptr)->_new._r
 1320 65656e74 2e5f7234 382e5f73 65656429  eent._r48._seed)
 1330 005f5f55 494e545f 4c454153 54385f54  .__UINT_LEAST8_T
 1340 5950455f 5f20756e 7369676e 65642063  YPE__ unsigned c
 1350 68617200 5f737472 746f6b5f 6c617374  har._strtok_last
 1360 005f5f6c 6f636b73 5f657863 6c757369  .__locks_exclusi
 1370 7665282e 2e2e2920 5f5f6c6f 636b5f61  ve(...) __lock_a
 1380 6e6e6f74 61746528 6578636c 75736976  nnotate(exclusiv
 1390 655f6c6f 636b5f66 756e6374 696f6e28  e_lock_function(
 13a0 5f5f5641 5f415247 535f5f29 29005f6d  __VA_ARGS__))._m
 13b0 62726c65 6e5f7374 61746500 706c6963  brlen_state.plic
 13c0 5f736574 5f707269 6f726974 79005f5f  _set_priority.__
 13d0 72697363 765f666c 6f61745f 6162695f  riscv_float_abi_
 13e0 736f6674 20310053 59535445 4d5f5541  soft 1.SYSTEM_UA
 13f0 52545f30 5f494f5f 50415241 4d455445  RT_0_IO_PARAMETE
 1400 525f5541 52545f43 54524c5f 434f4e46  R_UART_CTRL_CONF
 1410 49475f52 54535f47 454e2030 005f5f49  IG_RTS_GEN 0.__I
 1420 4e545f46 41535436 345f4d41 585f5f20  NT_FAST64_MAX__ 
 1430 30783766 66666666 66666666 66666666  0x7fffffffffffff
 1440 66664c4c 005f5f46 4c543332 585f4445  ffLL.__FLT32X_DE
 1450 43494d41 4c5f4449 475f5f20 31370049  CIMAL_DIG__ 17.I
 1460 4e46494e 49545920 285f5f62 75696c74  NFINITY (__built
 1470 696e5f69 6e666628 2929005f 5f464c54  in_inff()).__FLT
 1480 3332585f 4841535f 51554945 545f4e41  32X_HAS_QUIET_NA
 1490 4e5f5f20 31005f5f 52414e44 5f4d4158  N__ 1.__RAND_MAX
 14a0 20307837 66666666 66666600 5f707574   0x7fffffff._put
 14b0 63686172 5f73005f 5f5f696e 745f6c65  char_s.___int_le
 14c0 61737431 365f745f 64656669 6e656420  ast16_t_defined 
 14d0 31005f5f 44454331 32385f4d 494e5f45  1.__DEC128_MIN_E
 14e0 58505f5f 20282d36 31343229 004d4154  XP__ (-6142).MAT
 14f0 485f4552 52455843 45505420 32005f5f  H_ERREXCEPT 2.__
 1500 494e545f 46415354 385f5459 50455f5f  INT_FAST8_TYPE__
 1510 20696e74 005f4e4f 494e4c49 4e45205f   int._NOINLINE _
 1520 5f617474 72696275 74655f5f 2028285f  _attribute__ ((_
 1530 5f6e6f69 6e6c696e 655f5f29 29005f5f  _noinline__)).__
 1540 73697a65 5f745f5f 20005f5f 464c5431  size_t__ .__FLT1
 1550 32385f4d 494e5f45 58505f5f 20282d31  28_MIN_EXP__ (-1
 1560 36333831 29006373 725f7265 61642863  6381).csr_read(c
 1570 73722920 287b2072 65676973 74657220  sr) ({ register 
 1580 756e7369 676e6564 206c6f6e 67205f5f  unsigned long __
 1590 763b205f 5f61736d 5f5f205f 5f766f6c  v; __asm__ __vol
 15a0 6174696c 655f5f20 28226373 72722025  atile__ ("csrr %
 15b0 302c2022 20236373 72203a20 223d7222  0, " #csr : "=r"
 15c0 20285f5f 7629293b 205f5f76 3b207d29   (__v)); __v; })
 15d0 005f5245 454e545f 52414e44 5f4e4558  ._REENT_RAND_NEX
 15e0 54287074 72292028 28707472 292d3e5f  T(ptr) ((ptr)->_
 15f0 6e65772e 5f726565 6e742e5f 72616e64  new._reent._rand
 1600 5f6e6578 7429005f 5f55494e 544d4158  _next).__UINTMAX
 1610 5f432863 29206320 23232055 4c4c0048  _C(c) c ## ULL.H
 1620 4156455f 494e4954 46494e49 5f415252  AVE_INITFINI_ARR
 1630 41592031 005f5f53 495a454f 465f504f  AY 1.__SIZEOF_PO
 1640 494e5445 525f5f20 3400494e 545f4641  INTER__ 4.INT_FA
 1650 53543634 5f4d494e 20282d5f 5f494e54  ST64_MIN (-__INT
 1660 5f464153 5436345f 4d41585f 5f202d20  _FAST64_MAX__ - 
 1670 3129005f 6c6f6361 6c74696d 655f6275  1)._localtime_bu
 1680 66005f42 53445f57 43484152 5f545f20  f._BSD_WCHAR_T_ 
 1690 005f5f47 43435f41 544f4d49 435f424f  .__GCC_ATOMIC_BO
 16a0 4f4c5f4c 4f434b5f 46524545 20310042  OL_LOCK_FREE 1.B
 16b0 49545f32 32202831 203c3c20 32322900  IT_22 (1 << 22).
 16c0 5f5f5f69 6e743634 5f745f64 6566696e  ___int64_t_defin
 16d0 65642031 005f5f46 4c543634 585f4841  ed 1.__FLT64X_HA
 16e0 535f4445 4e4f524d 5f5f2031 005f5f73  S_DENORM__ 1.__s
 16f0 62756600 64696769 0055494e 54505452  buf.digi.UINTPTR
 1700 5f4d4158 20285f5f 55494e54 5054525f  _MAX (__UINTPTR_
 1710 4d41585f 5f29005f 5f464c54 33325f4d  MAX__).__FLT32_M
 1720 41585f45 58505f5f 20313238 006d6169  AX_EXP__ 128.mai
 1730 6e005f5f 55494e54 4d41585f 54595045  n.__UINTMAX_TYPE
 1740 5f5f206c 6f6e6720 6c6f6e67 20756e73  __ long long uns
 1750 69676e65 6420696e 74005f41 54455849  igned int._ATEXI
 1760 545f5349 5a452033 32005f66 6e747970  T_SIZE 32._fntyp
 1770 6573005f 5f4c4442 4c5f4445 4e4f524d  es.__LDBL_DENORM
 1780 5f4d494e 5f5f2036 2e343735 31373531  _MIN__ 6.4751751
 1790 31393433 38303235 31313039 32343433  1943802511092443
 17a0 38393538 32323736 34363535 652d3439  895822764655e-49
 17b0 36364c00 504d505f 41203078 31380077  66L.PMP_A 0x18.w
 17c0 6f726400 5f55494e 5436345f 545f4445  ord._UINT64_T_DE
 17d0 434c4152 45442000 5f53495a 455f545f  CLARED ._SIZE_T_
 17e0 4445434c 41524544 20004d53 54415455  DECLARED .MSTATU
 17f0 535f5853 20307830 30303138 30303000  S_XS 0x00018000.
 1800 5f5f4348 41523332 5f545950 455f5f20  __CHAR32_TYPE__ 
 1810 6c6f6e67 20756e73 69676e65 6420696e  long unsigned in
 1820 74004249 545f3420 2831203c 3c203429  t.BIT_4 (1 << 4)
 1830 005f5f43 435f5355 50504f52 54535f44  .__CC_SUPPORTS_D
 1840 594e414d 49435f41 52524159 5f494e49  YNAMIC_ARRAY_INI
 1850 54203100 5f5f756e 75736564 205f5f61  T 1.__unused __a
 1860 74747269 62757465 5f5f2828 5f5f756e  ttribute__((__un
 1870 75736564 5f5f2929 005f5f55 494e545f  used__)).__UINT_
 1880 46415354 33325f4d 41585f5f 20307866  FAST32_MAX__ 0xf
 1890 66666666 66666655 005f5f74 6d5f6d6f  fffffffU.__tm_mo
 18a0 6e005f5f 464c545f 4d41585f 4558505f  n.__FLT_MAX_EXP_
 18b0 5f203132 38005f5f 53495a45 4f465f4c  _ 128.__SIZEOF_L
 18c0 4f4e475f 5f203400 53595354 454d5f49  ONG__ 4.SYSTEM_I
 18d0 32435f41 5f415042 20535953 54454d5f  2C_A_APB SYSTEM_
 18e0 4932435f 305f494f 5f415042 004d4944  I2C_0_IO_APB.MID
 18f0 454c4547 5f535550 45525649 534f525f  ELEG_SUPERVISOR_
 1900 45585445 524e414c 20283120 3c3c2039  EXTERNAL (1 << 9
 1910 29004650 5f535542 4e4f524d 414c2033  ).FP_SUBNORMAL 3
 1920 005f5245 41445f57 52495445 5f425546  ._READ_WRITE_BUF
 1930 53495a45 5f545950 4520696e 74004c4f  SIZE_TYPE int.LO
 1940 4f505f55 44454c41 59203130 30303030  OP_UDELAY 100000
 1950 005f5f53 495a454f 465f444f 55424c45  .__SIZEOF_DOUBLE
 1960 5f5f2038 005f5f49 4e545f4c 45415354  __ 8.__INT_LEAST
 1970 33325f57 49445448 5f5f2033 32005f43  32_WIDTH__ 32._C
 1980 4c4f434b 5f545f20 756e7369 676e6564  LOCK_T_ unsigned
 1990 206c6f6e 67005f54 494d455f 545f205f   long._TIME_T_ _
 19a0 5f696e74 5f6c6561 73743634 5f74005f  _int_least64_t._
 19b0 5f4c4442 4c5f4d41 585f3130 5f455850  _LDBL_MAX_10_EXP
 19c0 5f5f2034 39333200 53595354 454d5f43  __ 4932.SYSTEM_C
 19d0 4f524553 5f305f43 46552030 00747261  ORES_0_CFU 0.tra
 19e0 70005f5f 73796d5f 636f6d70 61742873  p.__sym_compat(s
 19f0 796d2c69 6d706c2c 76657269 6429205f  ym,impl,verid) _
 1a00 5f61736d 5f5f2822 2e73796d 76657220  _asm__(".symver 
 1a10 22202369 6d706c20 222c2022 20237379  " #impl ", " #sy
 1a20 6d202240 22202376 65726964 29005f5f  m "@" #verid).__
 1a30 46415354 31362000 443a5c5f 756e6f5c  FAST16 .D:\_uno\
 1a40 32343033 2d476974 4875625c 74657374  2403-GitHub\test
 1a50 2d726570 6f5c6578 616d706c 655f7469  -repo\example_ti
 1a60 36305f31 7374675c 656d6265 64646564  60_1stg\embedded
 1a70 5f73775c 7361705c 736f6674 77617265  _sw\sap\software
 1a80 5c737461 6e64616c 6f6e655c 6770696f  \standalone\gpio
 1a90 44656d6f 5f547269 6e697461 00535354  Demo_Trinita.SST
 1aa0 41545553 5f555049 45203078 30303030  ATUS_UPIE 0x0000
 1ab0 30303130 005f5f4c 41524745 46494c45  0010.__LARGEFILE
 1ac0 5f564953 49424c45 2030005f 5f444543  _VISIBLE 0.__DEC
 1ad0 36345f4d 41585f5f 20392e39 39393939  64_MAX__ 9.99999
 1ae0 39393939 39393939 39394533 38344444  9999999999E384DD
 1af0 005f5f4e 45574c49 425f5f20 33005f5f  .__NEWLIB__ 3.__
 1b00 72697363 765f6469 76203100 45584954  riscv_div 1.EXIT
 1b10 5f535543 43455353 2030005f 5f464c54  _SUCCESS 0.__FLT
 1b20 5f4d494e 5f31305f 4558505f 5f20282d  _MIN_10_EXP__ (-
 1b30 33372900 5f5f4153 4d4e414d 4528636e  37).__ASMNAME(cn
 1b40 616d6529 205f5f58 53545249 4e472028  ame) __XSTRING (
 1b50 5f5f5553 45525f4c 4142454c 5f505245  __USER_LABEL_PRE
 1b60 4649585f 5f292063 6e616d65 006d6174  FIX__) cname.mat
 1b70 685f6572 7268616e 646c696e 67204d41  h_errhandling MA
 1b80 54485f45 52524e4f 005f5f46 4c545f44  TH_ERRNO.__FLT_D
 1b90 4543494d 414c5f44 49475f5f 20390042  ECIMAL_DIG__ 9.B
 1ba0 53505f4d 41434849 4e455f54 494d4552  SP_MACHINE_TIMER
 1bb0 5f485a20 53595354 454d5f43 4c494e54  _HZ SYSTEM_CLINT
 1bc0 5f485a00 5f756e75 7365645f 72616e64  _HZ._unused_rand
 1bd0 005f5549 4e54385f 545f4445 434c4152  ._UINT8_T_DECLAR
 1be0 45442000 52444359 434c4548 20307843  ED .RDCYCLEH 0xC
 1bf0 3830005f 5f617373 65727473 5f657863  80.__asserts_exc
 1c00 6c757369 7665282e 2e2e2920 5f5f6c6f  lusive(...) __lo
 1c10 636b5f61 6e6e6f74 61746528 61737365  ck_annotate(asse
 1c20 72745f65 78636c75 73697665 5f6c6f63  rt_exclusive_loc
 1c30 6b285f5f 56415f41 5247535f 5f292900  k(__VA_ARGS__)).
 1c40 494e544d 41585f4d 494e2028 2d494e54  INTMAX_MIN (-INT
 1c50 4d41585f 4d415820 2d203129 005f5f46  MAX_MAX - 1).__F
 1c60 4c543332 5f44454e 4f524d5f 4d494e5f  LT32_DENORM_MIN_
 1c70 5f20312e 34303132 39383436 34333234  _ 1.401298464324
 1c80 38313730 37303932 33373239 35383332  8170709237295832
 1c90 38393931 36313365 2d343546 3332005f  8991613e-45F32._
 1ca0 5f707472 5f742076 6f696420 2a005f5f  _ptr_t void *.__
 1cb0 474e5543 5f535444 435f494e 4c494e45  GNUC_STDC_INLINE
 1cc0 5f5f2031 005f5245 454e545f 52414e44  __ 1._REENT_RAND
 1cd0 34385f41 44442870 74722920 28287074  48_ADD(ptr) ((pt
 1ce0 72292d3e 5f6e6577 2e5f7265 656e742e  r)->_new._reent.
 1cf0 5f723438 2e5f6164 64290057 43484152  _r48._add).WCHAR
 1d00 5f4d494e 20285f5f 57434841 525f4d49  _MIN (__WCHAR_MI
 1d10 4e5f5f29 005f5f49 4e543634 5f432863  N__).__INT64_C(c
 1d20 29206320 2323204c 4c005f52 45454e54  ) c ## LL._REENT
 1d30 5f434845 434b5f4d 49534328 70747229  _CHECK_MISC(ptr)
 1d40 20005f5f 464c545f 4841535f 51554945   .__FLT_HAS_QUIE
 1d50 545f4e41 4e5f5f20 31005f5f 474e5543  T_NAN__ 1.__GNUC
 1d60 5f504154 43484c45 56454c5f 5f203000  _PATCHLEVEL__ 0.
 1d70 5f5f4743 435f4154 4f4d4943 5f434841  __GCC_ATOMIC_CHA
 1d80 5233325f 545f4c4f 434b5f46 52454520  R32_T_LOCK_FREE 
 1d90 31006973 756e6f72 64657265 64285f5f  1.isunordered(__
 1da0 782c5f5f 79292028 5f5f6275 696c7469  x,__y) (__builti
 1db0 6e5f6973 756e6f72 64657265 6420285f  n_isunordered (_
 1dc0 5f782c20 5f5f7929 29005f5f 616c6c6f  _x, __y)).__allo
 1dd0 635f616c 69676e28 7829205f 5f617474  c_align(x) __att
 1de0 72696275 74655f5f 28285f5f 616c6c6f  ribute__((__allo
 1df0 635f616c 69676e5f 5f287829 2929005f  c_align__(x)))._
 1e00 57494445 5f4f5249 454e5420 31005f5f  WIDE_ORIENT 1.__
 1e10 55494e54 5f4c4541 53543136 5f4d4158  UINT_LEAST16_MAX
 1e20 5f5f2030 78666666 66005f73 74646f75  __ 0xffff._stdou
 1e30 74005f5f 73796d5f 64656661 756c7428  t.__sym_default(
 1e40 73796d2c 696d706c 2c766572 69642920  sym,impl,verid) 
 1e50 5f5f6173 6d5f5f28 222e7379 6d766572  __asm__(".symver
 1e60 20222023 696d706c 20222c20 22202373   " #impl ", " #s
 1e70 796d2022 40402220 23766572 69642900  ym "@@" #verid).
 1e80 5f5f5354 44435f56 45525349 4f4e5f5f  __STDC_VERSION__
 1e90 20323031 3731304c 005f4d42 5f4c454e   201710L._MB_LEN
 1ea0 5f4d4158 2031005f 5f707265 64696374  _MAX 1.__predict
 1eb0 5f747275 65286578 7029205f 5f627569  _true(exp) __bui
 1ec0 6c74696e 5f657870 65637428 28657870  ltin_expect((exp
 1ed0 292c2031 29005f5f 464c5433 32585f44  ), 1).__FLT32X_D
 1ee0 454e4f52 4d5f4d49 4e5f5f20 342e3934  ENORM_MIN__ 4.94
 1ef0 30363536 34353834 31323436 35343431  0656458412465441
 1f00 37363536 38373932 38363832 32313337  7656879286822137
 1f10 32652d33 32344633 3278006c 6f673228  2e-324F32x.log2(
 1f20 78292028 6c6f6720 28782920 2f205f4d  x) (log (x) / _M
 1f30 5f4c4e32 29005f5f 464c5436 345f4d41  _LN2).__FLT64_MA
 1f40 585f3130 5f455850 5f5f2033 3038004d  X_10_EXP__ 308.M
 1f50 53544154 55535f46 53203078 30303030  STATUS_FS 0x0000
 1f60 36303030 00535953 54454d5f 52495343  6000.SYSTEM_RISC
 1f70 565f4953 415f4558 545f5a49 43535220  V_ISA_EXT_ZICSR 
 1f80 31005f5f 61747472 69627574 655f666f  1.__attribute_fo
 1f90 726d6174 5f737472 666d6f6e 5f5f2861  rmat_strfmon__(a
 1fa0 2c622920 005f4253 445f5349 5a455f54  ,b) ._BSD_SIZE_T
 1fb0 5f444546 494e4544 5f20005f 5f55494e  _DEFINED_ .__UIN
 1fc0 545f4641 53543332 5f545950 455f5f20  T_FAST32_TYPE__ 
 1fd0 756e7369 676e6564 20696e74 00494f5f  unsigned int.IO_
 1fe0 4150425f 534c4156 455f305f 494e5055  APB_SLAVE_0_INPU
 1ff0 54203078 66383130 30303030 005f5f53  T 0xf8100000.__S
 2000 5444435f 5554465f 33325f5f 2031005f  TDC_UTF_32__ 1._
 2010 5f464c54 36345f48 41535f51 55494554  _FLT64_HAS_QUIET
 2020 5f4e414e 5f5f2031 005f5f46 4c543332  _NAN__ 1.__FLT32
 2030 5f455053 494c4f4e 5f5f2031 2e313932  _EPSILON__ 1.192
 2040 30393238 39353530 37383132 35303030  0928955078125000
 2050 30303030 30303030 30303030 30303030  0000000000000000
 2060 652d3746 3332005f 5f474e55 434c494b  e-7F32.__GNUCLIK
 2070 455f4d41 54485f42 55494c54 494e5f52  E_MATH_BUILTIN_R
 2080 454c4f50 5320005f 5f464c54 5f4d4158  ELOPS .__FLT_MAX
 2090 5f31305f 4558505f 5f203338 005f5f50  _10_EXP__ 38.__P
 20a0 4d542861 72677329 20617267 73005f5f  MT(args) args.__
 20b0 44454331 32385f4d 41585f5f 20392e39  DEC128_MAX__ 9.9
 20c0 39393939 39393939 39393939 39393939  9999999999999999
 20d0 39393939 39393939 39393939 39393939  9999999999999999
 20e0 45363134 34444c00 5f5f4445 43313238  E6144DL.__DEC128
 20f0 5f4d4158 5f455850 5f5f2036 31343500  _MAX_EXP__ 6145.
 2100 5f535953 5f434445 46535f48 5f20005f  _SYS_CDEFS_H_ ._
 2110 5f666f72 6d61745f 61726728 666d7461  _format_arg(fmta
 2120 72672920 5f5f6174 74726962 7574655f  rg) __attribute_
 2130 5f28285f 5f666f72 6d61745f 6172675f  _((__format_arg_
 2140 5f202866 6d746172 67292929 005f5f49  _ (fmtarg))).__I
 2150 4e545f46 41535433 325f4d41 585f5f20  NT_FAST32_MAX__ 
 2160 30783766 66666666 6666005f 5f41544f  0x7fffffff.__ATO
 2170 4d49435f 5345515f 43535420 35007372  MIC_SEQ_CST 5.sr
 2180 632f6d61 696e2e63 00425350 5f504c49  c/main.c.BSP_PLI
 2190 43205359 5354454d 5f504c49 435f4354  C SYSTEM_PLIC_CT
 21a0 524c0053 53544154 55535f55 584c2030  RL.SSTATUS_UXL 0
 21b0 78303030 30303030 33303030 30303030  x000000030000000
 21c0 30005f75 6e737065 63696669 65645f6c  0._unspecified_l
 21d0 6f63616c 655f696e 666f005f 5f6e6565  ocale_info.__nee
 21e0 645f7769 6e745f74 00434c49 4e545f54  d_wint_t.CLINT_T
 21f0 494d455f 41444452 20307842 46463800  IME_ADDR 0xBFF8.
 2200 53595354 454d5f50 4c49435f 53595354  SYSTEM_PLIC_SYST
 2210 454d5f53 50495f30 5f494f5f 494e5445  EM_SPI_0_IO_INTE
 2220 52525550 54203400 494e545f 46415354  RRUPT 4.INT_FAST
 2230 385f4d41 5820285f 5f494e54 5f464153  8_MAX (__INT_FAS
 2240 54385f4d 41585f5f 29004750 494f5f49  T8_MAX__).GPIO_I
 2250 4e505554 20307830 30005f72 65656e74  NPUT 0x00._reent
 2260 0055494e 544d4158 5f4d4158 20285f5f  .UINTMAX_MAX (__
 2270 55494e54 4d41585f 4d41585f 5f29004d  UINTMAX_MAX__).M
 2280 53544154 55535f4d 58522030 78303030  STATUS_MXR 0x000
 2290 38303030 30005f5f 6275696c 74696e5f  80000.__builtin_
 22a0 76615f6c 69737400 5f484156 455f4c4f  va_list._HAVE_LO
 22b0 4e475f44 4f55424c 45203100 5f5f696e  NG_DOUBLE 1.__in
 22c0 745f6661 73743634 5f745f64 6566696e  t_fast64_t_defin
 22d0 65642031 005f5245 454e545f 454d4552  ed 1._REENT_EMER
 22e0 47454e43 595f5349 5a452032 3500434c  GENCY_SIZE 25.CL
 22f0 494e545f 4950495f 41444452 20307830  INT_IPI_ADDR 0x0
 2300 30303000 5f5f4c44 424c5f4d 41585f45  000.__LDBL_MAX_E
 2310 58505f5f 20313633 38340072 65616452  XP__ 16384.readR
 2320 65675f75 3332286e 616d652c 6f666673  eg_u32(name,offs
 2330 65742920 73746174 69632069 6e6c696e  et) static inlin
 2340 65207533 32206e61 6d652875 33322072  e u32 name(u32 r
 2350 6567297b 20726574 75726e20 72656164  eg){ return read
 2360 5f753332 28726567 202b206f 66667365  _u32(reg + offse
 2370 74293b20 7d005f5f 53495a45 4f465f53  t); }.__SIZEOF_S
 2380 484f5254 5f5f2032 005f5349 5a455f54  HORT__ 2._SIZE_T
 2390 5f444546 494e4544 20004341 5553455f  _DEFINED .CAUSE_
 23a0 5343414c 4c203900 5f756e75 73656400  SCALL 9._unused.
 23b0 5f5f676e 75635f76 615f6c69 7374005f  __gnuc_va_list._
 23c0 5f464c54 5f4d4158 5f5f2033 2e343032  _FLT_MAX__ 3.402
 23d0 38323334 36363338 35323838 35393831  8234663852885981
 23e0 31373034 31383334 38343531 36393235  1704183484516925
 23f0 652b3338 46005f53 59535f46 45415455  e+38F._SYS_FEATU
 2400 5245535f 4820005f 696e6300 5f4d4143  RES_H ._inc._MAC
 2410 48535444 4c49425f 485f2000 5f5f4442  HSTDLIB_H_ .__DB
 2420 4c5f4445 43494d41 4c5f4449 475f5f20  L_DECIMAL_DIG__ 
 2430 3137005f 5f474e55 434c494b 455f4255  17.__GNUCLIKE_BU
 2440 494c5449 4e5f4e45 58545f41 52472031  ILTIN_NEXT_ARG 1
 2450 005f5f46 4c543132 385f4d49 4e5f5f20  .__FLT128_MIN__ 
 2460 332e3336 32313033 31343331 31323039  3.36210314311209
 2470 33353036 32363236 37373831 37333231  3506262677817321
 2480 37353236 30652d34 39333246 31323800  75260e-4932F128.
 2490 69736c65 73736571 75616c28 5f5f782c  islessequal(__x,
 24a0 5f5f7929 20285f5f 6275696c 74696e5f  __y) (__builtin_
 24b0 69736c65 73736571 75616c20 285f5f78  islessequal (__x
 24c0 2c205f5f 79292900 5f5f5052 41474d41  , __y)).__PRAGMA
 24d0 5f524544 4546494e 455f4558 544e414d  _REDEFINE_EXTNAM
 24e0 45203100 5f535444 4445465f 485f2000  E 1._STDDEF_H_ .
 24f0 5f494545 455f205f 5f66646c 69626d5f  _IEEE_ __fdlibm_
 2500 69656565 00535953 54454d5f 55415254  ieee.SYSTEM_UART
 2510 5f305f49 4f5f5041 52414d45 5445525f  _0_IO_PARAMETER_
 2520 55415254 5f435452 4c5f434f 4e464947  UART_CTRL_CONFIG
 2530 5f505245 5f53414d 504c494e 475f5349  _PRE_SAMPLING_SI
 2540 5a452031 00494e54 4d41585f 43287829  ZE 1.INTMAX_C(x)
 2550 205f5f49 4e544d41 585f4328 78290050   __INTMAX_C(x).P
 2560 54524449 46465f4d 494e2028 2d505452  TRDIFF_MIN (-PTR
 2570 44494646 5f4d4158 202d2031 29007661  DIFF_MAX - 1).va
 2580 5f737461 72742876 2c6c2920 5f5f6275  _start(v,l) __bu
 2590 696c7469 6e5f7661 5f737461 72742876  iltin_va_start(v
 25a0 2c6c2900 4d5f4c4e 31302032 2e333032  ,l).M_LN10 2.302
 25b0 35383530 39323939 34303435 36383430  5850929940456840
 25c0 32005f66 6e73005f 5f574348 41525f4d  2._fns.__WCHAR_M
 25d0 41585f5f 20307837 66666666 66666600  AX__ 0x7fffffff.
 25e0 5f5f5549 4e545f46 41535436 345f5459  __UINT_FAST64_TY
 25f0 50455f5f 206c6f6e 67206c6f 6e672075  PE__ long long u
 2600 6e736967 6e656420 696e7400 5f524545  nsigned int._REE
 2610 4e545f4d 4252544f 57435f53 54415445  NT_MBRTOWC_STATE
 2620 28707472 29202828 70747229 2d3e5f6e  (ptr) ((ptr)->_n
 2630 65772e5f 7265656e 742e5f6d 6272746f  ew._reent._mbrto
 2640 77635f73 74617465 29005f57 494e545f  wc_state)._WINT_
 2650 5420005f 6d627274 6f77635f 73746174  T ._mbrtowc_stat
 2660 65005f5f 6c6f636b 5f636c6f 7365286c  e.__lock_close(l
 2670 6f636b29 20282876 6f696429 20302900  ock) ((void) 0).
 2680 5f636c6f 7365004d 4544454c 45475f55  _close.MEDELEG_U
 2690 5345525f 454e5649 524f4e4e 454d454e  SER_ENVIRONNEMEN
 26a0 545f4341 4c4c2028 31203c3c 20382900  T_CALL (1 << 8).
 26b0 7369676e 67616d20 282a5f5f 7369676e  signgam (*__sign
 26c0 67616d28 29290046 505f5a45 524f2032  gam()).FP_ZERO 2
 26d0 005f5f42 49474745 53545f41 4c49474e  .__BIGGEST_ALIGN
 26e0 4d454e54 5f5f2031 36005349 475f4154  MENT__ 16.SIG_AT
 26f0 4f4d4943 5f4d4158 20285f5f 53544449  OMIC_MAX (__STDI
 2700 4e545f45 58502849 4e545f4d 41582929  NT_EXP(INT_MAX))
 2710 005f5f6e 6f696e6c 696e6520 5f5f6174  .__noinline __at
 2720 74726962 7574655f 5f202828 5f5f6e6f  tribute__ ((__no
 2730 696e6c69 6e655f5f 29290063 6c696e74  inline__)).clint
 2740 5f676574 54696d65 4c6f7700 6d616368  _getTimeLow.mach
 2750 696e6554 696d6572 5f736574 436d7028  ineTimer_setCmp(
 2760 702c636d 70292063 6c696e74 5f736574  p,cmp) clint_set
 2770 436d7028 702c2063 6d702c20 30293b00  Cmp(p, cmp, 0);.
 2780 5f5f4445 4333325f 4d494e5f 4558505f  __DEC32_MIN_EXP_
 2790 5f20282d 39342900 4750494f 5f4f5554  _ (-94).GPIO_OUT
 27a0 50555420 30783034 00535953 54454d5f  PUT 0x04.SYSTEM_
 27b0 4932435f 315f494f 5f435452 4c5f5349  I2C_1_IO_CTRL_SI
 27c0 5a452030 78313030 005f5f77 65616b5f  ZE 0x100.__weak_
 27d0 73796d62 6f6c205f 5f617474 72696275  symbol __attribu
 27e0 74655f5f 28285f5f 7765616b 5f5f2929  te__((__weak__))
 27f0 00535953 54454d5f 5350495f 305f494f  .SYSTEM_SPI_0_IO
 2800 5f435452 4c5f5349 5a452030 78313030  _CTRL_SIZE 0x100
 2810 30005359 5354454d 5f475049 4f5f305f  0.SYSTEM_GPIO_0_
 2820 494f5f43 54524c20 30786638 30313630  IO_CTRL 0xf80160
 2830 3030005f 5f757365 64205f5f 61747472  00.__used __attr
 2840 69627574 655f5f28 285f5f75 7365645f  ibute__((__used_
 2850 5f292900 5f5f6765 6e657269 63286578  _)).__generic(ex
 2860 70722c74 2c796573 2c6e6f29 205f4765  pr,t,yes,no) _Ge
 2870 6e657269 63286578 70722c20 743a2079  neric(expr, t: y
 2880 65732c20 64656661 756c743a 206e6f29  es, default: no)
 2890 005f5245 454e545f 454d4552 47454e43  ._REENT_EMERGENC
 28a0 59287074 72292028 28707472 292d3e5f  Y(ptr) ((ptr)->_
 28b0 656d6572 67656e63 79290053 59535445  emergency).SYSTE
 28c0 4d5f5541 52545f30 5f494f5f 50415241  M_UART_0_IO_PARA
 28d0 4d455445 525f494e 49545f43 4f4e4649  METER_INIT_CONFI
 28e0 475f5354 4f50204f 4e45005f 5f55494e  G_STOP ONE.__UIN
 28f0 54385f4d 41585f5f 20307866 66005f5f  T8_MAX__ 0xff.__
 2900 5f696e74 31365f74 5f646566 696e6564  _int16_t_defined
 2910 2031005f 5f464c54 5f455053 494c4f4e   1.__FLT_EPSILON
 2920 5f5f2031 2e313932 30393238 39353530  __ 1.19209289550
 2930 37383132 35303030 30303030 30303030  7812500000000000
 2940 30303030 30303030 652d3746 00424954  00000000e-7F.BIT
 2950 5f323120 2831203c 3c203231 29006273  _21 (1 << 21).bs
 2960 705f7544 656c6179 28757365 63292063  p_uDelay(usec) c
 2970 6c696e74 5f754465 6c617928 75736563  lint_uDelay(usec
 2980 2c205359 5354454d 5f434c49 4e545f48  , SYSTEM_CLINT_H
 2990 5a2c2053 59535445 4d5f434c 494e545f  Z, SYSTEM_CLINT_
 29a0 4354524c 293b005f 73746469 6e005f5f  CTRL);._stdin.__
 29b0 44454349 4d414c5f 4449475f 5f203336  DECIMAL_DIG__ 36
 29c0 00677069 6f5f6765 744f7574 70757400  .gpio_getOutput.
 29d0 5f5f4442 4c5f4841 535f4445 4e4f524d  __DBL_HAS_DENORM
 29e0 5f5f2031 006d6163 68696e65 54696d65  __ 1.machineTime
 29f0 725f7544 656c6179 28757365 632c687a  r_uDelay(usec,hz
 2a00 2c726567 2920636c 696e745f 7544656c  ,reg) clint_uDel
 2a10 61792875 7365632c 20687a2c 20726567  ay(usec, hz, reg
 2a20 293b005f 5f43435f 53555050 4f525453  );.__CC_SUPPORTS
 2a30 5f5f5f49 4e4c494e 45203100 65787465  ___INLINE 1.exte
 2a40 726e616c 496e7465 72727570 7400494e  rnalInterrupt.IN
 2a50 544d4158 5f4d4158 20285f5f 494e544d  TMAX_MAX (__INTM
 2a60 41585f4d 41585f5f 2900494e 5433325f  AX_MAX__).INT32_
 2a70 4d415820 285f5f49 4e543332 5f4d4158  MAX (__INT32_MAX
 2a80 5f5f2900 6770696f 5f736574 4f757470  __).gpio_setOutp
 2a90 7574456e 61626c65 00535953 54454d5f  utEnable.SYSTEM_
 2aa0 52495343 565f4953 415f4558 545f4620  RISCV_ISA_EXT_F 
 2ab0 30005f54 5f505452 44494646 5f20005f  0._T_PTRDIFF_ ._
 2ac0 5f617474 72696275 74655f6d 616c6c6f  _attribute_mallo
 2ad0 635f5f20 005f5f49 4e545f4c 45415354  c__ .__INT_LEAST
 2ae0 31365f4d 41585f5f 20307837 66666600  16_MAX__ 0x7fff.
 2af0 5f5f464c 54313238 5f4d4158 5f455850  __FLT128_MAX_EXP
 2b00 5f5f2031 36333834 005f5f4c 45415354  __ 16384.__LEAST
 2b10 38202268 6822005f 5f6e6565 645f7369  8 "hh".__need_si
 2b20 7a655f74 2000534f 435f4820 005f5f72  ze_t .SOC_H .__r
 2b30 65747572 6e735f74 77696365 205f5f61  eturns_twice __a
 2b40 74747269 62757465 5f5f2828 5f5f7265  ttribute__((__re
 2b50 7475726e 735f7477 6963655f 5f292900  turns_twice__)).
 2b60 53595354 454d5f55 4152545f 305f494f  SYSTEM_UART_0_IO
 2b70 5f504152 414d4554 45525f55 4152545f  _PARAMETER_UART_
 2b80 4354524c 5f434f4e 4649475f 53414d50  CTRL_CONFIG_SAMP
 2b90 4c494e47 5f53495a 45203500 5f454e44  LING_SIZE 5._END
 2ba0 5f535444 5f432000 69736e61 6e285f5f  _STD_C .isnan(__
 2bb0 78292028 5f5f6275 696c7469 6e5f6973  x) (__builtin_is
 2bc0 6e616e20 285f5f78 29290050 4d505f57  nan (__x)).PMP_W
 2bd0 20307830 32005f5f 6861735f 696e636c   0x02.__has_incl
 2be0 7564655f 6e657874 28535452 29205f5f  ude_next(STR) __
 2bf0 6861735f 696e636c 7564655f 6e657874  has_include_next
 2c00 5f5f2853 54522900 45584954 5f464149  __(STR).EXIT_FAI
 2c10 4c555245 20310055 494e545f 4c454153  LURE 1.UINT_LEAS
 2c20 5431365f 4d415820 285f5f55 494e545f  T16_MAX (__UINT_
 2c30 4c454153 5431365f 4d41585f 5f29005f  LEAST16_MAX__)._
 2c40 5f55494e 5433325f 43286329 20632023  _UINT32_C(c) c #
 2c50 2320554c 005f5f73 74726674 696d656c  # UL.__strftimel
 2c60 696b6528 666d7461 72672c66 69727374  ike(fmtarg,first
 2c70 76617261 72672920 5f5f6174 74726962  vararg) __attrib
 2c80 7574655f 5f28285f 5f666f72 6d61745f  ute__((__format_
 2c90 5f20285f 5f737472 6674696d 655f5f2c  _ (__strftime__,
 2ca0 20666d74 6172672c 20666972 73747661   fmtarg, firstva
 2cb0 72617267 29292900 5f4e756c 6c5f756e  rarg)))._Null_un
 2cc0 73706563 69666965 64200042 49545f32  specified .BIT_2
 2cd0 33202831 203c3c20 32332900 5f5f4743  3 (1 << 23).__GC
 2ce0 435f4154 4f4d4943 5f53484f 52545f4c  C_ATOMIC_SHORT_L
 2cf0 4f434b5f 46524545 2031005f 57434841  OCK_FREE 1._WCHA
 2d00 525f545f 44454649 4e45445f 20004253  R_T_DEFINED_ .BS
 2d10 505f4d41 4348494e 455f5449 4d455220  P_MACHINE_TIMER 
 2d20 53595354 454d5f43 4c494e54 5f435452  SYSTEM_CLINT_CTR
 2d30 4c004650 5f494c4f 47424e41 4e205f5f  L.FP_ILOGBNAN __
 2d40 494e545f 4d41585f 5f004855 47455f56  INT_MAX__.HUGE_V
 2d50 414c4c20 285f5f62 75696c74 696e5f68  ALL (__builtin_h
 2d60 7567655f 76616c6c 28292900 4d5f4c4f  uge_vall()).M_LO
 2d70 47324520 312e3434 32363935 30343038  G2E 1.4426950408
 2d80 38383936 33343037 34004249 545f3320  889634074.BIT_3 
 2d90 2831203c 3c203329 00424954 5f313020  (1 << 3).BIT_10 
 2da0 2831203c 3c203130 2900494e 545f4c45  (1 << 10).INT_LE
 2db0 41535433 325f4d41 5820285f 5f494e54  AST32_MAX (__INT
 2dc0 5f4c4541 53543332 5f4d4158 5f5f2900  _LEAST32_MAX__).
 2dd0 5f6c6f63 616c6500 494e545f 4c454153  _locale.INT_LEAS
 2de0 5433325f 4d494e20 282d5f5f 494e545f  T32_MIN (-__INT_
 2df0 4c454153 5433325f 4d41585f 5f202d20  LEAST32_MAX__ - 
 2e00 31290055 4152545f 4652414d 455f434f  1).UART_FRAME_CO
 2e10 4e464947 20307830 43004249 545f3234  NFIG 0x0C.BIT_24
 2e20 20283120 3c3c2032 34290063 73725f63   (1 << 24).csr_c
 2e30 6c656172 28637372 2c76616c 2920287b  lear(csr,val) ({
 2e40 20756e73 69676e65 64206c6f 6e67205f   unsigned long _
 2e50 5f76203d 2028756e 7369676e 6564206c  _v = (unsigned l
 2e60 6f6e6729 2876616c 293b205f 5f61736d  ong)(val); __asm
 2e70 5f5f205f 5f766f6c 6174696c 655f5f20  __ __volatile__ 
 2e80 28226373 72632022 20236373 7220222c  ("csrc " #csr ",
 2e90 20253022 203a203a 2022724b 2220285f   %0" : : "rK" (_
 2ea0 5f762929 3b207d29 00637372 5f726561  _v)); }).csr_rea
 2eb0 645f7365 74286373 722c7661 6c292028  d_set(csr,val) (
 2ec0 7b20756e 7369676e 6564206c 6f6e6720  { unsigned long 
 2ed0 5f5f7620 3d202875 6e736967 6e656420  __v = (unsigned 
 2ee0 6c6f6e67 29287661 6c293b20 5f5f6173  long)(val); __as
 2ef0 6d5f5f20 5f5f766f 6c617469 6c655f5f  m__ __volatile__
 2f00 20282263 73727273 2025302c 20222023   ("csrrs %0, " #
 2f10 63737220 222c2025 3122203a 20223d72  csr ", %1" : "=r
 2f20 2220285f 5f762920 3a202272 4b222028  " (__v) : "rK" (
 2f30 5f5f7629 293b205f 5f763b20 7d29005f  __v)); __v; })._
 2f40 5f474343 5f41544f 4d49435f 54455354  _GCC_ATOMIC_TEST
 2f50 5f414e44 5f534554 5f545255 4556414c  _AND_SET_TRUEVAL
 2f60 20310063 6c696e74 5f754465 6c617900   1.clint_uDelay.
 2f70 454e4142 4c455f46 505f4558 504f4e45  ENABLE_FP_EXPONE
 2f80 4e544941 4c5f5355 50504f52 54203000  NTIAL_SUPPORT 0.
 2f90 5f5f4d49 53435f56 49534942 4c452031  __MISC_VISIBLE 1
 2fa0 005f5641 5f4c4953 545f4445 46494e45  ._VA_LIST_DEFINE
 2fb0 4420005f 5f574348 41525f4d 494e5f5f  D .__WCHAR_MIN__
 2fc0 20282d5f 5f574348 41525f4d 41585f5f   (-__WCHAR_MAX__
 2fd0 202d2031 29005f5f 464c5433 325f4841   - 1).__FLT32_HA
 2fe0 535f5155 4945545f 4e414e5f 5f203100  S_QUIET_NAN__ 1.
 2ff0 5f5f4f42 534f4c45 54455f4d 41544820  __OBSOLETE_MATH 
 3000 5f5f4f42 534f4c45 54455f4d 4154485f  __OBSOLETE_MATH_
 3010 44454641 554c5400 4d5f4c4e 324c4f20  DEFAULT.M_LN2LO 
 3020 312e3930 38323134 39323932 37303538  1.90821492927058
 3030 37373030 30452d31 30005f5f 616c6c6f  77000E-10.__allo
 3040 635f7369 7a653228 6e2c7829 205f5f61  c_size2(n,x) __a
 3050 74747269 62757465 5f5f2828 5f5f616c  ttribute__((__al
 3060 6c6f635f 73697a65 5f5f286e 2c207829  loc_size__(n, x)
 3070 2929005f 5f4c4442 4c5f4841 535f494e  )).__LDBL_HAS_IN
 3080 46494e49 54595f5f 2031006c 696d6974  FINITY__ 1.limit
 3090 005f5f44 45433332 5f4d4158 5f5f2039  .__DEC32_MAX__ 9
 30a0 2e393939 39393945 39364446 005f5f46  .999999E96DF.__F
 30b0 4c543332 585f4d41 585f3130 5f455850  LT32X_MAX_10_EXP
 30c0 5f5f2033 30380050 4d505f54 4f522030  __ 308.PMP_TOR 0
 30d0 78303800 53595354 454d5f55 4152545f  x08.SYSTEM_UART_
 30e0 305f494f 5f504152 414d4554 45525f42  0_IO_PARAMETER_B
 30f0 55535f43 414e5f57 52495445 5f465241  US_CAN_WRITE_FRA
 3100 4d455f43 4f4e4649 47203100 5f5f6465  ME_CONFIG 1.__de
 3110 61643220 5f5f6174 74726962 7574655f  ad2 __attribute_
 3120 5f28285f 5f6e6f72 65747572 6e5f5f29  _((__noreturn__)
 3130 29005f5f 6f666673 65746f66 28747970  ).__offsetof(typ
 3140 652c6669 656c6429 206f6666 7365746f  e,field) offseto
 3150 66287479 70652c20 6669656c 64290055  f(type, field).U
 3160 53455f47 50203100 5f5f5349 475f4154  SE_GP 1.__SIG_AT
 3170 4f4d4943 5f4d494e 5f5f2028 2d5f5f53  OMIC_MIN__ (-__S
 3180 49475f41 544f4d49 435f4d41 585f5f20  IG_ATOMIC_MAX__ 
 3190 2d203129 00535953 54454d5f 42524944  - 1).SYSTEM_BRID
 31a0 47455f42 4d422030 78300053 59535445  GE_BMB 0x0.SYSTE
 31b0 4d5f504c 49435f53 59535445 4d5f5541  M_PLIC_SYSTEM_UA
 31c0 52545f30 5f494f5f 494e5445 52525550  RT_0_IO_INTERRUP
 31d0 54203100 5f5f5549 4e545f4c 45415354  T 1.__UINT_LEAST
 31e0 385f4d41 585f5f20 30786666 005f5f47  8_MAX__ 0xff.__G
 31f0 43435f41 544f4d49 435f4c4f 4e475f4c  CC_ATOMIC_LONG_L
 3200 4f434b5f 46524545 2031005f 5f444543  OCK_FREE 1.__DEC
 3210 36345f4d 494e5f45 58505f5f 20282d33  64_MIN_EXP__ (-3
 3220 38322900 4d535441 5455535f 53554d20  82).MSTATUS_SUM 
 3230 30783030 30343030 30300062 75666665  0x00040000.buffe
 3240 72005f5f 464c5436 34585f48 41535f49  r.__FLT64X_HAS_I
 3250 4e46494e 4954595f 5f203100 5349475f  NFINITY__ 1.SIG_
 3260 41544f4d 49435f4d 494e2028 2d5f5f53  ATOMIC_MIN (-__S
 3270 5444494e 545f4558 5028494e 545f4d41  TDINT_EXP(INT_MA
 3280 5829202d 20312900 5f636f6f 6b696500  X) - 1)._cookie.
 3290 5f5f4442 4c5f4d41 585f5f20 2828646f  __DBL_MAX__ ((do
 32a0 75626c65 29312e37 39373639 33313334  uble)1.797693134
 32b0 38363233 31353730 38313435 32373432  8623157081452742
 32c0 33373331 37303433 3537652b 3330384c  3731704357e+308L
 32d0 29005f49 4e543136 5f545f44 45434c41  )._INT16_T_DECLA
 32e0 52454420 00696e73 74727563 74696f6e  RED .instruction
 32f0 5f636163 68655f69 6e76616c 69646174  _cache_invalidat
 3300 65282920 61736d28 2266656e 63652e69  e() asm("fence.i
 3310 22293b00 4249545f 31342028 31203c3c  ");.BIT_14 (1 <<
 3320 20313429 005f5741 4e545f49 4f5f4c4f   14)._WANT_IO_LO
 3330 4e475f44 4f55424c 45203100 5f776473  NG_DOUBLE 1._wds
 3340 004e414e 20285f5f 6275696c 74696e5f  .NAN (__builtin_
 3350 6e616e66 28222229 29005f5f 494e545f  nanf("")).__INT_
 3360 4c454153 5431365f 57494454 485f5f20  LEAST16_WIDTH__ 
 3370 3136004d 4544454c 45475f53 544f5245  16.MEDELEG_STORE
 3380 5f504147 455f4641 554c5420 2831203c  _PAGE_FAULT (1 <
 3390 3c203135 29005359 5354454d 5f554152  < 15).SYSTEM_UAR
 33a0 545f305f 494f5f50 4152414d 45544552  T_0_IO_PARAMETER
 33b0 5f425553 5f43414e 5f575249 54455f43  _BUS_CAN_WRITE_C
 33c0 4c4f434b 5f444956 49444552 5f434f4e  LOCK_DIVIDER_CON
 33d0 46494720 31005f41 54455849 545f494e  FIG 1._ATEXIT_IN
 33e0 4954207b 5f4e554c 4c2c2030 2c207b5f  IT {_NULL, 0, {_
 33f0 4e554c4c 7d2c207b 7b5f4e55 4c4c7d2c  NULL}, {{_NULL},
 3400 207b5f4e 554c4c7d 2c20302c 20307d7d   {_NULL}, 0, 0}}
 3410 005f7369 675f6675 6e63005f 5f444543  ._sig_func.__DEC
 3420 36345f53 55424e4f 524d414c 5f4d494e  64_SUBNORMAL_MIN
 3430 5f5f2030 2e303030 30303030 30303030  __ 0.00000000000
 3440 30303031 452d3338 33444400 53595354  0001E-383DD.SYST
 3450 454d5f43 4f524553 5f305f53 55504552  EM_CORES_0_SUPER
 3460 5649534f 52203000 6670636c 61737369  VISOR 0.fpclassi
 3470 6679285f 5f782920 285f5f62 75696c74  fy(__x) (__built
 3480 696e5f66 70636c61 73736966 79202846  in_fpclassify (F
 3490 505f4e41 4e2c2046 505f494e 46494e49  P_NAN, FP_INFINI
 34a0 54452c20 46505f4e 4f524d41 4c2c2046  TE, FP_NORMAL, F
 34b0 505f5355 424e4f52 4d414c2c 2046505f  P_SUBNORMAL, FP_
 34c0 5a45524f 2c205f5f 78292900 5f5f5f69  ZERO, __x)).___i
 34d0 6e745f6c 65617374 33325f74 5f646566  nt_least32_t_def
 34e0 696e6564 20310053 53544154 55535f53  ined 1.SSTATUS_S
 34f0 49452030 78303030 30303030 32005f6f  IE 0x00000002._o
 3500 66667365 74004249 545f3137 20283120  ffset.BIT_17 (1 
 3510 3c3c2031 3729004d 53544154 55535f53  << 17).MSTATUS_S
 3520 50494520 30783030 30303030 3230005f  PIE 0x00000020._
 3530 63767462 7566005f 5f555345 525f4c41  cvtbuf.__USER_LA
 3540 42454c5f 50524546 49585f5f 20005f5f  BEL_PREFIX__ .__
 3550 55494e54 36345f4d 41585f5f 20307866  UINT64_MAX__ 0xf
 3560 66666666 66666666 66666666 66666655  fffffffffffffffU
 3570 4c4c005f 696f6273 0055494e 5433325f  LL._iobs.UINT32_
 3580 43287829 205f5f55 494e5433 325f4328  C(x) __UINT32_C(
 3590 7829005f 41544649 4c455f53 4f555243  x)._ATFILE_SOURC
 35a0 4500494e 545f4641 53543136 5f4d494e  E.INT_FAST16_MIN
 35b0 20282d5f 5f494e54 5f464153 5431365f   (-__INT_FAST16_
 35c0 4d41585f 5f202d20 3129005f 5245454e  MAX__ - 1)._REEN
 35d0 545f4d42 4c454e5f 53544154 45287074  T_MBLEN_STATE(pt
 35e0 72292028 28707472 292d3e5f 6e65772e  r) ((ptr)->_new.
 35f0 5f726565 6e742e5f 6d626c65 6e5f7374  _reent._mblen_st
 3600 61746529 005f5f74 72796c6f 636b735f  ate).__trylocks_
 3610 73686172 6564282e 2e2e2920 5f5f6c6f  shared(...) __lo
 3620 636b5f61 6e6e6f74 61746528 73686172  ck_annotate(shar
 3630 65645f74 72796c6f 636b5f66 756e6374  ed_trylock_funct
 3640 696f6e28 5f5f5641 5f415247 535f5f29  ion(__VA_ARGS__)
 3650 29005f5f 494e545f 4c454153 54385f4d  ).__INT_LEAST8_M
 3660 41585f5f 20307837 66005f5f 4e45574c  AX__ 0x7f.__NEWL
 3670 49425f48 5f5f2031 00494e54 33325f4d  IB_H__ 1.INT32_M
 3680 494e2028 2d5f5f49 4e543332 5f4d4158  IN (-__INT32_MAX
 3690 5f5f202d 20312900 69736669 6e697465  __ - 1).isfinite
 36a0 285f5f78 2920285f 5f627569 6c74696e  (__x) (__builtin
 36b0 5f697366 696e6974 6520285f 5f782929  _isfinite (__x))
 36c0 00424954 5f313820 2831203c 3c203138  .BIT_18 (1 << 18
 36d0 2900756e 7369676e 65642073 69676e65  ).unsigned signe
 36e0 64004d5f 494e564c 4e322031 2e343432  d.M_INVLN2 1.442
 36f0 36393530 34303838 38393633 33383730  6950408889633870
 3700 45300053 53544154 55535f53 50502030  E0.SSTATUS_SPP 0
 3710 78303030 30303130 30005f49 4e545054  x00000100._INTPT
 3720 525f4551 5f494e54 20005f5f 464c5433  R_EQ_INT .__FLT3
 3730 32585f4d 41585f45 58505f5f 20313032  2X_MAX_EXP__ 102
 3740 34005f5f 6861735f 696e636c 75646528  4.__has_include(
 3750 53545229 205f5f68 61735f69 6e636c75  STR) __has_inclu
 3760 64655f5f 28535452 2900636f 6e666967  de__(STR).config
 3770 4d54494d 45434d50 5f424153 455f4144  MTIMECMP_BASE_AD
 3780 44524553 53202842 53505f43 4c494e54  DRESS (BSP_CLINT
 3790 202b2030 78343030 3029005f 5f55494e   + 0x4000).__UIN
 37a0 545f4c45 41535433 325f4d41 585f5f20  T_LEAST32_MAX__ 
 37b0 30786666 66666666 6666554c 00454e41  0xffffffffUL.ENA
 37c0 424c455f 464c4f41 54494e47 5f504f49  BLE_FLOATING_POI
 37d0 4e545f53 5550504f 52542053 59535445  NT_SUPPORT SYSTE
 37e0 4d5f434f 5245535f 305f4650 55005359  M_CORES_0_FPU.SY
 37f0 5354454d 5f52414d 5f415f43 54524c20  STEM_RAM_A_CTRL 
 3800 30786639 30303030 3030005f 5f736563  0xf9000000.__sec
 3810 74696f6e 28782920 5f5f6174 74726962  tion(x) __attrib
 3820 7574655f 5f28285f 5f736563 74696f6e  ute__((__section
 3830 5f5f2878 29292900 4d535441 5455535f  __(x))).MSTATUS_
 3840 53584c20 30783030 30303030 30433030  SXL 0x0000000C00
 3850 30303030 3030005f 5f494e54 5f4c4541  000000.__INT_LEA
 3860 53543634 5f574944 54485f5f 20363400  ST64_WIDTH__ 64.
 3870 5f5f464c 545f4841 535f494e 46494e49  __FLT_HAS_INFINI
 3880 54595f5f 20310077 72697465 5265675f  TY__ 1.writeReg_
 3890 75333228 6e616d65 2c6f6666 73657429  u32(name,offset)
 38a0 20737461 74696320 696e6c69 6e652076   static inline v
 38b0 6f696420 6e616d65 28753332 20726567  oid name(u32 reg
 38c0 2c207533 32207661 6c756529 7b207772  , u32 value){ wr
 38d0 6974655f 75333228 76616c75 652c2072  ite_u32(value, r
 38e0 6567202b 206f6666 73657429 3b207d00  eg + offset); }.
 38f0 5f5f494e 54385f4d 41585f5f 20307837  __INT8_MAX__ 0x7
 3900 66005f5f 4743435f 48415645 5f445741  f.__GCC_HAVE_DWA
 3910 5246325f 4346495f 41534d20 31005f5f  RF2_CFI_ASM 1.__
 3920 5f696e74 385f745f 64656669 6e656420  _int8_t_defined 
 3930 31005f70 3573005f 5f474343 5f494543  1._p5s.__GCC_IEC
 3940 5f353539 5f434f4d 504c4558 2030005f  _559_COMPLEX 0._
 3950 5359535f 5f545950 45535f48 20005f5f  SYS__TYPES_H .__
 3960 474e5543 5f5f2038 005f5f55 494e5431  GNUC__ 8.__UINT1
 3970 365f5459 50455f5f 2073686f 72742075  6_TYPE__ short u
 3980 6e736967 6e656420 696e7400 5f504f53  nsigned int._POS
 3990 49585f53 4f555243 45005241 4e445f4d  IX_SOURCE.RAND_M
 39a0 4158205f 5f52414e 445f4d41 58005f5f  AX __RAND_MAX.__
 39b0 4c44424c 5f444543 494d414c 5f444947  LDBL_DECIMAL_DIG
 39c0 5f5f2033 36005f5f 464c5436 34585f4d  __ 36.__FLT64X_M
 39d0 494e5f31 305f4558 505f5f20 282d3439  IN_10_EXP__ (-49
 39e0 33312900 5f5f5549 4e543332 5f4d4158  31).__UINT32_MAX
 39f0 5f5f2030 78666666 66666666 66554c00  __ 0xffffffffUL.
 3a00 5f5f7364 6964696e 6974005f 5f444543  __sdidinit.__DEC
 3a10 33325f4d 41585f45 58505f5f 20393700  32_MAX_EXP__ 97.
 3a20 5f545f53 495a455f 20005f5f 464c545f  _T_SIZE_ .__FLT_
 3a30 4556414c 5f4d4554 484f445f 54535f31  EVAL_METHOD_TS_1
 3a40 38363631 5f335f5f 20300074 61726765  8661_3__ 0.targe
 3a50 7400696e 74202b32 00677069 6f5f7365  t.int +2.gpio_se
 3a60 74496e74 65727275 70745269 7365456e  tInterruptRiseEn
 3a70 61626c65 00494e54 385f4328 7829205f  able.INT8_C(x) _
 3a80 5f494e54 385f4328 7829005f 5f6c6f63  _INT8_C(x).__loc
 3a90 6b5f6163 71756972 655f7265 63757273  k_acquire_recurs
 3aa0 69766528 6c6f636b 29202828 766f6964  ive(lock) ((void
 3ab0 29203029 005f5f72 65737472 69637420  ) 0).__restrict 
 3ac0 72657374 72696374 005f5f55 494e545f  restrict.__UINT_
 3ad0 46415354 385f5459 50455f5f 20756e73  FAST8_TYPE__ uns
 3ae0 69676e65 6420696e 74005f5f 464c5436  igned int.__FLT6
 3af0 345f4445 4e4f524d 5f4d494e 5f5f2034  4_DENORM_MIN__ 4
 3b00 2e393430 36353634 35383431 32343635  .940656458412465
 3b10 34343137 36353638 37393238 36383232  4417656879286822
 3b20 31333732 652d3332 34463634 00535953  1372e-324F64.SYS
 3b30 54454d5f 434f5245 535f305f 4d4d5520  TEM_CORES_0_MMU 
 3b40 30005f4c 49425f56 45525349 4f4e205f  0._LIB_VERSION _
 3b50 5f66646c 69625f76 65727369 6f6e005f  _fdlib_version._
 3b60 5f726571 75697265 735f756e 6c6f636b  _requires_unlock
 3b70 6564282e 2e2e2920 5f5f6c6f 636b5f61  ed(...) __lock_a
 3b80 6e6e6f74 61746528 6c6f636b 735f6578  nnotate(locks_ex
 3b90 636c7564 6564285f 5f56415f 41524753  cluded(__VA_ARGS
 3ba0 5f5f2929 00454e41 424c455f 53454d49  __)).ENABLE_SEMI
 3bb0 484f5354 494e475f 5052494e 54203000  HOSTING_PRINT 0.
 3bc0 5f5f494e 5433325f 4d41585f 5f203078  __INT32_MAX__ 0x
 3bd0 37666666 66666666 4c005f5f 6d696e5f  7fffffffL.__min_
 3be0 73697a65 28782920 73746174 69632028  size(x) static (
 3bf0 7829005f 54494d45 525f545f 20756e73  x)._TIMER_T_ uns
 3c00 69676e65 64206c6f 6e67005f 4c4f434b  igned long._LOCK
 3c10 5f524543 55525349 56455f54 005f5f49  _RECURSIVE_T.__I
 3c20 4e545f4c 45415354 36345f4d 41585f5f  NT_LEAST64_MAX__
 3c30 20307837 66666666 66666666 66666666   0x7ffffffffffff
 3c40 6666664c 4c005f5f 6e756c6c 5f73656e  fffLL.__null_sen
 3c50 74696e65 6c205f5f 61747472 69627574  tinel __attribut
 3c60 655f5f28 285f5f73 656e7469 6e656c5f  e__((__sentinel_
 3c70 5f292900 5f5f6e65 65645f4e 554c4c20  _)).__need_NULL 
 3c80 00424954 5f392028 31203c3c 20392900  .BIT_9 (1 << 9).
 3c90 5f444546 41554c54 5f534f55 52434520  _DEFAULT_SOURCE 
 3ca0 31005f5f 464c5433 325f4d41 4e545f44  1.__FLT32_MANT_D
 3cb0 49475f5f 20323400 6f666673 65746f66  IG__ 24.offsetof
 3cc0 28545950 452c4d45 4d424552 29205f5f  (TYPE,MEMBER) __
 3cd0 6275696c 74696e5f 6f666673 65746f66  builtin_offsetof
 3ce0 20285459 50452c20 4d454d42 45522900   (TYPE, MEMBER).
 3cf0 5f5f5549 4e543634 5f432863 29206320  __UINT64_C(c) c 
 3d00 23232055 4c4c005f 5f55494e 545f4c45  ## ULL.__UINT_LE
 3d10 41535436 345f5459 50455f5f 206c6f6e  AST64_TYPE__ lon
 3d20 67206c6f 6e672075 6e736967 6e656420  g long unsigned 
 3d30 696e7400 4d415448 5f455252 4e4f2031  int.MATH_ERRNO 1
 3d40 005f5f46 4c543634 585f4d41 4e545f44  .__FLT64X_MANT_D
 3d50 49475f5f 20313133 005f5743 4841525f  IG__ 113._WCHAR_
 3d60 545f4445 46494e45 4420005f 5f474343  T_DEFINED .__GCC
 3d70 5f41544f 4d49435f 43484152 31365f54  _ATOMIC_CHAR16_T
 3d80 5f4c4f43 4b5f4652 45452031 00637372  _LOCK_FREE 1.csr
 3d90 5f777269 74652863 73722c76 616c2920  _write(csr,val) 
 3da0 287b2075 6e736967 6e656420 6c6f6e67  ({ unsigned long
 3db0 205f5f76 203d2028 756e7369 676e6564   __v = (unsigned
 3dc0 206c6f6e 67292876 616c293b 205f5f61   long)(val); __a
 3dd0 736d5f5f 205f5f76 6f6c6174 696c655f  sm__ __volatile_
 3de0 5f202822 63737277 20222023 63737220  _ ("csrw " #csr 
 3df0 222c2025 3022203a 203a2022 724b2220  ", %0" : : "rK" 
 3e00 285f5f76 29293b20 7d29004d 53544154  (__v)); }).MSTAT
 3e10 55535f48 50502030 78303030 30303630  US_HPP 0x0000060
 3e20 30005f5f 4e554c4c 4142494c 4954595f  0.__NULLABILITY_
 3e30 50524147 4d415f50 55534820 005f7369  PRAGMA_PUSH ._si
 3e40 676e616c 5f627566 005f5f44 424c5f4d  gnal_buf.__DBL_M
 3e50 41585f45 58505f5f 20313032 34005f5f  AX_EXP__ 1024.__
 3e60 46415354 36342022 6c6c2200 5f5f4154  FAST64 "ll".__AT
 3e70 4f4d4943 5f52454c 45415345 20330075  OMIC_RELEASE 3.u
 3e80 6e736967 6e656420 2b30005f 5f464c54  nsigned +0.__FLT
 3e90 3332585f 4841535f 44454e4f 524d5f5f  32X_HAS_DENORM__
 3ea0 2031005f 5f464c54 5f4d414e 545f4449   1.__FLT_MANT_DI
 3eb0 475f5f20 3234005f 52414e44 34385f53  G__ 24._RAND48_S
 3ec0 4545445f 31202830 78616263 6429005f  EED_1 (0xabcd)._
 3ed0 5f494e54 5f464153 5433325f 54595045  _INT_FAST32_TYPE
 3ee0 5f5f2069 6e74005f 53544441 52475f48  __ int._STDARG_H
 3ef0 20005f5f 5f696e74 5f707472 64696666   .___int_ptrdiff
 3f00 5f745f68 20005f5f 4f505449 4d495a45  _t_h .__OPTIMIZE
 3f10 5f5f2031 004d4544 454c4547 5f4c4f41  __ 1.MEDELEG_LOA
 3f20 445f5041 47455f46 41554c54 20283120  D_PAGE_FAULT (1 
 3f30 3c3c2031 3329005f 494e5433 325f545f  << 13)._INT32_T_
 3f40 4445434c 41524544 20005f42 6967696e  DECLARED ._Bigin
 3f50 74005f5f 464c5436 345f4d49 4e5f5f20  t.__FLT64_MIN__ 
 3f60 322e3232 35303733 38353835 30373230  2.22507385850720
 3f70 31333833 30393032 33323731 37333332  1383090232717332
 3f80 34303430 36652d33 30384636 34005f5f  40406e-308F64.__
 3f90 696e7432 30202b32 005f5f49 4e543634  int20 +2.__INT64
 3fa0 5f4d4158 5f5f2030 78376666 66666666  _MAX__ 0x7ffffff
 3fb0 66666666 66666666 664c4c00 454e4142  fffffffffLL.ENAB
 3fc0 4c455f42 53505f50 52494e54 46203100  LE_BSP_PRINTF 1.
 3fd0 5f5f494e 54505452 5f545950 455f5f20  __INTPTR_TYPE__ 
 3fe0 696e7400 5f5f464c 54333258 5f4d494e  int.__FLT32X_MIN
 3ff0 5f31305f 4558505f 5f20282d 33303729  _10_EXP__ (-307)
 4000 0069736e 6f726d61 6c285f5f 78292028  .isnormal(__x) (
 4010 5f5f6275 696c7469 6e5f6973 6e6f726d  __builtin_isnorm
 4020 616c2028 5f5f7829 29005f52 45454e54  al (__x))._REENT
 4030 5f434845 434b5f53 49474e41 4c5f4255  _CHECK_SIGNAL_BU
 4040 46287074 72292000 4249545f 32202831  F(ptr) .BIT_2 (1
 4050 203c3c20 3229005f 5f636c65 616e7570   << 2).__cleanup
 4060 004d5354 41545553 5f4d5049 45203078  .MSTATUS_MPIE 0x
 4070 30303030 30303830 005f6174 65786974  00000080._atexit
 4080 30005f52 45454e54 5f534d41 4c4c5f43  0._REENT_SMALL_C
 4090 4845434b 5f494e49 54287074 72292000  HECK_INIT(ptr) .
 40a0 4d535441 5455535f 55494520 30783030  MSTATUS_UIE 0x00
 40b0 30303030 30310050 4d505f4e 41504f54  000001.PMP_NAPOT
 40c0 20307831 3800616c 6c6f6361 2873697a   0x18.alloca(siz
 40d0 6529205f 5f627569 6c74696e 5f616c6c  e) __builtin_all
 40e0 6f636128 73697a65 29005f5f 4c4f4e47  oca(size).__LONG
 40f0 5f574944 54485f5f 20333200 7369676e  _WIDTH__ 32.sign
 4100 62697428 5f5f7829 20282873 697a656f  bit(__x) ((sizeo
 4110 66285f5f 7829203d 3d207369 7a656f66  f(__x) == sizeof
 4120 28666c6f 61742929 203f205f 5f627569  (float)) ? __bui
 4130 6c74696e 5f736967 6e626974 66285f5f  ltin_signbitf(__
 4140 7829203a 20287369 7a656f66 285f5f78  x) : (sizeof(__x
 4150 29203d3d 2073697a 656f6628 646f7562  ) == sizeof(doub
 4160 6c652929 203f205f 5f627569 6c74696e  le)) ? __builtin
 4170 5f736967 6e626974 20285f5f 7829203a  _signbit (__x) :
 4180 205f5f62 75696c74 696e5f73 69676e62   __builtin_signb
 4190 69746c28 5f5f7829 29005f54 5f574348  itl(__x))._T_WCH
 41a0 41525f20 00636f6e 66696743 50555f43  AR_ .configCPU_C
 41b0 4c4f434b 5f485a20 28202820 75696e74  LOCK_HZ ( ( uint
 41c0 33325f74 20292028 20425350 5f434c49  32_t ) ( BSP_CLI
 41d0 4e545f48 5a202920 29005f5f 7761726e  NT_HZ ) ).__warn
 41e0 5f726566 6572656e 63657328 73796d2c  _references(sym,
 41f0 6d736729 205f5f61 736d5f5f 28222e73  msg) __asm__(".s
 4200 65637469 6f6e202e 676e752e 7761726e  ection .gnu.warn
 4210 696e672e 22202373 796d293b 205f5f61  ing." #sym); __a
 4220 736d5f5f 28222e61 7363697a 205c2222  sm__(".asciz \""
 4230 206d7367 20225c22 22293b20 5f5f6173   msg "\""); __as
 4240 6d5f5f28 222e7072 6576696f 75732229  m__(".previous")
 4250 00535354 41545553 5f53554d 20307830  .SSTATUS_SUM 0x0
 4260 30303430 30303000 706c6963 5f736574  0040000.plic_set
 4270 5f656e61 626c6500 57434841 525f4d41  _enable.WCHAR_MA
 4280 5820285f 5f574348 41525f4d 41585f5f  X (__WCHAR_MAX__
 4290 29005f5f 7369676e 67616d5f 72287074  ).__signgam_r(pt
 42a0 7229205f 5245454e 545f5349 474e4741  r) _REENT_SIGNGA
 42b0 4d287074 7229005f 4e45574c 49425f56  M(ptr)._NEWLIB_V
 42c0 45525349 4f4e5f48 5f5f2031 00697369  ERSION_H__ 1.isi
 42d0 6e66285f 5f782920 285f5f62 75696c74  nf(__x) (__built
 42e0 696e5f69 73696e66 5f736967 6e20285f  in_isinf_sign (_
 42f0 5f782929 005f5f53 495a455f 4d41585f  _x)).__SIZE_MAX_
 4300 5f203078 66666666 66666666 55005f5f  _ 0xffffffffU.__
 4310 75696e74 33325f74 005f656d 65726765  uint32_t._emerge
 4320 6e637900 5f4c4942 5f564552 53494f4e  ncy._LIB_VERSION
 4330 5f545950 4520656e 756d205f 5f66646c  _TYPE enum __fdl
 4340 69626d5f 76657273 696f6e00 6373725f  ibm_version.csr_
 4350 73657428 6373722c 76616c29 20287b20  set(csr,val) ({ 
 4360 756e7369 676e6564 206c6f6e 67205f5f  unsigned long __
 4370 76203d20 28756e73 69676e65 64206c6f  v = (unsigned lo
 4380 6e672928 76616c29 3b205f5f 61736d5f  ng)(val); __asm_
 4390 5f205f5f 766f6c61 74696c65 5f5f2028  _ __volatile__ (
 43a0 22637372 73202220 23637372 20222c20  "csrs " #csr ", 
 43b0 25302220 3a203a20 22724b22 20285f5f  %0" : : "rK" (__
 43c0 7629293b 207d2900 5f5f464c 545f5241  v)); }).__FLT_RA
 43d0 4449585f 5f203200 5f5f464c 5433325f  DIX__ 2.__FLT32_
 43e0 4841535f 494e4649 4e495459 5f5f2031  HAS_INFINITY__ 1
 43f0 005f5245 454e545f 52414e44 34385f4d  ._REENT_RAND48_M
 4400 554c5428 70747229 20282870 7472292d  ULT(ptr) ((ptr)-
 4410 3e5f6e65 772e5f72 65656e74 2e5f7234  >_new._reent._r4
 4420 382e5f6d 756c7429 00424954 5f323920  8._mult).BIT_29 
 4430 2831203c 3c203239 29005549 4e543332  (1 << 29).UINT32
 4440 5f4d4158 20285f5f 55494e54 33325f4d  _MAX (__UINT32_M
 4450 41585f5f 29005f5f 77636861 725f745f  AX__).__wchar_t_
 4460 5f20005f 5f4c4442 4c5f4841 535f5155  _ .__LDBL_HAS_QU
 4470 4945545f 4e414e5f 5f203100 5f5f6e65  IET_NAN__ 1.__ne
 4480 65645f4e 554c4c00 4d5f4c4f 47325f45  ed_NULL.M_LOG2_E
 4490 205f4d5f 4c4e3200 5f5f4c4f 4e475f4c   _M_LN2.__LONG_L
 44a0 4f4e475f 57494454 485f5f20 3634005f  ONG_WIDTH__ 64._
 44b0 6e696f62 73005749 4e545f4d 41582028  niobs.WINT_MAX (
 44c0 5f5f5749 4e545f4d 41585f5f 29005f5f  __WINT_MAX__).__
 44d0 6e656564 5f776368 61725f74 2000706c  need_wchar_t .pl
 44e0 69635f72 656c6561 7365004d 53544154  ic_release.MSTAT
 44f0 55535f54 564d2030 78303031 30303030  US_TVM 0x0010000
 4500 30005353 54415455 535f4653 20307830  0.SSTATUS_FS 0x0
 4510 30303036 30303000 5f5f6c6f 63616c65  0006000.__locale
 4520 5f74005f 5245454e 545f4348 45434b5f  _t._REENT_CHECK_
 4530 41534354 494d455f 42554628 70747229  ASCTIME_BUF(ptr)
 4540 20005f5f 72697363 765f636d 6f64656c   .__riscv_cmodel
 4550 5f6d6564 6c6f7720 31005f5f 494e5450  _medlow 1.__INTP
 4560 54525f57 49445448 5f5f2033 32005f5f  TR_WIDTH__ 32.__
 4570 4743435f 41544f4d 49435f4c 4c4f4e47  GCC_ATOMIC_LLONG
 4580 5f4c4f43 4b5f4652 45452031 00504c49  _LOCK_FREE 1.PLI
 4590 435f454e 41424c45 5f424153 45203078  C_ENABLE_BASE 0x
 45a0 32303030 005f6e6d 616c6c6f 63005f5f  2000._nmalloc.__
 45b0 464c5436 345f4d41 585f4558 505f5f20  FLT64_MAX_EXP__ 
 45c0 31303234 005f5f57 43484152 5f542000  1024.__WCHAR_T .
 45d0 5f5f5359 535f434f 4e464947 5f485f5f  __SYS_CONFIG_H__
 45e0 20005f5f 70747276 616c7565 20005f5f   .__ptrvalue .__
 45f0 474e5543 5f56415f 4c495354 5f434f4d  GNUC_VA_LIST_COM
 4600 50415449 42494c49 54592031 005f5f5f  PATIBILITY 1.___
 4610 696e7433 325f745f 64656669 6e656420  int32_t_defined 
 4620 31005f67 616d6d61 5f736967 6e67616d  1._gamma_signgam
 4630 005f5f4c 44424c5f 4d41585f 5f20312e  .__LDBL_MAX__ 1.
 4640 31383937 33313439 35333537 32333137  1897314953572317
 4650 36353038 35373539 33323636 32383030  6508575932662800
 4660 37303265 2b343933 324c0050 4d505f53  702e+4932L.PMP_S
 4670 48494654 2032005f 5f57494e 545f5749  HIFT 2.__WINT_WI
 4680 4454485f 5f203332 005f5f49 4e543634  DTH__ 32.__INT64
 4690 5f545950 455f5f20 6c6f6e67 206c6f6e  _TYPE__ long lon
 46a0 6720696e 7400504c 49435f50 52494f52  g int.PLIC_PRIOR
 46b0 4954595f 42415345 20307830 30303000  ITY_BASE 0x0000.
 46c0 5f5f7472 796c6f63 6b735f65 78636c75  __trylocks_exclu
 46d0 73697665 282e2e2e 29205f5f 6c6f636b  sive(...) __lock
 46e0 5f616e6e 6f746174 65286578 636c7573  _annotate(exclus
 46f0 6976655f 7472796c 6f636b5f 66756e63  ive_trylock_func
 4700 74696f6e 285f5f56 415f4152 47535f5f  tion(__VA_ARGS__
 4710 29290055 494e5431 365f4d41 5820285f  )).UINT16_MAX (_
 4720 5f55494e 5431365f 4d41585f 5f29005f  _UINT16_MAX__)._
 4730 5f53495a 454f465f 57434841 525f545f  _SIZEOF_WCHAR_T_
 4740 5f203400 5f52414e 4434385f 53454544  _ 4._RAND48_SEED
 4750 5f302028 30783333 30652900 494e545f  _0 (0x330e).INT_
 4760 4c454153 5431365f 4d494e20 282d5f5f  LEAST16_MIN (-__
 4770 494e545f 4c454153 5431365f 4d41585f  INT_LEAST16_MAX_
 4780 5f202d20 3129006d 61736b00 5f5f6e6f  _ - 1).mask.__no
 4790 6e6e756c 6c5f616c 6c205f5f 61747472  nnull_all __attr
 47a0 69627574 655f5f28 285f5f6e 6f6e6e75  ibute__((__nonnu
 47b0 6c6c5f5f 2929005f 5245454e 545f4d42  ll__))._REENT_MB
 47c0 5352544f 5743535f 53544154 45287074  SRTOWCS_STATE(pt
 47d0 72292028 28707472 292d3e5f 6e65772e  r) ((ptr)->_new.
 47e0 5f726565 6e742e5f 6d627372 746f7763  _reent._mbsrtowc
 47f0 735f7374 61746529 005f5f75 6e6c6f63  s_state).__unloc
 4800 6b73282e 2e2e2920 5f5f6c6f 636b5f61  ks(...) __lock_a
 4810 6e6e6f74 61746528 756e6c6f 636b5f66  nnotate(unlock_f
 4820 756e6374 696f6e28 5f5f5641 5f415247  unction(__VA_ARG
 4830 535f5f29 2900454e 41424c45 5f425350  S__)).ENABLE_BSP
 4840 5f505249 4e542031 005f6672 65656c69  _PRINT 1._freeli
 4850 7374005f 5f6c6f63 6b5f7472 795f6163  st.__lock_try_ac
 4860 71756972 65286c6f 636b2920 2828766f  quire(lock) ((vo
 4870 69642920 3029005f 5245454e 545f4d42  id) 0)._REENT_MB
 4880 524c454e 5f535441 54452870 74722920  RLEN_STATE(ptr) 
 4890 28287074 72292d3e 5f6e6577 2e5f7265  ((ptr)->_new._re
 48a0 656e742e 5f6d6272 6c656e5f 73746174  ent._mbrlen_stat
 48b0 6529005f 5f5f696e 745f6c65 61737436  e).___int_least6
 48c0 345f745f 64656669 6e656420 3100504c  4_t_defined 1.PL
 48d0 49435f43 4c41494d 5f424153 45203078  IC_CLAIM_BASE 0x
 48e0 32303030 30340069 736c6573 73677265  200004.islessgre
 48f0 61746572 285f5f78 2c5f5f79 2920285f  ater(__x,__y) (_
 4900 5f627569 6c74696e 5f69736c 65737367  _builtin_islessg
 4910 72656174 65722028 5f5f782c 205f5f79  reater (__x, __y
 4920 2929005f 5f544852 4f572000 5f676c75  )).__THROW ._glu
 4930 65005f73 69676e00 5f5f494e 545f4c45  e._sign.__INT_LE
 4940 41535433 325f4d41 585f5f20 30783766  AST32_MAX__ 0x7f
 4950 66666666 66664c00 53595354 454d5f53  ffffffL.SYSTEM_S
 4960 50495f31 5f494f5f 4354524c 5f53495a  PI_1_IO_CTRL_SIZ
 4970 45203078 31303030 005f5245 454e545f  E 0x1000._REENT_
 4980 4c363441 5f425546 28707472 29202828  L64A_BUF(ptr) ((
 4990 70747229 2d3e5f6e 65772e5f 7265656e  ptr)->_new._reen
 49a0 742e5f6c 3634615f 62756629 005f4154  t._l64a_buf)._AT
 49b0 46494c45 5f534f55 52434520 31005f5f  FILE_SOURCE 1.__
 49c0 53544449 4e545f45 58502878 29205f5f  STDINT_EXP(x) __
 49d0 20232378 2023235f 5f005f5f 45585028   ##x ##__.__EXP(
 49e0 7829205f 5f202323 78202323 5f5f004d  x) __ ##x ##__.M
 49f0 425f4355 525f4d41 58205f5f 6c6f6361  B_CUR_MAX __loca
 4a00 6c655f6d 625f6375 725f6d61 78282900  le_mb_cur_max().
 4a10 5f5f4259 54455f4f 52444552 5f5f205f  __BYTE_ORDER__ _
 4a20 5f4f5244 45525f4c 4954544c 455f454e  _ORDER_LITTLE_EN
 4a30 4449414e 5f5f005f 5f574348 41525f54  DIAN__.__WCHAR_T
 4a40 5950455f 5f20696e 74005f41 4e534944  YPE__ int._ANSID
 4a50 45434c5f 485f2000 5f414e53 495f5354  ECL_H_ ._ANSI_ST
 4a60 44444546 5f482000 5f776373 72746f6d  DDEF_H ._wcsrtom
 4a70 62735f73 74617465 005f5741 4e545f49  bs_state._WANT_I
 4a80 4f5f4339 395f464f 524d4154 53203100  O_C99_FORMATS 1.
 4a90 5f524545 4e545f43 4845434b 5f4d5028  _REENT_CHECK_MP(
 4aa0 70747229 20004d5f 50492033 2e313431  ptr) .M_PI 3.141
 4ab0 35393236 35333538 39373933 32333834  5926535897932384
 4ac0 36005f5f 57494e54 5f545950 455f5f20  6.__WINT_TYPE__ 
 4ad0 756e7369 676e6564 20696e74 005f5f69  unsigned int.__i
 4ae0 6e745f66 61737431 365f745f 64656669  nt_fast16_t_defi
 4af0 6e656420 31004d5f 50495f34 20302e37  ned 1.M_PI_4 0.7
 4b00 38353339 38313633 33393734 34383330  8539816339744830
 4b10 39363200 5f425344 5f505452 44494646  962._BSD_PTRDIFF
 4b20 5f545f20 006d6163 68696e65 54696d65  _T_ .machineTime
 4b30 725f6765 7454696d 65287029 20636c69  r_getTime(p) cli
 4b40 6e745f67 65745469 6d652870 293b0045  nt_getTime(p);.E
 4b50 4e41424c 455f4253 505f5052 494e5446  NABLE_BSP_PRINTF
 4b60 5f46554c 4c203000 5f666c61 67733200  _FULL 0._flags2.
 4b70 494e5436 345f4d41 5820285f 5f494e54  INT64_MAX (__INT
 4b80 36345f4d 41585f5f 29007561 72745f77  64_MAX__).uart_w
 4b90 72697465 00535354 41545553 5f535049  rite.SSTATUS_SPI
 4ba0 45203078 30303030 30303230 005f5f4e  E 0x00000020.__N
 4bb0 45574c49 425f4d49 4e4f525f 5f203100  EWLIB_MINOR__ 1.
 4bc0 5f524545 4e545f4d 42544f57 435f5354  _REENT_MBTOWC_ST
 4bd0 41544528 70747229 20282870 7472292d  ATE(ptr) ((ptr)-
 4be0 3e5f6e65 772e5f72 65656e74 2e5f6d62  >_new._reent._mb
 4bf0 746f7763 5f737461 74652900 5f5f464c  towc_state).__FL
 4c00 545f4d49 4e5f4558 505f5f20 282d3132  T_MIN_EXP__ (-12
 4c10 3529005f 5f444543 5f455641 4c5f4d45  5).__DEC_EVAL_ME
 4c20 54484f44 5f5f2032 00535953 54454d5f  THOD__ 2.SYSTEM_
 4c30 424d425f 50455249 50484552 414c5f42  BMB_PERIPHERAL_B
 4c40 4d422030 78663830 30303030 30006f70  MB 0xf8000000.op
 4c50 636f6465 5f52286f 70636f64 652c6675  code_R(opcode,fu
 4c60 6e63332c 66756e63 372c7273 312c7273  nc3,func7,rs1,rs
 4c70 32292028 7b207265 67697374 65722075  2) ({ register u
 4c80 6e736967 6e656420 6c6f6e67 205f5f76  nsigned long __v
 4c90 3b206173 6d20766f 6c617469 6c652820  ; asm volatile( 
 4ca0 222e776f 72642028 28222023 6f70636f  ".word ((" #opco
 4cb0 64652022 29207c20 28726567 6e756d5f  de ") | (regnum_
 4cc0 2530203c 3c203729 207c2028 7265676e  %0 << 7) | (regn
 4cd0 756d5f25 31203c3c 20313529 207c2028  um_%1 << 15) | (
 4ce0 7265676e 756d5f25 32203c3c 20323029  regnum_%2 << 20)
 4cf0 207c2028 28222023 66756e63 33202229   | ((" #func3 ")
 4d00 203c3c20 31322920 7c202828 22202366   << 12) | ((" #f
 4d10 756e6337 20222920 3c3c2032 3529293b  unc7 ") << 25));
 4d20 22203a20 5b72645d 20223d72 2220285f  " : [rd] "=r" (_
 4d30 5f762920 3a202272 22202872 7331292c  _v) : "r" (rs1),
 4d40 20227222 20287273 32292029 3b205f5f   "r" (rs2) ); __
 4d50 763b207d 29006461 74615f63 61636865  v; }).data_cache
 4d60 5f696e76 616c6964 6174655f 616c6c28  _invalidate_all(
 4d70 29206173 6d28222e 776f7264 28307835  ) asm(".word(0x5
 4d80 30304629 22293b00 55494e54 5f464153  00F)");.UINT_FAS
 4d90 54385f4d 41582028 5f5f5549 4e545f46  T8_MAX (__UINT_F
 4da0 41535438 5f4d4158 5f5f2900 5f5f4154  AST8_MAX__).__AT
 4db0 54524942 5554455f 494d5055 52455f50  TRIBUTE_IMPURE_P
 4dc0 54525f5f 2000494e 545f4641 5354385f  TR__ .INT_FAST8_
 4dd0 4d494e20 282d5f5f 494e545f 46415354  MIN (-__INT_FAST
 4de0 385f4d41 585f5f20 2d203129 005f5f46  8_MAX__ - 1).__F
 4df0 4c543332 585f4d41 585f5f20 312e3739  LT32X_MAX__ 1.79
 4e00 37363933 31333438 36323331 35373038  7693134862315708
 4e10 31343532 37343233 37333137 30343335  1452742373170435
 4e20 37652b33 30384633 3278005f 5f464c54  7e+308F32x.__FLT
 4e30 36345f48 41535f44 454e4f52 4d5f5f20  64_HAS_DENORM__ 
 4e40 31005f5f 464c545f 4449475f 5f203600  1.__FLT_DIG__ 6.
 4e50 5f685f65 72726e6f 005f4656 57524954  _h_errno._FVWRIT
 4e60 455f494e 5f535452 45414d49 4f203100  E_IN_STREAMIO 1.
 4e70 5f574348 41525f54 5f444543 4c415245  _WCHAR_T_DECLARE
 4e80 4420005f 5f434841 525f4249 545f5f20  D .__CHAR_BIT__ 
 4e90 38005f53 59535f52 45454e54 5f485f20  8._SYS_REENT_H_ 
 4ea0 005f5f46 4c545f45 56414c5f 4d455448  .__FLT_EVAL_METH
 4eb0 4f445f5f 20300053 59535445 4d5f504c  OD__ 0.SYSTEM_PL
 4ec0 49435f53 59535445 4d5f4750 494f5f30  IC_SYSTEM_GPIO_0
 4ed0 5f494f5f 494e5445 52525550 54535f31  _IO_INTERRUPTS_1
 4ee0 20313300 5f5f5343 4841525f 4d41585f   13.__SCHAR_MAX_
 4ef0 5f203078 3766005f 5f494e54 5f464153  _ 0x7f.__INT_FAS
 4f00 54385f57 49445448 5f5f2033 32005f5f  T8_WIDTH__ 32.__
 4f10 494e5431 36202268 22005f5f 464c5431  INT16 "h".__FLT1
 4f20 32385f45 5053494c 4f4e5f5f 20312e39  28_EPSILON__ 1.9
 4f30 32353932 39393434 33383732 33353835  2592994438723585
 4f40 33303535 39373739 34323538 34393237  3055977942584927
 4f50 3332652d 33344631 32380055 4152545f  32e-34F128.UART_
 4f60 44415441 20307830 3000494f 5f415042  DATA 0x00.IO_APB
 4f70 5f534c41 56455f30 5f494e50 55545f53  _SLAVE_0_INPUT_S
 4f80 495a4520 30783130 30303000 5f504f53  IZE 0x10000._POS
 4f90 49585f20 5f5f6664 6c69626d 5f706f73  IX_ __fdlibm_pos
 4fa0 6978005f 545f5054 52444946 4620004d  ix._T_PTRDIFF .M
 4fb0 5f54574f 50492028 4d5f5049 202a2032  _TWOPI (M_PI * 2
 4fc0 2e302900 5f776372 746f6d62 5f737461  .0)._wcrtomb_sta
 4fd0 7465005f 5f464c54 3132385f 4d41585f  te.__FLT128_MAX_
 4fe0 31305f45 58505f5f 20343933 32005f5f  10_EXP__ 4932.__
 4ff0 4743435f 4945435f 35353920 30005f4e  GCC_IEC_559 0._N
 5000 45574c49 425f414c 4c4f4341 5f482000  EWLIB_ALLOCA_H .
 5010 5f5f746d 5f6d6461 7900616c 6c6f6361  __tm_mday.alloca
 5020 00424954 5f382028 31203c3c 20382900  .BIT_8 (1 << 8).
 5030 5f5f5354 44435f5f 2031005f 6e657700  __STDC__ 1._new.
 5040 5f5f5f69 6e745f6c 65617374 385f745f  ___int_least8_t_
 5050 64656669 6e656420 31005f75 62756600  defined 1._ubuf.
 5060 5f5f464c 4f41545f 574f5244 5f4f5244  __FLOAT_WORD_ORD
 5070 45525f5f 205f5f4f 52444552 5f4c4954  ER__ __ORDER_LIT
 5080 544c455f 454e4449 414e5f5f 00424954  TLE_ENDIAN__.BIT
 5090 5f333020 2831203c 3c203330 29005f5f  _30 (1 << 30).__
 50a0 55494e54 385f5459 50455f5f 20756e73  UINT8_TYPE__ uns
 50b0 69676e65 64206368 6172005f 73746465  igned char._stde
 50c0 7272005f 5f696e74 5f666173 74385f74  rr.__int_fast8_t
 50d0 5f646566 696e6564 2031005f 5f455850  _defined 1.__EXP
 50e0 4f525420 005f7763 746f6d62 5f737461  ORT ._wctomb_sta
 50f0 7465005f 5f4f4253 4f4c4554 455f4d41  te.__OBSOLETE_MA
 5100 54485f44 45464155 4c542031 005f6d62  TH_DEFAULT 1._mb
 5110 73746174 65005f5f 53434353 49442873  state.__SCCSID(s
 5120 29207374 72756374 205f5f68 61636b00  ) struct __hack.
 5130 6d54696d 65506572 55736563 00535953  mTimePerUsec.SYS
 5140 54454d5f 52414d5f 415f4354 524c5f53  TEM_RAM_A_CTRL_S
 5150 495a4520 30783130 30303000 5f5f5348  IZE 0x10000.__SH
 5160 52545f57 49445448 5f5f2031 36005f72  RT_WIDTH__ 16._r
 5170 616e645f 6e657874 005f5f44 45433132  and_next.__DEC12
 5180 385f4d41 4e545f44 49475f5f 20333400  8_MANT_DIG__ 34.
 5190 5f666c61 6773005f 5f494d50 4f525420  _flags.__IMPORT 
 51a0 00535354 41545553 5f554945 20307830  .SSTATUS_UIE 0x0
 51b0 30303030 30303100 5f505452 44494646  0000001._PTRDIFF
 51c0 5f545f44 45434c41 52454420 005f5f76  _T_DECLARED .__v
 51d0 6f6c6174 696c6520 766f6c61 74696c65  olatile volatile
 51e0 00616464 72657373 00424954 5f333120  .address.BIT_31 
 51f0 2831203c 3c203331 29005f57 414e545f  (1 << 31)._WANT_
 5200 52454749 53544552 5f46494e 49203100  REGISTER_FINI 1.
 5210 5f5f4743 435f4154 4f4d4943 5f434841  __GCC_ATOMIC_CHA
 5220 525f4c4f 434b5f46 52454520 31005f5f  R_LOCK_FREE 1.__
 5230 41544649 4c455f56 49534942 4c452031  ATFILE_VISIBLE 1
 5240 005f6174 65786974 00425350 5f4c4544  ._atexit.BSP_LED
 5250 5f475049 4f205359 5354454d 5f475049  _GPIO SYSTEM_GPI
 5260 4f5f305f 494f5f43 54524c00 4d5f5351  O_0_IO_CTRL.M_SQ
 5270 52543220 312e3431 34323133 35363233  RT2 1.4142135623
 5280 37333039 35303438 3830005f 5f4e554c  7309504880.__NUL
 5290 4c414249 4c495459 5f505241 474d415f  LABILITY_PRAGMA_
 52a0 504f5020 005f5f70 72656469 63745f66  POP .__predict_f
 52b0 616c7365 28657870 29205f5f 6275696c  alse(exp) __buil
 52c0 74696e5f 65787065 63742828 65787029  tin_expect((exp)
 52d0 2c203029 00535953 54454d5f 55415254  , 0).SYSTEM_UART
 52e0 5f305f49 4f5f4354 524c2030 78663830  _0_IO_CTRL 0xf80
 52f0 31303030 30005244 54494d45 48203078  10000.RDTIMEH 0x
 5300 43383100 43415553 455f4d41 4348494e  C81.CAUSE_MACHIN
 5310 455f4558 5445524e 414c2031 31004d53  E_EXTERNAL 11.MS
 5320 54415455 535f5453 52203078 30303430  TATUS_TSR 0x0040
 5330 30303030 005f5f53 5452494e 47287829  0000.__STRING(x)
 5340 20237800 53595354 454d5f52 414d5f41   #x.SYSTEM_RAM_A
 5350 5f53495a 45203635 35333600 5f5f7265  _SIZE 65536.__re
 5360 73756c74 5f757365 5f636865 636b205f  sult_use_check _
 5370 5f617474 72696275 74655f5f 28285f5f  _attribute__((__
 5380 7761726e 5f756e75 7365645f 72657375  warn_unused_resu
 5390 6c745f5f 2929005f 5f494e54 385f5459  lt__)).__INT8_TY
 53a0 50455f5f 20736967 6e656420 63686172  PE__ signed char
 53b0 00535953 54454d5f 4750494f 5f305f49  .SYSTEM_GPIO_0_I
 53c0 4f5f4354 524c5f53 495a4520 30783130  O_CTRL_SIZE 0x10
 53d0 30004249 545f3120 2831203c 3c203129  0.BIT_1 (1 << 1)
 53e0 005f5f46 4c543332 5f4d494e 5f31305f  .__FLT32_MIN_10_
 53f0 4558505f 5f20282d 33372900 4d49505f  EXP__ (-37).MIP_
 5400 53544950 20283120 3c3c2035 29005f5f  STIP (1 << 5).__
 5410 636f756e 74005f5f 474e5543 5f56415f  count.__GNUC_VA_
 5420 4c495354 20005f5f 49534f5f 435f5649  LIST .__ISO_C_VI
 5430 5349424c 45203230 31310049 4e543136  SIBLE 2011.INT16
 5440 5f4d494e 20282d5f 5f494e54 31365f4d  _MIN (-__INT16_M
 5450 41585f5f 202d2031 29005f5f 73697a65  AX__ - 1).__size
 5460 5f74005f 5f464c54 5f44454e 4f524d5f  _t.__FLT_DENORM_
 5470 4d494e5f 5f20312e 34303132 39383436  MIN__ 1.40129846
 5480 34333234 38313730 37303932 33373239  4324817070923729
 5490 35383332 38393931 36313365 2d343546  58328991613e-45F
 54a0 005f5f44 45433332 5f4d414e 545f4449  .__DEC32_MANT_DI
 54b0 475f5f20 37007573 6563005f 4d414348  G__ 7.usec._MACH
 54c0 494e455f 5f444546 41554c54 5f545950  INE__DEFAULT_TYP
 54d0 45535f48 20004d5f 4c4e3220 5f4d5f4c  ES_H .M_LN2 _M_L
 54e0 4e320052 49534356 5f53454d 49484f53  N2.RISCV_SEMIHOS
 54f0 54494e47 5f43414c 4c5f4e55 4d424552  TING_CALL_NUMBER
 5500 2037005f 5f686173 5f666561 74757265   7.__has_feature
 5510 28782920 30005f47 43435f50 54524449  (x) 0._GCC_PTRDI
 5520 46465f54 20005f5f 4c44424c 5f4d414e  FF_T .__LDBL_MAN
 5530 545f4449 475f5f20 31313300 5f5f4c45  T_DIG__ 113.__LE
 5540 41535436 3420226c 6c22005f 5f4c4f43  AST64 "ll".__LOC
 5550 4b5f494e 49542863 6c617373 2c6c6f63  K_INIT(class,loc
 5560 6b292073 74617469 6320696e 74206c6f  k) static int lo
 5570 636b203d 20303b00 75617274 5f777269  ck = 0;.uart_wri
 5580 74654176 61696c61 62696c69 7479005f  teAvailability._
 5590 5f746d5f 77646179 00706c69 635f636c  _tm_wday.plic_cl
 55a0 61696d00 5f5f7369 676e6564 20736967  aim.__signed sig
 55b0 6e656400 53535441 5455535f 58532030  ned.SSTATUS_XS 0
 55c0 78303030 31383030 30005f48 4156455f  x00018000._HAVE_
 55d0 43435f49 4e484942 49545f4c 4f4f505f  CC_INHIBIT_LOOP_
 55e0 544f5f4c 49424341 4c4c2031 005f5f4c  TO_LIBCALL 1.__L
 55f0 4f4e475f 4c4f4e47 5f4d4158 5f5f2030  ONG_LONG_MAX__ 0
 5600 78376666 66666666 66666666 66666666  x7ffffffffffffff
 5610 664c4c00 5f465345 454b5f4f 5054494d  fLL._FSEEK_OPTIM
 5620 495a4154 494f4e20 31004d53 54415455  IZATION 1.MSTATU
 5630 5333325f 53442030 78383030 30303030  S32_SD 0x8000000
 5640 30005f5f 746d5f79 64617900 6273705f  0.__tm_yday.bsp_
 5650 7072696e 74665f58 004d4544 454c4547  printf_X.MEDELEG
 5660 5f494e53 54525543 54494f4e 5f504147  _INSTRUCTION_PAG
 5670 455f4641 554c5420 2831203c 3c203132  E_FAULT (1 << 12
 5680 29005f5f 474e5543 4c494b45 5f425549  ).__GNUCLIKE_BUI
 5690 4c54494e 5f564152 41524753 2031004d  LTIN_VARARGS 1.M
 56a0 5f452032 2e373138 32383138 32383435  _E 2.71828182845
 56b0 39303435 32333534 005f5f46 4c543634  90452354.__FLT64
 56c0 585f4841 535f5155 4945545f 4e414e5f  X_HAS_QUIET_NAN_
 56d0 5f203100 5f5f464c 54313238 5f444947  _ 1.__FLT128_DIG
 56e0 5f5f2033 33005f5f 494e5438 5f432863  __ 33.__INT8_C(c
 56f0 29206300 5f5f7363 616e666c 696b6528  ) c.__scanflike(
 5700 666d7461 72672c66 69727374 76617261  fmtarg,firstvara
 5710 72672920 5f5f6174 74726962 7574655f  rg) __attribute_
 5720 5f28285f 5f666f72 6d61745f 5f20285f  _((__format__ (_
 5730 5f736361 6e665f5f 2c20666d 74617267  _scanf__, fmtarg
 5740 2c206669 72737476 61726172 67292929  , firstvararg)))
 5750 005f5f46 4c543332 5f4d4158 5f5f2033  .__FLT32_MAX__ 3
 5760 2e343032 38323334 36363338 35323838  .402823466385288
 5770 35393831 31373034 31383334 38343531  5981170418348451
 5780 36393235 652b3338 46333200 6273705f  6925e+38F32.bsp_
 5790 7072696e 74665f63 00627370 5f707269  printf_c.bsp_pri
 57a0 6e74665f 64005f45 4c494441 424c455f  ntf_d._ELIDABLE_
 57b0 494e4c49 4e452073 74617469 63205f5f  INLINE static __
 57c0 696e6c69 6e655f5f 005f5f46 4c543634  inline__.__FLT64
 57d0 585f4445 4e4f524d 5f4d494e 5f5f2036  X_DENORM_MIN__ 6
 57e0 2e343735 31373531 31393433 38303235  .475175119438025
 57f0 31313039 32343433 38393538 32323736  1109244389582276
 5800 34363535 652d3439 36364636 3478005f  4655e-4966F64x._
 5810 5f44424c 5f4d494e 5f455850 5f5f2028  _DBL_MIN_EXP__ (
 5820 2d313032 3129005f 5f53495a 455f5420  -1021).__SIZE_T 
 5830 005f5f70 75726520 5f5f6174 74726962  .__pure __attrib
 5840 7574655f 5f28285f 5f707572 655f5f29  ute__((__pure__)
 5850 29005359 5354454d 5f504c49 435f5359  ).SYSTEM_PLIC_SY
 5860 5354454d 5f493243 5f315f49 4f5f494e  STEM_I2C_1_IO_IN
 5870 54455252 55505420 39005f73 65656400  TERRUPT 9._seed.
 5880 5f5f7072 696e7466 306c696b 6528666d  __printf0like(fm
 5890 74617267 2c666972 73747661 72617267  targ,firstvararg
 58a0 29200042 53505f50 4c49435f 4350555f  ) .BSP_PLIC_CPU_
 58b0 30205359 5354454d 5f504c49 435f5359  0 SYSTEM_PLIC_SY
 58c0 5354454d 5f434f52 45535f30 5f455854  STEM_CORES_0_EXT
 58d0 45524e41 4c5f494e 54455252 55505400  ERNAL_INTERRUPT.
 58e0 4249545f 31312028 31203c3c 20313129  BIT_11 (1 << 11)
 58f0 00627370 5f707269 6e74665f 73005f5f  .bsp_printf_s.__
 5900 464c5433 325f4449 475f5f20 36005f73  FLT32_DIG__ 6._s
 5910 65656b00 5f5f5354 44435f48 4f535445  eek.__STDC_HOSTE
 5920 445f5f20 31006273 705f7072 696e7466  D__ 1.bsp_printf
 5930 5f780047 4e552043 31372038 2e332e30  _x.GNU C17 8.3.0
 5940 202d6d61 7263683d 72763332 696d202d   -march=rv32im -
 5950 6d616269 3d696c70 3332202d 6733202d  mabi=ilp32 -g3 -
 5960 4f67005f 5f464c54 3634585f 44454349  Og.__FLT64X_DECI
 5970 4d414c5f 4449475f 5f203336 0055494e  MAL_DIG__ 36.UIN
 5980 544d4158 5f432878 29205f5f 55494e54  TMAX_C(x) __UINT
 5990 4d41585f 43287829 00424954 5f323520  MAX_C(x).BIT_25 
 59a0 2831203c 3c203235 29005f5f 45585000  (1 << 25).__EXP.
 59b0 5f66706f 735f7400 5f5f4c44 424c5f48  _fpos_t.__LDBL_H
 59c0 41535f44 454e4f52 4d5f5f20 31005f5f  AS_DENORM__ 1.__
 59d0 77636862 005f5f46 4c543332 585f4d49  wchb.__FLT32X_MI
 59e0 4e5f5f20 322e3232 35303733 38353835  N__ 2.2250738585
 59f0 30373230 31333833 30393032 33323731  0720138309023271
 5a00 37333332 34303430 36652d33 30384633  733240406e-308F3
 5a10 3278005f 5f424547 494e5f44 45434c53  2x.__BEGIN_DECLS
 5a20 20005359 5354454d 5f504c49 435f5359   .SYSTEM_PLIC_SY
 5a30 5354454d 5f555345 525f5449 4d45525f  STEM_USER_TIMER_
 5a40 305f494e 54455252 55505453 5f302031  0_INTERRUPTS_0 1
 5a50 39005f47 43435f57 43484152 5f542000  9._GCC_WCHAR_T .
 5a60 5f4d5f4c 4e322030 2e363933 31343731  _M_LN2 0.6931471
 5a70 38303535 39393435 33303934 3137005f  80559945309417._
 5a80 5f494e54 5f4c4541 53543332 5f545950  _INT_LEAST32_TYP
 5a90 455f5f20 6c6f6e67 20696e74 005f6d62  E__ long int._mb
 5aa0 746f7763 5f737461 74650042 49545f32  towc_state.BIT_2
 5ab0 36202831 203c3c20 32362900 5f5f5549  6 (1 << 26).__UI
 5ac0 4e545f4c 45415354 36345f4d 41585f5f  NT_LEAST64_MAX__
 5ad0 20307866 66666666 66666666 66666666   0xfffffffffffff
 5ae0 66666655 4c4c005f 5f464c54 3132385f  fffULL.__FLT128_
 5af0 4841535f 494e4649 4e495459 5f5f2031  HAS_INFINITY__ 1
 5b00 005f5f55 494e545f 46415354 36345f4d  .__UINT_FAST64_M
 5b10 41585f5f 20307866 66666666 66666666  AX__ 0xfffffffff
 5b20 66666666 66666655 4c4c005f 5f41544f  fffffffULL.__ATO
 5b30 4d49435f 41435155 49524520 32005f5f  MIC_ACQUIRE 2.__
 5b40 544d505f 464c545f 4556414c 5f4d4554  TMP_FLT_EVAL_MET
 5b50 484f4420 005f5f49 4e545f57 49445448  HOD .__INT_WIDTH
 5b60 5f5f2033 32005f5f 4e45574c 49425f50  __ 32.__NEWLIB_P
 5b70 41544348 4c455645 4c5f5f20 30005f5f  ATCHLEVEL__ 0.__
 5b80 4253445f 56495349 424c4520 31005f5f  BSD_VISIBLE 1.__
 5b90 464c5436 345f4d41 585f5f20 312e3739  FLT64_MAX__ 1.79
 5ba0 37363933 31333438 36323331 35373038  7693134862315708
 5bb0 31343532 37343233 37333137 30343335  1452742373170435
 5bc0 37652b33 30384636 34004249 545f3133  7e+308F64.BIT_13
 5bd0 20283120 3c3c2031 3329005f 5f534947   (1 << 13).__SIG
 5be0 5f41544f 4d49435f 4d41585f 5f203078  _ATOMIC_MAX__ 0x
 5bf0 37666666 66666666 00424954 5f313920  7fffffff.BIT_19 
 5c00 2831203c 3c203139 29005f5f 444f5453  (1 << 19).__DOTS
 5c10 202c202e 2e2e005f 5f444543 36345f4d   , ....__DEC64_M
 5c20 414e545f 4449475f 5f203136 00535953  ANT_DIG__ 16.SYS
 5c30 54454d5f 55415254 5f305f49 4f5f5041  TEM_UART_0_IO_PA
 5c40 52414d45 5445525f 55415254 5f435452  RAMETER_UART_CTR
 5c50 4c5f434f 4e464947 5f504f53 545f5341  L_CONFIG_POST_SA
 5c60 4d504c49 4e475f53 495a4520 32005549  MPLING_SIZE 2.UI
 5c70 4e545f4c 45415354 36345f4d 41582028  NT_LEAST64_MAX (
 5c80 5f5f5549 4e545f4c 45415354 36345f4d  __UINT_LEAST64_M
 5c90 41585f5f 29005f5f 616c6c6f 635f7369  AX__).__alloc_si
 5ca0 7a652878 29205f5f 61747472 69627574  ze(x) __attribut
 5cb0 655f5f28 285f5f61 6c6c6f63 5f73697a  e__((__alloc_siz
 5cc0 655f5f28 78292929 005f5f47 4e55434c  e__(x))).__GNUCL
 5cd0 494b455f 4255494c 54494e5f 434f4e53  IKE_BUILTIN_CONS
 5ce0 54414e54 5f502031 005f5f53 4852545f  TANT_P 1.__SHRT_
 5cf0 4d41585f 5f203078 37666666 005f5245  MAX__ 0x7fff._RE
 5d00 454e545f 57435352 544f4d42 535f5354  ENT_WCSRTOMBS_ST
 5d10 41544528 70747229 20282870 7472292d  ATE(ptr) ((ptr)-
 5d20 3e5f6e65 772e5f72 65656e74 2e5f7763  >_new._reent._wc
 5d30 7372746f 6d62735f 73746174 6529005f  srtombs_state)._
 5d40 5f505452 44494646 5f545950 455f5f20  _PTRDIFF_TYPE__ 
 5d50 696e7400 504c4943 5f50454e 44494e47  int.PLIC_PENDING
 5d60 5f424153 45203078 31303030 005f5f57  _BASE 0x1000.__W
 5d70 494e545f 4d41585f 5f203078 66666666  INT_MAX__ 0xffff
 5d80 66666666 55005541 52545f43 4c4f434b  ffffU.UART_CLOCK
 5d90 5f444956 49444552 20307830 38005f5f  _DIVIDER 0x08.__
 5da0 474e555f 56495349 424c4520 30005f52  GNU_VISIBLE 0._R
 5db0 414e4434 385f4d55 4c545f32 20283078  AND48_MULT_2 (0x
 5dc0 30303035 29005359 5354454d 5f524953  0005).SYSTEM_RIS
 5dd0 43565f49 53415f45 58545f43 2030005f  CV_ISA_EXT_C 0._
 5de0 5245454e 545f5743 544f4d42 5f535441  REENT_WCTOMB_STA
 5df0 54452870 74722920 28287074 72292d3e  TE(ptr) ((ptr)->
 5e00 5f6e6577 2e5f7265 656e742e 5f776374  _new._reent._wct
 5e10 6f6d625f 73746174 6529005f 64736f5f  omb_state)._dso_
 5e20 68616e64 6c65005f 5f494e54 5f464153  handle.__INT_FAS
 5e30 5431365f 54595045 5f5f2069 6e74005f  T16_TYPE__ int._
 5e40 55494e54 4d41585f 545f4445 434c4152  UINTMAX_T_DECLAR
 5e50 45442000 5f504f53 49585f43 5f534f55  ED ._POSIX_C_SOU
 5e60 52434520 32303038 30394c00 5f72616e  RCE 200809L._ran
 5e70 64343800 5f5f5549 4e545f4c 45415354  d48.__UINT_LEAST
 5e80 31365f54 5950455f 5f207368 6f727420  16_TYPE__ short 
 5e90 756e7369 676e6564 20696e74 005f494e  unsigned int._IN
 5ea0 544d4158 5f545f44 45434c41 52454420  TMAX_T_DECLARED 
 5eb0 005f545f 53495a45 20005f5f 43484152  ._T_SIZE .__CHAR
 5ec0 31365f54 5950455f 5f207368 6f727420  16_TYPE__ short 
 5ed0 756e7369 676e6564 20696e74 00535953  unsigned int.SYS
 5ee0 54454d5f 52495343 565f4953 415f5256  TEM_RISCV_ISA_RV
 5ef0 33324920 31004d49 44454c45 475f5355  32I 1.MIDELEG_SU
 5f00 50455256 49534f52 5f54494d 45522028  PERVISOR_TIMER (
 5f10 31203c3c 20352900 5f5f464c 54333258  1 << 5).__FLT32X
 5f20 5f444947 5f5f2031 3500494e 5436345f  _DIG__ 15.INT64_
 5f30 43287829 205f5f49 4e543634 5f432878  C(x) __INT64_C(x
 5f40 29005359 5354454d 5f524953 43565f49  ).SYSTEM_RISCV_I
 5f50 53415f45 58545f41 2030005f 5245454e  SA_EXT_A 0._REEN
 5f60 545f4153 4354494d 455f4255 46287074  T_ASCTIME_BUF(pt
 5f70 72292028 28707472 292d3e5f 6e65772e  r) ((ptr)->_new.
 5f80 5f726565 6e742e5f 61736374 696d655f  _reent._asctime_
 5f90 62756629 005f5f68 69646465 6e205f5f  buf).__hidden __
 5fa0 61747472 69627574 655f5f28 285f5f76  attribute__((__v
 5fb0 69736962 696c6974 795f5f28 22686964  isibility__("hid
 5fc0 64656e22 29292900 53595354 454d5f52  den"))).SYSTEM_R
 5fd0 49534356 5f495341 5f455854 5f4d2031  ISCV_ISA_EXT_M 1
 5fe0 005f5f46 494e4954 455f4d41 54485f4f  .__FINITE_MATH_O
 5ff0 4e4c595f 5f203000 5f5f494e 545f4641  NLY__ 0.__INT_FA
 6000 53543136 5f4d4158 5f5f2030 78376666  ST16_MAX__ 0x7ff
 6010 66666666 66005f5f 68617665 5f6c6f6e  fffff.__have_lon
 6020 676c6f6e 67363420 3100454e 41424c45  glong64 1.ENABLE
 6030 5f505452 44494646 5f535550 504f5254  _PTRDIFF_SUPPORT
 6040 20300053 59535445 4d5f5541 52545f30   0.SYSTEM_UART_0
 6050 5f494f5f 50415241 4d455445 525f494e  _IO_PARAMETER_IN
 6060 49545f43 4f4e4649 475f5041 52495459  IT_CONFIG_PARITY
 6070 204e4f4e 45005359 5354454d 5f434c49   NONE.SYSTEM_CLI
 6080 4e545f43 54524c20 30786638 62303030  NT_CTRL 0xf8b000
 6090 3030005f 626c6b73 697a6500 5f5f7269  00._blksize.__ri
 60a0 7363765f 786c656e 20333200 5f524545  scv_xlen 32._REE
 60b0 4e545f4d 505f5035 53287074 72292028  NT_MP_P5S(ptr) (
 60c0 28707472 292d3e5f 70357329 005f5549  (ptr)->_p5s)._UI
 60d0 4e545054 525f545f 4445434c 41524544  NTPTR_T_DECLARED
 60e0 20004d5f 325f5351 52545049 20312e31   .M_2_SQRTPI 1.1
 60f0 32383337 39313637 30393535 31323537  2837916709551257
 6100 33393000 53595354 454d5f55 4152545f  390.SYSTEM_UART_
 6110 415f4150 42205359 5354454d 5f554152  A_APB SYSTEM_UAR
 6120 545f305f 494f5f41 5042005f 62617365  T_0_IO_APB._base
 6130 005f5f55 494e5450 54525f4d 41585f5f  .__UINTPTR_MAX__
 6140 20307866 66666666 66666655 00646174   0xffffffffU.dat
 6150 615f6361 6368655f 696e7661 6c696461  a_cache_invalida
 6160 74655f61 64647265 73732861 64647265  te_address(addre
 6170 73732920 287b2061 736d2076 6f6c6174  ss) ({ asm volat
 6180 696c6528 20222e77 6f726420 28283078  ile( ".word ((0x
 6190 35303046 29207c20 28726567 6e756d5f  500F) | (regnum_
 61a0 2530203c 3c203135 29293b22 203a203a  %0 << 15));" : :
 61b0 20227222 20286164 64726573 73292029   "r" (address) )
 61c0 3b207d29 005f4d41 54485f48 5f200053  ; })._MATH_H_ .S
 61d0 59535445 4d5f5541 52545f30 5f494f5f  YSTEM_UART_0_IO_
 61e0 50415241 4d455445 525f494e 49545f43  PARAMETER_INIT_C
 61f0 4f4e4649 475f4241 55445241 54452031  ONFIG_BAUDRATE 1
 6200 31353230 30004d5f 3350495f 3420322e  15200.M_3PI_4 2.
 6210 33353631 39343439 30313932 33343438  3561944901923448
 6220 33373045 30005f5f 49454545 5f4c4954  370E0.__IEEE_LIT
 6230 544c455f 454e4449 414e2000 53595354  TLE_ENDIAN .SYST
 6240 454d5f55 4152545f 305f494f 5f504152  EM_UART_0_IO_PAR
 6250 414d4554 45525f49 4e49545f 434f4e46  AMETER_INIT_CONF
 6260 49475f44 4154415f 4c454e47 54482037  IG_DATA_LENGTH 7
 6270 005f5f43 435f5355 50504f52 54535f56  .__CC_SUPPORTS_V
 6280 41524144 49435f58 58582031 005f5245  ARADIC_XXX 1._RE
 6290 454e545f 544d2870 74722920 28262870  ENT_TM(ptr) (&(p
 62a0 7472292d 3e5f6e65 772e5f72 65656e74  tr)->_new._reent
 62b0 2e5f6c6f 63616c74 696d655f 62756629  ._localtime_buf)
 62c0 00535953 54454d5f 55415254 5f305f49  .SYSTEM_UART_0_I
 62d0 4f5f5041 52414d45 5445525f 55415254  O_PARAMETER_UART
 62e0 5f435452 4c5f434f 4e464947 5f444154  _CTRL_CONFIG_DAT
 62f0 415f5749 4454485f 4d415820 38005f5f  A_WIDTH_MAX 8.__
 6300 6172675f 74797065 5f746167 28617267  arg_type_tag(arg
 6310 5f6b696e 642c6172 675f6964 782c7479  _kind,arg_idx,ty
 6320 70655f74 61675f69 64782920 00424954  pe_tag_idx) .BIT
 6330 5f372028 31203c3c 20372900 5f5f636f  _7 (1 << 7).__co
 6340 6e746169 6e65726f 6628782c 732c6d29  ntainerof(x,s,m)
 6350 20287b20 636f6e73 7420766f 6c617469   ({ const volati
 6360 6c65205f 5f747970 656f6628 28287320  le __typeof(((s 
 6370 2a293029 2d3e6d29 202a5f5f 78203d20  *)0)->m) *__x = 
 6380 2878293b 205f5f44 45515541 4c494659  (x); __DEQUALIFY
 6390 2873202a 2c202863 6f6e7374 20766f6c  (s *, (const vol
 63a0 6174696c 65206368 6172202a 295f5f78  atile char *)__x
 63b0 202d205f 5f6f6666 7365746f 6628732c   - __offsetof(s,
 63c0 206d2929 3b7d2900 5f5f6c6f 636b5f63   m));}).__lock_c
 63d0 6c6f7365 5f726563 75727369 7665286c  lose_recursive(l
 63e0 6f636b29 20282876 6f696429 20302900  ock) ((void) 0).
 63f0 5f425344 5f53495a 455f545f 20005f5f  _BSD_SIZE_T_ .__
 6400 696e7432 305f5f20 2b32005f 5f6e6f5f  int20__ +2.__no_
 6410 6c6f636b 5f616e61 6c797369 73205f5f  lock_analysis __
 6420 6c6f636b 5f616e6e 6f746174 65286e6f  lock_annotate(no
 6430 5f746872 6561645f 73616665 74795f61  _thread_safety_a
 6440 6e616c79 73697329 00475049 4f5f4f55  nalysis).GPIO_OU
 6450 54505554 5f454e41 424c4520 30783038  TPUT_ENABLE 0x08
 6460 005f666c 6f636b5f 74005f52 45454e54  ._flock_t._REENT
 6470 5f535444 494f5f53 54524541 4d287661  _STDIO_STREAM(va
 6480 722c696e 64657829 20262876 6172292d  r,index) &(var)-
 6490 3e5f5f73 665b696e 6465785d 005f5f46  >__sf[index].__F
 64a0 494c4500 48554745 5f56414c 4620285f  ILE.HUGE_VALF (_
 64b0 5f627569 6c74696e 5f687567 655f7661  _builtin_huge_va
 64c0 6c662829 29005f42 4547494e 5f535444  lf())._BEGIN_STD
 64d0 5f432000 5f5f7661 5f636f70 7928642c  _C .__va_copy(d,
 64e0 7329205f 5f627569 6c74696e 5f76615f  s) __builtin_va_
 64f0 636f7079 28642c73 29004d53 54415455  copy(d,s).MSTATU
 6500 535f4d50 50203078 30303030 31383030  S_MPP 0x00001800
 6510 005f434c 4f434b49 445f545f 20756e73  ._CLOCKID_T_ uns
 6520 69676e65 64206c6f 6e67005f 5245454e  igned long._REEN
 6530 545f4348 45434b5f 544d2870 74722920  T_CHECK_TM(ptr) 
 6540 004d5354 41545553 5f485049 45203078  .MSTATUS_HPIE 0x
 6550 30303030 30303430 005f6d62 73746174  00000040._mbstat
 6560 655f7400 5f5f494e 545f5743 4841525f  e_t.__INT_WCHAR_
 6570 545f4820 00475049 4f5f494e 54455252  T_H .GPIO_INTERR
 6580 5550545f 46414c4c 5f454e41 424c4520  UPT_FALL_ENABLE 
 6590 30783234 00535953 54454d5f 504c4943  0x24.SYSTEM_PLIC
 65a0 5f535953 54454d5f 4750494f 5f305f49  _SYSTEM_GPIO_0_I
 65b0 4f5f494e 54455252 55505453 5f302031  O_INTERRUPTS_0 1
 65c0 32005f72 3438005f 5f454c46 5f5f2031  2._r48.__ELF__ 1
 65d0 005f5f47 4e55434c 494b455f 43544f52  .__GNUCLIKE_CTOR
 65e0 5f534543 54494f4e 5f48414e 444c494e  _SECTION_HANDLIN
 65f0 47203100 53595354 454d5f55 4152545f  G 1.SYSTEM_UART_
 6600 305f494f 5f504152 414d4554 45525f52  0_IO_PARAMETER_R
 6610 585f4649 464f5f44 45505448 20313238  X_FIFO_DEPTH 128
 6620 005f7075 74636861 72004253 505f434c  ._putchar.BSP_CL
 6630 494e545f 485a2053 59535445 4d5f434c  INT_HZ SYSTEM_CL
 6640 494e545f 485a0050 4d505f52 20307830  INT_HZ.PMP_R 0x0
 6650 31004750 494f5f49 4e544552 52555054  1.GPIO_INTERRUPT
 6660 5f4c4f57 5f454e41 424c4520 30783263  _LOW_ENABLE 0x2c
 6670 005f5f44 424c5f4d 494e5f5f 20282864  .__DBL_MIN__ ((d
 6680 6f75626c 6529322e 32323530 37333835  ouble)2.22507385
 6690 38353037 32303133 38333039 30323332  8507201383090232
 66a0 37313733 33323430 34303665 2d333038  71733240406e-308
 66b0 4c29005f 5f464c54 3634585f 4d494e5f  L).__FLT64X_MIN_
 66c0 5f20332e 33363231 30333134 33313132  _ 3.362103143112
 66d0 30393335 30363236 32363737 38313733  0935062626778173
 66e0 32313735 32363065 2d343933 32463634  2175260e-4932F64
 66f0 78005f41 4e53495f 53544441 52475f48  x._ANSI_STDARG_H
 6700 5f200070 6c69635f 7365745f 74687265  _ .plic_set_thre
 6710 73686f6c 64005549 4e543634 5f432878  shold.UINT64_C(x
 6720 29205f5f 55494e54 36345f43 28782900  ) __UINT64_C(x).
 6730 5f5f6c6f 636b5f69 6e697428 6c6f636b  __lock_init(lock
 6740 29202828 766f6964 29203029 005f6461  ) ((void) 0)._da
 6750 74610042 49545f30 20283120 3c3c2030  ta.BIT_0 (1 << 0
 6760 29005f5f 474e5543 5f4d494e 4f525f5f  ).__GNUC_MINOR__
 6770 2033005f 5f6c6f63 6b5f7265 6c656173   3.__lock_releas
 6780 655f7265 63757273 69766528 6c6f636b  e_recursive(lock
 6790 29202828 766f6964 29203029 005f5f55  ) ((void) 0).__U
 67a0 494e545f 4c454153 5433325f 54595045  INT_LEAST32_TYPE
 67b0 5f5f206c 6f6e6720 756e7369 676e6564  __ long unsigned
 67c0 20696e74 005f5f4c 44424c5f 4d494e5f   int.__LDBL_MIN_
 67d0 31305f45 58505f5f 20282d34 39333129  10_EXP__ (-4931)
 67e0 00504c49 435f434f 4e544558 545f5045  .PLIC_CONTEXT_PE
 67f0 525f4841 52542030 78313030 30005f5f  R_HART 0x1000.__
 6800 72657175 69726573 5f657863 6c757369  requires_exclusi
 6810 7665282e 2e2e2920 5f5f6c6f 636b5f61  ve(...) __lock_a
 6820 6e6e6f74 61746528 6578636c 75736976  nnotate(exclusiv
 6830 655f6c6f 636b735f 72657175 69726564  e_locks_required
 6840 285f5f56 415f4152 47535f5f 2929005f  (__VA_ARGS__))._
 6850 52414e44 34385f4d 554c545f 31202830  RAND48_MULT_1 (0
 6860 78646565 6329005f 5f494e54 4d41585f  xdeec).__INTMAX_
 6870 54595045 5f5f206c 6f6e6720 6c6f6e67  TYPE__ long long
 6880 20696e74 005f5f47 43435f41 544f4d49   int.__GCC_ATOMI
 6890 435f494e 545f4c4f 434b5f46 52454520  C_INT_LOCK_FREE 
 68a0 31007368 6f727400 53595354 454d5f43  1.short.SYSTEM_C
 68b0 4f524553 5f305f46 50552030 005f5f46  ORES_0_FPU 0.__F
 68c0 4c543332 585f4550 53494c4f 4e5f5f20  LT32X_EPSILON__ 
 68d0 322e3232 30343436 30343932 35303331  2.22044604925031
 68e0 33303830 38343732 36333333 36313831  3080847263336181
 68f0 36343036 32652d31 36463332 78005f47  64062e-16F32x._G
 6900 43435f4d 41585f41 4c49474e 5f542000  CC_MAX_ALIGN_T .
 6910 4253505f 55415254 5f544552 4d494e41  BSP_UART_TERMINA
 6920 4c205359 5354454d 5f554152 545f305f  L SYSTEM_UART_0_
 6930 494f5f43 54524c00 5f535452 494e4753  IO_CTRL._STRINGS
 6940 5f485f20 005f5349 5a45545f 20005f53  _H_ ._SIZET_ ._S
 6950 54444c49 425f485f 20005f5f 44424c5f  TDLIB_H_ .__DBL_
 6960 4841535f 51554945 545f4e41 4e5f5f20  HAS_QUIET_NAN__ 
 6970 31006973 6c657373 285f5f78 2c5f5f79  1.isless(__x,__y
 6980 2920285f 5f627569 6c74696e 5f69736c  ) (__builtin_isl
 6990 65737320 285f5f78 2c205f5f 79292900  ess (__x, __y)).
 69a0 494e5433 325f4328 7829205f 5f494e54  INT32_C(x) __INT
 69b0 33325f43 28782900 53595354 454d5f47  32_C(x).SYSTEM_G
 69c0 50494f5f 415f4150 42205359 5354454d  PIO_A_APB SYSTEM
 69d0 5f475049 4f5f305f 494f5f41 5042005f  _GPIO_0_IO_APB._
 69e0 4e4f494e 4c494e45 5f535441 54494320  NOINLINE_STATIC 
 69f0 5f4e4f49 4e4c494e 45207374 61746963  _NOINLINE static
 6a00 0046505f 4e4f524d 414c2034 005f5f63  .FP_NORMAL 4.__c
 6a10 6f6e7374 20636f6e 73740055 494e545f  onst const.UINT_
 6a20 4c454153 5433325f 4d415820 285f5f55  LEAST32_MAX (__U
 6a30 494e545f 4c454153 5433325f 4d41585f  INT_LEAST32_MAX_
 6a40 5f29005f 5f434f50 59524947 48542873  _).__COPYRIGHT(s
 6a50 29207374 72756374 205f5f68 61636b00  ) struct __hack.
 6a60 5f524545 4e545f43 4845434b 5f454d45  _REENT_CHECK_EME
 6a70 5247454e 43592870 74722920 005f5f46  RGENCY(ptr) .__F
 6a80 4c543132 385f4445 4e4f524d 5f4d494e  LT128_DENORM_MIN
 6a90 5f5f2036 2e343735 31373531 31393433  __ 6.47517511943
 6aa0 38303235 31313039 32343433 38393538  8025110924438958
 6ab0 32323736 34363535 652d3439 36364631  22764655e-4966F1
 6ac0 32380063 72617368 00636861 72202b30  28.crash.char +0
 6ad0 0055494e 545f4641 53543332 5f4d4158  .UINT_FAST32_MAX
 6ae0 20285f5f 55494e54 5f464153 5433325f   (__UINT_FAST32_
 6af0 4d41585f 5f290063 73725f73 77617028  MAX__).csr_swap(
 6b00 6373722c 76616c29 20287b20 756e7369  csr,val) ({ unsi
 6b10 676e6564 206c6f6e 67205f5f 76203d20  gned long __v = 
 6b20 28756e73 69676e65 64206c6f 6e672928  (unsigned long)(
 6b30 76616c29 3b205f5f 61736d5f 5f205f5f  val); __asm__ __
 6b40 766f6c61 74696c65 5f5f2028 22637372  volatile__ ("csr
 6b50 72772025 302c2022 20236373 7220222c  rw %0, " #csr ",
 6b60 20253122 203a2022 3d722220 285f5f76   %1" : "=r" (__v
 6b70 29203a20 22724b22 20285f5f 7629293b  ) : "rK" (__v));
 6b80 205f5f76 3b207d29 005f5f55 494e5450   __v; }).__UINTP
 6b90 54525f54 5950455f 5f20756e 7369676e  TR_TYPE__ unsign
 6ba0 65642069 6e74005f 5f524547 49535445  ed int.__REGISTE
 6bb0 525f5052 45464958 5f5f2000 5f5f4445  R_PREFIX__ .__DE
 6bc0 43313238 5f535542 4e4f524d 414c5f4d  C128_SUBNORMAL_M
 6bd0 494e5f5f 20302e30 30303030 30303030  IN__ 0.000000000
 6be0 30303030 30303030 30303030 30303030  0000000000000000
 6bf0 30303030 30303031 452d3631 3433444c  00000001E-6143DL
 6c00 005f5f44 424c5f44 49475f5f 20313500  .__DBL_DIG__ 15.
 6c10 5f55494e 5431365f 545f4445 434c4152  _UINT16_T_DECLAR
 6c20 45442000 5f5f5243 53494428 73292073  ED .__RCSID(s) s
 6c30 74727563 74205f5f 6861636b 005f5f53  truct __hack.__S
 6c40 495a454f 465f5349 5a455f54 5f5f2034  IZEOF_SIZE_T__ 4
 6c50 00524454 494d4520 30784330 3100666f  .RDTIME 0xC01.fo
 6c60 726d6174 005f5f55 494e5436 345f5459  rmat.__UINT64_TY
 6c70 50455f5f 206c6f6e 67206c6f 6e672075  PE__ long long u
 6c80 6e736967 6e656420 696e7400 5f5f464c  nsigned int.__FL
 6c90 5436345f 45505349 4c4f4e5f 5f20322e  T64_EPSILON__ 2.
 6ca0 32323034 34363034 39323530 33313330  2204460492503130
 6cb0 38303834 37323633 33333631 38313634  8084726333618164
 6cc0 30363265 2d313646 36340053 59535445  062e-16F64.SYSTE
 6cd0 4d5f424d 425f5045 52495048 4552414c  M_BMB_PERIPHERAL
 6ce0 5f424d42 5f53495a 45203078 31303030  _BMB_SIZE 0x1000
 6cf0 30303000 5f5f454e 445f4445 434c5320  000.__END_DECLS 
 6d00 005f5f64 61746174 7970655f 74797065  .__datatype_type
 6d10 5f746167 286b696e 642c7479 70652920  _tag(kind,type) 
 6d20 00535953 54454d5f 55415254 5f305f49  .SYSTEM_UART_0_I
 6d30 4f5f4354 524c5f53 495a4520 30783430  O_CTRL_SIZE 0x40
 6d40 005f5f61 6c69676e 65642878 29205f5f  .__aligned(x) __
 6d50 61747472 69627574 655f5f28 285f5f61  attribute__((__a
 6d60 6c69676e 65645f5f 28782929 2900756e  ligned__(x))).un
 6d70 7369676e 6564005f 6d626c65 6e5f7374  signed._mblen_st
 6d80 61746500 6273705f 7072696e 74486578  ate.bsp_printHex
 6d90 00554152 545f5354 41545553 20307830  .UART_STATUS 0x0
 6da0 34004d53 54415455 535f5550 49452030  4.MSTATUS_UPIE 0
 6db0 78303030 30303031 30005f53 5452494e  x00000010._STRIN
 6dc0 475f485f 20005f5f 70745f67 75617264  G_H_ .__pt_guard
 6dd0 65645f62 79287829 205f5f6c 6f636b5f  ed_by(x) __lock_
 6de0 616e6e6f 74617465 2870745f 67756172  annotate(pt_guar
 6df0 6465645f 62792878 2929005f 5f677561  ded_by(x)).__gua
 6e00 72646564 5f627928 7829205f 5f6c6f63  rded_by(x) __loc
 6e10 6b5f616e 6e6f7461 74652867 75617264  k_annotate(guard
 6e20 65645f62 79287829 29007661 5f617267  ed_by(x)).va_arg
 6e30 28762c6c 29205f5f 6275696c 74696e5f  (v,l) __builtin_
 6e40 76615f61 72672876 2c6c2900 5f535953  va_arg(v,l)._SYS
 6e50 5f53495a 455f545f 4820005f 5f55494e  _SIZE_T_H .__UIN
 6e60 5431365f 43286329 2063005f 5f464c54  T16_C(c) c.__FLT
 6e70 36345f4d 494e5f45 58505f5f 20282d31  64_MIN_EXP__ (-1
 6e80 30323129 005f5f53 495a454f 465f5054  021).__SIZEOF_PT
 6e90 52444946 465f545f 5f203400 5f5f4343  RDIFF_T__ 4.__CC
 6ea0 5f535550 504f5254 535f5f5f 494e4c49  _SUPPORTS___INLI
 6eb0 4e455f5f 2031005f 5f4c4541 53543136  NE__ 1.__LEAST16
 6ec0 20226822 005f5f70 72696e74 666c696b   "h".__printflik
 6ed0 6528666d 74617267 2c666972 73747661  e(fmtarg,firstva
 6ee0 72617267 29205f5f 61747472 69627574  rarg) __attribut
 6ef0 655f5f28 285f5f66 6f726d61 745f5f20  e__((__format__ 
 6f00 285f5f70 72696e74 665f5f2c 20666d74  (__printf__, fmt
 6f10 6172672c 20666972 73747661 72617267  arg, firstvararg
 6f20 29292900 494e5450 54525f4d 41582028  ))).INTPTR_MAX (
 6f30 5f5f494e 54505452 5f4d4158 5f5f2900  __INTPTR_MAX__).
 6f40 5f5f6661 73746361 6c6c205f 5f617474  __fastcall __att
 6f50 72696275 74655f5f 28285f5f 66617374  ribute__((__fast
 6f60 63616c6c 5f5f2929 00494e54 36345f4d  call__)).INT64_M
 6f70 494e2028 2d5f5f49 4e543634 5f4d4158  IN (-__INT64_MAX
 6f80 5f5f202d 20312900 5f5f464c 54363458  __ - 1).__FLT64X
 6f90 5f4d4158 5f455850 5f5f2031 36333834  _MAX_EXP__ 16384
 6fa0 005f5245 454e545f 5349474e 414c5f42  ._REENT_SIGNAL_B
 6fb0 55462870 74722920 28287074 72292d3e  UF(ptr) ((ptr)->
 6fc0 5f6e6577 2e5f7265 656e742e 5f736967  _new._reent._sig
 6fd0 6e616c5f 62756629 005f5f41 544f4d49  nal_buf).__ATOMI
 6fe0 435f5245 4c415845 44203000 5f415454  C_RELAXED 0._ATT
 6ff0 52494255 54452861 74747273 29205f5f  RIBUTE(attrs) __
 7000 61747472 69627574 655f5f20 28617474  attribute__ (att
 7010 72732900 5f5f7265 71756972 65735f73  rs).__requires_s
 7020 68617265 64282e2e 2e29205f 5f6c6f63  hared(...) __loc
 7030 6b5f616e 6e6f7461 74652873 68617265  k_annotate(share
 7040 645f6c6f 636b735f 72657175 69726564  d_locks_required
 7050 285f5f56 415f4152 47535f5f 2929005f  (__VA_ARGS__))._
 7060 4b6d6178 20287369 7a656f66 20287369  Kmax (sizeof (si
 7070 7a655f74 29203c3c 20332900 5f5f4442  ze_t) << 3).__DB
 7080 4c5f4841 535f494e 46494e49 54595f5f  L_HAS_INFINITY__
 7090 20310050 4d505f4e 41342030 78313000   1.PMP_NA4 0x10.
 70a0 55494e54 5f464153 5436345f 4d415820  UINT_FAST64_MAX 
 70b0 285f5f55 494e545f 46415354 36345f4d  (__UINT_FAST64_M
 70c0 41585f5f 29005549 4e543634 5f4d4158  AX__).UINT64_MAX
 70d0 20285f5f 55494e54 36345f4d 41585f5f   (__UINT64_MAX__
 70e0 29005549 4e545f4c 45415354 385f4d41  ).UINT_LEAST8_MA
 70f0 5820285f 5f55494e 545f4c45 41535438  X (__UINT_LEAST8
 7100 5f4d4158 5f5f2900 4249545f 36202831  _MAX__).BIT_6 (1
 7110 203c3c20 3629005f 5f72616e 67656f66   << 6).__rangeof
 7120 28747970 652c7374 6172742c 656e6429  (type,start,end)
 7130 20285f5f 6f666673 65746f66 28747970   (__offsetof(typ
 7140 652c2065 6e642920 2d205f5f 6f666673  e, end) - __offs
 7150 65746f66 28747970 652c2073 74617274  etof(type, start
 7160 29290073 75626f70 74617267 005f5f47  )).suboptarg.__G
 7170 4e55434c 494b455f 5f5f4f46 46534554  NUCLIKE___OFFSET
 7180 4f462031 00697367 72656174 65726571  OF 1.isgreatereq
 7190 75616c28 5f5f782c 5f5f7929 20285f5f  ual(__x,__y) (__
 71a0 6275696c 74696e5f 69736772 65617465  builtin_isgreate
 71b0 72657175 616c2028 5f5f782c 205f5f79  requal (__x, __y
 71c0 2929005f 5f53495a 454f465f 464c4f41  )).__SIZEOF_FLOA
 71d0 545f5f20 34005549 4e54385f 43287829  T__ 4.UINT8_C(x)
 71e0 205f5f55 494e5438 5f432878 29005f5f   __UINT8_C(x).__
 71f0 44454336 345f4d49 4e5f5f20 31452d33  DEC64_MIN__ 1E-3
 7200 38334444 00524449 4e535452 45544820  83DD.RDINSTRETH 
 7210 30784338 32006770 696f5f73 65744f75  0xC82.gpio_setOu
 7220 74707574 005f6d61 78776473 005f5f68  tput._maxwds.__h
 7230 6176655f 6c6f6e67 33322031 005f474c  ave_long32 1._GL
 7240 4f42414c 5f524545 4e54205f 676c6f62  OBAL_REENT _glob
 7250 616c5f69 6d707572 655f7074 72005f4e  al_impure_ptr._N
 7260 554c4c20 30005f5f 666c6578 61727220  ULL 0.__flexarr 
 7270 5b305d00 6d636175 7365005f 5f746d5f  [0].mcause.__tm_
 7280 79656172 005f5245 41445f57 52495445  year._READ_WRITE
 7290 5f524554 55524e5f 54595045 205f7373  _RETURN_TYPE _ss
 72a0 697a655f 74005f5f 494e5431 365f4d41  ize_t.__INT16_MA
 72b0 585f5f20 30783766 6666005f 5f726973  X__ 0x7fff.__ris
 72c0 63765f6d 756c2031 00535953 54454d5f  cv_mul 1.SYSTEM_
 72d0 4932435f 305f494f 5f435452 4c5f5349  I2C_0_IO_CTRL_SI
 72e0 5a452030 78313030 005f5f44 45564f4c  ZE 0x100.__DEVOL
 72f0 4154494c 45287479 70652c76 61722920  ATILE(type,var) 
 7300 28287479 70652928 5f5f7569 6e747074  ((type)(__uintpt
 7310 725f7429 28766f6c 6174696c 6520766f  r_t)(volatile vo
 7320 6964202a 29287661 72292900 5f5f5743  id *)(var)).__WC
 7330 4841525f 545f5f20 005f5f53 53505f46  HAR_T__ .__SSP_F
 7340 4f525449 46595f4c 4556454c 2030005f  ORTIFY_LEVEL 0._
 7350 5f474e55 434c494b 455f4255 494c5449  _GNUCLIKE_BUILTI
 7360 4e5f5354 44415247 2031005f 5f53495a  N_STDARG 1.__SIZ
 7370 455f545f 5f20005f 5f585349 5f564953  E_T__ .__XSI_VIS
 7380 49424c45 2030005f 72657375 6c745f6b  IBLE 0._result_k
 7390 005f5f46 4c543132 385f4d41 4e545f44  .__FLT128_MANT_D
 73a0 49475f5f 20313133 005f5f73 7472666d  IG__ 113.__strfm
 73b0 6f6e6c69 6b652866 6d746172 672c6669  onlike(fmtarg,fi
 73c0 72737476 61726172 6729205f 5f617474  rstvararg) __att
 73d0 72696275 74655f5f 28285f5f 666f726d  ribute__((__form
 73e0 61745f5f 20285f5f 73747266 6d6f6e5f  at__ (__strfmon_
 73f0 5f2c2066 6d746172 672c2066 69727374  _, fmtarg, first
 7400 76617261 72672929 29004d5f 49564c4e  vararg))).M_IVLN
 7410 31302030 2e343334 32393434 38313930  10 0.43429448190
 7420 33323531 38323736 35005f5f 46415354  325182765.__FAST
 7430 33322000 5f5f5349 475f4154 4f4d4943  32 .__SIG_ATOMIC
 7440 5f574944 54485f5f 20333200 5f5f474e  _WIDTH__ 32.__GN
 7450 55435f50 52455245 515f5f28 6d612c6d  UC_PREREQ__(ma,m
 7460 6929205f 5f474e55 435f5052 45524551  i) __GNUC_PREREQ
 7470 286d612c 206d6929 005f5f65 78706f72  (ma, mi).__expor
 7480 74656420 5f5f6174 74726962 7574655f  ted __attribute_
 7490 5f28285f 5f766973 6962696c 6974795f  _((__visibility_
 74a0 5f282264 65666175 6c742229 2929005f  _("default")))._
 74b0 5f707572 6532205f 5f617474 72696275  _pure2 __attribu
 74c0 74655f5f 28285f5f 636f6e73 745f5f29  te__((__const__)
 74d0 29005f5f 46425344 49442873 29207374  ).__FBSDID(s) st
 74e0 72756374 205f5f68 61636b00 76615f65  ruct __hack.va_e
 74f0 6e642876 29205f5f 6275696c 74696e5f  nd(v) __builtin_
 7500 76615f65 6e642876 29005f5f 756e7265  va_end(v).__unre
 7510 61636861 626c6528 29205f5f 6275696c  achable() __buil
 7520 74696e5f 756e7265 61636861 626c6528  tin_unreachable(
 7530 29005f6c 62667369 7a650053 59535445  )._lbfsize.SYSTE
 7540 4d5f4932 435f315f 494f5f43 54524c20  M_I2C_1_IO_CTRL 
 7550 30786638 30313830 3030005f 5f4c4f43  0xf8018000.__LOC
 7560 4b5f494e 49545f52 45435552 53495645  K_INIT_RECURSIVE
 7570 28636c61 73732c6c 6f636b29 20737461  (class,lock) sta
 7580 74696320 696e7420 6c6f636b 203d2030  tic int lock = 0
 7590 3b005f5f 53495a45 4f465f57 494e545f  ;.__SIZEOF_WINT_
 75a0 545f5f20 34005f69 6e64005f 554e4255  T__ 4._ind._UNBU
 75b0 465f5354 5245414d 5f4f5054 20310067  F_STREAM_OPT 1.g
 75c0 61746577 6179005f 5f6c6f63 6b735f73  ateway.__locks_s
 75d0 68617265 64282e2e 2e29205f 5f6c6f63  hared(...) __loc
 75e0 6b5f616e 6e6f7461 74652873 68617265  k_annotate(share
 75f0 645f6c6f 636b5f66 756e6374 696f6e28  d_lock_function(
 7600 5f5f5641 5f415247 535f5f29 29005f5f  __VA_ARGS__)).__
 7610 474e5543 4c494b45 5f41534d 20330047  GNUCLIKE_ASM 3.G
 7620 50494f30 20535953 54454d5f 4750494f  PIO0 SYSTEM_GPIO
 7630 5f305f49 4f5f4354 524c005f 5f494e54  _0_IO_CTRL.__INT
 7640 5f464153 54385f4d 41585f5f 20307837  _FAST8_MAX__ 0x7
 7650 66666666 66666600 5f5f464c 5433325f  fffffff.__FLT32_
 7660 4841535f 44454e4f 524d5f5f 2031004d  HAS_DENORM__ 1.M
 7670 4158464c 4f415420 332e3430 32383233  AXFLOAT 3.402823
 7680 3437652b 33384600 46505f49 4c4f4742  47e+38F.FP_ILOGB
 7690 3020282d 5f5f494e 545f4d41 585f5f29  0 (-__INT_MAX__)
 76a0 005f5f46 41535438 20005f52 45454e54  .__FAST8 ._REENT
 76b0 5f534947 4e47414d 28707472 29202828  _SIGNGAM(ptr) ((
 76c0 70747229 2d3e5f6e 65772e5f 7265656e  ptr)->_new._reen
 76d0 742e5f67 616d6d61 5f736967 6e67616d  t._gamma_signgam
 76e0 29005f4d 41434849 4e455f5f 54595045  )._MACHINE__TYPE
 76f0 535f4820 005f5f49 4e545f46 41535433  S_H .__INT_FAST3
 7700 325f5749 4454485f 5f203332 005f4e45  2_WIDTH__ 32._NE
 7710 574c4942 5f564552 53494f4e 2022332e  WLIB_VERSION "3.
 7720 312e3022 005f5241 4e443438 5f4d554c  1.0"._RAND48_MUL
 7730 545f3020 28307865 36366429 005f6973  T_0 (0xe66d)._is
 7740 5f637861 005f5f47 4e55434c 494b455f  _cxa.__GNUCLIKE_
 7750 4255494c 54494e5f 5641414c 49535420  BUILTIN_VAALIST 
 7760 31005f5f 53495a45 4f465f4c 4f4e475f  1.__SIZEOF_LONG_
 7770 444f5542 4c455f5f 20313600 4d49455f  DOUBLE__ 16.MIE_
 7780 4d544945 20283120 3c3c2043 41555345  MTIE (1 << CAUSE
 7790 5f4d4143 48494e45 5f54494d 45522900  _MACHINE_TIMER).
 77a0 5f6e6578 7466005f 5f494e54 33322022  _nextf.__INT32 "
 77b0 6c22005f 5f6c6f63 6b5f616e 6e6f7461  l".__lock_annota
 77c0 74652878 29200052 44494e53 54524554  te(x) .RDINSTRET
 77d0 20307843 30320073 7472746f 64662073   0xC02.strtodf s
 77e0 7472746f 66005f5f 464c5431 32385f4d  trtof.__FLT128_M
 77f0 41585f5f 20312e31 38393733 31343935  AX__ 1.189731495
 7800 33353732 33313736 35303835 37353933  3572317650857593
 7810 32363632 38303037 3032652b 34393332  2662800702e+4932
 7820 46313238 005f5f55 494e5433 325f5459  F128.__UINT32_TY
 7830 50455f5f 206c6f6e 6720756e 7369676e  PE__ long unsign
 7840 65642069 6e74005f 5f474e55 434c494b  ed int.__GNUCLIK
 7850 455f4d41 54485f42 55494c54 494e5f43  E_MATH_BUILTIN_C
 7860 4f4e5354 414e5453 2000454e 41424c45  ONSTANTS .ENABLE
 7870 5f505249 4e54465f 5741524e 494e4720  _PRINTF_WARNING 
 7880 3100454e 41424c45 5f4c4f4e 475f4c4f  1.ENABLE_LONG_LO
 7890 4e475f53 5550504f 52542030 005f4445  NG_SUPPORT 0._DE
 78a0 4641554c 545f534f 55524345 005f5f46  FAULT_SOURCE.__F
 78b0 4c543132 385f4841 535f4445 4e4f524d  LT128_HAS_DENORM
 78c0 5f5f2031 005f5f56 45525349 4f4e5f5f  __ 1.__VERSION__
 78d0 2022382e 332e3022 005f5f43 435f5355   "8.3.0".__CC_SU
 78e0 50504f52 54535f57 41524e49 4e472031  PPORTS_WARNING 1
 78f0 00706c69 63005f5f 554c6f6e 67005f5f  .plic.__ULong.__
 7900 61737365 7274735f 73686172 6564282e  asserts_shared(.
 7910 2e2e2920 5f5f6c6f 636b5f61 6e6e6f74  ..) __lock_annot
 7920 61746528 61737365 72745f73 68617265  ate(assert_share
 7930 645f6c6f 636b285f 5f56415f 41524753  d_lock(__VA_ARGS
 7940 5f5f2929 005f5245 454e545f 43484543  __))._REENT_CHEC
 7950 4b5f5241 4e443438 28707472 2920005f  K_RAND48(ptr) ._
 7960 494e5438 5f545f44 45434c41 52454420  INT8_T_DECLARED 
 7970 005f5f6c 6f636b5f 72656c65 61736528  .__lock_release(
 7980 6c6f636b 29202828 766f6964 29203029  lock) ((void) 0)
 7990 005f5f53 495a454f 465f494e 545f5f20  .__SIZEOF_INT__ 
 79a0 34005f42 53445f57 43484152 5f545f00  4._BSD_WCHAR_T_.
 79b0 55494e54 31365f43 28782920 5f5f5549  UINT16_C(x) __UI
 79c0 4e543136 5f432878 29005359 5354454d  NT16_C(x).SYSTEM
 79d0 5f524953 43565f49 53415f45 58545f44  _RISCV_ISA_EXT_D
 79e0 2030005f 5f6c6f63 6b5f6163 71756972   0.__lock_acquir
 79f0 65286c6f 636b2920 2828766f 69642920  e(lock) ((void) 
 7a00 30290062 73705f70 75744368 61722863  0).bsp_putChar(c
 7a10 29207561 72745f77 72697465 28425350  ) uart_write(BSP
 7a20 5f554152 545f5445 524d494e 414c2c20  _UART_TERMINAL, 
 7a30 63293b00 5f535953 5f5f494e 54535550  c);._SYS__INTSUP
 7a40 5f482000 72656164 5f753332 004d5354  _H .read_u32.MST
 7a50 41545553 36345f53 44203078 38303030  ATUS64_SD 0x8000
 7a60 30303030 30303030 30303030 005f5f47  000000000000.__G
 7a70 4e55434c 494b455f 4255494c 54494e5f  NUCLIKE_BUILTIN_
 7a80 4d454d43 50592031 004d5f50 495f3220  MEMCPY 1.M_PI_2 
 7a90 312e3537 30373936 33323637 39343839  1.57079632679489
 7aa0 36363139 3233005f 72657375 6c740049  661923._result.I
 7ab0 4e545f46 41535436 345f4d41 5820285f  NT_FAST64_MAX (_
 7ac0 5f494e54 5f464153 5436345f 4d41585f  _INT_FAST64_MAX_
 7ad0 5f29005f 5f6c6f63 6b61626c 65205f5f  _).__lockable __
 7ae0 6c6f636b 5f616e6e 6f746174 65286c6f  lock_annotate(lo
 7af0 636b6162 6c652900 5f504f53 49585f53  ckable)._POSIX_S
 7b00 4f555243 45203100 5f5f4c44 424c5f4d  OURCE 1.__LDBL_M
 7b10 494e5f5f 20332e33 36323130 33313433  IN__ 3.362103143
 7b20 31313230 39333530 36323632 36373738  1120935062626778
 7b30 31373332 31373532 3630652d 34393332  1732175260e-4932
 7b40 4c005f5f 55494e54 5f464153 5431365f  L.__UINT_FAST16_
 7b50 54595045 5f5f2075 6e736967 6e656420  TYPE__ unsigned 
 7b60 696e7400 696e7465 72727570 74005f5f  int.interrupt.__
 7b70 6e656564 5f77696e 745f7420 00535953  need_wint_t .SYS
 7b80 54454d5f 55415254 5f305f49 4f5f5041  TEM_UART_0_IO_PA
 7b90 52414d45 5445525f 55415254 5f435452  RAMETER_UART_CTR
 7ba0 4c5f434f 4e464947 5f434c4f 434b5f44  L_CONFIG_CLOCK_D
 7bb0 49564944 45525f57 49445448 20323000  IVIDER_WIDTH 20.
 7bc0 5f5f5349 5a455f57 49445448 5f5f2033  __SIZE_WIDTH__ 3
 7bd0 3200464c 545f4556 414c5f4d 4554484f  2.FLT_EVAL_METHO
 7be0 44205f5f 464c545f 4556414c 5f4d4554  D __FLT_EVAL_MET
 7bf0 484f445f 5f005f53 59535f53 5452494e  HOD__._SYS_STRIN
 7c00 475f4820 005f5f57 494e545f 4d494e5f  G_H .__WINT_MIN_
 7c10 5f203055 005f6f66 665f7400 5f5f464c  _ 0U._off_t.__FL
 7c20 5436345f 4449475f 5f203135 005f494e  T64_DIG__ 15._IN
 7c30 5433325f 45515f4c 4f4e4720 005f5f46  T32_EQ_LONG .__F
 7c40 4c545f4d 494e5f5f 20312e31 37353439  LT_MIN__ 1.17549
 7c50 34333530 38323232 38373530 37393638  4350822287507968
 7c60 37333635 33373232 32323435 3638652d  73653722224568e-
 7c70 33384600 5f5f4343 5f535550 504f5254  38F.__CC_SUPPORT
 7c80 535f5f5f 46554e43 5f5f2031 005f5f49  S___FUNC__ 1.__I
 7c90 4e545f4c 45415354 385f5749 4454485f  NT_LEAST8_WIDTH_
 7ca0 5f203800 53595354 454d5f49 32435f30  _ 8.SYSTEM_I2C_0
 7cb0 5f494f5f 4354524c 20307866 38303137  _IO_CTRL 0xf8017
 7cc0 30303000 5f5f6c6f 6e675f64 6f75626c  000.__long_doubl
 7cd0 655f7420 6c6f6e67 20646f75 626c6500  e_t long double.
 7ce0 5f5f494e 545f4c45 41535431 365f5459  __INT_LEAST16_TY
 7cf0 50455f5f 2073686f 72742069 6e74005f  PE__ short int._
 7d00 61646400 5f5f5853 5452494e 47287829  add.__XSTRING(x)
 7d10 205f5f53 5452494e 47287829 005f5f44   __STRING(x).__D
 7d20 45434f4e 53542874 7970652c 76617229  ECONST(type,var)
 7d30 20282874 79706529 285f5f75 696e7470   ((type)(__uintp
 7d40 74725f74 2928636f 6e737420 766f6964  tr_t)(const void
 7d50 202a2928 76617229 29004341 5553455f   *)(var)).CAUSE_
 7d60 4d414348 494e455f 54494d45 52203700  MACHINE_TIMER 7.
 7d70 666c6f61 74004d53 54415455 535f5457  float.MSTATUS_TW
 7d80 20307830 30323030 30303000 5f5f746d   0x00200000.__tm
 7d90 5f686f75 72005f52 45454e54 5f474554  _hour._REENT_GET
 7da0 44415445 5f455252 5f502870 74722920  DATE_ERR_P(ptr) 
 7db0 28262828 70747229 2d3e5f6e 65772e5f  (&((ptr)->_new._
 7dc0 7265656e 742e5f67 65746461 74655f65  reent._getdate_e
 7dd0 72722929 005f5f73 46494c45 005f5f46  rr)).__sFILE.__F
 7de0 4c543634 5f4d414e 545f4449 475f5f20  LT64_MANT_DIG__ 
 7df0 3533005f 5f4c4442 4c5f4d49 4e5f4558  53.__LDBL_MIN_EX
 7e00 505f5f20 282d3136 33383129 005f5f63  P__ (-16381).__c
 7e10 6f6d7069 6c65725f 6d656d62 61722829  ompiler_membar()
 7e20 205f5f61 736d205f 5f766f6c 6174696c   __asm __volatil
 7e30 65282220 22203a20 3a203a20 226d656d  e(" " : : : "mem
 7e40 6f727922 29004d53 54415455 535f5349  ory").MSTATUS_SI
 7e50 45203078 30303030 30303032 005f5245  E 0x00000002._RE
 7e60 454e545f 53545254 4f4b5f4c 41535428  ENT_STRTOK_LAST(
 7e70 70747229 20282870 7472292d 3e5f6e65  ptr) ((ptr)->_ne
 7e80 772e5f72 65656e74 2e5f7374 72746f6b  w._reent._strtok
 7e90 5f6c6173 74290042 49545f31 32202831  _last).BIT_12 (1
 7ea0 203c3c20 31322900 5f5f4442 4c5f4550   << 12).__DBL_EP
 7eb0 53494c4f 4e5f5f20 2828646f 75626c65  SILON__ ((double
 7ec0 29322e32 32303434 36303439 32353033  )2.2204460492503
 7ed0 31333038 30383437 32363333 33363138  1308084726333618
 7ee0 31363430 3632652d 31364c29 005f5f6e  164062e-16L).__n
 7ef0 6565645f 5f5f7661 5f6c6973 74005f5f  eed___va_list.__
 7f00 6c6f636b 5f747279 5f616371 75697265  lock_try_acquire
 7f10 5f726563 75727369 7665286c 6f636b29  _recursive(lock)
 7f20 20282876 6f696429 20302900 53595354   ((void) 0).SYST
 7f30 454d5f53 50495f31 5f494f5f 4354524c  EM_SPI_1_IO_CTRL
 7f40 20307866 38303135 30303000 53595354   0xf8015000.SYST
 7f50 454d5f50 4c49435f 53595354 454d5f49  EM_PLIC_SYSTEM_I
 7f60 32435f30 5f494f5f 494e5445 52525550  2C_0_IO_INTERRUP
 7f70 54203800 5f6d6273 72746f77 63735f73  T 8._mbsrtowcs_s
 7f80 74617465 005f5f61 74747269 62757465  tate.__attribute
 7f90 5f707572 655f5f20 0055494e 54385f4d  _pure__ .UINT8_M
 7fa0 41582028 5f5f5549 4e54385f 4d41585f  AX (__UINT8_MAX_
 7fb0 5f29005f 5f4c4f4e 475f4d41 585f5f20  _).__LONG_MAX__ 
 7fc0 30783766 66666666 66664c00 5f5f4c44  0x7fffffffL.__LD
 7fd0 424c5f45 5053494c 4f4e5f5f 20312e39  BL_EPSILON__ 1.9
 7fe0 32353932 39393434 33383732 33353835  2592994438723585
 7ff0 33303535 39373739 34323538 34393237  3055977942584927
 8000 3332652d 33344c00 4750494f 5f494e54  32e-34L.GPIO_INT
 8010 45525255 50545f48 4947485f 454e4142  ERRUPT_HIGH_ENAB
 8020 4c452030 78323800 6c6f6e67 202b3400  LE 0x28.long +4.
 8030 5f5f696e 7433325f 74005f5f 6e6f6e6e  __int32_t.__nonn
 8040 756c6c28 7829205f 5f617474 72696275  ull(x) __attribu
 8050 74655f5f 28285f5f 6e6f6e6e 756c6c5f  te__((__nonnull_
 8060 5f207829 29005f52 414e4434 385f4144  _ x))._RAND48_AD
 8070 44202830 78303030 6229004d 53544154  D (0x000b).MSTAT
 8080 55535f4d 49452030 78303030 30303030  US_MIE 0x0000000
 8090 38005353 54415455 535f4d58 52203078  8.SSTATUS_MXR 0x
 80a0 30303038 30303030 00424954 5f323020  00080000.BIT_20 
 80b0 2831203c 3c203230 29004750 494f5f49  (1 << 20).GPIO_I
 80c0 4e544552 52555054 5f524953 455f454e  NTERRUPT_RISE_EN
 80d0 41424c45 20307832 30005359 5354454d  ABLE 0x20.SYSTEM
 80e0 5f504c49 435f4354 524c2030 78663863  _PLIC_CTRL 0xf8c
 80f0 30303030 30005f5f 464c5433 32585f4d  00000.__FLT32X_M
 8100 414e545f 4449475f 5f203533 00627370  ANT_DIG__ 53.bsp
 8110 5f696e69 74282920 7b7d005f 5f574348  _init() {}.__WCH
 8120 41525f57 49445448 5f5f2033 32005f49  AR_WIDTH__ 32._I
 8130 4e543634 5f545f44 45434c41 52454420  NT64_T_DECLARED 
 8140 005f5f73 676c7565 005f5f43 4f4e4341  .__sglue.__CONCA
 8150 5428782c 7929205f 5f434f4e 43415431  T(x,y) __CONCAT1
 8160 28782c79 29006368 61726163 74657200  (x,y).character.
 8170 5f5f494e 5431365f 43286329 20630062  __INT16_C(c) c.b
 8180 73705f70 72696e74 66005f5f 76615f6c  sp_printf.__va_l
 8190 6973745f 5f20005f 666e6172 67730073  ist__ ._fnargs.s
 81a0 686f7274 202b3100 5f5f746d 5f697364  hort +1.__tm_isd
 81b0 7374005f 5f444551 55414c49 46592874  st.__DEQUALIFY(t
 81c0 7970652c 76617229 20282874 79706529  ype,var) ((type)
 81d0 285f5f75 696e7470 74725f74 2928636f  (__uintptr_t)(co
 81e0 6e737420 766f6c61 74696c65 20766f69  nst volatile voi
 81f0 64202a29 28766172 2929005f 5245454e  d *)(var))._REEN
 8200 545f494e 49545f50 54525f5a 45524f45  T_INIT_PTR_ZEROE
 8210 44287661 7229207b 20287661 72292d3e  D(var) { (var)->
 8220 5f737464 696e203d 205f5245 454e545f  _stdin = _REENT_
 8230 53544449 4f5f5354 5245414d 28766172  STDIO_STREAM(var
 8240 2c203029 3b202876 6172292d 3e5f7374  , 0); (var)->_st
 8250 646f7574 203d205f 5245454e 545f5354  dout = _REENT_ST
 8260 44494f5f 53545245 414d2876 61722c20  DIO_STREAM(var, 
 8270 31293b20 28766172 292d3e5f 73746465  1); (var)->_stde
 8280 7272203d 205f5245 454e545f 53544449  rr = _REENT_STDI
 8290 4f5f5354 5245414d 28766172 2c203229  O_STREAM(var, 2)
 82a0 3b202876 6172292d 3e5f6e65 772e5f72  ; (var)->_new._r
 82b0 65656e74 2e5f7261 6e645f6e 65787420  eent._rand_next 
 82c0 3d20313b 20287661 72292d3e 5f6e6577  = 1; (var)->_new
 82d0 2e5f7265 656e742e 5f723438 2e5f7365  ._reent._r48._se
 82e0 65645b30 5d203d20 5f52414e 4434385f  ed[0] = _RAND48_
 82f0 53454544 5f303b20 28766172 292d3e5f  SEED_0; (var)->_
 8300 6e65772e 5f726565 6e742e5f 7234382e  new._reent._r48.
 8310 5f736565 645b315d 203d205f 52414e44  _seed[1] = _RAND
 8320 34385f53 4545445f 313b2028 76617229  48_SEED_1; (var)
 8330 2d3e5f6e 65772e5f 7265656e 742e5f72  ->_new._reent._r
 8340 34382e5f 73656564 5b325d20 3d205f52  48._seed[2] = _R
 8350 414e4434 385f5345 45445f32 3b202876  AND48_SEED_2; (v
 8360 6172292d 3e5f6e65 772e5f72 65656e74  ar)->_new._reent
 8370 2e5f7234 382e5f6d 756c745b 305d203d  ._r48._mult[0] =
 8380 205f5241 4e443438 5f4d554c 545f303b   _RAND48_MULT_0;
 8390 20287661 72292d3e 5f6e6577 2e5f7265   (var)->_new._re
 83a0 656e742e 5f723438 2e5f6d75 6c745b31  ent._r48._mult[1
 83b0 5d203d20 5f52414e 4434385f 4d554c54  ] = _RAND48_MULT
 83c0 5f313b20 28766172 292d3e5f 6e65772e  _1; (var)->_new.
 83d0 5f726565 6e742e5f 7234382e 5f6d756c  _reent._r48._mul
 83e0 745b325d 203d205f 52414e44 34385f4d  t[2] = _RAND48_M
 83f0 554c545f 323b2028 76617229 2d3e5f6e  ULT_2; (var)->_n
 8400 65772e5f 7265656e 742e5f72 34382e5f  ew._reent._r48._
 8410 61646420 3d205f52 414e4434 385f4144  add = _RAND48_AD
 8420 443b207d 00454658 5f53454d 49484f53  D; }.EFX_SEMIHOS
 8430 54494e47 5f482000 5f5f4154 4f4d4943  TING_H .__ATOMIC
 8440 5f414351 5f52454c 2034005f 5f494e54  _ACQ_REL 4.__INT
 8450 5f4c4541 5354385f 54595045 5f5f2073  _LEAST8_TYPE__ s
 8460 69676e65 64206368 6172005f 5f494e54  igned char.__INT
 8470 33325f54 5950455f 5f206c6f 6e672069  32_TYPE__ long i
 8480 6e74005f 5f706163 6b656420 5f5f6174  nt.__packed __at
 8490 74726962 7574655f 5f28285f 5f706163  tribute__((__pac
 84a0 6b65645f 5f292900 5f5f4442 4c5f4d49  ked__)).__DBL_MI
 84b0 4e5f3130 5f455850 5f5f2028 2d333037  N_10_EXP__ (-307
 84c0 29004d53 54415455 535f4849 45203078  ).MSTATUS_HIE 0x
 84d0 30303030 30303034 005f5741 4e545f49  00000004._WANT_I
 84e0 4f5f4c4f 4e475f4c 4f4e4720 31004650  O_LONG_LONG 1.FP
 84f0 5f494e46 494e4954 45203100 53595354  _INFINITE 1.SYST
 8500 454d5f55 4152545f 305f494f 5f504152  EM_UART_0_IO_PAR
 8510 414d4554 45525f55 4152545f 4354524c  AMETER_UART_CTRL
 8520 5f434f4e 4649475f 4354535f 47454e20  _CONFIG_CTS_GEN 
 8530 30005f5f 44424c5f 44454e4f 524d5f4d  0.__DBL_DENORM_M
 8540 494e5f5f 20282864 6f75626c 6529342e  IN__ ((double)4.
 8550 39343036 35363435 38343132 34363534  9406564584124654
 8560 34313736 35363837 39323836 38323231  4176568792868221
 8570 33373265 2d333234 4c290042 53505f43  372e-324L).BSP_C
 8580 4c494e54 20535953 54454d5f 434c494e  LINT SYSTEM_CLIN
 8590 545f4354 524c005f 5f4c4442 4c5f4449  T_CTRL.__LDBL_DI
 85a0 475f5f20 3333005f 5f696e74 32300049  G__ 33.__int20.I
 85b0 4e545f46 41535433 325f4d41 5820285f  NT_FAST32_MAX (_
 85c0 5f494e54 5f464153 5433325f 4d41585f  _INT_FAST32_MAX_
 85d0 5f29005f 5f746d5f 6d696e00 5f524545  _).__tm_min._REE
 85e0 4e545f41 53435449 4d455f53 495a4520  NT_ASCTIME_SIZE 
 85f0 32360049 4e545054 525f4d49 4e20282d  26.INTPTR_MIN (-
 8600 5f5f494e 54505452 5f4d4158 5f5f202d  __INTPTR_MAX__ -
 8610 20312900 53595354 454d5f50 4c49435f   1).SYSTEM_PLIC_
 8620 53595354 454d5f53 50495f31 5f494f5f  SYSTEM_SPI_1_IO_
 8630 494e5445 52525550 54203500 6273705f  INTERRUPT 5.bsp_
 8640 70757453 7472696e 67287329 20756172  putString(s) uar
 8650 745f7772 69746553 74722842 53505f55  t_writeStr(BSP_U
 8660 4152545f 5445524d 494e414c 2c207329  ART_TERMINAL, s)
 8670 3b005f56 415f4c49 53545f20 005f504f  ;._VA_LIST_ ._PO
 8680 5349585f 435f534f 55524345 005f5f55  SIX_C_SOURCE.__U
 8690 494e544d 41585f4d 41585f5f 20307866  INTMAX_MAX__ 0xf
 86a0 66666666 66666666 66666666 66666655  fffffffffffffffU
 86b0 4c4c005f 5f44424c 5f4d414e 545f4449  LL.__DBL_MANT_DI
 86c0 475f5f20 3533005f 5f756e62 6f756e64  G__ 53.__unbound
 86d0 65642000 5f52414e 4434385f 53454544  ed ._RAND48_SEED
 86e0 5f322028 30783132 33342900 5f5f5359  _2 (0x1234).__SY
 86f0 535f4c4f 434b5f48 5f5f2000 5f524545  S_LOCK_H__ ._REE
 8700 4e545f49 4e49545f 41544558 4954205f  NT_INIT_ATEXIT _
 8710 4e554c4c 2c205f41 54455849 545f494e  NULL, _ATEXIT_IN
 8720 49542c00 5f474343 5f53495a 455f5420  IT,._GCC_SIZE_T 
 8730 00424954 5f323720 2831203c 3c203237  .BIT_27 (1 << 27
 8740 29005f5f 494e545f 4d41585f 5f203078  ).__INT_MAX__ 0x
 8750 37666666 66666666 005f5f55 494e5431  7fffffff.__UINT1
 8760 365f4d41 585f5f20 30786666 6666005f  6_MAX__ 0xffff._
 8770 5245454e 545f494e 49542876 61722920  REENT_INIT(var) 
 8780 7b20302c 205f5245 454e545f 53544449  { 0, _REENT_STDI
 8790 4f5f5354 5245414d 28262876 6172292c  O_STREAM(&(var),
 87a0 2030292c 205f5245 454e545f 53544449   0), _REENT_STDI
 87b0 4f5f5354 5245414d 28262876 6172292c  O_STREAM(&(var),
 87c0 2031292c 205f5245 454e545f 53544449   1), _REENT_STDI
 87d0 4f5f5354 5245414d 28262876 6172292c  O_STREAM(&(var),
 87e0 2032292c 20302c20 22222c20 302c205f   2), 0, "", 0, _
 87f0 4e554c4c 2c20302c 205f4e55 4c4c2c20  NULL, 0, _NULL, 
 8800 5f4e554c 4c2c2030 2c205f4e 554c4c2c  _NULL, 0, _NULL,
 8810 205f4e55 4c4c2c20 302c205f 4e554c4c   _NULL, 0, _NULL
 8820 2c207b20 7b20302c 205f4e55 4c4c2c20  , { { 0, _NULL, 
 8830 22222c20 7b302c20 302c2030 2c20302c  "", {0, 0, 0, 0,
 8840 20302c20 302c2030 2c20302c 20307d2c   0, 0, 0, 0, 0},
 8850 20302c20 312c207b 207b5f52 414e4434   0, 1, { {_RAND4
 8860 385f5345 45445f30 2c205f52 414e4434  8_SEED_0, _RAND4
 8870 385f5345 45445f31 2c205f52 414e4434  8_SEED_1, _RAND4
 8880 385f5345 45445f32 7d2c207b 5f52414e  8_SEED_2}, {_RAN
 8890 4434385f 4d554c54 5f302c20 5f52414e  D48_MULT_0, _RAN
 88a0 4434385f 4d554c54 5f312c20 5f52414e  D48_MULT_1, _RAN
 88b0 4434385f 4d554c54 5f327d2c 205f5241  D48_MULT_2}, _RA
 88c0 4e443438 5f414444 207d2c20 7b302c20  ND48_ADD }, {0, 
 88d0 7b307d7d 2c207b30 2c207b30 7d7d2c20  {0}}, {0, {0}}, 
 88e0 7b302c20 7b307d7d 2c202222 2c202222  {0, {0}}, "", ""
 88f0 2c20302c 207b302c 207b307d 7d2c207b  , 0, {0, {0}}, {
 8900 302c207b 307d7d2c 207b302c 207b307d  0, {0}}, {0, {0}
 8910 7d2c207b 302c207b 307d7d2c 207b302c  }, {0, {0}}, {0,
 8920 207b307d 7d207d20 7d2c205f 5245454e   {0}} } }, _REEN
 8930 545f494e 49545f41 54455849 54205f4e  T_INIT_ATEXIT _N
 8940 554c4c2c 207b5f4e 554c4c2c 20302c20  ULL, {_NULL, 0, 
 8950 5f4e554c 4c7d207d 005f5f61 6c776179  _NULL} }.__alway
 8960 735f696e 6c696e65 205f5f69 6e6c696e  s_inline __inlin
 8970 655f5f20 5f5f6174 74726962 7574655f  e__ __attribute_
 8980 5f28285f 5f616c77 6179735f 696e6c69  _((__always_inli
 8990 6e655f5f 2929005f 5f4c6f6e 67206c6f  ne__)).__Long lo
 89a0 6e670053 59535445 4d5f5553 45525f54  ng.SYSTEM_USER_T
 89b0 494d4552 5f305f43 54524c20 30786638  IMER_0_CTRL 0xf8
 89c0 30313930 3030002e 2e2f636f 6d6d6f6e  019000.../common
 89d0 2f737461 72742e53 00474e55 20415320  /start.S.GNU AS 
 89e0 322e3332 002e2e2f 636f6d6d 6f6e2f74  2.32.../common/t
 89f0 7261702e 5300                        rap.S.          
Contents of section .comment:
 0000 4743433a 20287850 61636b20 474e5520  GCC: (xPack GNU 
 0010 52495343 2d562045 6d626564 64656420  RISC-V Embedded 
 0020 4743432c 2036342d 62697429 20382e33  GCC, 64-bit) 8.3
 0030 2e3000                               .0.             
Contents of section .debug_frame:
 0000 0c000000 ffffffff 0100017c 010d0200  ...........|....
 0010 0c000000 00000000 f80000f9 10000000  ................
 0020 20000000 00000000 080100f9 3c000000   ...........<...
 0030 440e104c 81018802 89035cc1 44c844c9  D..L......\.D.D.
 0040 440e0000 0c000000 00000000 440100f9  D...........D...
 0050 34000000 18000000 00000000 780100f9  4...........x...
 0060 20000000 440e1044 810150c1 440e0000   ...D..D..P.D...
 0070 1c000000 00000000 980100f9 34000000  ............4...
 0080 440e1048 81018802 5cc144c8 440e0000  D..H....\.D.D...
 0090 20000000 00000000 cc0100f9 54000000   ...........T...
 00a0 440e104c 81018802 890374c1 44c844c9  D..L......t.D.D.
 00b0 440e0000 20000000 00000000 200200f9  D... ....... ...
 00c0 54000000 440e104c 81018802 890374c1  T...D..L......t.
 00d0 44c844c9 440e0000 18000000 00000000  D.D.D...........
 00e0 740200f9 1c000000 440e1044 81014cc1  t.......D..D..L.
 00f0 440e0000 18000000 00000000 900200f9  D...............
 0100 18000000 440e1044 810148c1 440e0000  ....D..D..H.D...
 0110 20000000 00000000 a80200f9 80000000   ...............
 0120 440e304c 81018802 89030260 c144c844  D.0L.......`.D.D
 0130 c9440e00 18000000 00000000 280300f9  .D..........(...
 0140 40000000 440e1044 810170c1 440e0000  @...D..D..p.D...
 0150 18000000 00000000 680300f9 40000000  ........h...@...
 0160 440e1044 810170c1 440e0000 0c000000  D..D..p.D.......
 0170 00000000 a80300f9 10000000 0c000000  ................
 0180 00000000 b80300f9 4c000000 0c000000  ........L.......
 0190 00000000 040400f9 18000000 0c000000  ................
 01a0 00000000 1c0400f9 1c000000 0c000000  ................
 01b0 00000000 380400f9 1c000000 24000000  ....8.......$...
 01c0 00000000 540400f9 38010000 440e404c  ....T...8...D.@L
 01d0 8109880a 890b0318 01c144c8 44c9440e  ..........D.D.D.
 01e0 00000000 18000000 00000000 8c0500f9  ................
 01f0 80000000 440e1044 81010270 c1440e00  ....D..D...p.D..
 0200 14000000 00000000 0c0600f9 18000000  ................
 0210 440e1044 81010000 1c000000 00000000  D..D............
 0220 240600f9 5c000000 440e1048 81018802  $...\...D..H....
 0230 0244c144 c8440e00 1c000000 00000000  .D.D.D..........
 0240 800600f9 34000000 440e1044 81015c0a  ....4...D..D..\.
 0250 c1440e00 440b0000 14000000 00000000  .D..D...........
 0260 b40600f9 a8000000 440e1048 81018802  ........D..H....
 0270 0c000000 ffffffff 0100017c 010d0200  ...........|....
 0280 28000000 70020000 640000f9 94000000  (...p...d.......
 0290 440e1048 88029204 5c810189 030258c1  D..H....\.....X.
 02a0 44c844c9 44d2440e 00000000           D.D.D.D.....    

Disassembly of section .rom_section.init:

f9000000 <_start>:

_start:
#ifdef USE_GP
.option push
.option norelax
	la gp, __global_pointer$
f9000000:	00081197          	auipc	gp,0x81
f9000004:	97018193          	addi	gp,gp,-1680 # f9080970 <__global_pointer$>

f9000008 <init>:
	sw a0, smp_lottery_lock, a1
    ret
#endif

init:
	la sp, _sp
f9000008:	00082117          	auipc	sp,0x82
f900000c:	18810113          	addi	sp,sp,392 # f9082190 <__freertos_irq_stack_top>

	/* Load data section */
	la a0, _data_lma
f9000010:	00080517          	auipc	a0,0x80
f9000014:	ff050513          	addi	a0,a0,-16 # f9080000 <__init_array_end>
	la a1, _data
f9000018:	00080597          	auipc	a1,0x80
f900001c:	fe858593          	addi	a1,a1,-24 # f9080000 <__init_array_end>
	la a2, _edata
f9000020:	81c18613          	addi	a2,gp,-2020 # f908018c <__bss_start>
	bgeu a1, a2, 2f
f9000024:	00c5fc63          	bgeu	a1,a2,f900003c <init+0x34>
1:
	lw t0, (a0)
f9000028:	00052283          	lw	t0,0(a0)
	sw t0, (a1)
f900002c:	0055a023          	sw	t0,0(a1)
	addi a0, a0, 4
f9000030:	00450513          	addi	a0,a0,4
	addi a1, a1, 4
f9000034:	00458593          	addi	a1,a1,4
	bltu a1, a2, 1b
f9000038:	fec5e8e3          	bltu	a1,a2,f9000028 <init+0x20>
2:

	/* Clear bss section */
	la a0, __bss_start
f900003c:	81c18513          	addi	a0,gp,-2020 # f908018c <__bss_start>
	la a1, _end
f9000040:	82018593          	addi	a1,gp,-2016 # f9080190 <_end>
	bgeu a0, a1, 2f
f9000044:	00b57863          	bgeu	a0,a1,f9000054 <init+0x4c>
1:
	sw zero, (a0)
f9000048:	00052023          	sw	zero,0(a0)
	addi a0, a0, 4
f900004c:	00450513          	addi	a0,a0,4
	bltu a0, a1, 1b
f9000050:	feb56ce3          	bltu	a0,a1,f9000048 <init+0x40>
2:

#ifndef NO_LIBC_INIT_ARRAY
	call __libc_init_array
f9000054:	010000ef          	jal	ra,f9000064 <__libc_init_array>
#endif

	call main
f9000058:	65c000ef          	jal	ra,f90006b4 <main>

f900005c <mainDone>:
mainDone:
    j mainDone
f900005c:	0000006f          	j	f900005c <mainDone>

f9000060 <_init>:


	.globl _init
_init:
    ret
f9000060:	00008067          	ret

Disassembly of section .rom_section.text:

f9000064 <__libc_init_array>:
f9000064:	ff010113          	addi	sp,sp,-16
f9000068:	00812423          	sw	s0,8(sp)
f900006c:	01212023          	sw	s2,0(sp)
f9000070:	00080417          	auipc	s0,0x80
f9000074:	f9040413          	addi	s0,s0,-112 # f9080000 <__init_array_end>
f9000078:	00080917          	auipc	s2,0x80
f900007c:	f8890913          	addi	s2,s2,-120 # f9080000 <__init_array_end>
f9000080:	40890933          	sub	s2,s2,s0
f9000084:	00112623          	sw	ra,12(sp)
f9000088:	00912223          	sw	s1,4(sp)
f900008c:	40295913          	srai	s2,s2,0x2
f9000090:	00090e63          	beqz	s2,f90000ac <__libc_init_array+0x48>
f9000094:	00000493          	li	s1,0
f9000098:	00042783          	lw	a5,0(s0)
f900009c:	00148493          	addi	s1,s1,1
f90000a0:	00440413          	addi	s0,s0,4
f90000a4:	000780e7          	jalr	a5
f90000a8:	fe9918e3          	bne	s2,s1,f9000098 <__libc_init_array+0x34>
f90000ac:	00080417          	auipc	s0,0x80
f90000b0:	f5440413          	addi	s0,s0,-172 # f9080000 <__init_array_end>
f90000b4:	00080917          	auipc	s2,0x80
f90000b8:	f4c90913          	addi	s2,s2,-180 # f9080000 <__init_array_end>
f90000bc:	40890933          	sub	s2,s2,s0
f90000c0:	40295913          	srai	s2,s2,0x2
f90000c4:	00090e63          	beqz	s2,f90000e0 <__libc_init_array+0x7c>
f90000c8:	00000493          	li	s1,0
f90000cc:	00042783          	lw	a5,0(s0)
f90000d0:	00148493          	addi	s1,s1,1
f90000d4:	00440413          	addi	s0,s0,4
f90000d8:	000780e7          	jalr	a5
f90000dc:	fe9918e3          	bne	s2,s1,f90000cc <__libc_init_array+0x68>
f90000e0:	00c12083          	lw	ra,12(sp)
f90000e4:	00812403          	lw	s0,8(sp)
f90000e8:	00412483          	lw	s1,4(sp)
f90000ec:	00012903          	lw	s2,0(sp)
f90000f0:	01010113          	addi	sp,sp,16
f90000f4:	00008067          	ret

f90000f8 <uart_writeAvailability>:
#include "type.h"
#include "soc.h"


    static inline u32 read_u32(u32 address){
        return *((volatile u32*) address);
f90000f8:	00452503          	lw	a0,4(a0)
        enum UartStop stop;
        u32 clockDivider;
    } Uart_Config;
    
    static u32 uart_writeAvailability(u32 reg){
        return (read_u32(reg + UART_STATUS) >> 16) & 0xFF;
f90000fc:	01055513          	srli	a0,a0,0x10
    }
f9000100:	0ff57513          	andi	a0,a0,255
f9000104:	00008067          	ret

f9000108 <uart_write>:
    static u32 uart_readOccupancy(u32 reg){
        return read_u32(reg + UART_STATUS) >> 24;
    }
    
    static void uart_write(u32 reg, char data){
f9000108:	ff010113          	addi	sp,sp,-16
f900010c:	00112623          	sw	ra,12(sp)
f9000110:	00812423          	sw	s0,8(sp)
f9000114:	00912223          	sw	s1,4(sp)
f9000118:	00050413          	mv	s0,a0
f900011c:	00058493          	mv	s1,a1
        while(uart_writeAvailability(reg) == 0);
f9000120:	00040513          	mv	a0,s0
f9000124:	fd5ff0ef          	jal	ra,f90000f8 <uart_writeAvailability>
f9000128:	fe050ce3          	beqz	a0,f9000120 <uart_write+0x18>
    }
    
    static inline void write_u32(u32 data, u32 address){
        *((volatile u32*) address) = data;
f900012c:	00942023          	sw	s1,0(s0)
        write_u32(data, reg + UART_DATA);
    }
f9000130:	00c12083          	lw	ra,12(sp)
f9000134:	00812403          	lw	s0,8(sp)
f9000138:	00412483          	lw	s1,4(sp)
f900013c:	01010113          	addi	sp,sp,16
f9000140:	00008067          	ret

f9000144 <clint_uDelay>:
    
        return (((u64)hi) << 32) | lo;
    }
    
    static void clint_uDelay(u32 usec, u32 hz, u32 reg){
        u32 mTimePerUsec = hz/1000000;
f9000144:	000f47b7          	lui	a5,0xf4
f9000148:	24078793          	addi	a5,a5,576 # f4240 <__stack_size+0xf2240>
f900014c:	02f5d5b3          	divu	a1,a1,a5
    readReg_u32 (clint_getTimeLow , CLINT_TIME_ADDR)
f9000150:	0000c7b7          	lui	a5,0xc
f9000154:	ff878793          	addi	a5,a5,-8 # bff8 <__stack_size+0x9ff8>
f9000158:	00f60633          	add	a2,a2,a5
        return *((volatile u32*) address);
f900015c:	00062783          	lw	a5,0(a2)
        u32 limit = clint_getTimeLow(reg) + usec*mTimePerUsec;
f9000160:	02a58533          	mul	a0,a1,a0
f9000164:	00f50533          	add	a0,a0,a5
f9000168:	00062783          	lw	a5,0(a2)
        while((int32_t)(limit-(clint_getTimeLow(reg))) >= 0);
f900016c:	40f507b3          	sub	a5,a0,a5
f9000170:	fe07dce3          	bgez	a5,f9000168 <clint_uDelay+0x24>
    }
f9000174:	00008067          	ret

f9000178 <_putchar>:
// use bsp_printf_full as bsp_printf
#define ENABLE_BRIDGE_FULL_TO_LITE          1 // If this is enabled, bsp_printf_full can be called with bsp_printf. Enabling both ENABLE_BSP_PRINTF and ENABLE_BSP_PRINTF_FULL, bsp_printf_full will be remained as bsp_printf_full. Default: Enable
#define ENABLE_PRINTF_WARNING               1 // Print warning when the specifier not supported. Default: Enable


    static void _putchar(char character){
f9000178:	ff010113          	addi	sp,sp,-16
f900017c:	00112623          	sw	ra,12(sp)
        #if (ENABLE_SEMIHOSTING_PRINT == 1)
            sh_writec(character);
        #else
            bsp_putChar(character);
f9000180:	00050593          	mv	a1,a0
f9000184:	f8010537          	lui	a0,0xf8010
f9000188:	f81ff0ef          	jal	ra,f9000108 <uart_write>
        #endif // (ENABLE_SEMIHOSTING_PRINT == 1)
    }
f900018c:	00c12083          	lw	ra,12(sp)
f9000190:	01010113          	addi	sp,sp,16
f9000194:	00008067          	ret

f9000198 <_putchar_s>:

    static void _putchar_s(char *p)
    {
f9000198:	ff010113          	addi	sp,sp,-16
f900019c:	00112623          	sw	ra,12(sp)
f90001a0:	00812423          	sw	s0,8(sp)
f90001a4:	00050413          	mv	s0,a0
    #if (ENABLE_SEMIHOSTING_PRINT == 1)
        sh_write0(p);
    #else
        while (*p)
f90001a8:	00044503          	lbu	a0,0(s0)
f90001ac:	00050863          	beqz	a0,f90001bc <_putchar_s+0x24>
            _putchar(*(p++));
f90001b0:	00140413          	addi	s0,s0,1
f90001b4:	fc5ff0ef          	jal	ra,f9000178 <_putchar>
f90001b8:	ff1ff06f          	j	f90001a8 <_putchar_s+0x10>
    #endif // (ENABLE_SEMIHOSTING_PRINT == 1)
    }
f90001bc:	00c12083          	lw	ra,12(sp)
f90001c0:	00812403          	lw	s0,8(sp)
f90001c4:	01010113          	addi	sp,sp,16
f90001c8:	00008067          	ret

f90001cc <bsp_printHex>:


    //bsp_printHex is used in BSP_PRINTF
    static void bsp_printHex(uint32_t val)
    {
f90001cc:	ff010113          	addi	sp,sp,-16
f90001d0:	00112623          	sw	ra,12(sp)
f90001d4:	00812423          	sw	s0,8(sp)
f90001d8:	00912223          	sw	s1,4(sp)
f90001dc:	00050493          	mv	s1,a0
        uint32_t digits;
        digits =8;

        for (int i = (4*digits)-4; i >= 0; i -= 4) {
f90001e0:	01c00413          	li	s0,28
f90001e4:	0240006f          	j	f9000208 <bsp_printHex+0x3c>
            _putchar("0123456789ABCDEF"[(val >> i) % 16]);
f90001e8:	0084d7b3          	srl	a5,s1,s0
f90001ec:	00f7f713          	andi	a4,a5,15
f90001f0:	f90807b7          	lui	a5,0xf9080
f90001f4:	00078793          	mv	a5,a5
f90001f8:	00e787b3          	add	a5,a5,a4
f90001fc:	0007c503          	lbu	a0,0(a5) # f9080000 <__freertos_irq_stack_top+0xffffde70>
f9000200:	f79ff0ef          	jal	ra,f9000178 <_putchar>
        for (int i = (4*digits)-4; i >= 0; i -= 4) {
f9000204:	ffc40413          	addi	s0,s0,-4
f9000208:	fe0450e3          	bgez	s0,f90001e8 <bsp_printHex+0x1c>
        }
    }
f900020c:	00c12083          	lw	ra,12(sp)
f9000210:	00812403          	lw	s0,8(sp)
f9000214:	00412483          	lw	s1,4(sp)
f9000218:	01010113          	addi	sp,sp,16
f900021c:	00008067          	ret

f9000220 <bsp_printHex_lower>:

    static void bsp_printHex_lower(uint32_t val)
        {
f9000220:	ff010113          	addi	sp,sp,-16
f9000224:	00112623          	sw	ra,12(sp)
f9000228:	00812423          	sw	s0,8(sp)
f900022c:	00912223          	sw	s1,4(sp)
f9000230:	00050493          	mv	s1,a0
            uint32_t digits;
            digits =8;

            for (int i = (4*digits)-4; i >= 0; i -= 4) {
f9000234:	01c00413          	li	s0,28
f9000238:	0240006f          	j	f900025c <bsp_printHex_lower+0x3c>
                _putchar("0123456789abcdef"[(val >> i) % 16]);
f900023c:	0084d7b3          	srl	a5,s1,s0
f9000240:	00f7f713          	andi	a4,a5,15
f9000244:	f90807b7          	lui	a5,0xf9080
f9000248:	01478793          	addi	a5,a5,20 # f9080014 <__freertos_irq_stack_top+0xffffde84>
f900024c:	00e787b3          	add	a5,a5,a4
f9000250:	0007c503          	lbu	a0,0(a5)
f9000254:	f25ff0ef          	jal	ra,f9000178 <_putchar>
            for (int i = (4*digits)-4; i >= 0; i -= 4) {
f9000258:	ffc40413          	addi	s0,s0,-4
f900025c:	fe0450e3          	bgez	s0,f900023c <bsp_printHex_lower+0x1c>

            }
        }
f9000260:	00c12083          	lw	ra,12(sp)
f9000264:	00812403          	lw	s0,8(sp)
f9000268:	00412483          	lw	s1,4(sp)
f900026c:	01010113          	addi	sp,sp,16
f9000270:	00008067          	ret

f9000274 <bsp_printf_c>:
    #endif //#if (ENABLE_FLOATING_POINT_SUPPORT)

    

    static void bsp_printf_c(int c)
    {
f9000274:	ff010113          	addi	sp,sp,-16
f9000278:	00112623          	sw	ra,12(sp)
        _putchar(c);
f900027c:	0ff57513          	andi	a0,a0,255
f9000280:	ef9ff0ef          	jal	ra,f9000178 <_putchar>
    }
f9000284:	00c12083          	lw	ra,12(sp)
f9000288:	01010113          	addi	sp,sp,16
f900028c:	00008067          	ret

f9000290 <bsp_printf_s>:

    static void bsp_printf_s(char *p)
    {
f9000290:	ff010113          	addi	sp,sp,-16
f9000294:	00112623          	sw	ra,12(sp)
        _putchar_s(p);
f9000298:	f01ff0ef          	jal	ra,f9000198 <_putchar_s>
    }
f900029c:	00c12083          	lw	ra,12(sp)
f90002a0:	01010113          	addi	sp,sp,16
f90002a4:	00008067          	ret

f90002a8 <bsp_printf_d>:



    static void bsp_printf_d(int val)
    {
f90002a8:	fd010113          	addi	sp,sp,-48
f90002ac:	02112623          	sw	ra,44(sp)
f90002b0:	02812423          	sw	s0,40(sp)
f90002b4:	02912223          	sw	s1,36(sp)
f90002b8:	00050493          	mv	s1,a0
        char buffer[32];
        char *p = buffer;
        if (val < 0) {
f90002bc:	00054663          	bltz	a0,f90002c8 <bsp_printf_d+0x20>
    {
f90002c0:	00010413          	mv	s0,sp
f90002c4:	02c0006f          	j	f90002f0 <bsp_printf_d+0x48>
            bsp_printf_c('-');
f90002c8:	02d00513          	li	a0,45
f90002cc:	fa9ff0ef          	jal	ra,f9000274 <bsp_printf_c>
            val = -val;
f90002d0:	409004b3          	neg	s1,s1
f90002d4:	fedff06f          	j	f90002c0 <bsp_printf_d+0x18>
        }
        while (val || p == buffer) {
            *(p++) = '0' + val % 10;
f90002d8:	00a00713          	li	a4,10
f90002dc:	02e4e7b3          	rem	a5,s1,a4
f90002e0:	03078793          	addi	a5,a5,48
f90002e4:	00f40023          	sb	a5,0(s0)
            val = val / 10;
f90002e8:	02e4c4b3          	div	s1,s1,a4
            *(p++) = '0' + val % 10;
f90002ec:	00140413          	addi	s0,s0,1
        while (val || p == buffer) {
f90002f0:	fe0494e3          	bnez	s1,f90002d8 <bsp_printf_d+0x30>
f90002f4:	00010793          	mv	a5,sp
f90002f8:	fef400e3          	beq	s0,a5,f90002d8 <bsp_printf_d+0x30>
f90002fc:	0100006f          	j	f900030c <bsp_printf_d+0x64>
        }
        while (p != buffer)
            bsp_printf_c(*(--p));
f9000300:	fff40413          	addi	s0,s0,-1
f9000304:	00044503          	lbu	a0,0(s0)
f9000308:	f6dff0ef          	jal	ra,f9000274 <bsp_printf_c>
        while (p != buffer)
f900030c:	00010793          	mv	a5,sp
f9000310:	fef418e3          	bne	s0,a5,f9000300 <bsp_printf_d+0x58>
    }
f9000314:	02c12083          	lw	ra,44(sp)
f9000318:	02812403          	lw	s0,40(sp)
f900031c:	02412483          	lw	s1,36(sp)
f9000320:	03010113          	addi	sp,sp,48
f9000324:	00008067          	ret

f9000328 <bsp_printf_x>:

    static void bsp_printf_x(int val)
    {
f9000328:	ff010113          	addi	sp,sp,-16
f900032c:	00112623          	sw	ra,12(sp)
        int i,digi=2;

        for(i=0;i<8;i++)
f9000330:	00000713          	li	a4,0
f9000334:	00700793          	li	a5,7
f9000338:	02e7c063          	blt	a5,a4,f9000358 <bsp_printf_x+0x30>
        {
            if((val & (0xFFFFFFF0 <<(4*i))) == 0)
f900033c:	00271693          	slli	a3,a4,0x2
f9000340:	ff000793          	li	a5,-16
f9000344:	00d797b3          	sll	a5,a5,a3
f9000348:	00f577b3          	and	a5,a0,a5
f900034c:	00078663          	beqz	a5,f9000358 <bsp_printf_x+0x30>
        for(i=0;i<8;i++)
f9000350:	00170713          	addi	a4,a4,1
f9000354:	fe1ff06f          	j	f9000334 <bsp_printf_x+0xc>
            {
                digi=i+1;
                break;
            }
        }
        bsp_printHex_lower(val);
f9000358:	ec9ff0ef          	jal	ra,f9000220 <bsp_printHex_lower>
    }
f900035c:	00c12083          	lw	ra,12(sp)
f9000360:	01010113          	addi	sp,sp,16
f9000364:	00008067          	ret

f9000368 <bsp_printf_X>:

    static void bsp_printf_X(int val)
        {
f9000368:	ff010113          	addi	sp,sp,-16
f900036c:	00112623          	sw	ra,12(sp)
            int i,digi=2;

            for(i=0;i<8;i++)
f9000370:	00000713          	li	a4,0
f9000374:	00700793          	li	a5,7
f9000378:	02e7c063          	blt	a5,a4,f9000398 <bsp_printf_X+0x30>
            {
                if((val & (0xFFFFFFF0 <<(4*i))) == 0)
f900037c:	00271693          	slli	a3,a4,0x2
f9000380:	ff000793          	li	a5,-16
f9000384:	00d797b3          	sll	a5,a5,a3
f9000388:	00f577b3          	and	a5,a0,a5
f900038c:	00078663          	beqz	a5,f9000398 <bsp_printf_X+0x30>
            for(i=0;i<8;i++)
f9000390:	00170713          	addi	a4,a4,1
f9000394:	fe1ff06f          	j	f9000374 <bsp_printf_X+0xc>
                {
                    digi=i+1;
                    break;
                }
            }
            bsp_printHex(val);
f9000398:	e35ff0ef          	jal	ra,f90001cc <bsp_printHex>
        }
f900039c:	00c12083          	lw	ra,12(sp)
f90003a0:	01010113          	addi	sp,sp,16
f90003a4:	00008067          	ret

f90003a8 <plic_set_priority>:
#define PLIC_CLAIM_BASE         0x200004
#define PLIC_ENABLE_PER_HART    0x80
#define PLIC_CONTEXT_PER_HART   0x1000

    static void plic_set_priority(u32 plic, u32 gateway, u32 priority){
        write_u32(priority, plic + PLIC_PRIORITY_BASE + gateway*4);
f90003a8:	00259593          	slli	a1,a1,0x2
f90003ac:	00a585b3          	add	a1,a1,a0
        *((volatile u32*) address) = data;
f90003b0:	00c5a023          	sw	a2,0(a1)
    }
f90003b4:	00008067          	ret

f90003b8 <plic_set_enable>:
    static u32 plic_get_priority(u32 plic, u32 gateway){
        return read_u32(plic + PLIC_PRIORITY_BASE + gateway*4);
    }
    
    static void plic_set_enable(u32 plic, u32 target,u32 gateway, u32 enable){
        u32 word = plic + PLIC_ENABLE_BASE + target * PLIC_ENABLE_PER_HART + (gateway / 32 * 4);
f90003b8:	00759593          	slli	a1,a1,0x7
f90003bc:	00a58533          	add	a0,a1,a0
f90003c0:	00565593          	srli	a1,a2,0x5
f90003c4:	00259593          	slli	a1,a1,0x2
f90003c8:	00b50533          	add	a0,a0,a1
f90003cc:	000025b7          	lui	a1,0x2
f90003d0:	00b50533          	add	a0,a0,a1
        u32 mask = 1 << (gateway % 32);
f90003d4:	00100793          	li	a5,1
f90003d8:	00c797b3          	sll	a5,a5,a2
        if (enable)
f90003dc:	00068a63          	beqz	a3,f90003f0 <plic_set_enable+0x38>
        return *((volatile u32*) address);
f90003e0:	00052603          	lw	a2,0(a0) # f8010000 <__freertos_irq_stack_top+0xfef8de70>
            write_u32(read_u32(word) | mask, word);
f90003e4:	00c7e7b3          	or	a5,a5,a2
        *((volatile u32*) address) = data;
f90003e8:	00f52023          	sw	a5,0(a0)
f90003ec:	00008067          	ret
        return *((volatile u32*) address);
f90003f0:	00052603          	lw	a2,0(a0)
        else
            write_u32(read_u32(word) & ~mask, word);
f90003f4:	fff7c793          	not	a5,a5
f90003f8:	00c7f7b3          	and	a5,a5,a2
        *((volatile u32*) address) = data;
f90003fc:	00f52023          	sw	a5,0(a0)
    }
f9000400:	00008067          	ret

f9000404 <plic_set_threshold>:
    
    static void plic_set_threshold(u32 plic, u32 target, u32 threshold){
        write_u32(threshold, plic + PLIC_THRESHOLD_BASE + target*PLIC_CONTEXT_PER_HART);
f9000404:	00c59593          	slli	a1,a1,0xc
f9000408:	00a585b3          	add	a1,a1,a0
f900040c:	00200537          	lui	a0,0x200
f9000410:	00a585b3          	add	a1,a1,a0
f9000414:	00c5a023          	sw	a2,0(a1) # 2000 <__stack_size>
    }
f9000418:	00008067          	ret

f900041c <plic_claim>:
    static u32 plic_get_threshold(u32 plic, u32 target){
        return read_u32(plic + PLIC_THRESHOLD_BASE + target*PLIC_CONTEXT_PER_HART);
    }
    
    static u32 plic_claim(u32 plic, u32 target){
        return read_u32(plic + PLIC_CLAIM_BASE + target*PLIC_CONTEXT_PER_HART);
f900041c:	00c59593          	slli	a1,a1,0xc
f9000420:	00a585b3          	add	a1,a1,a0
f9000424:	00200537          	lui	a0,0x200
f9000428:	00450513          	addi	a0,a0,4 # 200004 <__stack_size+0x1fe004>
f900042c:	00a585b3          	add	a1,a1,a0
        return *((volatile u32*) address);
f9000430:	0005a503          	lw	a0,0(a1)
    }
f9000434:	00008067          	ret

f9000438 <plic_release>:
    
    static void plic_release(u32 plic, u32 target, u32 gateway){
        write_u32(gateway,plic + PLIC_CLAIM_BASE + target*PLIC_CONTEXT_PER_HART);
f9000438:	00c59593          	slli	a1,a1,0xc
f900043c:	00a585b3          	add	a1,a1,a0
f9000440:	00200537          	lui	a0,0x200
f9000444:	00450513          	addi	a0,a0,4 # 200004 <__stack_size+0x1fe004>
f9000448:	00a585b3          	add	a1,a1,a0
        *((volatile u32*) address) = data;
f900044c:	00c5a023          	sw	a2,0(a1)
    }
f9000450:	00008067          	ret

f9000454 <bsp_printf>:
#if (ENABLE_SEMIHOSTING_PRINT == 0)
    static void bsp_printf(const char *format, ...)
    {
f9000454:	fc010113          	addi	sp,sp,-64
f9000458:	00112e23          	sw	ra,28(sp)
f900045c:	00812c23          	sw	s0,24(sp)
f9000460:	00912a23          	sw	s1,20(sp)
f9000464:	00050493          	mv	s1,a0
f9000468:	02b12223          	sw	a1,36(sp)
f900046c:	02c12423          	sw	a2,40(sp)
f9000470:	02d12623          	sw	a3,44(sp)
f9000474:	02e12823          	sw	a4,48(sp)
f9000478:	02f12a23          	sw	a5,52(sp)
f900047c:	03012c23          	sw	a6,56(sp)
f9000480:	03112e23          	sw	a7,60(sp)
        int i;
        va_list ap;

        va_start(ap, format);
f9000484:	02410793          	addi	a5,sp,36
f9000488:	00f12623          	sw	a5,12(sp)

        for (i = 0; format[i]; i++)
f900048c:	00000413          	li	s0,0
f9000490:	01c0006f          	j	f90004ac <bsp_printf+0x58>
            if (format[i] == '%') {
                while (format[++i]) {
                    if (format[i] == 'c') {
                        bsp_printf_c(va_arg(ap,int));
f9000494:	00c12783          	lw	a5,12(sp)
f9000498:	00478713          	addi	a4,a5,4
f900049c:	00e12623          	sw	a4,12(sp)
f90004a0:	0007a503          	lw	a0,0(a5)
f90004a4:	dd1ff0ef          	jal	ra,f9000274 <bsp_printf_c>
        for (i = 0; format[i]; i++)
f90004a8:	00140413          	addi	s0,s0,1
f90004ac:	008487b3          	add	a5,s1,s0
f90004b0:	0007c503          	lbu	a0,0(a5)
f90004b4:	0c050263          	beqz	a0,f9000578 <bsp_printf+0x124>
            if (format[i] == '%') {
f90004b8:	02500793          	li	a5,37
f90004bc:	06f50663          	beq	a0,a5,f9000528 <bsp_printf+0xd4>
                        break;
                    }
#endif //#if (ENABLE_FLOATING_POINT_SUPPORT)
                }
            } else
                bsp_printf_c(format[i]);
f90004c0:	db5ff0ef          	jal	ra,f9000274 <bsp_printf_c>
f90004c4:	fe5ff06f          	j	f90004a8 <bsp_printf+0x54>
                        bsp_printf_s(va_arg(ap,char*));
f90004c8:	00c12783          	lw	a5,12(sp)
f90004cc:	00478713          	addi	a4,a5,4
f90004d0:	00e12623          	sw	a4,12(sp)
f90004d4:	0007a503          	lw	a0,0(a5)
f90004d8:	db9ff0ef          	jal	ra,f9000290 <bsp_printf_s>
                        break;
f90004dc:	fcdff06f          	j	f90004a8 <bsp_printf+0x54>
                        bsp_printf_d(va_arg(ap,int));
f90004e0:	00c12783          	lw	a5,12(sp)
f90004e4:	00478713          	addi	a4,a5,4
f90004e8:	00e12623          	sw	a4,12(sp)
f90004ec:	0007a503          	lw	a0,0(a5)
f90004f0:	db9ff0ef          	jal	ra,f90002a8 <bsp_printf_d>
                        break;
f90004f4:	fb5ff06f          	j	f90004a8 <bsp_printf+0x54>
                        bsp_printf_X(va_arg(ap,int));
f90004f8:	00c12783          	lw	a5,12(sp)
f90004fc:	00478713          	addi	a4,a5,4
f9000500:	00e12623          	sw	a4,12(sp)
f9000504:	0007a503          	lw	a0,0(a5)
f9000508:	e61ff0ef          	jal	ra,f9000368 <bsp_printf_X>
                        break;
f900050c:	f9dff06f          	j	f90004a8 <bsp_printf+0x54>
                        bsp_printf_x(va_arg(ap,int));
f9000510:	00c12783          	lw	a5,12(sp)
f9000514:	00478713          	addi	a4,a5,4
f9000518:	00e12623          	sw	a4,12(sp)
f900051c:	0007a503          	lw	a0,0(a5)
f9000520:	e09ff0ef          	jal	ra,f9000328 <bsp_printf_x>
                        break;
f9000524:	f85ff06f          	j	f90004a8 <bsp_printf+0x54>
                while (format[++i]) {
f9000528:	00140413          	addi	s0,s0,1
f900052c:	008487b3          	add	a5,s1,s0
f9000530:	0007c783          	lbu	a5,0(a5)
f9000534:	f6078ae3          	beqz	a5,f90004a8 <bsp_printf+0x54>
                    if (format[i] == 'c') {
f9000538:	06300713          	li	a4,99
f900053c:	f4e78ce3          	beq	a5,a4,f9000494 <bsp_printf+0x40>
                    else if (format[i] == 's') {
f9000540:	07300713          	li	a4,115
f9000544:	f8e782e3          	beq	a5,a4,f90004c8 <bsp_printf+0x74>
                    else if (format[i] == 'd') {
f9000548:	06400713          	li	a4,100
f900054c:	f8e78ae3          	beq	a5,a4,f90004e0 <bsp_printf+0x8c>
                    else if (format[i] == 'X') {
f9000550:	05800713          	li	a4,88
f9000554:	fae782e3          	beq	a5,a4,f90004f8 <bsp_printf+0xa4>
                    else if (format[i] == 'x') {
f9000558:	07800713          	li	a4,120
f900055c:	fae78ae3          	beq	a5,a4,f9000510 <bsp_printf+0xbc>
                    else if (format[i] == 'f') {
f9000560:	06600713          	li	a4,102
f9000564:	fce792e3          	bne	a5,a4,f9000528 <bsp_printf+0xd4>
                        bsp_printf_s("<Floating point printing not enable. Please Enable it at bsp.h first...>");
f9000568:	f9080537          	lui	a0,0xf9080
f900056c:	02850513          	addi	a0,a0,40 # f9080028 <__freertos_irq_stack_top+0xffffde98>
f9000570:	d21ff0ef          	jal	ra,f9000290 <bsp_printf_s>
                        break;
f9000574:	f35ff06f          	j	f90004a8 <bsp_printf+0x54>

        va_end(ap);
    }
f9000578:	01c12083          	lw	ra,28(sp)
f900057c:	01812403          	lw	s0,24(sp)
f9000580:	01412483          	lw	s1,20(sp)
f9000584:	04010113          	addi	sp,sp,64
f9000588:	00008067          	ret

f900058c <init>:
void trap();
void crash();
void trap_entry();
void externalInterrupt();

void init(){
f900058c:	ff010113          	addi	sp,sp,-16
f9000590:	00112623          	sw	ra,12(sp)
    //configure PLIC
    //cpu 0 accept all interrupts with priority above 0
    plic_set_threshold(BSP_PLIC, BSP_PLIC_CPU_0, 0); 
f9000594:	00000613          	li	a2,0
f9000598:	00000593          	li	a1,0
f900059c:	f8c00537          	lui	a0,0xf8c00
f90005a0:	e65ff0ef          	jal	ra,f9000404 <plic_set_threshold>
    plic_set_enable(BSP_PLIC, BSP_PLIC_CPU_0, SYSTEM_PLIC_SYSTEM_GPIO_0_IO_INTERRUPTS_0, 1);
f90005a4:	00100693          	li	a3,1
f90005a8:	00c00613          	li	a2,12
f90005ac:	00000593          	li	a1,0
f90005b0:	f8c00537          	lui	a0,0xf8c00
f90005b4:	e05ff0ef          	jal	ra,f90003b8 <plic_set_enable>
    plic_set_priority(BSP_PLIC, SYSTEM_PLIC_SYSTEM_GPIO_0_IO_INTERRUPTS_0, 1);
f90005b8:	00100613          	li	a2,1
f90005bc:	00c00593          	li	a1,12
f90005c0:	f8c00537          	lui	a0,0xf8c00
f90005c4:	de5ff0ef          	jal	ra,f90003a8 <plic_set_priority>
f90005c8:	f80167b7          	lui	a5,0xf8016
f90005cc:	00100713          	li	a4,1
f90005d0:	02e7a023          	sw	a4,32(a5) # f8016020 <__freertos_irq_stack_top+0xfef93e90>
    //Enable rising edge interrupts
    gpio_setInterruptRiseEnable(GPIO0, 1); 
    //enable interrupts
    //Set the machine trap vector (../common/trap.S)
    csr_write(mtvec, trap_entry); 
f90005d4:	f90007b7          	lui	a5,0xf9000
f90005d8:	75c78793          	addi	a5,a5,1884 # f900075c <__freertos_irq_stack_top+0xfff7e5cc>
f90005dc:	30579073          	csrw	mtvec,a5
    //Enable external interrupts
    csr_set(mie, MIE_MEIE); 
f90005e0:	000017b7          	lui	a5,0x1
f90005e4:	80078793          	addi	a5,a5,-2048 # 800 <regnum_t6+0x7e1>
f90005e8:	3047a073          	csrs	mie,a5
    csr_write(mstatus, csr_read(mstatus) | MSTATUS_MPP | MSTATUS_MIE);
f90005ec:	300027f3          	csrr	a5,mstatus
f90005f0:	00002737          	lui	a4,0x2
f90005f4:	80870713          	addi	a4,a4,-2040 # 1808 <regnum_t6+0x17e9>
f90005f8:	00e7e7b3          	or	a5,a5,a4
f90005fc:	30079073          	csrw	mstatus,a5
}
f9000600:	00c12083          	lw	ra,12(sp)
f9000604:	01010113          	addi	sp,sp,16
f9000608:	00008067          	ret

f900060c <crash>:
        plic_release(BSP_PLIC, BSP_PLIC_CPU_0, claim); 
    }
}

//Used on unexpected trap/interrupt codes
void crash(){
f900060c:	ff010113          	addi	sp,sp,-16
f9000610:	00112623          	sw	ra,12(sp)
    bsp_printf("\r\n*** CRASH ***\r\n");
f9000614:	f9080537          	lui	a0,0xf9080
f9000618:	07450513          	addi	a0,a0,116 # f9080074 <__freertos_irq_stack_top+0xffffdee4>
f900061c:	e39ff0ef          	jal	ra,f9000454 <bsp_printf>
    while(1);
f9000620:	0000006f          	j	f9000620 <crash+0x14>

f9000624 <externalInterrupt>:
void externalInterrupt(){
f9000624:	ff010113          	addi	sp,sp,-16
f9000628:	00112623          	sw	ra,12(sp)
f900062c:	00812423          	sw	s0,8(sp)
    while(claim = plic_claim(BSP_PLIC, BSP_PLIC_CPU_0)){
f9000630:	00000593          	li	a1,0
f9000634:	f8c00537          	lui	a0,0xf8c00
f9000638:	de5ff0ef          	jal	ra,f900041c <plic_claim>
f900063c:	00050413          	mv	s0,a0
f9000640:	02050863          	beqz	a0,f9000670 <externalInterrupt+0x4c>
        switch(claim){
f9000644:	00c00793          	li	a5,12
f9000648:	02f41263          	bne	s0,a5,f900066c <externalInterrupt+0x48>
        case SYSTEM_PLIC_SYSTEM_GPIO_0_IO_INTERRUPTS_0: bsp_printf("gpio 0 interrupt routine \r\n"); break;
f900064c:	f9080537          	lui	a0,0xf9080
f9000650:	08850513          	addi	a0,a0,136 # f9080088 <__freertos_irq_stack_top+0xffffdef8>
f9000654:	e01ff0ef          	jal	ra,f9000454 <bsp_printf>
        plic_release(BSP_PLIC, BSP_PLIC_CPU_0, claim); 
f9000658:	00040613          	mv	a2,s0
f900065c:	00000593          	li	a1,0
f9000660:	f8c00537          	lui	a0,0xf8c00
f9000664:	dd5ff0ef          	jal	ra,f9000438 <plic_release>
f9000668:	fc9ff06f          	j	f9000630 <externalInterrupt+0xc>
        default: crash(); break;
f900066c:	fa1ff0ef          	jal	ra,f900060c <crash>
}
f9000670:	00c12083          	lw	ra,12(sp)
f9000674:	00812403          	lw	s0,8(sp)
f9000678:	01010113          	addi	sp,sp,16
f900067c:	00008067          	ret

f9000680 <trap>:
void trap(){
f9000680:	ff010113          	addi	sp,sp,-16
f9000684:	00112623          	sw	ra,12(sp)
    int32_t mcause = csr_read(mcause);
f9000688:	342027f3          	csrr	a5,mcause
    if(interrupt){
f900068c:	0207d263          	bgez	a5,f90006b0 <trap+0x30>
f9000690:	00f7f713          	andi	a4,a5,15
        switch(cause){
f9000694:	00b00793          	li	a5,11
f9000698:	00f71a63          	bne	a4,a5,f90006ac <trap+0x2c>
        case CAUSE_MACHINE_EXTERNAL: externalInterrupt(); break;
f900069c:	f89ff0ef          	jal	ra,f9000624 <externalInterrupt>
}
f90006a0:	00c12083          	lw	ra,12(sp)
f90006a4:	01010113          	addi	sp,sp,16
f90006a8:	00008067          	ret
        default: crash(); break;
f90006ac:	f61ff0ef          	jal	ra,f900060c <crash>
        crash();
f90006b0:	f5dff0ef          	jal	ra,f900060c <crash>

f90006b4 <main>:
}

void main() {
f90006b4:	ff010113          	addi	sp,sp,-16
f90006b8:	00112623          	sw	ra,12(sp)
f90006bc:	00812423          	sw	s0,8(sp)
    bsp_init();
    bsp_printf("gpio 0 demo ! \r\n");
f90006c0:	f9080537          	lui	a0,0xf9080
f90006c4:	0a450513          	addi	a0,a0,164 # f90800a4 <__freertos_irq_stack_top+0xffffdf14>
f90006c8:	d8dff0ef          	jal	ra,f9000454 <bsp_printf>
    bsp_printf("onboard LEDs blinking \r\n");
f90006cc:	f9080537          	lui	a0,0xf9080
f90006d0:	0b850513          	addi	a0,a0,184 # f90800b8 <__freertos_irq_stack_top+0xffffdf28>
f90006d4:	d81ff0ef          	jal	ra,f9000454 <bsp_printf>
f90006d8:	f80167b7          	lui	a5,0xf8016
f90006dc:	00e00713          	li	a4,14
f90006e0:	00e7a423          	sw	a4,8(a5) # f8016008 <__freertos_irq_stack_top+0xfef93e78>
f90006e4:	0007a223          	sw	zero,4(a5)
    //configure 4 bits gpio 0
    gpio_setOutputEnable(GPIO0, 0xe);
    gpio_setOutput(GPIO0, 0x0);
    for (int i=0; i<50; i=i+1) {
f90006e8:	00000413          	li	s0,0
f90006ec:	0300006f          	j	f900071c <main+0x68>
        return *((volatile u32*) address);
f90006f0:	f8016737          	lui	a4,0xf8016
f90006f4:	00472783          	lw	a5,4(a4) # f8016004 <__freertos_irq_stack_top+0xfef93e74>
        gpio_setOutput(GPIO0, gpio_getOutput(GPIO0) ^ 0xe);
f90006f8:	00e7c793          	xori	a5,a5,14
        *((volatile u32*) address) = data;
f90006fc:	00f72223          	sw	a5,4(a4)
        bsp_uDelay(LOOP_UDELAY);
f9000700:	f8b00637          	lui	a2,0xf8b00
f9000704:	047875b7          	lui	a1,0x4787
f9000708:	8c058593          	addi	a1,a1,-1856 # 47868c0 <__stack_size+0x47848c0>
f900070c:	00018537          	lui	a0,0x18
f9000710:	6a050513          	addi	a0,a0,1696 # 186a0 <__stack_size+0x166a0>
f9000714:	a31ff0ef          	jal	ra,f9000144 <clint_uDelay>
    for (int i=0; i<50; i=i+1) {
f9000718:	00140413          	addi	s0,s0,1
f900071c:	03100793          	li	a5,49
f9000720:	fc87d8e3          	bge	a5,s0,f90006f0 <main+0x3c>
    }   
    bsp_printf("gpio 0 interrupt demo ! \r\n");
f9000724:	f9080537          	lui	a0,0xf9080
f9000728:	0d450513          	addi	a0,a0,212 # f90800d4 <__freertos_irq_stack_top+0xffffdf44>
f900072c:	d29ff0ef          	jal	ra,f9000454 <bsp_printf>
    bsp_printf("Ti180 press and release onboard button sw4 \r\n");
f9000730:	f9080537          	lui	a0,0xf9080
f9000734:	0f050513          	addi	a0,a0,240 # f90800f0 <__freertos_irq_stack_top+0xffffdf60>
f9000738:	d1dff0ef          	jal	ra,f9000454 <bsp_printf>
    bsp_printf("Ti60 press and release onboard button sw6 \r\n");
f900073c:	f9080537          	lui	a0,0xf9080
f9000740:	12050513          	addi	a0,a0,288 # f9080120 <__freertos_irq_stack_top+0xffffdf90>
f9000744:	d11ff0ef          	jal	ra,f9000454 <bsp_printf>
    bsp_printf("T120 press and release onboard button sw7 \r\n");
f9000748:	f9080537          	lui	a0,0xf9080
f900074c:	15050513          	addi	a0,a0,336 # f9080150 <__freertos_irq_stack_top+0xffffdfc0>
f9000750:	d05ff0ef          	jal	ra,f9000454 <bsp_printf>
    init();
f9000754:	e39ff0ef          	jal	ra,f900058c <init>
    while(1); 
f9000758:	0000006f          	j	f9000758 <main+0xa4>

f900075c <trap_entry>:
.global  trap_entry
.align(2) //mtvec require 32 bits allignement
trap_entry:
  addi sp,sp, -16*4
f900075c:	fc010113          	addi	sp,sp,-64
  sw x1,   0*4(sp)
f9000760:	00112023          	sw	ra,0(sp)
  sw x5,   1*4(sp)
f9000764:	00512223          	sw	t0,4(sp)
  sw x6,   2*4(sp)
f9000768:	00612423          	sw	t1,8(sp)
  sw x7,   3*4(sp)
f900076c:	00712623          	sw	t2,12(sp)
  sw x10,  4*4(sp)
f9000770:	00a12823          	sw	a0,16(sp)
  sw x11,  5*4(sp)
f9000774:	00b12a23          	sw	a1,20(sp)
  sw x12,  6*4(sp)
f9000778:	00c12c23          	sw	a2,24(sp)
  sw x13,  7*4(sp)
f900077c:	00d12e23          	sw	a3,28(sp)
  sw x14,  8*4(sp)
f9000780:	02e12023          	sw	a4,32(sp)
  sw x15,  9*4(sp)
f9000784:	02f12223          	sw	a5,36(sp)
  sw x16, 10*4(sp)
f9000788:	03012423          	sw	a6,40(sp)
  sw x17, 11*4(sp)
f900078c:	03112623          	sw	a7,44(sp)
  sw x28, 12*4(sp)
f9000790:	03c12823          	sw	t3,48(sp)
  sw x29, 13*4(sp)
f9000794:	03d12a23          	sw	t4,52(sp)
  sw x30, 14*4(sp)
f9000798:	03e12c23          	sw	t5,56(sp)
  sw x31, 15*4(sp)
f900079c:	03f12e23          	sw	t6,60(sp)
  call trap
f90007a0:	ee1ff0ef          	jal	ra,f9000680 <trap>
  lw x1 ,  0*4(sp)
f90007a4:	00012083          	lw	ra,0(sp)
  lw x5,   1*4(sp)
f90007a8:	00412283          	lw	t0,4(sp)
  lw x6,   2*4(sp)
f90007ac:	00812303          	lw	t1,8(sp)
  lw x7,   3*4(sp)
f90007b0:	00c12383          	lw	t2,12(sp)
  lw x10,  4*4(sp)
f90007b4:	01012503          	lw	a0,16(sp)
  lw x11,  5*4(sp)
f90007b8:	01412583          	lw	a1,20(sp)
  lw x12,  6*4(sp)
f90007bc:	01812603          	lw	a2,24(sp)
  lw x13,  7*4(sp)
f90007c0:	01c12683          	lw	a3,28(sp)
  lw x14,  8*4(sp)
f90007c4:	02012703          	lw	a4,32(sp)
  lw x15,  9*4(sp)
f90007c8:	02412783          	lw	a5,36(sp)
  lw x16, 10*4(sp)
f90007cc:	02812803          	lw	a6,40(sp)
  lw x17, 11*4(sp)
f90007d0:	02c12883          	lw	a7,44(sp)
  lw x28, 12*4(sp)
f90007d4:	03012e03          	lw	t3,48(sp)
  lw x29, 13*4(sp)
f90007d8:	03412e83          	lw	t4,52(sp)
  lw x30, 14*4(sp)
f90007dc:	03812f03          	lw	t5,56(sp)
  lw x31, 15*4(sp)
f90007e0:	03c12f83          	lw	t6,60(sp)
  addi sp,sp, 16*4
f90007e4:	04010113          	addi	sp,sp,64
  mret
f90007e8:	30200073          	mret
