
build/gpioDemo_Trinita.elf:     file format elf32-littleriscv

Contents of section .rom_section.init:
 f9000000 97110800 93810197 17210800 13018118  .........!......
 f9000010 17050800 130505ff 97050800 938585fe  ................
 f9000020 1386c181 63fcc500 83220500 23a05500  ....c...."..#.U.
 f9000030 13054500 93854500 e3e8c5fe 1385c181  ..E...E.........
 f9000040 93850182 6378b500 23200500 13054500  ....cx..# ....E.
 f9000050 e36cb5fe ef000001 ef00c065 6f000000  .l.........eo...
 f9000060 67800000                             g...            
Contents of section .rom_section.text:
 f9000064 130101ff 23248100 23202101 17040800  ....#$..# !.....
 f9000074 130404f9 17090800 130989f8 33098940  ............3..@
 f9000084 23261100 23229100 13592940 630e0900  #&..#"...Y)@c...
 f9000094 93040000 83270400 93841400 13044400  .....'........D.
 f90000a4 e7800700 e31899fe 17040800 130444f5  ..............D.
 f90000b4 17090800 1309c9f4 33098940 13592940  ........3..@.Y)@
 f90000c4 630e0900 93040000 83270400 93841400  c........'......
 f90000d4 13044400 e7800700 e31899fe 8320c100  ..D.......... ..
 f90000e4 03248100 83244100 03290100 13010101  .$...$A..)......
 f90000f4 67800000 03254500 13550501 1375f50f  g....%E..U...u..
 f9000104 67800000 130101ff 23261100 23248100  g.......#&..#$..
 f9000114 23229100 13040500 93840500 13050400  #"..............
 f9000124 eff05ffd e30c05fe 23209400 8320c100  .._.....# ... ..
 f9000134 03248100 83244100 13010101 67800000  .$...$A.....g...
 f9000144 b7470f00 93870724 b3d5f502 b7c70000  .G.....$........
 f9000154 938787ff 3306f600 83270600 3385a502  ....3....'..3...
 f9000164 3305f500 83270600 b307f540 e3dc07fe  3....'.....@....
 f9000174 67800000 130101ff 23261100 93050500  g.......#&......
 f9000184 370501f8 eff01ff8 8320c100 13010101  7........ ......
 f9000194 67800000 130101ff 23261100 23248100  g.......#&..#$..
 f90001a4 13040500 03450400 63080500 13041400  .....E..c.......
 f90001b4 eff05ffc 6ff01fff 8320c100 03248100  .._.o.... ...$..
 f90001c4 13010101 67800000 130101ff 23261100  ....g.......#&..
 f90001d4 23248100 23229100 93040500 1304c001  #$..#"..........
 f90001e4 6f004002 b3d78400 13f7f700 b70708f9  o.@.............
 f90001f4 93870700 b387e700 03c50700 eff09ff7  ................
 f9000204 1304c4ff e35004fe 8320c100 03248100  .....P... ...$..
 f9000214 83244100 13010101 67800000 130101ff  .$A.....g.......
 f9000224 23261100 23248100 23229100 93040500  #&..#$..#"......
 f9000234 1304c001 6f004002 b3d78400 13f7f700  ....o.@.........
 f9000244 b70708f9 93874701 b387e700 03c50700  ......G.........
 f9000254 eff05ff2 1304c4ff e35004fe 8320c100  .._......P... ..
 f9000264 03248100 83244100 13010101 67800000  .$...$A.....g...
 f9000274 130101ff 23261100 1375f50f eff09fef  ....#&...u......
 f9000284 8320c100 13010101 67800000 130101ff  . ......g.......
 f9000294 23261100 eff01ff0 8320c100 13010101  #&....... ......
 f90002a4 67800000 130101fd 23261102 23248102  g.......#&..#$..
 f90002b4 23229102 93040500 63460500 13040100  #"......cF......
 f90002c4 6f00c002 1305d002 eff09ffa b3049040  o..............@
 f90002d4 6ff0dffe 1307a000 b3e7e402 93870703  o...............
 f90002e4 2300f400 b3c4e402 13041400 e39404fe  #...............
 f90002f4 93070100 e300f4fe 6f000001 1304f4ff  ........o.......
 f9000304 03450400 eff0dff6 93070100 e318f4fe  .E..............
 f9000314 8320c102 03248102 83244102 13010103  . ...$...$A.....
 f9000324 67800000 130101ff 23261100 13070000  g.......#&......
 f9000334 93077000 63c0e702 93162700 930700ff  ..p.c.....'.....
 f9000344 b397d700 b377f500 63860700 13071700  .....w..c.......
 f9000354 6ff01ffe eff09fec 8320c100 13010101  o........ ......
 f9000364 67800000 130101ff 23261100 13070000  g.......#&......
 f9000374 93077000 63c0e702 93162700 930700ff  ..p.c.....'.....
 f9000384 b397d700 b377f500 63860700 13071700  .....w..c.......
 f9000394 6ff01ffe eff05fe3 8320c100 13010101  o....._.. ......
 f90003a4 67800000 93952500 b385a500 23a0c500  g.....%.....#...
 f90003b4 67800000 93957500 3385a500 93555600  g.....u.3....UV.
 f90003c4 93952500 3305b500 b7250000 3305b500  ..%.3....%..3...
 f90003d4 93071000 b397c700 638a0600 03260500  ........c....&..
 f90003e4 b3e7c700 2320f500 67800000 03260500  ....# ..g....&..
 f90003f4 93c7f7ff b3f7c700 2320f500 67800000  ........# ..g...
 f9000404 9395c500 b385a500 37052000 b385a500  ........7. .....
 f9000414 23a0c500 67800000 9395c500 b385a500  #...g...........
 f9000424 37052000 13054500 b385a500 03a50500  7. ...E.........
 f9000434 67800000 9395c500 b385a500 37052000  g...........7. .
 f9000444 13054500 b385a500 23a0c500 67800000  ..E.....#...g...
 f9000454 130101fc 232e1100 232c8100 232a9100  ....#...#,..#*..
 f9000464 93040500 2322b102 2324c102 2326d102  ....#"..#$..#&..
 f9000474 2328e102 232af102 232c0103 232e1103  #(..#*..#,..#...
 f9000484 93074102 2326f100 13040000 6f00c001  ..A.#&......o...
 f9000494 8327c100 13874700 2326e100 03a50700  .'....G.#&......
 f90004a4 eff01fdd 13041400 b3878400 03c50700  ................
 f90004b4 6302050c 93075002 6306f506 eff05fdb  c.....P.c....._.
 f90004c4 6ff05ffe 8327c100 13874700 2326e100  o._..'....G.#&..
 f90004d4 03a50700 eff09fdb 6ff0dffc 8327c100  ........o....'..
 f90004e4 13874700 2326e100 03a50700 eff09fdb  ..G.#&..........
 f90004f4 6ff05ffb 8327c100 13874700 2326e100  o._..'....G.#&..
 f9000504 03a50700 eff01fe6 6ff0dff9 8327c100  ........o....'..
 f9000514 13874700 2326e100 03a50700 eff09fe0  ..G.#&..........
 f9000524 6ff05ff8 13041400 b3878400 83c70700  o._.............
 f9000534 e38a07f6 13073006 e38ce7f4 13073007  ......0.......0.
 f9000544 e382e7f8 13074006 e38ae7f8 13078005  ......@.........
 f9000554 e382e7fa 13078007 e38ae7fa 13076006  ..............`.
 f9000564 e392e7fc 370508f9 13058502 eff01fd2  ....7...........
 f9000574 6ff05ff3 8320c101 03248101 83244101  o._.. ...$...$A.
 f9000584 13010104 67800000 130101ff 23261100  ....g.......#&..
 f9000594 13060000 93050000 3705c0f8 eff05fe6  ........7....._.
 f90005a4 93061000 1306c000 93050000 3705c0f8  ............7...
 f90005b4 eff05fe0 13061000 9305c000 3705c0f8  .._.........7...
 f90005c4 eff05fde b76701f8 13071000 23a0e702  .._..g......#...
 f90005d4 b70700f9 9387c775 73905730 b7170000  .......us.W0....
 f90005e4 93870780 73a04730 f3270030 37270000  ....s.G0.'.07'..
 f90005f4 13078780 b3e7e700 73900730 8320c100  ........s..0. ..
 f9000604 13010101 67800000 130101ff 23261100  ....g.......#&..
 f9000614 370508f9 13054507 eff09fe3 6f000000  7.....E.....o...
 f9000624 130101ff 23261100 23248100 93050000  ....#&..#$......
 f9000634 3705c0f8 eff05fde 13040500 63080502  7....._.....c...
 f9000644 9307c000 6312f402 370508f9 13058508  ....c...7.......
 f9000654 eff01fe0 13060400 93050000 3705c0f8  ............7...
 f9000664 eff05fdd 6ff09ffc eff01ffa 8320c100  .._.o........ ..
 f9000674 03248100 13010101 67800000 130101ff  .$......g.......
 f9000684 23261100 f3272034 63d20702 13f7f700  #&...' 4c.......
 f9000694 9307b000 631af700 eff09ff8 8320c100  ....c........ ..
 f90006a4 13010101 67800000 eff01ff6 eff0dff5  ....g...........
 f90006b4 130101ff 23261100 23248100 370508f9  ....#&..#$..7...
 f90006c4 1305450a eff0dfd8 370508f9 1305850b  ..E.....7.......
 f90006d4 eff01fd8 b76701f8 1307e000 23a4e700  .....g......#...
 f90006e4 23a20700 13040000 6f000003 376701f8  #.......o...7g..
 f90006f4 83274700 93c7e700 2322f700 3706b0f8  .'G.....#"..7...
 f9000704 b7857d01 93850584 37850100 1305056a  ..}.....7......j
 f9000714 eff01fa3 13041400 93071003 e3d887fc  ................
 f9000724 370508f9 1305450d eff09fd2 370508f9  7.....E.....7...
 f9000734 1305050f eff0dfd1 370508f9 13050512  ........7.......
 f9000744 eff01fd1 370508f9 13050515 eff05fd0  ....7........._.
 f9000754 eff09fe3 6f000000 130101fc 23201100  ....o.......# ..
 f9000764 23225100 23246100 23267100 2328a100  #"Q.#$a.#&q.#(..
 f9000774 232ab100 232cc100 232ed100 2320e102  #*..#,..#...# ..
 f9000784 2322f102 23240103 23261103 2328c103  #"..#$..#&..#(..
 f9000794 232ad103 232ce103 232ef103 eff01fee  #*..#,..#.......
 f90007a4 83200100 83224100 03238100 8323c100  . ..."A..#...#..
 f90007b4 03250101 83254101 03268101 8326c101  .%...%A..&...&..
 f90007c4 03270102 83274102 03288102 8328c102  .'...'A..(...(..
 f90007d4 032e0103 832e4103 032f8103 832fc103  ......A../.../..
 f90007e4 13010104 73002030                    ....s. 0        
Contents of section .ram_section.data:
 f9080000 30313233 34353637 38394142 43444546  0123456789ABCDEF
 f9080010 00000000 30313233 34353637 38396162  ....0123456789ab
 f9080020 63646566 00000000 3c466c6f 6174696e  cdef....<Floatin
 f9080030 6720706f 696e7420 7072696e 74696e67  g point printing
 f9080040 206e6f74 20656e61 626c652e 20506c65   not enable. Ple
 f9080050 61736520 456e6162 6c652069 74206174  ase Enable it at
 f9080060 20627370 2e682066 69727374 2e2e2e3e   bsp.h first...>
 f9080070 00000000 0d0a2a2a 2a204352 41534820  ......*** CRASH 
 f9080080 2a2a2a0d 0a000000 6770696f 20302069  ***.....gpio 0 i
 f9080090 6e746572 72757074 20726f75 74696e65  nterrupt routine
 f90800a0 200d0a00 6770696f 20302064 656d6f20   ...gpio 0 demo 
 f90800b0 21200d0a 00000000 6f6e626f 61726420  ! ......onboard 
 f90800c0 4c454473 20626c69 6e6b696e 67200d0a  LEDs blinking ..
 f90800d0 00000000 6770696f 20302069 6e746572  ....gpio 0 inter
 f90800e0 72757074 2064656d 6f202120 0d0a0000  rupt demo ! ....
 f90800f0 54693138 30207072 65737320 616e6420  Ti180 press and 
 f9080100 72656c65 61736520 6f6e626f 61726420  release onboard 
 f9080110 62757474 6f6e2073 7734200d 0a000000  button sw4 .....
 f9080120 54693630 20707265 73732061 6e642072  Ti60 press and r
 f9080130 656c6561 7365206f 6e626f61 72642062  elease onboard b
 f9080140 7574746f 6e207377 36200d0a 00000000  utton sw6 ......
 f9080150 54313230 20707265 73732061 6e642072  T120 press and r
 f9080160 656c6561 7365206f 6e626f61 72642062  elease onboard b
 f9080170 7574746f 6e207377 37200d0a 00000000  utton sw7 ......
 f9080180 00000000 00000000 0000               ..........      
Contents of section .debug_info:
 0000 14160000 04000000 00000401 24590000  ............$Y..
 0010 0c6f2100 00b10800 00f80000 f9640600  .o!..........d..
 0020 00000000 00000000 00020106 96530000  .............S..
 0030 0201089e 50000002 02056908 00000202  ....P.....i.....
 0040 07bb5e00 00033a80 0000094d 18510000  ..^...:....M.Q..
 0050 00020405 84840000 03ff4200 00094f19  ..........B...O.
 0060 64000000 02040766 18000002 08058946  d......f.......F
 0070 00000208 07666c00 00040405 696e7400  .....fl.....int.
 0080 020407c1 1f000003 3c800000 0a2c1345  ........<....,.E
 0090 00000003 01430000 0a301458 00000005  .....C...0.X....
 00a0 75333200 121e1593 00000003 a1230000  u32..........#..
 00b0 0b281bb7 00000006 04872200 0003007f  .(........".....
 00c0 00000b63 18ab0000 00021004 7a030000  ...c........z...
 00d0 07d32100 000c6501 17800000 0003067c  ..!...e........|
 00e0 00000d2e 0e510000 0003a159 00000d74  .....Q.....Y...t
 00f0 0e510000 00038e72 00000d93 17790000  .Q.....r.....y..
 0100 0008040d a5032301 000009e6 0f00000d  ......#.........
 0110 a70cd000 000009bf 5900000d a8132301  ........Y.....#.
 0120 0000000a 30000000 33010000 0b800000  ....0...3.......
 0130 0003000c 080da209 57010000 0dff5300  ........W.....S.
 0140 000da407 79000000 000ded02 00000da9  ....y...........
 0150 05010100 00040003 4a650000 0daa0333  ........Je.....3
 0160 0100000e 0403e778 00000e16 19640000  .......x.....d..
 0170 0003fc3b 00000f0c 0d790000 00035264  ...;.....y....Rd
 0180 00000e23 1b710100 000f3b3f 0000180e  ...#.q....;?....
 0190 3408e301 00000d64 5100000e 3613e301  4......dQ...6...
 01a0 00000010 5f6b000e 37077900 0000040d  ...._k..7.y.....
 01b0 16720000 0e370b79 00000008 0d234900  .r...7.y.....#I.
 01c0 000e3714 79000000 0c0d2d33 00000e37  ..7.y.....-3...7
 01d0 1b790000 0010105f 78000e38 0be90100  .y....._x..8....
 01e0 00140011 04890100 000a6501 0000f901  ..........e.....
 01f0 00000b80 00000000 000f3008 0000240e  ..........0...$.
 0200 3c087c02 00000d42 0800000e 3e097900  <.|....B....>.y.
 0210 0000000d dd850000 0e3f0979 00000004  .........?.y....
 0220 0d967d00 000e4009 79000000 080d0150  ..}...@.y......P
 0230 00000e41 09790000 000c0def 1800000e  ...A.y..........
 0240 42097900 0000100d 6c720000 0e430979  B.y.....lr...C.y
 0250 00000014 0d805500 000e4409 79000000  ......U...D.y...
 0260 180d3356 00000e45 09790000 001c0db2  ..3V...E.y......
 0270 8100000e 46097900 00002000 128d1100  ....F.y... .....
 0280 0008010e 4f08c102 00000da1 8100000e  ....O...........
 0290 500ac102 0000000d 0c5e0000 0e5109c1  P........^...Q..
 02a0 02000080 13c01700 000e530a 65010000  ..........S.e...
 02b0 0001132e 7700000e 560a6501 00000401  ....w...V.e.....
 02c0 000a6301 0000d102 00000b80 0000001f  ..c.............
 02d0 00123252 00009001 0e620814 0300000d  ..2R.....b......
 02e0 64510000 0e631214 03000000 0d977500  dQ...c........u.
 02f0 000e6406 79000000 040db325 00000e66  ..d.y......%...f
 0300 091a0300 00080d8d 1100000e 671e7c02  ............g.|.
 0310 00008800 1104d102 00000a2a 0300002a  ...........*...*
 0320 0300000b 80000000 1f001104 30030000  ............0...
 0330 140f4317 0000080e 7a085903 00000d1c  ..C.....z.Y.....
 0340 6100000e 7b115903 0000000d 360a0000  a...{.Y.....6...
 0350 0e7c0679 00000004 00110430 0000000f  .|.y.......0....
 0360 df7d0000 680eba08 a2040000 105f7000  .}..h........_p.
 0370 0ebb1259 03000000 105f7200 0ebc0779  ...Y....._r....y
 0380 00000004 105f7700 0ebd0779 00000008  ....._w....y....
 0390 0d815100 000ebe09 37000000 0c0d3c11  ..Q.....7.....<.
 03a0 00000ebf 09370000 000e105f 6266000e  .....7....._bf..
 03b0 c0113103 0000100d 23750000 0ec10779  ..1.....#u.....y
 03c0 00000018 0d793200 000ec80a 63010000  .....y2.....c...
 03d0 1c0df703 00000eca 1d260600 00200d7f  .........&... ..
 03e0 4b00000e cc1d5006 0000240d ff580000  K.....P...$..X..
 03f0 0ecf0d74 06000028 0d712600 000ed009  ...t...(.q&.....
 0400 8e060000 2c105f75 62000ed3 11310300  ....,._ub....1..
 0410 0030105f 7570000e d4125903 00003810  .0._up....Y...8.
 0420 5f757200 0ed50779 0000003c 0d4b5000  _ur....y...<.KP.
 0430 000ed811 94060000 400d3c08 00000ed9  ........@.<.....
 0440 11a40600 0043105f 6c62000e dc113103  .....C._lb....1.
 0450 0000440d 84600000 0edf0779 0000004c  ..D..`.....y...L
 0460 0def3400 000ee00a dd000000 500d3e67  ..4.........P.>g
 0470 00000ee3 12c00400 00540df2 0a00000e  .........T......
 0480 e70c7d01 0000580d fe500000 0ee90e57  ..}...X..P.....W
 0490 0100005c 0d594b00 000eea09 79000000  ...\.YK.....y...
 04a0 640015f5 000000c0 04000016 c0040000  d...............
 04b0 16630100 00161406 00001679 00000000  .c.........y....
 04c0 1104cb04 000017c0 04000018 4b220000  ............K"..
 04d0 28040e65 02081406 00001943 4e00000e  (..e.......CN...
 04e0 67020779 00000000 19982900 000e6c02  g..y......)...l.
 04f0 0b000700 0004191b 1e00000e 6c021400  ............l...
 0500 07000008 19ac5000 000e6c02 1e000700  ......P...l.....
 0510 000c19f8 2300000e 6e020879 00000010  ....#...n..y....
 0520 190a4300 000e6f02 08000900 001419b3  ..C...o.........
 0530 2100000e 72020779 00000030 19c12d00  !...r..y...0..-.
 0540 000e7302 16150900 003419f1 3900000e  ..s......4..9...
 0550 75020779 00000038 19484000 000e7702  u..y...8.H@...w.
 0560 0a260900 003c1998 7a00000e 7a0213e3  .&...<..z...z...
 0570 01000040 19787300 000e7b02 07790000  ...@.xs...{..y..
 0580 00441923 3900000e 7c0213e3 01000048  .D.#9...|......H
 0590 193a4800 000e7d02 142c0900 004c1918  .:H...}..,...L..
 05a0 0600000e 80020779 00000050 19203500  .......y...P. 5.
 05b0 000e8102 09140600 0054192c 5000000e  .........T.,P...
 05c0 a40207db 08000058 1a325200 000ea802  .......X.2R.....
 05d0 13140300 0048011a 6a400000 0ea90212  .....H..j@......
 05e0 d1020000 4c011a02 3400000e ad020c3d  ....L...4......=
 05f0 090000dc 021a4b81 00000eb2 0210c106  ......K.........
 0600 0000e002 1a360300 000eb402 0a490900  .....6.......I..
 0610 00ec0200 11041a06 00000201 089d5300  ..............S.
 0620 00171a06 00001104 a2040000 15f50000  ................
 0630 004a0600 0016c004 00001663 01000016  .J.........c....
 0640 4a060000 16790000 00001104 21060000  J....y......!...
 0650 11042c06 000015e9 00000074 06000016  ..,........t....
 0660 c0040000 16630100 0016e900 00001679  .....c.........y
 0670 00000000 11045606 00001579 0000008e  ......V....y....
 0680 06000016 c0040000 16630100 00001104  .........c......
 0690 7a060000 0a300000 00a40600 000b8000  z....0..........
 06a0 00000200 0a300000 00b40600 000b8000  .....0..........
 06b0 00000000 078e6400 000e2401 1a5f0300  ......d...$.._..
 06c0 001b1d49 00000c0e 280108fa 06000019  ...I....(.......
 06d0 64510000 0e2a0111 fa060000 0019a044  dQ...*.........D
 06e0 00000e2b 01077900 00000419 64350000  ...+..y.....d5..
 06f0 0e2c010b 00070000 08001104 c1060000  .,..............
 0700 1104b406 00001b5d 5e00000e 0e440108  .......]^....D..
 0710 3f070000 196b5800 000e4501 123f0700  ?....kX...E..?..
 0720 00001988 0c00000e 4601123f 07000006  ........F..?....
 0730 19f07c00 000e4701 123e0000 000c000a  ..|...G..>......
 0740 3e000000 4f070000 0b800000 0002001c  >...O...........
 0750 d00e8502 07640800 0019b51b 00000e87  .....d..........
 0760 02188000 00000019 aa130000 0e880212  ................
 0770 14060000 0419f405 00000e89 02106408  ..............d.
 0780 00000819 c9160000 0e8a0217 f9010000  ................
 0790 24191346 00000e8b 020f7900 00004819  $..F......y...H.
 07a0 5f510000 0e8c022c 72000000 5019b365  _Q.....,r...P..e
 07b0 00000e8d 021a0607 00005819 686d0000  ..........X.hm..
 07c0 0e8e0216 57010000 68198e5a 00000e8f  ....W...h..Z....
 07d0 02165701 00007019 d6500000 0e900216  ..W...p..P......
 07e0 57010000 78198408 00000e91 02107408  W...x.........t.
 07f0 00008019 2e3e0000 0e920210 84080000  .....>..........
 0800 88197b0c 00000e93 020f7900 0000a019  ..{.......y.....
 0810 04140000 0e940216 57010000 a4194426  ........W.....D&
 0820 00000e95 02165701 0000ac19 7e7f0000  ......W.....~...
 0830 0e960216 57010000 b419b54f 00000e97  ....W......O....
 0840 02165701 0000bc19 594a0000 0e980216  ..W.....YJ......
 0850 57010000 c419414e 00000e99 02087900  W.....AN......y.
 0860 0000cc00 0a1a0600 00740800 000b8000  .........t......
 0870 00001900 0a1a0600 00840800 000b8000  ................
 0880 00000700 0a1a0600 00940800 000b8000  ................
 0890 00001700 1cf00e9e 0207bb08 00001991  ................
 08a0 7700000e a1021bbb 08000000 19964500  w.............E.
 08b0 000ea202 18cb0800 0078000a 59030000  .........x..Y...
 08c0 cb080000 0b800000 001d000a 80000000  ................
 08d0 db080000 0b800000 001d001d f00e8302  ................
 08e0 03000900 001e4b22 00000e9a 020b4f07  ......K"......O.
 08f0 00001e99 2300000e a3020b94 08000000  ....#...........
 0900 0a1a0600 00100900 000b8000 00001800  ................
 0910 1f094500 00110410 09000020 26090000  ..E........ &...
 0920 16c00400 00001104 1b090000 1104e301  ................
 0930 0000203d 09000016 79000000 00110443  .. =....y......C
 0940 09000011 04320900 000ab406 00005909  .....2........Y.
 0950 00000b80 00000002 0021ac10 00000e33  .........!.....3
 0960 0317c004 0000213c 7200000e 34031dc6  ......!<r...4...
 0970 04000022 54710000 10670e14 06000002  ..."Tq...g......
 0980 04047a7d 00000208 047f0300 00232c43  ..z}.........#,C
 0990 00000504 79000000 115f0206 ad090000  ....y...._......
 09a0 24e82400 007f2585 4f000000 0021403b  $.$...%.O....!@;
 09b0 00001168 02238d09 00002683 17000007  ...h.#....&.....
 09c0 7106b406 00f9a800 0000019c b70b0000  q...............
 09d0 27000000 008f0a00 00286900 07780e79  '........(i..x.y
 09e0 00000000 00000029 08110000 f00600f9  .......)........
 09f0 08000000 07791f1f 0a00002a 19110000  .....y.....*....
 0a00 1f000000 2bfd1500 00f00600 f9080000  ....+...........
 0a10 00082705 2a0a1600 00370000 00000029  ..'.*....7.....)
 0a20 e2100000 fc0600f9 04000000 07790969  .............y.i
 0a30 0a00002a fb100000 4f000000 2aef1000  ...*....O...*...
 0a40 00620000 002bd715 0000fc06 00f90400  .b...+..........
 0a50 00000828 052af015 00007a00 00002ae4  ...(.*....z...*.
 0a60 1500004f 00000000 002c1807 00f93814  ...O.....,....8.
 0a70 00002d01 5a050ca0 8601002d 015b050c  ..-.Z......-.[..
 0a80 40787d01 2d015c05 118080c0 45000029  @x}.-.\.....E..)
 0a90 bc100000 d80600f9 0c000000 077605d9  .............v..
 0aa0 0a00002a d5100000 92000000 2ac91000  ...*........*...
 0ab0 00a60000 002bd715 0000d806 00f90c00  .....+..........
 0ac0 0000082a 052af015 0000be00 00002ae4  ...*.*........*.
 0ad0 15000092 00000000 0029e210 0000e406  .........)......
 0ae0 00f90400 00000777 05230b00 002afb10  .......w.#...*..
 0af0 0000d600 00002aef 100000ea 0000002b  ......*........+
 0b00 d7150000 e40600f9 04000000 0828052a  .............(.*
 0b10 f0150000 02010000 2ae41500 00d60000  ........*.......
 0b20 0000002e cc0600f9 26110000 3a0b0000  ........&...:...
 0b30 2d015a05 03a40008 f9002ed8 0600f926  -.Z............&
 0b40 11000051 0b00002d 015a0503 b80008f9  ...Q...-.Z......
 0b50 002e3007 00f92611 0000680b 00002d01  ..0...&...h...-.
 0b60 5a0503d4 0008f900 2e3c0700 f9261100  Z........<...&..
 0b70 007f0b00 002d015a 0503f000 08f9002e  .....-.Z........
 0b80 480700f9 26110000 960b0000 2d015a05  H...&.......-.Z.
 0b90 03200108 f9002e54 0700f926 110000ad  . .....T...&....
 0ba0 0b00002d 015a0503 500108f9 002f5807  ...-.Z..P..../X.
 0bb0 00f9e40c 00000026 b46a0000 076c060c  .......&.j...l..
 0bc0 0600f918 00000001 9ce10b00 002c2006  ............., .
 0bd0 00f92611 00002d01 5a050374 0008f900  ..&...-.Z..t....
 0be0 00262d2a 0000075e 06240600 f95c0000  .&-*...^.$...\..
 0bf0 00019c64 0c000030 8f550000 075f0e93  ...d...0.U..._..
 0c00 0000001a 0100002e 3c0600f9 7e0e0000  ........<...~...
 0c10 220c0000 2d015a04 4d46241f 2d015b01  "...-.Z.MF$.-.[.
 0c20 30002e58 0600f926 11000039 0c00002d  0..X...&...9...-
 0c30 015a0503 880008f9 002e6806 00f9160e  .Z........h.....
 0c40 00005a0c 00002d01 5a044d46 241f2d01  ..Z...-.Z.MF$.-.
 0c50 5b01302d 015c0278 00002f70 0600f9b7  [.0-.\.x../p....
 0c60 0b000000 26331a00 00075006 800600f9  ....&3....P.....
 0c70 34000000 019ce40c 00003065 72000007  4.........0er...
 0c80 510d8700 00003801 00003055 7b000007  Q.....8...0U{...
 0c90 520d8700 00005601 00003066 72000007  R.....V...0fr...
 0ca0 530d8700 00008201 00003188 0600f904  S.........1.....
 0cb0 000000c8 0c000028 5f5f7600 07511664  .......(__v..Q.d
 0cc0 00000038 01000000 2fa00600 f9e10b00  ...8..../.......
 0cd0 002fb006 00f9b70b 00002fb4 0600f9b7  ./......../.....
 0ce0 0b000000 26f73900 00073f06 8c0500f9  ....&.9...?.....
 0cf0 80000000 019c160e 000031d4 0500f90c  ..........1.....
 0d00 00000018 0d000028 5f5f7600 07490564  .......(__v..I.d
 0d10 000000be 01000000 31e00500 f90c0000  ........1.......
 0d20 00340d00 00325f5f 7600074b 05640000  .4...2__v..K.d..
 0d30 00000800 31ec0500 f9140000 006a0d00  ....1........j..
 0d40 00335f5f 7600074c 05640000 00015f34  .3__v..L.d...._4
 0d50 ec0500f9 04000000 285f5f76 00074c05  ........(__v..L.
 0d60 64000000 d1010000 00002996 100000c8  d.........).....
 0d70 0500f90c 00000007 4605b40d 00002aaf  ........F.....*.
 0d80 100000e4 0100002a a3100000 f8010000  .......*........
 0d90 2bd71500 00c80500 f90c0000 00082c05  +.............,.
 0da0 2af01500 00100200 002ae415 0000e401  *........*......
 0db0 00000000 2ea40500 f9d30e00 00d40d00  ................
 0dc0 002d015a 044d4624 1f2d015b 01302d01  .-.Z.MF$.-.[.0-.
 0dd0 5c013000 2eb80500 f93b0f00 00f90d00  \.0......;......
 0de0 002d015a 044d4624 1f2d015b 01302d01  .-.Z.MF$.-.[.0-.
 0df0 5c013c2d 015d0131 002cc805 00f93010  \.<-.].1.,....0.
 0e00 00002d01 5a044d46 241f2d01 5b013c2d  ..-.Z.MF$.-.[.<-
 0e10 015c0131 000035cf 44000006 42113804  .\.1..5.D...B.8.
 0e20 00f91c00 0000019c 7e0e0000 36e27800  ........~...6.x.
 0e30 00064222 9f000000 28020000 363c3a00  ..B"....(...6<:.
 0e40 0006422c 9f000000 49020000 37b07500  ..B,....I...7.u.
 0e50 00064238 9f000000 015c2bd7 1500004c  ..B8.....\+....L
 0e60 0400f904 00000006 43092af0 1500006a  ........C.*....j
 0e70 0200002a e4150000 7d020000 0000388a  ...*....}.....8.
 0e80 55000006 3e109f00 00001c04 00f91c00  U...>...........
 0e90 0000019c d30e0000 36e27800 00063e1f  ........6.x...>.
 0ea0 9f000000 90020000 363c3a00 00063e29  ........6<:...>)
 0eb0 9f000000 b1020000 2bfd1500 00300400  ........+....0..
 0ec0 f9040000 00063f10 2a0a1600 00d20200  ......?.*.......
 0ed0 00000035 f4660000 06361104 0400f918  ...5.f...6......
 0ee0 00000001 9c3b0f00 0036e278 00000636  .....;...6.x...6
 0ef0 289f0000 00e50200 00363c3a 00000636  (........6<:...6
 0f00 329f0000 00060300 0037fd66 00000636  2........7.f...6
 0f10 3e9f0000 00015c2b d7150000 140400f9  >.....\+........
 0f20 04000000 0637092a f0150000 27030000  .....7.*....'...
 0f30 2ae41500 003a0300 00000035 59420000  *....:.....5YB..
 0f40 062d11b8 0300f94c 00000001 9c301000  .-.....L.....0..
 0f50 0036e278 0000062d 259f0000 004d0300  .6.x...-%....M..
 0f60 00363c3a 0000062d 2f9f0000 006e0300  .6<:...-/....n..
 0f70 0036b075 0000062d 3a9f0000 008f0300  .6.u...-:.......
 0f80 00376242 0000062d 479f0000 00015d39  .7bB...-G.....]9
 0f90 15180000 062e0d9f 00000001 5a307847  ............Z0xG
 0fa0 0000062f 0d9f0000 00c90300 0029fd15  .../.........)..
 0fb0 0000e003 00f90400 00000631 17cb0f00  ...........1....
 0fc0 002a0a16 00001b04 00000029 d7150000  .*.........)....
 0fd0 e80300f9 08000000 06310df2 0f00002a  .........1.....*
 0fe0 f0150000 2e040000 2ae41500 00410400  ........*....A..
 0ff0 000029fd 150000f0 0300f904 00000006  ..).............
 1000 33171010 00002a0a 16000054 04000000  3.....*....T....
 1010 2bd71500 00fc0300 f9040000 0006330d  +.............3.
 1020 3af01500 00015a3a e4150000 015f0000  :.....Z:....._..
 1030 35121400 00062511 a80300f9 10000000  5.....%.........
 1040 019c9610 000037e2 78000006 25279f00  ......7.x...%'..
 1050 0000015a 36b07500 00062531 9f000000  ...Z6.u...%1....
 1060 67040000 371b1400 0006253e 9f000000  g...7.....%>....
 1070 015c2bd7 150000b0 0300f904 00000006  .\+.............
 1080 26092af0 15000088 0400002a e4150000  &.*........*....
 1090 9b040000 00003b4a 3a000008 2c0503bc  ......;J:...,...
 10a0 1000003c 72656700 082c059f 0000003d  ...<reg..,.....=
 10b0 ef020000 082c059f 00000000 3b752a00  .....,......;u*.
 10c0 00082a05 03e21000 003c7265 6700082a  ..*......<reg..*
 10d0 059f0000 003def02 0000082a 059f0000  .....=.....*....
 10e0 00003b07 72000008 28050308 1100003c  ..;.r...(......<
 10f0 72656700 0828059f 0000003d ef020000  reg..(.....=....
 1100 0828059f 00000000 3eb22900 00082705  .(......>.)...'.
 1110 9f000000 03261100 003c7265 67000827  .....&...<reg..'
 1120 059f0000 00003589 81000005 df115404  ......5.......T.
 1130 00f93801 0000019c b3110000 364f6c00  ..8.........6Ol.
 1140 0005df28 4a060000 ae040000 3f286900  ...(J.......?(i.
 1150 05e10d79 000000da 04000033 61700005  ...y.......3ap..
 1160 e211bd00 00000291 4c2fa804 00f9f012  ........L/......
 1170 00002fc4 0400f9f0 1200002f dc0400f9  ../......../....
 1180 ba120000 2ff40400 f9491200 002f0c05  ..../....I.../..
 1190 00f9b311 00002f24 0500f9fe 1100002c  ....../$.......,
 11a0 740500f9 ba120000 2d015a05 03280008  t.......-.Z..(..
 11b0 f9000035 3d560000 05d01168 0300f940  ...5=V.....h...@
 11c0 00000001 9cfe1100 00407661 6c0005d0  .........@val...
 11d0 22790000 00f90400 00286900 05d21179  "y.......(i....y
 11e0 0000001a 05000041 4a170000 05d21379  .......AJ......y
 11f0 00000002 2f9c0300 f97b1300 00003517  ..../....{....5.
 1200 59000005 c1112803 00f94000 0000019c  Y.....(...@.....
 1210 49120000 4076616c 0005c122 79000000  I...@val..."y...
 1220 39050000 28690005 c30d7900 00005a05  9...(i....y...Z.
 1230 0000414a 17000005 c30f7900 0000022f  ..AJ......y..../
 1240 5c0300f9 26130000 00358a57 000005b1  \...&....5.W....
 1250 11a80200 f9800000 00019caa 12000040  ...............@
 1260 76616c00 05b12279 00000079 05000039  val..."y...y...9
 1270 2c320000 05b30eaa 12000002 91502870  ,2...........P(p
 1280 0005b40f 14060000 97050000 2ed00200  ................
 1290 f9f01200 00a01200 002d015a 02082d00  .........-.Z..-.
 12a0 2f0c0300 f9f01200 00000a1a 060000ba  /...............
 12b0 1200000b 80000000 1f0035e2 58000005  ..........5.X...
 12c0 aa119002 00f91800 0000019c f0120000  ................
 12d0 40700005 aa241406 0000cd05 00002c9c  @p...$........,.
 12e0 0200f9d0 1300002d 015a03f3 015a0000  .......-.Z...Z..
 12f0 357d5700 0005a511 740200f9 1c000000  5}W.....t.......
 1300 019c2613 00004063 0005a522 79000000  ..&...@c..."y...
 1310 ee050000 2c840200 f9fe1300 002d015a  ....,........-.Z
 1320 03f3015a 00003500 08000004 7f112002  ...Z..5....... .
 1330 00f95400 0000019c 7b130000 4076616c  ..T.....{...@val
 1340 00047f2d 93000000 0f060000 41350800  ...-........A5..
 1350 00048116 93000000 08343402 00f92c00  .........44...,.
 1360 00002869 00048416 79000000 3b060000  ..(i....y...;...
 1370 2f580200 f9fe1300 00000035 756d0000  /X.........5um..
 1380 047511cc 0100f954 00000001 9cd01300  .u.....T........
 1390 00407661 6c000475 27930000 005a0600  .@val..u'....Z..
 13a0 00413508 00000477 12930000 000834e0  .A5....w......4.
 13b0 0100f92c 00000028 6900047a 12790000  ...,...(i..z.y..
 13c0 00860600 002f0402 00f9fe13 00000000  ...../..........
 13d0 35021500 00046911 980100f9 34000000  5.....i.....4...
 13e0 019cfe13 00004070 00046922 14060000  ......@p..i"....
 13f0 a5060000 2fb80100 f9fe1300 00003512  ..../.........5.
 1400 66000004 61117801 00f92000 0000019c  f...a.x... .....
 1410 38140000 36708100 0004611f 1a060000  8...6p....a.....
 1420 c3060000 2c8c0100 f9241500 002d015a  ....,....$...-.Z
 1430 05118080 84400000 35542f00 00033711  .....@..5T/...7.
 1440 440100f9 34000000 019c0615 000036a7  D...4.........6.
 1450 54000003 37229f00 0000e406 00004068  T...7"........@h
 1460 7a000337 2c9f0000 00050700 00407265  z..7,........@re
 1470 67000337 349f0000 00260700 00392151  g..74....&...9!Q
 1480 00000338 0d9f0000 00015b39 7c300000  ...8......[9|0..
 1490 03390d9f 00000001 5a290615 00005001  .9......Z)....P.
 14a0 00f91000 00000339 15d11400 002a1715  .......9.....*..
 14b0 00004807 00002bfd 1500005c 0100f904  ..H...+....\....
 14c0 00000003 21052a0a 1600006a 07000000  ....!.*....j....
 14d0 002b0615 00006801 00f90400 0000033a  .+....h........:
 14e0 202a1715 00007d07 00002bfd 15000068   *....}...+....h
 14f0 0100f904 00000003 21052a0a 16000094  ........!.*.....
 1500 07000000 00003e2c 27000003 21059f00  ......>,'...!...
 1510 00000324 1500003c 72656700 0321059f  ...$...<reg..!..
 1520 00000000 357b4b00 00013411 080100f9  ....5{K...4.....
 1530 3c000000 019c9215 00004072 65670001  <.........@reg..
 1540 34209f00 0000a707 0000363f 67000001  4 ........6?g...
 1550 342a1a06 0000d307 000029d7 1500002c  4*........)....,
 1560 0100f904 00000001 36098115 00002af0  ........6.....*.
 1570 150000f4 0700002a e4150000 07080000  .......*........
 1580 002c2801 00f99215 00002d01 5a027800  .,(.......-.Z.x.
 1590 00003869 55000001 2d109f00 0000f800  ..8iU...-.......
 15a0 00f91000 0000019c d7150000 40726567  ............@reg
 15b0 00012d2b 9f000000 1a080000 2bfd1500  ..-+........+...
 15c0 00f80000 f9040000 00012e11 2a0a1600  ............*...
 15d0 003b0800 0000003b 640c0000 02221803  .;.....;d...."..
 15e0 fd150000 3d3f6700 00022226 9f000000  ....=?g..."&....
 15f0 3dd25100 00022230 9f000000 0042357a  =.Q..."0.....B5z
 1600 0000021e 179f0000 00033dd2 51000002  ..........=.Q...
 1610 1e249f00 00000000 22000000 0200c003  .$......".......
 1620 00000401 2c0e0000 000000f9 640000f9  ....,.......d...
 1630 d1890000 b1080000 e3890000 01802200  ..............".
 1640 00000200 d4030000 0401e60e 00005c07  ..............\.
 1650 00f9ec07 00f9ef89 0000b108 0000e389  ................
 1660 00000180                             ....            
Contents of section .debug_abbrev:
 0000 01110125 0e130b03 0e1b0e11 01120610  ...%............
 0010 17994217 00000224 000b0b3e 0b030e00  ..B....$...>....
 0020 00031600 030e3a0b 3b0b390b 49130000  ......:.;.9.I...
 0030 0424000b 0b3e0b03 08000005 16000308  .$...>..........
 0040 3a0b3b0b 390b4913 0000060f 000b0b03  :.;.9.I.........
 0050 0e000007 1600030e 3a0b3b05 390b4913  ........:.;.9.I.
 0060 00000817 010b0b3a 0b3b0b39 0b011300  .......:.;.9....
 0070 00090d00 030e3a0b 3b0b390b 49130000  ......:.;.9.I...
 0080 0a010149 13011300 000b2100 49132f0b  ...I......!.I./.
 0090 00000c13 010b0b3a 0b3b0b39 0b011300  .......:.;.9....
 00a0 000d0d00 030e3a0b 3b0b390b 4913380b  ......:.;.9.I.8.
 00b0 00000e0f 000b0b00 000f1301 030e0b0b  ................
 00c0 3a0b3b0b 390b0113 0000100d 0003083a  :.;.9..........:
 00d0 0b3b0b39 0b491338 0b000011 0f000b0b  .;.9.I.8........
 00e0 49130000 12130103 0e0b053a 0b3b0b39  I..........:.;.9
 00f0 0b011300 00130d00 030e3a0b 3b0b390b  ..........:.;.9.
 0100 49133805 00001415 00271900 00151501  I.8......'......
 0110 27194913 01130000 16050049 13000017  '.I........I....
 0120 26004913 00001813 01030e0b 053a0b3b  &.I..........:.;
 0130 05390b01 13000019 0d00030e 3a0b3b05  .9..........:.;.
 0140 390b4913 380b0000 1a0d0003 0e3a0b3b  9.I.8........:.;
 0150 05390b49 13380500 001b1301 030e0b0b  .9.I.8..........
 0160 3a0b3b05 390b0113 00001c13 010b0b3a  :.;.9..........:
 0170 0b3b0539 0b011300 001d1701 0b0b3a0b  .;.9..........:.
 0180 3b05390b 01130000 1e0d0003 0e3a0b3b  ;.9..........:.;
 0190 05390b49 1300001f 1300030e 3c190000  .9.I........<...
 01a0 20150127 19011300 00213400 030e3a0b   ..'.....!4...:.
 01b0 3b05390b 49133f19 3c190000 22340003  ;.9.I.?.<..."4..
 01c0 0e3a0b3b 0b390b49 133f193c 19000023  .:.;.9.I.?.<...#
 01d0 0401030e 3e0b0b0b 49133a0b 3b05390b  ....>...I.:.;.9.
 01e0 01130000 24280003 0e1c0d00 00252800  ....$(.......%(.
 01f0 030e1c0b 0000262e 013f1903 0e3a0b3b  ......&..?...:.;
 0200 0b390b11 01120640 18974219 01130000  .9.....@..B.....
 0210 270b0155 17011300 00283400 03083a0b  '..U.....(4...:.
 0220 3b0b390b 49130217 0000291d 01311311  ;.9.I.....)..1..
 0230 01120658 0b590b57 0b011300 002a0500  ...X.Y.W.....*..
 0240 31130217 00002b1d 01311311 01120658  1.....+..1.....X
 0250 0b590b57 0b00002c 89820101 11013113  .Y.W...,......1.
 0260 00002d8a 82010002 18914218 00002e89  ..-.......B.....
 0270 82010111 01311301 1300002f 89820100  .....1...../....
 0280 11013113 00003034 00030e3a 0b3b0b39  ..1...04...:.;.9
 0290 0b491302 17000031 0b011101 12060113  .I.....1........
 02a0 00003234 0003083a 0b3b0b39 0b49131c  ..24...:.;.9.I..
 02b0 05000033 34000308 3a0b3b0b 390b4913  ...34...:.;.9.I.
 02c0 02180000 340b0111 01120600 00352e01  ....4........5..
 02d0 030e3a0b 3b0b390b 27191101 12064018  ..:.;.9.'.....@.
 02e0 97421901 13000036 0500030e 3a0b3b0b  .B.....6....:.;.
 02f0 390b4913 02170000 37050003 0e3a0b3b  9.I.....7....:.;
 0300 0b390b49 13021800 00382e01 030e3a0b  .9.I.....8....:.
 0310 3b0b390b 27194913 11011206 40189742  ;.9.'.I.....@..B
 0320 19011300 00393400 030e3a0b 3b0b390b  .....94...:.;.9.
 0330 49130218 00003a05 00311302 1800003b  I.....:..1.....;
 0340 2e01030e 3a0b3b0b 390b2719 200b0113  ....:.;.9.'. ...
 0350 00003c05 0003083a 0b3b0b39 0b491300  ..<....:.;.9.I..
 0360 003d0500 030e3a0b 3b0b390b 49130000  .=....:.;.9.I...
 0370 3e2e0103 0e3a0b3b 0b390b27 19491320  >....:.;.9.'.I. 
 0380 0b011300 003f1800 00004005 0003083a  .....?....@....:
 0390 0b3b0b39 0b491302 17000041 3400030e  .;.9.I.....A4...
 03a0 3a0b3b0b 390b4913 1c0b0000 422e0103  :.;.9.I.....B...
 03b0 0e3a0b3b 0b390b27 19491320 0b000000  .:.;.9.'.I. ....
 03c0 01110010 06110112 01030e1b 0e250e13  .............%..
 03d0 05000000 01110010 06110112 01030e1b  ................
 03e0 0e250e13 05000000                    .%......        
Contents of section .debug_loc:
 0000 f0050000 f8050000 0200309f f8050000  ..........0.....
 0010 64060000 01005800 00000000 000000f8  d.....X.........
 0020 05000000 06000006 001180c0 85409f00  .............@..
 0030 00000000 000000f8 05000000 06000006  ................
 0040 001184c0 85409f00 00000000 00000004  .....@..........
 0050 06000008 06000001 005f0000 00000000  ........._......
 0060 00000406 00000806 00000600 1180c085  ................
 0070 409f0000 00000000 00000406 00000806  @...............
 0080 00000600 1184c085 409f0000 00000000  ........@.......
 0090 0000e005 0000ec05 00000200 3e9f0000  ............>...
 00a0 00000000 0000e005 0000ec05 00000600  ................
 00b0 1180c085 409f0000 00000000 0000e005  ....@...........
 00c0 0000ec05 00000600 1188c085 409f0000  ............@...
 00d0 00000000 0000ec05 0000f005 00000200  ................
 00e0 309f0000 00000000 0000ec05 0000f005  0...............
 00f0 00000600 1180c085 409f0000 00000000  ........@.......
 0100 0000ec05 0000f005 00000600 1184c085  ................
 0110 409f0000 00000000 00004805 00008005  @.........H.....
 0120 00000100 58800500 00880500 0001005a  ....X..........Z
 0130 00000000 00000000 94050000 a0050000  ................
 0140 01005fb8 050000bb 05000001 005f0000  .._.........._..
 0150 00000000 00009405 0000a005 00000800  ................
 0160 7f00302d 08ff1a9f b8050000 bb050000  ..0-............
 0170 08007f00 302d08ff 1a9f0000 00000000  ....0-..........
 0180 00009405 00009c05 00000500 7f003f1a  ..............?.
 0190 9f9c0500 00a70500 0001005e b4050000  ...........^....
 01a0 b7050000 01005eb8 050000bb 05000005  ......^.........
 01b0 007f003f 1a9f0000 00000000 0000e404  ...?............
 01c0 0000ec04 00000100 5f000000 00000000  ........_.......
 01d0 00f80400 00040500 0001005f 00000000  ..........._....
 01e0 00000000 d0040000 dc040000 0200319f  ..............1.
 01f0 00000000 00000000 d0040000 dc040000  ................
 0200 06001180 c085409f 00000000 00000000  ......@.........
 0210 d0040000 dc040000 060011a0 c085409f  ..............@.
 0220 00000000 00000000 40030000 4c030000  ........@...L...
 0230 01005a4c 0300005c 03000004 00f3015a  ..ZL...\.......Z
 0240 9f000000 00000000 00400300 00440300  .........@...D..
 0250 0001005b 44030000 5c030000 0400f301  ...[D...\.......
 0260 5b9f0000 00000000 00005403 00005803  [.........T...X.
 0270 00000100 5b000000 00000000 00540300  ....[........T..
 0280 00580300 0001005c 00000000 00000000  .X.....\........
 0290 24030000 30030000 01005a30 03000040  $...0.....Z0...@
 02a0 03000004 00f3015a 9f000000 00000000  .......Z........
 02b0 00240300 00280300 0001005b 28030000  .$...(.....[(...
 02c0 40030000 0400f301 5b9f0000 00000000  @.......[.......
 02d0 00003803 00003c03 00000100 5b000000  ..8...<.....[...
 02e0 00000000 000c0300 00180300 0001005a  ...............Z
 02f0 18030000 24030000 0400f301 5a9f0000  ....$.......Z...
 0300 00000000 00000c03 00001003 00000100  ................
 0310 5b100300 00240300 000400f3 015b9f00  [....$.......[..
 0320 00000000 0000001c 03000020 03000001  ........... ....
 0330 005b0000 00000000 00001c03 00002003  .[............ .
 0340 00000100 5c000000 00000000 00c00200  ....\...........
 0350 00c80200 0001005a c8020000 0c030000  .......Z........
 0360 0400f301 5a9f0000 00000000 0000c002  ....Z...........
 0370 0000c402 00000100 5bc40200 000c0300  ........[.......
 0380 000400f3 015b9f00 00000000 000000c0  .....[..........
 0390 020000ec 02000001 005cec02 0000f802  .........\......
 03a0 00000400 f3015c9f f8020000 fc020000  ......\.........
 03b0 01005cfc 0200000c 03000004 00f3015c  ..\............\
 03c0 9f000000 00000000 00e40200 00f00200  ................
 03d0 0001005f f0020000 f8020000 090031f3  ..._..........1.
 03e0 015c08ff 1a249ff8 02000000 03000001  .\...$..........
 03f0 005f0003 00000403 00000400 7f00209f  ._............ .
 0400 04030000 0c030000 090031f3 015c08ff  ..........1..\..
 0410 1a249f00 00000000 000000e8 020000ec  .$..............
 0420 02000001 005a0000 00000000 0000f002  .....Z..........
 0430 0000f802 00000100 5a000000 00000000  ........Z.......
 0440 00f00200 00f80200 0001005f 00000000  ..........._....
 0450 00000000 f8020000 fc020000 01005a00  ..............Z.
 0460 00000000 000000b0 020000b4 02000001  ................
 0470 005bb402 0000c002 00000400 f3015b9f  .[............[.
 0480 00000000 00000000 b8020000 bc020000  ................
 0490 01005b00 00000000 000000b8 020000bc  ..[.............
 04a0 02000001 005c0000 00000000 00005c03  .....\........\.
 04b0 00009c03 00000100 5a9c0300 008c0400  ........Z.......
 04c0 00010059 8c040000 94040000 0400f301  ...Y............
 04d0 5a9f0000 00000000 00009403 00009c03  Z...............
 04e0 00000200 309f9c03 00008804 00000100  ....0...........
 04f0 58000000 00000000 00700200 00a30200  X........p......
 0500 0001005a a3020000 b0020000 0400f301  ...Z............
 0510 5a9f0000 00000000 00007802 00007c02  Z.........x...|.
 0520 00000200 309f7c02 0000a302 00000100  ....0.|.........
 0530 5e000000 00000000 00300200 00630200  ^........0...c..
 0540 0001005a 63020000 70020000 0400f301  ...Zc...p.......
 0550 5a9f0000 00000000 00003802 00003c02  Z.........8...<.
 0560 00000200 309f3c02 00006302 00000100  ....0.<...c.....
 0570 5e000000 00000000 00b00100 00c80100  ^...............
 0580 0001005a c8010000 28020000 01005900  ...Z....(.....Y.
 0590 00000000 000000c4 010000e0 01000001  ................
 05a0 0052e001 0000e801 00000100 58e80100  .R..........X...
 05b0 00f80100 00030078 019ff801 00002402  .......x......$.
 05c0 00000100 58000000 00000000 00980100  ....X...........
 05d0 00a30100 0001005a a3010000 b0010000  .......Z........
 05e0 0400f301 5a9f0000 00000000 00007c01  ....Z.........|.
 05f0 00008801 00000100 5a880100 00980100  ........Z.......
 0600 000400f3 015a9f00 00000000 00000028  .....Z.........(
 0610 01000044 01000001 005a4401 00007401  ...D.....ZD...t.
 0620 00000100 59740100 007c0100 000400f3  ....Yt...|......
 0630 015a9f00 00000000 0000003c 01000044  .Z.........<...D
 0640 01000002 004c9f44 01000070 01000001  .....L.D...p....
 0650 00580000 00000000 0000d400 0000f000  .X..............
 0660 00000100 5af00000 00200100 00010059  ....Z.... .....Y
 0670 20010000 28010000 0400f301 5a9f0000   ...(.......Z...
 0680 00000000 0000e800 0000f000 00000200  ................
 0690 4c9ff000 00001c01 00000100 58000000  L...........X...
 06a0 00000000 00a00000 00b00000 0001005a  ...............Z
 06b0 b0000000 cc000000 01005800 00000000  ..........X.....
 06c0 00000080 00000090 00000001 005a9000  .............Z..
 06d0 0000a000 00000400 f3015a9f 00000000  ..........Z.....
 06e0 00000000 4c000000 6c000000 01005a6c  ....L...l.....Zl
 06f0 00000080 00000004 00f3015a 9f000000  ...........Z....
 0700 00000000 004c0000 00580000 0001005b  .....L...X.....[
 0710 58000000 80000000 0400f301 5b9f0000  X...........[...
 0720 00000000 00004c00 00006400 00000100  ......L...d.....
 0730 5c640000 00800000 0005007c 88807d9f  \d.........|..}.
 0740 00000000 00000000 58000000 64000000  ........X...d...
 0750 01005c64 00000068 00000005 007c8880  ..\d...h.....|..
 0760 7d9f0000 00000000 00006400 00006800  }.........d...h.
 0770 00000100 5c000000 00000000 00700000  ....\........p..
 0780 00740000 0005007c 88807d9f 00000000  .t.....|..}.....
 0790 00000000 70000000 74000000 01005c00  ....p...t.....\.
 07a0 00000000 00000010 00000028 00000001  ...........(....
 07b0 005a2800 00004000 00000100 58400000  .Z(...@.....X@..
 07c0 004c0000 000400f3 015a9f00 00000000  .L.......Z......
 07d0 00000010 00000028 00000001 005b2800  .......(.....[(.
 07e0 00004c00 00000400 f3015b9f 00000000  ..L.......[.....
 07f0 00000000 34000000 38000000 01005800  ....4...8.....X.
 0800 00000000 00000034 00000038 00000001  .......4...8....
 0810 00590000 00000000 00000000 00000400  .Y..............
 0820 00000100 5a040000 00100000 000400f3  ....Z...........
 0830 015a9f00 00000000 00000000 00000004  .Z..............
 0840 00000003 007a049f 00000000 00000000  .....z..........
Contents of section .debug_aranges:
 0000 1c000000 02000000 00000400 00000000  ................
 0010 f80000f9 64060000 00000000 00000000  ....d...........
 0020 1c000000 02001816 00000400 00000000  ................
 0030 000000f9 64000000 00000000 00000000  ....d...........
 0040 1c000000 02003e16 00000400 00000000  ......>.........
 0050 5c0700f9 90000000 00000000 00000000  \...............
Contents of section .debug_ranges:
 0000 f0050000 f8050000 f8050000 04060000  ................
 0010 04060000 2c060000 00000000 00000000  ....,...........
Contents of section .debug_macro:
 0000 04000200 00000007 e7010000 03000703  ................
 0010 2713050a aa0e0000 030c0905 06ac5400  '.............T.
 0020 00030814 0516e723 0000031c 15074709  .......#......G.
 0030 00000407 69090000 0407f709 00000403  ....i...........
 0040 0d160748 0a000004 030e0a07 4b0b0000  ...H........K...
 0050 0407b50b 00000403 2804032c 1707940d  ........(..,....
 0060 00000403 2d01031a 12071e0f 00000403  ....-...........
 0070 1b02031b 170407e2 0f000004 07f20f00  ................
 0080 0004032e 03070e10 00000403 31180529  ............1..)
 0090 2f840000 032d1903 1b1a0724 10000004  /....-.....$....
 00a0 07dc1100 00040530 d4540000 0407f211  .......0.T......
 00b0 000003a4 0105032a 0b07a412 00000403  .......*........
 00c0 2b100508 3f690000 030a1b07 fc120000  +...?i..........
 00d0 04030b1c 05083b4a 0000030a 1d071513  ......;J........
 00e0 00000403 0b1e0502 c1450000 03041b04  .........E......
 00f0 07671300 0004079b 13000004 07cf1300  .g..............
 0100 0003100c 07e51300 00040312 0e050b83  ................
 0110 4e000003 0d1c0403 0e0c07f3 14000004  N...............
 0120 030f0d07 80150000 03180c07 96150000  ................
 0130 04031b1f 0506d376 00000407 d9150000  .......v........
 0140 04070d16 00000322 0f071d16 00000407  ......."........
 0150 6f160000 04031320 052bf120 0000032f  o...... .+. .../
 0160 0c0407f1 17000004 03142105 02fd2300  ..........!...#.
 0170 00040316 22072a1b 00000407 401b0000  ....".*.....@...
 0180 04032d11 0503b661 00000307 1b040769  ..-....a.......i
 0190 1b000004 032e2307 121d0000 03110c07  ......#.........
 01a0 281d0000 04031424 0504ae05 00000403  (......$........
 01b0 1825051e 29690000 0403af01 26050de7  .%..)i......&...
 01c0 7b000004 04040403 2a08075d 1d000004  {.......*..]....
 01d0 032c0607 8b1d0000 04053194 19000005  .,........1.....
 01e0 36107600 00040004 00000500 21500000  6.v.........!P..
 01f0 0500711e 00000500 13080000 0500ee1f  ..q.............
 0200 00000500 05590000 05004f39 00000500  .....Y....O9....
 0210 53670000 05004b1d 00000500 b6780000  Sg....K......x..
 0220 0500ca6f 00000500 5c210000 05001c5b  ...o....\!.....[
 0230 00000500 5d3e0000 05004284 00000500  ....]>....B.....
 0240 f7040000 0500f73e 00000500 d25f0000  .......>....._..
 0250 05008279 00000500 0c190000 0500dd05  ...y............
 0260 00000500 67230000 0500b471 00000500  ....g#.....q....
 0270 a7190000 05005377 00000500 2e6c0000  ......Sw.....l..
 0280 0500744e 00000500 c2260000 0500e307  ..tN.....&......
 0290 00000500 170e0000 0500f606 00000500  ................
 02a0 014a0000 05005150 00000500 8b160000  .J....QP........
 02b0 05001007 00000500 305d0000 0500284a  ........0]....(J
 02c0 00000500 b34a0000 05005868 00000500  .....J....Xh....
 02d0 88170000 0500ab5e 00000500 56180000  .......^....V...
 02e0 05001e0a 00000500 88530000 05005a08  .........S....Z.
 02f0 00000500 75840000 05007a46 00000500  ....u.....zF....
 0300 8f500000 05005a39 00000500 16780000  .P....Z9.....x..
 0310 0500566c 00000500 55840000 0500d17c  ..Vl....U......|
 0320 00000500 705a0000 0500fd0f 00000500  ....pZ..........
 0330 87130000 0500655e 00000500 8e670000  ......e^.....g..
 0340 0500f83c 00000500 54150000 0500185e  ...<....T......^
 0350 00000500 c03e0000 0500630a 00000500  .....>....c.....
 0360 ba3a0000 0500337b 00000500 ac1f0000  .:....3{........
 0370 0500d125 00000500 c13f0000 05007a6b  ...%.....?....zk
 0380 00000500 33370000 0500c72b 00000500  ....37.....+....
 0390 d1090000 0500d54e 00000500 da5c0000  .......N.....\..
 03a0 05004c87 00000500 bd7f0000 0500de55  ..L............U
 03b0 00000500 b8250000 0500a42f 00000500  .....%...../....
 03c0 5e5d0000 0500f67b 00000500 3b030000  ^].....{....;...
 03d0 0500e642 00000500 5f100000 05004d51  ...B...._.....MQ
 03e0 00000500 465b0000 0500db40 00000500  ....F[.....@....
 03f0 89440000 05002581 00000500 68460000  .D....%.....hF..
 0400 0500fa0e 00000500 b17b0000 0500fd03  .........{......
 0410 00000500 29010000 05009786 00000500  ....)...........
 0420 5d160000 0500e206 00000500 cc5b0000  ]............[..
 0430 05005931 00000500 25740000 0500e138  ..Y1....%t.....8
 0440 00000500 97720000 0500b13b 00000500  .....r.....;....
 0450 8a3f0000 0500dc28 00000500 63870000  .?.....(....c...
 0460 0500d539 00000500 3f350000 05004336  ...9....?5....C6
 0470 00000500 d7560000 05007e7c 00000500  .....V....~|....
 0480 c62a0000 05007a81 00000500 4b330000  .*....z.....K3..
 0490 05002949 00000500 030e0000 0500bb19  ..)I............
 04a0 00000500 0e3c0000 0500061d 00000500  .....<..........
 04b0 48380000 0500c531 00000500 4b080000  H8.....1....K...
 04c0 0500ff1d 00000500 4c6e0000 05008c37  ........Ln.....7
 04d0 00000500 302c0000 0500ad5a 00000500  ....0,.....Z....
 04e0 e13c0000 05002c76 00000500 e84e0000  .<....,v.....N..
 04f0 0500e95f 00000500 8d100000 05003e21  ..._..........>!
 0500 00000500 e6760000 05007314 00000500  .....v....s.....
 0510 0f0d0000 0500860f 00000500 42110000  ............B...
 0520 0500cf18 00000500 f25a0000 0500a411  .........Z......
 0530 00000500 4b450000 05002261 00000500  ....KE...."a....
 0540 df4f0000 05002839 00000500 924e0000  .O....(9.....N..
 0550 05001b3a 00000500 044c0000 0500b943  ...:.....L.....C
 0560 00000500 943e0000 0500334e 00000500  .....>....3N....
 0570 ed4b0000 05000c1b 00000500 f8180000  .K..............
 0580 05007820 00000500 7a1b0000 0500b023  ..x ....z......#
 0590 00000500 2e7c0000 05000429 00000500  .....|.....)....
 05a0 54540000 05005f07 00000500 61380000  TT...._.....a8..
 05b0 0500331d 00000500 bd860000 0500f26b  ..3............k
 05c0 00000500 00580000 0500b284 00000500  .....X..........
 05d0 3a3e0000 05000106 00000500 0d240000  :>...........$..
 05e0 05008132 00000500 62660000 0500b27e  ...2....bf.....~
 05f0 00000500 3c850000 0500c129 00000500  ....<......)....
 0600 6d700000 05004b69 00000500 17550000  mp....Ki.....U..
 0610 0500a185 00000500 fd7d0000 0500b667  .........}.....g
 0620 00000500 f5220000 0500051a 00000500  ....."..........
 0630 9f290000 05009f39 00000500 22460000  .).....9...."F..
 0640 0500f97a 00000500 d67f0000 0500c917  ...z............
 0650 00000500 a9590000 05006430 00000500  .....Y....d0....
 0660 54440000 0500933c 00000500 ef580000  TD.....<.....X..
 0670 05000e0c 00000500 d2530000 05006d17  .........S....m.
 0680 00000500 510b0000 0500cb07 00000500  ....Q...........
 0690 42570000 0500f80a 00000500 1a200000  BW........... ..
 06a0 05004e1c 00000500 49760000 0500c943  ..N.....Iv.....C
 06b0 00000500 c72f0000 0500e77d 00000500  ...../.....}....
 06c0 0d7c0000 05005c6e 00000500 a80c0000  .|....\n........
 06d0 05009f45 00000500 271f0000 0500270d  ...E....'.....'.
 06e0 00000500 7f5b0000 0500433f 00000500  .....[....C?....
 06f0 7d6c0000 0500db3a 00000500 1c4e0000  }l.....:.....N..
 0700 0500d402 00000500 00200000 05008273  ......... .....s
 0710 00000500 c5560000 0500a015 00000500  .....V..........
 0720 f0000000 0500e12a 00000500 c44f0000  .......*.....O..
 0730 0500e201 00000500 d7770000 05004224  .........w....B$
 0740 00000500 0b4f0000 05006e6a 00000500  .....O....nj....
 0750 9e780000 0500d85a 00000500 8a0e0000  .x.....Z........
 0760 05000081 00000500 095f0000 05007d04  ........._....}.
 0770 00000500 d53f0000 05001b37 00000500  .....?.....7....
 0780 9e300000 05009b14 00000500 de4d0000  .0...........M..
 0790 0500c659 00000500 ae680000 0500c71e  ...Y.....h......
 07a0 00000500 7c3e0000 0500cd12 00000500  ....|>..........
 07b0 d1140000 0500323d 00000500 3b050000  ......2=....;...
 07c0 0500270c 00000500 b7390000 0500796f  ..'......9....yo
 07d0 00000500 44100000 05005459 00000500  ....D.....TY....
 07e0 20090000 0500a466 00000500 4d050000   ......f....M...
 07f0 0500ba57 00000500 2b170000 05003332  ...W....+.....32
 0800 00000500 aa560000 05009254 00000500  .....V.....T....
 0810 71270000 0500fc39 00000500 cc060000  q'.....9........
 0820 05008230 00000500 af0f0000 05002104  ...0..........!.
 0830 00000500 085c0000 0500fc31 00000500  .....\.....1....
 0840 2b070000 0500df71 00000500 bc1a0000  +......q........
 0850 05002006 00000500 0c340000 05006a51  .. ......4....jQ
 0860 00000500 28150000 0500d920 00000500  ....(...... ....
 0870 310e0000 05009f20 00000500 0e010000  1...... ........
 0880 0500ad6b 00000500 986b0000 05002835  ...k.....k....(5
 0890 00000500 9f1c0000 0500a601 00000500  ................
 08a0 e7160000 05000152 00000500 5c3d0000  .......R....\=..
 08b0 0500611d 00000500 6d010000 0500cd2c  ..a.....m......,
 08c0 00000500 76680000 0500de31 00000500  ....vh.....1....
 08d0 5f450000 0500302f 00000500 1b110000  _E....0/........
 08e0 0500f338 00000500 b9240000 05002047  ...8.....$.... G
 08f0 00000500 83750000 0500766e 00000500  .....u....vn....
 0900 e6000000 0500ac72 00000500 ef1a0000  .......r........
 0910 05001b05 00000500 8d600000 05002414  .........`....$.
 0920 00000500 33450000 0500b865 00000500  ....3E.....e....
 0930 f5600000 0500a969 00000500 1e190000  .`.....i........
 0940 05005031 00000004 00000504 a8420000  ..P1.........B..
 0950 0506fe76 00000507 e21a0000 05089e4b  ...v...........K
 0960 00000509 575b0000 00040000 05214112  ....W[.......!A.
 0970 00000528 3d740000 0683018e 78000005  ...(=t......x...
 0980 8401813c 00000688 017d3900 00058901  ...<.....}9.....
 0990 e97a0000 068a0187 86000005 8b01455e  .z............E^
 09a0 0000069e 01843500 00059f01 9e490000  ......5......I..
 09b0 05f7011f 52000005 fd016f5b 00000585  ....R.....o[....
 09c0 028f5d00 00058a02 17540000 059502a6  ..]......T......
 09d0 1a000005 9902812f 0000059f 02520600  ......./.....R..
 09e0 0005af02 a7000000 05bf0268 73000005  ...........hs...
 09f0 ca022a73 00000004 0000050f cb490000  ..*s.........I..
 0a00 051a0760 00000521 1e720000 052f0f39  ...`...!.r.../.9
 0a10 0000053d ef280000 0553fe45 0000056d  ...=.(...S.E...m
 0a20 16170000 058c0131 50000005 a6010d15  .......1P.......
 0a30 000005bc 01bd3400 0005ce01 a4480000  ......4......H..
 0a40 06f4019b 59000000 04000005 0a257a00  ....Y........%z.
 0a50 000510af 49000006 2b9e5500 00062c5f  ....I...+.U...,_
 0a60 6d000006 2d9d5300 00062e93 68000002  m...-.S.....h...
 0a70 2f696e74 000630b1 85000006 31a40500  /int..0.....1...
 0a80 00063219 0a000005 33723e00 00053470  ..2.....3r>...4p
 0a90 3e000005 35ba6a00 000536a9 81000005  >...5.j...6.....
 0aa0 377f3f00 000538ef 63000005 39433a00  7.?...8.c...9C:.
 0ab0 00053a32 80000005 430b3700 00054a1e  ..:2....C.7...J.
 0ac0 7c000005 525f0900 00055dff 4e000005  |...R_....].N...
 0ad0 68987700 0005710e 11000005 78927600  h.w...q.....x.v.
 0ae0 00058101 841a0000 0588011b 74000005  ............t...
 0af0 93014f3e 00000597 01fa2a00 0005a201  ..O>......*.....
 0b00 a86e0000 05ad0100 11000005 b6012d55  .n............-U
 0b10 000006b8 019e5500 0006b901 5f6d0000  ......U....._m..
 0b20 06ba019d 53000006 bb019368 000002bc  ....S......h....
 0b30 01696e74 0006bd01 190a0000 06c201b1  .int............
 0b40 85000006 c301a405 00000004 0000050a  ................
 0b50 a50e0000 05155079 00000519 c21b0000  ......Py........
 0b60 051b1039 00000521 c3320000 0525016c  ...9...!.2...%.l
 0b70 00000527 f0280000 052d283f 00000531  ...'.(...-(?...1
 0b80 e3030000 0533ff45 00000539 38810000  .....3.E...98...
 0b90 053d1a18 0000053f 17170000 05448e5e  .=.....?.....D.^
 0ba0 00000549 305e0000 054eab12 00000553  ...I0^...N.....S
 0bb0 be600000 00040000 05173250 0000051d  .`........2P....
 0bc0 0e150000 0523be34 00000529 a5480000  .....#.4...).H..
 0bd0 0535b450 0000053f ce4a0000 0549f60c  .5.P...?.J...I..
 0be0 00000553 ad220000 058001fd 85000005  ...S."..........
 0bf0 8101156f 00000582 014f1700 00059801  ...o.....O......
 0c00 4a0e0000 059901bc 0a000005 9a01a37f  J...............
 0c10 000005a2 01ba0300 0005a301 20100000  ............ ...
 0c20 05a401d3 70000005 ae012c54 000005af  ....p.....,T....
 0c30 018e0c00 0005b001 04470000 05b8014d  .........G.....M
 0c40 47000005 b901ab09 000005ba 01082c00  G.............,.
 0c50 0005c401 6a360000 05c5015b 2a000005  ....j6.....[*...
 0c60 c6012b44 000005d4 01c92d00 0005d501  ..+D......-.....
 0c70 9b2d0000 05d6010c 6a000005 e6015a6f  .-......j.....Zo
 0c80 000005e7 01614b00 0005e801 b7700000  .....aK......p..
 0c90 05f60162 11000005 f701b50e 000005f8  ...b............
 0ca0 015f5c00 00058602 b74d0000 05870219  ._\......M......
 0cb0 22000005 8802794d 00000596 02933500  ".....yM......5.
 0cc0 00059702 e8090000 05980274 07000005  ...........t....
 0cd0 a602e712 000005a7 02b98500 0005a802  ................
 0ce0 c26a0000 05b602a0 16000005 b702a07a  .j.............z
 0cf0 000005b8 02917000 0005c602 3f2a0000  ......p.....?*..
 0d00 05c70231 1c000005 cf025222 000005d7  ...1......R"....
 0d10 023a0600 0005dd02 4d320000 05de02db  .:......M2......
 0d20 26000005 e202330b 000005e6 02502500  &.....3......P%.
 0d30 0005eb02 ec1c0000 05f60269 42000005  ...........iB...
 0d40 8003a744 00000585 033a0000 00058c03  ...D.....:......
 0d50 663a0000 058d03c7 71000005 9803aa0d  f:......q.......
 0d60 00000599 03a17900 0005a403 91690000  ......y......i..
 0d70 05a5036a 35000005 b1031b5f 000005b2  ...j5......_....
 0d80 03076700 0005c103 36250000 05c2036e  ..g.....6%.....n
 0d90 59000000 04000005 02172b00 00050369  Y.........+....i
 0da0 0b000005 049c3100 0005051e 86000005  ......1.........
 0db0 06f12100 00050743 58000005 08567f00  ..!....CX....V..
 0dc0 00050913 5a000005 0a866500 00050ba8  ....Z.....e.....
 0dd0 4e000005 0cce5e00 00050db9 5f000005  N.....^....._...
 0de0 0e335f00 00050fb7 5d000005 108a2a00  .3_.....].....*.
 0df0 000511bb 79000005 12561f00 000513db  ....y....V......
 0e00 0e000005 14f57c00 00051535 53000005  ......|....5S...
 0e10 16b26200 0005176e 7b000005 18f62400  ..b....n{.....$.
 0e20 00051951 2b000005 1a1e5c00 00051b06  ...Q+.....\.....
 0e30 85000005 1c3d1400 00051d94 02000005  .....=..........
 0e40 1ec06100 00051f2d 62000005 20346000  ..a....-b... 4`.
 0e50 000521ac 28000005 22873300 000523c5  ..!.(...".3...#.
 0e60 30000005 247e0900 000525e5 65000005  0...$~....%.e...
 0e70 261e1a00 00052799 68000005 281e3b00  &.....'.h...(.;.
 0e80 0005293d 34000005 2a863100 00052bdf  ..)=4...*.1...+.
 0e90 37000005 2c2e5100 00052d1a 4c000005  7...,.Q...-.L...
 0ea0 2ebc6c00 00052fe4 80000005 30101300  ..l.../.....0...
 0eb0 00053167 60000005 320f0f00 000533c6  ..1g`...2.....3.
 0ec0 52000005 34126d00 00053536 7f000005  R...4.m...56....
 0ed0 36494900 00053700 00000005 38e22700  6II...7.....8.'.
 0ee0 0005392c 75000005 3a9a2700 00053b95  ..9,u...:.'...;.
 0ef0 7c000005 3cba7200 00053dad 89000005  |...<.r...=.....
 0f00 3eda0b00 00053f03 28000005 40a25300  >.....?.(...@.S.
 0f10 000541ce 1f000005 425b4f00 00000400  ..A.....B[O.....
 0f20 00052544 67000005 26c35300 00052739  ..%Dg...&.S...'9
 0f30 40000005 287b2d00 00052978 18000005  @...({-...)x....
 0f40 2a2c0500 00052bf9 70000005 2c1e6300  *,....+.p...,.c.
 0f50 00052d12 50000005 2e723c00 00052f8a  ..-.P....r<.../.
 0f60 2d000005 30d15800 000531a1 7e000005  -...0.X...1.~...
 0f70 32bb5b00 00053305 33000005 34be0500  2.[...3.3...4...
 0f80 0005359a 07000005 36f73400 000537b2  ..5.....6.4...7.
 0f90 36000005 38ea5b00 000539b3 80000005  6...8.[...9.....
 0fa0 3a3e2900 00053b05 17000005 3cbc2c00  :>)...;.....<.,.
 0fb0 00053d0b 2e000005 3e8a5900 00053f9c  ..=.....>.Y...?.
 0fc0 5a000005 403b8700 0005410a 05000005  Z...@;....A.....
 0fd0 421a4400 0005437e 50000005 44da5100  B.D...C~P...D.Q.
 0fe0 00000400 00053a78 38000005 3f0c2300  ......:x8...?.#.
 0ff0 00000400 00051d4c 4f000005 1e826d00  .......LO.....m.
 1000 00051f77 5d000005 20f42d00 00000400  ...w]... .-.....
 1010 00051ddf 22000005 1e990b00 00051fda  ...."...........
 1020 21000000 04000005 1b711000 00051c64  !........q.....d
 1030 7d000005 1d8b2300 00051ff5 52000005  }.....#.....R...
 1040 204a5600 00052106 3f000005 22643300   JV...!.?..."d3.
 1050 00052378 26000005 241c1200 000525e7  ..#x&...$.....%.
 1060 5e000005 26431900 000527ed 53000005  ^...&C....'.S...
 1070 286d7700 000529b8 10000005 2a914000  (mw...).....*.@.
 1080 00052b50 7e000005 2ccc8400 00052d85  ..+P~...,.....-.
 1090 80000005 2e936d00 00052f08 35000005  ......m.../.5...
 10a0 30326500 00053152 40000005 32de1100  02e...1R@...2...
 10b0 000533fc 3d000005 34eb6400 00053540  ..3.=...4.d...5@
 10c0 1f000005 36401800 0005378e 01000005  ....6@....7.....
 10d0 38153200 00053970 22000005 3adc4400  8.2...9p"...:.D.
 10e0 00053b80 7d000005 3c0f5300 00053d1b  ..;.}...<.S...=.
 10f0 56000005 3ef50200 00053f29 38000005  V...>.....?)8...
 1100 403e7a00 00054192 51000005 42d83400  @>z...A.Q...B.4.
 1110 0005438e 1a000005 44864b00 000545f4  ..C.....D.K...E.
 1120 36000005 46f34400 000547a5 55000005  6...F.D...G.U...
 1130 48424200 0005499c 80000005 4aa40a00  HBB...I.....J...
 1140 00054b94 21000005 4cc20d00 00054d38  ..K.!...L.....M8
 1150 66000005 4ebc2b00 00054ff8 0d000005  f...N.+...O.....
 1160 500a1800 000551ae 04000005 525c4600  P.....Q.....R\F.
 1170 000553b8 30000005 54847000 000555a8  ..S.0...T.p...U.
 1180 40000005 57cf0500 00055942 6c000005  @...W.....YBl...
 1190 5bb87700 00055dd5 1b000005 5fe75200  [.w...]....._.R.
 11a0 000561f6 71000005 63e86a00 00056bbc  ..a.q...c.j...k.
 11b0 15000005 737e3d00 00057a9a 2e000005  ....s~=...z.....
 11c0 82013d43 00000589 01fc0100 00059101  ..=C............
 11d0 1c2e0000 05dc013f 4c000000 04000005  .......?L.......
 11e0 1e474d00 0005213e 61000005 2bd63200  .GM...!>a...+.2.
 11f0 00000400 0005337a 21000005 34945800  ......3z!...4.X.
 1200 00053585 85000005 361b6600 00053701  ..5.....6.f...7.
 1210 69000005 3aff2c00 00053b90 1b000005  i...:.,...;.....
 1220 3c3d2700 00053d16 4b000005 3ed62900  <='...=.K...>.).
 1230 00054017 81000005 41f47900 0005424f  ..@.....A.y...BO
 1240 29000005 43468600 000546b8 00000005  )...CF....F.....
 1250 475b3700 00054896 41000005 493a5200  G[7...H.A...I:R.
 1260 00054a73 08000005 51274800 000552ad  ..Js....Q'H...R.
 1270 3f000005 53404b00 00055496 3b000005  ?...S@K...T.;...
 1280 57ae3700 00055861 2f000005 591b6000  W.7...Xa/...Y.`.
 1290 00055a73 78000005 5dff1100 00055e5b  ..Zsx...].....^[
 12a0 78000000 04000005 1fd83e00 000520e3  x.........>... .
 12b0 66000006 22f77e00 00052707 54000005  f...".~...'.T...
 12c0 2f6f2500 000530dd 74000005 311b6e00  /o%...0.t...1.n.
 12d0 000534c7 64000005 36c56400 0005697c  ..4.d...6.d...i|
 12e0 86000005 6c0d5400 00056f92 2f000005  ....l.T...o./...
 12f0 72bf1200 00057594 81000000 04000005  r.....u.........
 1300 c3011762 000005d1 03e45000 0005d403  ...b......P.....
 1310 e12f0000 00040000 05085b36 00000512  ./........[6....
 1320 6a4a0000 0515e384 00000518 eb510000  jJ...........Q..
 1330 051b1633 00000528 8a1e0000 05327516  ...3...(.....2u.
 1340 00000539 99220000 053cbb55 00000542  ...9."...<.U...B
 1350 4a4e0000 05450556 00000548 f01d0000  JN...E.V...H....
 1360 054b9c75 00000004 00000553 76720000  .K.u.......Svr..
 1370 05e0010c 0a000006 e6019439 000005ea  ...........9....
 1380 01ec1400 0005fa01 cc500000 05fe0188  .........P......
 1390 51000005 8b027719 00000004 0000051f  Q.....w.........
 13a0 b7640000 05208d2b 00000521 a50f0000  .d... .+...!....
 13b0 05256d03 0000052b dd6f0000 05459757  .%m....+.o...E.W
 13c0 00000549 6b150000 054ad069 00000004  ...Ik....J.i....
 13d0 0000050d 082b0000 050ebf44 0000050f  .....+.....D....
 13e0 653c0000 00040000 05bb0194 15000005  e<..............
 13f0 bc015c73 000005bd 01328700 0005be01  ..\s.....2......
 1400 3d6e0000 05bf0111 3a000005 c001a25e  =n......:......^
 1410 000005c1 01185800 0005c201 e5630000  ......X......c..
 1420 05c301e1 63000005 c4019a1f 000005c5  ....c...........
 1430 017a2300 0005c601 961f0000 05c7012e  .z#.............
 1440 18000005 c8012503 000005c9 012e8700  ......%.........
 1450 0005ca01 36690000 05d201e1 0c000006  ....6i..........
 1460 ee014804 0000058b 02474400 00058c02  ..H......GD.....
 1470 1d730000 058d0247 5a000005 8e028b41  .s.....GZ......A
 1480 0000058f 02951200 00059002 b6450000  .............E..
 1490 059102dc 16000005 9202d816 00000593  ................
 14a0 02ec2c00 00059402 4a3d0000 0595025a  ..,.....J=.....Z
 14b0 65000005 9602400d 00000597 02556500  e.....@......Ue.
 14c0 00059802 435a0000 05990261 4e000006  ....CZ.....aN...
 14d0 a6029379 000006db 02ff0b00 00069103  ...y............
 14e0 74440000 05960314 03000006 9c036d44  tD............mD
 14f0 00000004 00000527 4e4a0000 0528d524  .......'NJ...(.$
 1500 0000052a 494a0000 0589010b 55000005  ...*IJ......U...
 1510 8a01a32a 0000058b 01944f00 00058c01  ...*......O.....
 1520 6e0c0000 058d0109 4b000005 8e01054b  n.......K......K
 1530 0000058f 01e33e00 00059001 07550000  ......>......U..
 1540 059101a9 51000006 a101ec0f 000006ee  ....Q...........
 1550 01480400 0006db02 ff0b0000 06910374  .H.............t
 1560 44000005 96031403 0000069c 036d4400  D............mD.
 1570 0005a103 a93c0000 05a603ef 68000000  .....<......h...
 1580 04000005 14403900 00051608 2b000005  .....@9.....+...
 1590 175f7b00 00000400 0006a101 ec0f0000  ._{.............
 15a0 06ee0148 04000006 db02ff0b 000005e0  ...H............
 15b0 023b2600 0006e702 cc210000 06910374  .;&......!.....t
 15c0 44000005 96031403 0000069c 036d4400  D............mD.
 15d0 0005a103 a93c0000 00040000 067f4b54  .....<........KT
 15e0 00000592 01c33600 00069401 5f6d0000  ......6....._m..
 15f0 05b301d4 19000005 bb01ec19 000005c0  ................
 1600 01026500 0005c501 e43b0000 00040000  ..e......;......
 1610 05114f72 00000515 a1890000 00040000  ..Or............
 1620 0502f686 0000050e 3c550000 050f4c75  ........<U....Lu
 1630 00000510 21670000 05115604 00000512  ....!g....V.....
 1640 53260000 0513b963 00000514 d4790000  S&.....c.....y..
 1650 05157c3a 00000516 44480000 0517087f  ..|:....DH......
 1660 00000518 62790000 05196467 00000004  ....by....dg....
 1670 0000054d b0170000 0569c733 0000056f  ...M.....i.3...o
 1680 06870000 05b70173 40000005 bd023547  .......s@.....5G
 1690 000005be 02a83e00 0005bf02 de860000  ......>.........
 16a0 05c00216 77000005 c1024068 000005c2  ....w.....@h....
 16b0 029f5d00 0005c302 70800000 05cf02c6  ..].....p.......
 16c0 22000005 d002e685 000005d1 02980400  "...............
 16d0 0005a005 9f120000 05bc055b 64000005  ...........[d...
 16e0 bf057987 000005ef 05058200 0005fd05  ..y.............
 16f0 36790000 05fe0581 4a000005 ff051c65  6y......J......e
 1700 00000580 06144500 00058106 516a0000  ......E.....Qj..
 1710 0582061b 1d000005 83061b40 00000585  ...........@....
 1720 069b7600 00058606 27160000 0587064f  ..v.....'......O
 1730 13000005 8806e243 00000589 06b61c00  .......C........
 1740 00058a06 3c0a0000 058b067c 00000005  ....<......|....
 1750 8c069d60 0000058d 06af0b00 00058e06  ...`............
 1760 4c5f0000 058f067e 62000005 90068228  L_.....~b......(
 1770 00000591 06677e00 00059206 bc350000  .....g~......5..
 1780 059306b1 4b000005 9406d05d 00000595  ....K......]....
 1790 06684800 00059606 fd250000 059706a8  .hH......%......
 17a0 47000005 9806b904 00000599 06ee5c00  G.............\.
 17b0 00059a06 6a490000 059b0692 6f000005  ....jI......o...
 17c0 9c06a07d 000005a0 06520d00 0005a806  ...}.....R......
 17d0 50700000 05b0069d 4d000005 c006a510  Pp......M.......
 17e0 000005c3 062e7200 0005c906 ba010000  ......r.........
 17f0 00040000 05318e20 00000532 fb5b0000  .....1. ...2.[..
 1800 05331449 00000536 251b0000 0539901c  .3.I...6%....9..
 1810 0000053a b57c0000 053cb02a 0000053d  ...:.|...<.*...=
 1820 8f7f0000 053e731f 0000053f 57720000  .....>s....?Wr..
 1830 0542eb0c 00000543 d1860000 0544d345  .B.....C.....D.E
 1840 0000054e c80f0000 0551f454 00000557  ...N.....Q.T...W
 1850 6b090000 055e045a 0000055f e56c0000  k....^.Z..._.l..
 1860 056bff75 0000056c 38780000 05708e05  .k.u...l8x...p..
 1870 00000571 5e710000 05725603 00000575  ...q^q...rV....u
 1880 c2650000 0578ba5c 0000057f 73560000  .e...x.\....sV..
 1890 05800140 73000005 81013677 00000585  ...@s.....6w....
 18a0 01df4500 00058c01 177e0000 05900124  ..E......~.....$
 18b0 24000005 91015820 00000594 015e7a00  $.....X .....^z.
 18c0 00059701 56010000 05980114 2a000005  ....V.......*...
 18d0 99018d6e 0000059b 01657c00 00059c01  ...n.....e|.....
 18e0 ca780000 059e0162 62000005 a0018718  .x.....bb.......
 18f0 000005b1 01770e00 0005b201 e20d0000  .....w..........
 1900 05b30153 81000005 b4012653 000005b5  ...S......&S....
 1910 010e7d00 0005b701 fe690000 05b80195  ..}......i......
 1920 55000005 b901be51 000005e6 01ba2700  U......Q......'.
 1930 0005f301 fd300000 05f401a0 74000005  .....0......t...
 1940 f501aa18 000005f6 01242800 0005f701  .........$(.....
 1950 8d840000 05f80132 6d000005 f901fc37  .......2m......7
 1960 000005fc 01875c00 0005fd01 2b300000  ......\.....+0..
 1970 058302bb 1d000005 dc024528 000005ee  ..........E(....
 1980 02cb3b00 0005f402 52000000 05f50222  ..;.....R......"
 1990 58000005 fc026389 00000582 03022700  X.....c.......'.
 19a0 00058803 44800000 0589037d 47000005  ....D......}G...
 19b0 9003316f 00000591 034d5300 00059803  ..1o.....MS.....
 19c0 1e2b0000 059e03fb 74000005 b203a63a  .+......t......:
 19d0 000005d3 03981e00 0005d403 96520000  .............R..
 19e0 05db0337 3c000005 dc036a74 000005df  ...7<.....jt....
 19f0 03865f00 0005e903 23310000 05ea0308  .._.....#1......
 1a00 71000005 f4032d63 0000058a 04b66e00  q.....-c......n.
 1a10 00058c04 e5560000 058e0400 21000005  .....V......!...
 1a20 8f049a73 00000591 04462c00 00059b04  ...s.....F,.....
 1a30 71580000 05a00469 06000005 a5042e0f  qX.....i........
 1a40 000005a8 04cb4100 0005ac04 381a0000  ......A.....8...
 1a50 05ae0423 1e000005 d104c374 000005d5  ...#.......t....
 1a60 04156c00 0005d904 2f130000 05dd0407  ..l...../.......
 1a70 51000005 e104346a 000005e5 04277d00  Q.....4j.....'}.
 1a80 0005e904 da720000 05ed04bd 81000005  .....r..........
 1a90 f404f511 000005f5 04250800 0005f604  .........%......
 1aa0 a92c0000 05f70413 3e000005 f8047c52  .,......>.....|R
 1ab0 0000058d 05ef6200 00058e05 f26c0000  ......b......l..
 1ac0 05a005a4 77000005 a605c47a 000005a9  ....w......z....
 1ad0 05b71300 0005ab05 b8750000 05af05b1  .........u......
 1ae0 46000005 b105f635 000005b5 05ea4700  F......5......G.
 1af0 0005b805 e41b0000 05ba05ef 78000005  ............x...
 1b00 be05ef67 000005c0 05057000 0005c205  ...g......p.....
 1b10 503b0000 05c605fc 63000005 c905ec6d  P;......c......m
 1b20 000005ca 05b76d00 00000400 000508ef  ......m.........
 1b30 4f000006 0d0b5000 000510b7 40000000  O.....P.....@...
 1b40 04000005 383f0100 00053cf9 2b000005  ....8?....<.+...
 1b50 3dfd1a00 00053f8b 39000005 43e04900  =.....?.9...C.I.
 1b60 0005a801 c8770000 00040000 050d515a  .....w........QZ
 1b70 00000513 ab070000 05179564 0000051b  ...........d....
 1b80 3b2d0000 051fb514 00000523 32330000  ;-.........#23..
 1b90 059101c3 7b000005 92012f5b 000006a8  ....{...../[....
 1ba0 01670e00 0005ab01 9b110000 05ac01f8  .g..............
 1bb0 84000005 ad01b826 000005ae 01681900  .......&.....h..
 1bc0 0005af01 f2690000 05b20179 76000005  .....i.....yv...
 1bd0 b501232d 000005b9 01253d00 0005bc01  ..#-.....%=.....
 1be0 43150000 05bf015e 1b000005 d3015934  C......^......Y4
 1bf0 000005d7 01893600 0005da01 be420000  ......6......B..
 1c00 05dd0199 2b000005 df01f23f 000005f4  ....+......?....
 1c10 01ed4000 00058402 86030000 05850276  ..@............v
 1c20 71000005 86026369 00000587 02812400  q.....ci......$.
 1c30 00058802 d8480000 05890283 1d000005  .....H..........
 1c40 cd020c1f 000005b4 04a12600 0005b804  ..........&.....
 1c50 83420000 05bf0460 76000005 c1049056  .B.....`v......V
 1c60 000005c2 045d2d00 0005c304 be110000  .....]-.........
 1c70 05c404c7 54000005 c5049525 000005c6  ....T......%....
 1c80 04974a00 0005c704 7a7a0000 05c804e7  ..J.....zz......
 1c90 4a000005 c904d40a 000005ca 04410700  J............A..
 1ca0 0005cb04 d3600000 05cc045d 52000005  .....`.....]R...
 1cb0 cd04430c 000005d3 04a04f00 0005d404  ..C.......O.....
 1cc0 f7610000 05d5048e 08000005 d6040930  .a.............0
 1cd0 000005d7 04df1000 0005d804 850a0000  ................
 1ce0 05d904fb 73000005 da047944 000005db  ....s.....yD....
 1cf0 04d33600 0005e504 15430000 05e60433  ..6......C.....3
 1d00 3b000005 ea04e124 000005eb 047d4f00  ;......$.....}O.
 1d10 00000400 000508ab 6d000005 0f082b00  ........m.....+.
 1d20 00051065 3c000000 04000006 a101ec0f  ...e<...........
 1d30 000006ee 01480400 0006db02 ff0b0000  .....H..........
 1d40 06910374 44000005 96031403 0000069c  ...tD...........
 1d50 036d4400 0005a103 a93c0000 00040000  .mD......<......
 1d60 051d3b22 0000051e 89270000 051f3a64  ..;".....'....:d
 1d70 00000520 c4800000 05216665 00000522  ... .....!fe..."
 1d80 12800000 05234366 00000004 0000051d  .....#Cf........
 1d90 97460000 051e455d 0000051f 7e450000  .F....E]....~E..
 1da0 0520c40c 00000521 bf480000 05222000  . .....!.H..." .
 1db0 00000523 d2670000 00                 ...#.g...       
Contents of section .debug_line:
 0000 280e0000 03007903 00000101 fb0e0d00  (.....y.........
 0010 01010101 00000001 0000012e 2e2f6472  ............./dr
 0020 69766572 002e2e2f 2e2e2f2e 2e2f6273  iver.../../../bs
 0030 702f6566 696e6978 2f456678 53617070  p/efinix/EfxSapp
 0040 68697265 536f632f 696e636c 75646500  hireSoc/include.
 0050 2e2e2f2e 2e2f2e2e 2f627370 2f656669  ../../../bsp/efi
 0060 6e69782f 45667853 61707068 69726553  nix/EfxSapphireS
 0070 6f632f61 70700073 72630063 3a5c6566  oc/app.src.c:\ef
 0080 696e6974 795c6566 696e6974 792d7269  inity\efinity-ri
 0090 7363762d 6964652d 32303233 2e312e33  scv-ide-2023.1.3
 00a0 5c746f6f 6c636861 696e5c72 69736376  \toolchain\riscv
 00b0 2d6e6f6e 652d656d 6265645c 696e636c  -none-embed\incl
 00c0 7564655c 6d616368 696e6500 633a5c65  ude\machine.c:\e
 00d0 66696e69 74795c65 66696e69 74792d72  finity\efinity-r
 00e0 69736376 2d696465 2d323032 332e312e  iscv-ide-2023.1.
 00f0 335c746f 6f6c6368 61696e5c 72697363  3\toolchain\risc
 0100 762d6e6f 6e652d65 6d626564 5c696e63  v-none-embed\inc
 0110 6c756465 5c737973 00633a5c 6566696e  lude\sys.c:\efin
 0120 6974795c 6566696e 6974792d 72697363  ity\efinity-risc
 0130 762d6964 652d3230 32332e31 2e335c74  v-ide-2023.1.3\t
 0140 6f6f6c63 6861696e 5c6c6962 5c676363  oolchain\lib\gcc
 0150 5c726973 63762d6e 6f6e652d 656d6265  \riscv-none-embe
 0160 645c382e 332e305c 696e636c 75646500  d\8.3.0\include.
 0170 633a5c65 66696e69 74795c65 66696e69  c:\efinity\efini
 0180 74792d72 69736376 2d696465 2d323032  ty-riscv-ide-202
 0190 332e312e 335c746f 6f6c6368 61696e5c  3.1.3\toolchain\
 01a0 72697363 762d6e6f 6e652d65 6d626564  riscv-none-embed
 01b0 5c696e63 6c756465 00007561 72742e68  \include..uart.h
 01c0 00010000 696f2e68 00010000 636c696e  ....io.h....clin
 01d0 742e6800 01000062 73702e68 00020000  t.h....bsp.h....
 01e0 7072696e 742e6800 03000070 6c69632e  print.h....plic.
 01f0 68000100 006d6169 6e2e6300 04000067  h....main.c....g
 0200 70696f2e 68000100 005f6465 6661756c  pio.h...._defaul
 0210 745f7479 7065732e 68000500 005f7374  t_types.h...._st
 0220 64696e74 2e680006 00007374 64617267  dint.h....stdarg
 0230 2e680007 00007374 64646566 2e680007  .h....stddef.h..
 0240 00005f74 79706573 2e680006 00007265  .._types.h....re
 0250 656e742e 68000600 006c6f63 6b2e6800  ent.h....lock.h.
 0260 06000073 74646c69 622e6800 0800006d  ...stdlib.h....m
 0270 6174682e 68000800 00747970 652e6800  ath.h....type.h.
 0280 01000073 7464696e 742e6800 08000066  ...stdint.h....f
 0290 65617475 7265732e 68000600 005f6e65  eatures.h...._ne
 02a0 776c6962 5f766572 73696f6e 2e680008  wlib_version.h..
 02b0 00005f69 6e747375 702e6800 06000073  .._intsup.h....s
 02c0 6f632e68 00020000 73656d69 686f7374  oc.h....semihost
 02d0 696e672e 68000300 00766578 72697363  ing.h....vexrisc
 02e0 762e6800 01000072 69736376 2e680001  v.h....riscv.h..
 02f0 00006965 65656670 2e680005 00005f61  ..ieeefp.h...._a
 0300 6e73692e 68000800 006e6577 6c69622e  nsi.h....newlib.
 0310 68000800 00636f6e 6669672e 68000600  h....config.h...
 0320 005f7479 7065732e 68000500 00636465  ._types.h....cde
 0330 66732e68 00060000 7374646c 69622e68  fs.h....stdlib.h
 0340 00050000 616c6c6f 63612e68 00080000  ....alloca.h....
 0350 73747269 6e672e68 00080000 5f6c6f63  string.h...._loc
 0360 616c652e 68000600 00737472 696e6773  ale.h....strings
 0370 2e680008 00007374 72696e67 2e680006  .h....string.h..
 0380 00000005 2f000502 f80000f9 032c0105  ..../........,..
 0390 09030109 00000104 02037109 00000105  ..........q.....
 03a0 10060300 09000001 0401052d 030f0904  ...........-....
 03b0 00010505 03010904 0001052f 06030509  .........../....
 03c0 08000105 09030109 18000105 30000204  ............0...
 03d0 01030009 00000105 0f000204 01060300  ................
 03e0 09000001 050e0002 04010300 09080001  ................
 03f0 05090603 01090400 01040203 6d090000  ............m...
 0400 01052406 03000900 00010401 05050314  ..$.............
 0410 09040001 04030538 06030009 14000105  .......8........
 0420 09030109 00000105 0d060300 09000001  ................
 0430 05090603 01090c00 01050503 68090000  ............h...
 0440 01040205 09037e09 0c000105 10060300  ......~.........
 0450 09000001 04030531 031a0904 0001050d  .......1........
 0460 03000904 00010509 06030109 04000105  ................
 0470 3d000204 01030009 00000105 05000204  =...............
 0480 01036709 00000104 02050900 02040103  ..g.............
 0490 7e090000 01051000 02040106 03000900  ~...............
 04a0 00010403 051e0002 0401031b 09040001  ................
 04b0 050e0002 04010300 09040001 05050301  ................
 04c0 09040001 04040529 06032609 04000105  .......)..&.....
 04d0 0d030409 08000105 23030009 0c000105  ........#.......
 04e0 05060302 09000001 06030309 0c000105  ................
 04f0 09030409 10000105 10060300 09000001  ................
 0500 050f0300 09040001 050d0603 01090400  ................
 0510 01051906 03000900 0001050d 03000904  ................
 0520 00010505 03020908 00010603 05091000  ................
 0530 01050903 01091400 01030109 00000103  ................
 0540 02090000 01050e03 00090000 01051206  ................
 0550 03000900 00010509 03000904 0001050d  ................
 0560 00020403 06030109 04000105 2e000204  ................
 0570 03060300 09000001 05340002 04030300  .........4......
 0580 09040001 050d0002 04030300 09040001  ................
 0590 052e0002 0403037f 09140001 05090002  ................
 05a0 04010300 09040001 05050303 09040001  ................
 05b0 05090603 03091400 01050d03 01091400  ................
 05c0 01030109 00000103 02090000 01051203  ................
 05d0 00090000 01051606 03000900 0001050d  ................
 05e0 03000904 00010511 00020403 06030109  ................
 05f0 04000105 32000204 03060300 09000001  ....2...........
 0600 05380002 04030300 09040001 05110002  .8..............
 0610 04030300 09040001 05320002 0403037f  .........2......
 0620 09140001 050d0002 04010300 09040001  ................
 0630 05090304 09040001 04050505 06031e09  ................
 0640 14000105 09030109 08000105 05060301  ................
 0650 09080001 06030309 0c000105 09030109  ................
 0660 08000105 05060301 09040001 06030509  ................
 0670 0c000105 09030109 14000103 01090000  ................
 0680 01030109 00000105 0c060300 09000001  ................
 0690 0505037d 09040001 050d0603 04090800  ...}............
 06a0 01030109 08000105 11060300 09000001  ................
 06b0 050d0603 03090800 01052006 03000900  .......... .....
 06c0 0001051a 03000908 00010514 03000904  ................
 06d0 0001050d 06030109 04000105 11060300  ................
 06e0 09000001 0510037f 09040001 050f037f  ................
 06f0 09040001 05140002 04010300 09040001  ................
 0700 050d0603 05090c00 01050f06 037f090c  ................
 0710 00010505 03020908 00010603 03091400  ................
 0720 01050903 01090800 01030209 00000105  ................
 0730 0e060300 09000001 05090002 04010300  ................
 0740 09040001 050d0603 02090800 01052706  ..............'.
 0750 03000900 00010523 03000904 00010515  .......#........
 0760 03000908 0001050f 03000904 00010516  ................
 0770 00020402 037e0904 00010509 06030809  .....~..........
 0780 08000105 05060301 09040001 05090603  ................
 0790 03090c00 01050d03 01090800 01030209  ................
 07a0 00000105 12060300 09000001 050d0002  ................
 07b0 04010300 09040001 05110603 02090800  ................
 07c0 01052b06 03000900 00010527 03000904  ..+........'....
 07d0 00010519 03000908 00010513 03000904  ................
 07e0 0001051a 00020402 037e0904 0001050d  .........~......
 07f0 06030809 08000105 09060301 09040001  ................
 0800 04060547 0603c87e 090c0001 05090301  ...G...~........
 0810 09000001 05400603 00090000 01050903  .....@..........
 0820 00090400 01040206 037d0904 00010524  .........}.....$
 0830 06030009 00000104 06050503 04090400  ................
 0840 01054e06 03060904 00010509 03010900  ..N.............
 0850 00010535 06030009 00000105 2c030009  ...5........,...
 0860 04000105 57030009 04000105 5c030009  ....W.......\...
 0870 04000105 4c030009 04000105 0d030009  ....L...........
 0880 04000105 09060301 09080001 05160603  ................
 0890 00090000 01050906 03010908 0001050c  ................
 08a0 06030009 00000105 0d060301 09040001  ................
 08b0 04020509 036e0900 00010510 06030009  .....n..........
 08c0 00000104 06050d03 12090400 01040205  ................
 08d0 09060372 09040001 05240603 00090000  ...r.....$......
 08e0 01040605 0d060310 09080001 04020509  ................
 08f0 036c0900 00010510 06030009 00000104  .l..............
 0900 06052803 14090400 01050d03 00090400  ..(.............
 0910 01040205 09060370 09040001 05240603  .......p.....$..
 0920 00090000 01040605 05031109 04000105  ................
 0930 48060302 09040001 05090301 09000001  H...............
 0940 05410603 00090000 01053903 00090400  .A........9.....
 0950 01050903 00090400 01040206 036c0908  .............l..
 0960 00010524 06030009 00000104 06050503  ...$............
 0970 15090400 01053006 03060904 00010509  ......0.........
 0980 03010900 00010538 06030009 00000105  .......8........
 0990 30030009 04000105 10030009 04000104  0...............
 09a0 02050906 0360090c 00010510 06030009  .....`..........
 09b0 00000104 06050503 21090400 01054006  ........!.....@.
 09c0 03020904 00010509 03010900 0001053a  ...............:
 09d0 06030009 00000105 32030009 04000105  ........2.......
 09e0 09030009 04000104 02060360 090c0001  ...........`....
 09f0 05240603 00090000 01040605 05032109  .$............!.
 0a00 04000104 0506039c 01090400 01050903  ................
 0a10 01093000 01030109 00000103 02090000  ..0.............
 0a20 01030209 08000105 10060300 09000001  ................
 0a30 05090300 09040001 05190603 04090400  ................
 0a40 01030109 14000105 21000204 0206037b  ........!......{
 0a50 09000001 051b0002 04010300 09040001  ................
 0a60 05090002 04010300 09080001 050d0603  ................
 0a70 01090400 01051006 03000900 00010511  ................
 0a80 06032309 08000105 19036409 08000103  ..#.......d.....
 0a90 01091400 01030309 04000103 01091400  ................
 0aa0 01030309 04000103 01091400 01030309  ................
 0ab0 04000103 01091400 01051706 036d0904  .............m..
 0ac0 0001051e 03000904 00010517 03000908  ................
 0ad0 00010515 06030109 04000105 18060300  ................
 0ae0 09000001 051a0603 04090800 01051d06  ................
 0af0 03000900 0001051a 06030409 08000105  ................
 0b00 1d060300 09000001 051a0603 04090800  ................
 0b10 01051d06 03000900 0001051a 06030409  ................
 0b20 08000105 1d060300 09000001 051a0603  ................
 0b30 0a090800 01051d06 03000900 00010519  ................
 0b40 06030109 08000103 01090c00 01050506  ................
 0b50 03080904 00010407 050c0603 b27e0914  .............~..
 0b60 00010505 03030908 00010301 09100001  ................
 0b70 03010914 00010302 09100001 04080366  ...............f
 0b80 09000001 04020509 03770900 00010524  .........w.....$
 0b90 06030009 00000104 07050506 0326090c  .............&..
 0ba0 00010300 09000001 03000908 00010302  ................
 0bb0 09040001 03000900 00010300 09000001  ................
 0bc0 0301090c 00010300 09000001 03000900  ................
 0bd0 00010300 09000001 03000904 00010300  ................
 0be0 090c0001 05010603 01090400 01050d06  ................
 0bf0 031f090c 00010505 03010908 00010002  ................
 0c00 04010301 090c0001 050d0002 04010300  ................
 0c10 09000001 05190370 09040001 05050301  .......p........
 0c20 090c0001 03020900 00010513 06030009  ................
 0c30 00000105 0a030009 10000105 09060301  ................
 0c40 09040001 05390301 09080001 05660300  .....9.......f..
 0c50 090c0001 05090304 09000001 0512037d  ...............}
 0c60 09140001 05010603 05090400 01050c06  ................
 0c70 03670910 00010505 03010908 00010516  .g..............
 0c80 03000900 00010300 09000001 03000904  ................
 0c90 00010505 03010900 00010301 09000001  ................
 0ca0 03010900 00010507 06030009 00000105  ................
 0cb0 09060301 09080001 05260301 09080001  .........&......
 0cc0 053b0300 09040001 05010603 06090000  .;..............
 0cd0 01051206 037b090c 00010509 03030904  .....{..........
 0ce0 0001050d 03170904 00010505 0301090c  ................
 0cf0 0001050f 03000900 00010505 03010900  ................
 0d00 00010301 090c0001 0302090c 00010408  ................
 0d10 03b47f09 00000104 02050903 79090000  ............y...
 0d20 01052406 03000900 00010407 05050603  ..$.............
 0d30 d400090c 00010408 03b17f09 00000104  ................
 0d40 02050903 7b090000 01052406 03000900  ....{.....$.....
 0d50 00010407 05050603 d5000904 0001050a  ................
 0d60 03000900 0001050e 06030009 00000105  ................
 0d70 05030009 04000105 09060301 09040001  ................
 0d80 04080505 03ae7f09 00000104 02050903  ................
 0d90 78090000 01051006 03000900 00010407  x...............
 0da0 050903da 00090800 01040805 050603af  ................
 0db0 7f090400 01040205 09037b09 00000105  ..........{.....
 0dc0 24060300 09000001 04070509 0603d700  $...............
 0dd0 09040001 05200300 09180001 051a0603  ..... ..........
 0de0 7e090000 01050500 02040103 00090400  ~...............
 0df0 01060304 09080001 0301090c 00010301  ................
 0e00 090c0001 0301090c 00010301 090c0001  ................
 0e10 00020401 03010904 0001050d 00020401  ................
 0e20 03000900 00010904 00000101 b6000000  ................
 0e30 03002800 00000101 fb0e0d00 01010101  ..(.............
 0e40 00000001 0000012e 2e2f636f 6d6d6f6e  ........./common
 0e50 00007374 6172742e 53000100 00000005  ..start.S.......
 0e60 02000000 f9030901 032a0908 00010303  .........*......
 0e70 09080001 03010908 00010301 09080001  ................
 0e80 03010904 00010302 09040001 03010904  ................
 0e90 00010301 09040001 03010904 00010301  ................
 0ea0 09040001 03040904 00010301 09040001  ................
 0eb0 03010904 00010302 09040001 03010904  ................
 0ec0 00010301 09040001 03040904 00010303  ................
 0ed0 09040001 03020904 00010305 09040001  ................
 0ee0 09040000 01010d01 00000300 27000000  ............'...
 0ef0 0101fb0e 0d000101 01010000 00010000  ................
 0f00 012e2e2f 636f6d6d 6f6e0000 74726170  .../common..trap
 0f10 2e530001 00000000 05025c07 00f91503  .S........\.....
 0f20 01090400 01030109 04000103 01090400  ................
 0f30 01030109 04000103 01090400 01030109  ................
 0f40 04000103 01090400 01030109 04000103  ................
 0f50 01090400 01030109 04000103 01090400  ................
 0f60 01030109 04000103 01090400 01030109  ................
 0f70 04000103 01090400 01030109 04000103  ................
 0f80 01090400 01030109 04000103 01090400  ................
 0f90 01030109 04000103 01090400 01030109  ................
 0fa0 04000103 01090400 01030109 04000103  ................
 0fb0 01090400 01030109 04000103 01090400  ................
 0fc0 01030109 04000103 01090400 01030109  ................
 0fd0 04000103 01090400 01030109 04000103  ................
 0fe0 01090400 01030109 04000103 01090400  ................
 0ff0 01090400 000101                      .......         
Contents of section .debug_str:
 0000 53595354 454d5f53 50495f30 5f494f5f  SYSTEM_SPI_0_IO_
 0010 4354524c 20307866 38303134 30303000  CTRL 0xf8014000.
 0020 504c4943 5f454e41 424c455f 5045525f  PLIC_ENABLE_PER_
 0030 48415254 20307838 30005749 4e545f4d  HART 0x80.WINT_M
 0040 494e2028 5f5f5749 4e545f4d 494e5f5f  IN (__WINT_MIN__
 0050 29005f5f 6d616c6c 6f635f6c 696b6520  ).__malloc_like 
 0060 5f5f6174 74726962 7574655f 5f28285f  __attribute__((_
 0070 5f6d616c 6c6f635f 5f292900 5f524545  _malloc__))._REE
 0080 4e545f4d 505f5245 53554c54 5f4b2870  NT_MP_RESULT_K(p
 0090 74722920 28287074 72292d3e 5f726573  tr) ((ptr)->_res
 00a0 756c745f 6b29005f 5f535649 445f5649  ult_k).__SVID_VI
 00b0 5349424c 45203100 636f6e66 69674d54  SIBLE 1.configMT
 00c0 494d455f 42415345 5f414444 52455353  IME_BASE_ADDRESS
 00d0 20284253 505f434c 494e5420 2b203078   (BSP_CLINT + 0x
 00e0 42464638 29005f5f 72697363 76203100  BFF8).__riscv 1.
 00f0 5f5f464c 54313238 5f4d494e 5f31305f  __FLT128_MIN_10_
 0100 4558505f 5f20282d 34393331 29005f5f  EXP__ (-4931).__
 0110 44454331 32385f45 5053494c 4f4e5f5f  DEC128_EPSILON__
 0120 2031452d 3333444c 005f5f49 4e544d41   1E-33DL.__INTMA
 0130 585f4328 63292063 20232320 4c4c005f  X_C(c) c ## LL._
 0140 5f636f6d 7061725f 666e5f74 5f646566  _compar_fn_t_def
 0150 696e6564 20005f5f 43435f53 5550504f  ined .__CC_SUPPO
 0160 5254535f 494e4c49 4e452031 005f5f47  RTS_INLINE 1.__G
 0170 43435f41 544f4d49 435f5743 4841525f  CC_ATOMIC_WCHAR_
 0180 545f4c4f 434b5f46 52454520 31004d53  T_LOCK_FREE 1.MS
 0190 54415455 535f4d50 52562030 78303030  TATUS_MPRV 0x000
 01a0 32303030 30005f5f 43484152 5f554e53  20000.__CHAR_UNS
 01b0 49474e45 445f5f20 31005f47 4c4f4241  IGNED__ 1._GLOBA
 01c0 4c5f4154 45584954 20285f47 4c4f4241  L_ATEXIT (_GLOBA
 01d0 4c5f5245 454e542d 3e5f6174 65786974  L_REENT->_atexit
 01e0 29005f5f 464c5431 32385f44 4543494d  ).__FLT128_DECIM
 01f0 414c5f44 49475f5f 20333600 6373725f  AL_DIG__ 36.csr_
 0200 72656164 5f636c65 61722863 73722c76  read_clear(csr,v
 0210 616c2920 287b2075 6e736967 6e656420  al) ({ unsigned 
 0220 6c6f6e67 205f5f76 203d2028 756e7369  long __v = (unsi
 0230 676e6564 206c6f6e 67292876 616c293b  gned long)(val);
 0240 205f5f61 736d5f5f 205f5f76 6f6c6174   __asm__ __volat
 0250 696c655f 5f202822 63737272 63202530  ile__ ("csrrc %0
 0260 2c202220 23637372 20222c20 25312220  , " #csr ", %1" 
 0270 3a20223d 72222028 5f5f7629 203a2022  : "=r" (__v) : "
 0280 724b2220 285f5f76 29293b20 5f5f763b  rK" (__v)); __v;
 0290 207d2900 53595354 454d5f55 4152545f   }).SYSTEM_UART_
 02a0 305f494f 5f504152 414d4554 45525f55  0_IO_PARAMETER_U
 02b0 4152545f 4354524c 5f434f4e 4649475f  ART_CTRL_CONFIG_
 02c0 52585f53 414d504c 455f5045 525f4249  RX_SAMPLE_PER_BI
 02d0 54203800 5f5f464c 5436345f 4841535f  T 8.__FLT64_HAS_
 02e0 494e4649 4e495459 5f5f2031 005f5f76  INFINITY__ 1.__v
 02f0 616c7565 004d5354 41545553 5f55584c  alue.MSTATUS_UXL
 0300 20307830 30303030 30303330 30303030   0x0000000300000
 0310 30303000 4e554c4c 20282876 6f696420  000.NULL ((void 
 0320 2a293029 005f5f5f 696e745f 73697a65  *)0).___int_size
 0330 5f745f68 20005f5f 7366005f 5f505452  _t_h .__sf.__PTR
 0340 44494646 5f4d4158 5f5f2030 78376666  DIFF_MAX__ 0x7ff
 0350 66666666 66005f5f 474e5543 4c494b45  fffff.__GNUCLIKE
 0360 5f5f5f53 45435449 4f4e2031 005f4c4f  ___SECTION 1._LO
 0370 4e475f44 4f55424c 45206c6f 6e672064  NG_DOUBLE long d
 0380 6f75626c 65006973 67726561 74657228  ouble.isgreater(
 0390 5f5f782c 5f5f7929 20285f5f 6275696c  __x,__y) (__buil
 03a0 74696e5f 69736772 65617465 7220285f  tin_isgreater (_
 03b0 5f782c20 5f5f7929 2900494e 545f4c45  _x, __y)).INT_LE
 03c0 41535438 5f4d494e 20282d5f 5f494e54  AST8_MIN (-__INT
 03d0 5f4c4541 5354385f 4d41585f 5f202d20  _LEAST8_MAX__ - 
 03e0 3129005f 55494e54 33325f54 5f444543  1)._UINT32_T_DEC
 03f0 4c415245 4420005f 72656164 005f5f49  LARED ._read.__I
 0400 4e544d41 585f4d41 585f5f20 30783766  NTMAX_MAX__ 0x7f
 0410 66666666 66666666 66666666 66664c4c  ffffffffffffffLL
 0420 005f5f44 45433332 5f535542 4e4f524d  .__DEC32_SUBNORM
 0430 414c5f4d 494e5f5f 20302e30 30303030  AL_MIN__ 0.00000
 0440 31452d39 35444600 5f5f6e65 65645f73  1E-95DF.__need_s
 0450 697a655f 74005f5f 6c6f636b 5f696e69  ize_t.__lock_ini
 0460 745f7265 63757273 69766528 6c6f636b  t_recursive(lock
 0470 29202828 766f6964 29203029 005f5f46  ) ((void) 0).__F
 0480 4c543332 585f4d49 4e5f4558 505f5f20  LT32X_MIN_EXP__ 
 0490 282d3130 32312900 5f524545 4e545f53  (-1021)._REENT_S
 04a0 49474e41 4c5f5349 5a452032 3400504d  IGNAL_SIZE 24.PM
 04b0 505f4c20 30783830 005f5245 454e545f  P_L 0x80._REENT_
 04c0 57435254 4f4d425f 53544154 45287074  WCRTOMB_STATE(pt
 04d0 72292028 28707472 292d3e5f 6e65772e  r) ((ptr)->_new.
 04e0 5f726565 6e742e5f 77637274 6f6d625f  _reent._wcrtomb_
 04f0 73746174 6529005f 5f41544f 4d49435f  state).__ATOMIC_
 0500 434f4e53 554d4520 31004249 545f3238  CONSUME 1.BIT_28
 0510 20283120 3c3c2032 3829005f 5f726973   (1 << 28).__ris
 0520 63765f6d 756c6469 76203100 4249545f  cv_muldiv 1.BIT_
 0530 35202831 203c3c20 3529005f 5f464c54  5 (1 << 5).__FLT
 0540 3634585f 4449475f 5f203333 005f5f46  64X_DIG__ 33.__F
 0550 4c543634 585f4550 53494c4f 4e5f5f20  LT64X_EPSILON__ 
 0560 312e3932 35393239 39343433 38373233  1.92592994438723
 0570 35383533 30353539 37373934 32353834  5853055977942584
 0580 39323733 32652d33 34463634 78005f5f  92732e-34F64x.__
 0590 474e5543 4c494b45 5f5f5f54 5950454f  GNUCLIKE___TYPEO
 05a0 46203100 5f5f696e 7432305f 5f005f53  F 1.__int20__._S
 05b0 59535f5f 4c4f4341 4c455f48 20004249  YS__LOCALE_H .BI
 05c0 545f3135 20283120 3c3c2031 35290052  T_15 (1 << 15).R
 05d0 44435943 4c452030 78433030 005f5f53  DCYCLE 0xC00.__S
 05e0 495a454f 465f4c4f 4e475f4c 4f4e475f  IZEOF_LONG_LONG_
 05f0 5f203800 5f617363 74696d65 5f627566  _ 8._asctime_buf
 0600 005f5f44 424c5f4d 41585f31 305f4558  .__DBL_MAX_10_EX
 0610 505f5f20 33303800 5f637674 6c656e00  P__ 308._cvtlen.
 0620 5f5f4445 4336345f 45505349 4c4f4e5f  __DEC64_EPSILON_
 0630 5f203145 2d313544 44005349 5a455f4d  _ 1E-15DD.SIZE_M
 0640 41582028 5f5f5349 5a455f4d 41585f5f  AX (__SIZE_MAX__
 0650 29005f5f 504f5349 585f5649 5349424c  ).__POSIX_VISIBL
 0660 45203230 30383039 005f5f73 74726f6e  E 200809.__stron
 0670 675f7265 66657265 6e636528 73796d2c  g_reference(sym,
 0680 616c6961 7373796d 29206578 7465726e  aliassym) extern
 0690 205f5f74 7970656f 66202873 796d2920   __typeof (sym) 
 06a0 616c6961 7373796d 205f5f61 74747269  aliassym __attri
 06b0 62757465 5f5f2028 285f5f61 6c696173  bute__ ((__alias
 06c0 5f5f2028 2373796d 29292900 5f5f4445  __ (#sym))).__DE
 06d0 4333325f 4d494e5f 5f203145 2d393544  C32_MIN__ 1E-95D
 06e0 46005f5f 494e544d 41585f57 49445448  F.__INTMAX_WIDTH
 06f0 5f5f2036 34005f5f 4f524445 525f5044  __ 64.__ORDER_PD
 0700 505f454e 4449414e 5f5f2033 34313200  P_ENDIAN__ 3412.
 0710 5f5f5349 5a455f54 5950455f 5f20756e  __SIZE_TYPE__ un
 0720 7369676e 65642069 6e74005f 5f444543  signed int.__DEC
 0730 36345f4d 41585f45 58505f5f 20333835  64_MAX_EXP__ 385
 0740 004d5f32 5f504920 302e3633 36363139  .M_2_PI 0.636619
 0750 37373233 36373538 31333433 3038005f  77236758134308._
 0760 5f464c54 5f484153 5f44454e 4f524d5f  _FLT_HAS_DENORM_
 0770 5f203100 55494e54 5f464153 5431365f  _ 1.UINT_FAST16_
 0780 4d415820 285f5f55 494e545f 46415354  MAX (__UINT_FAST
 0790 31365f4d 41585f5f 29004249 545f3136  16_MAX__).BIT_16
 07a0 20283120 3c3c2031 36290048 5547455f   (1 << 16).HUGE_
 07b0 56414c20 285f5f62 75696c74 696e5f68  VAL (__builtin_h
 07c0 7567655f 76616c28 2929005f 5f464c54  uge_val()).__FLT
 07d0 33325f44 4543494d 414c5f44 49475f5f  32_DECIMAL_DIG__
 07e0 2039005f 5f4f5244 45525f4c 4954544c   9.__ORDER_LITTL
 07f0 455f454e 4449414e 5f5f2031 32333400  E_ENDIAN__ 1234.
 0800 6273705f 7072696e 74486578 5f6c6f77  bsp_printHex_low
 0810 6572005f 5f535444 435f5554 465f3136  er.__STDC_UTF_16
 0820 5f5f2031 005f4e75 6c6c6162 6c652000  __ 1._Nullable .
 0830 5f5f746d 00646967 69747300 5f6e6275  __tm.digits._nbu
 0840 66005f5f 746d5f73 6563005f 5f55494e  f.__tm_sec.__UIN
 0850 54385f43 28632920 63005f5f 494e5431  T8_C(c) c.__INT1
 0860 365f5459 50455f5f 2073686f 72742069  6_TYPE__ short i
 0870 6e740042 53505f4c 45445f4d 41534b20  nt.BSP_LED_MASK 
 0880 30786600 5f6c3634 615f6275 66004d5f  0xf._l64a_buf.M_
 0890 53515254 50492031 2e373732 34353338  SQRTPI 1.7724538
 08a0 35303930 35353136 30323739 32393831  5090551602792981
 08b0 00443a5c 5f756e6f 5c323430 332d4769  .D:\_uno\2403-Gi
 08c0 74487562 5c746573 742d7265 706f5c65  tHub\test-repo\e
 08d0 78616d70 6c655f74 32305f31 7374675f  xample_t20_1stg_
 08e0 626f6f74 6c6f6164 65725c65 6d626564  bootloader\embed
 08f0 6465645f 73775c73 61705c73 6f667477  ded_sw\sap\softw
 0900 6172655c 7374616e 64616c6f 6e655c67  are\standalone\g
 0910 70696f44 656d6f5f 5472696e 69746100  pioDemo_Trinita.
 0920 5f5f464c 54363458 5f4d4158 5f5f2031  __FLT64X_MAX__ 1
 0930 2e313839 37333134 39353335 37323331  .189731495357231
 0940 37363530 38353735 39333236 36323830  7650857593266280
 0950 30373032 652b3439 33324636 3478005f  0702e+4932F64x._
 0960 5f494e54 38202268 6822005f 5f686173  _INT8 "hh".__has
 0970 5f627569 6c74696e 28782920 30005359  _builtin(x) 0.SY
 0980 5354454d 5f554152 545f305f 494f5f50  STEM_UART_0_IO_P
 0990 4152414d 45544552 5f54585f 4649464f  ARAMETER_TX_FIFO
 09a0 5f444550 54482031 32380049 4e545f4c  _DEPTH 128.INT_L
 09b0 45415354 31365f4d 41582028 5f5f494e  EAST16_MAX (__IN
 09c0 545f4c45 41535431 365f4d41 585f5f29  T_LEAST16_MAX__)
 09d0 005f5f47 58585f41 42495f56 45525349  .__GXX_ABI_VERSI
 09e0 4f4e2031 30313300 494e545f 46415354  ON 1013.INT_FAST
 09f0 31365f4d 41582028 5f5f494e 545f4641  16_MAX (__INT_FA
 0a00 53543136 5f4d4158 5f5f2900 5f504f49  ST16_MAX__)._POI
 0a10 4e544552 5f494e54 206c6f6e 67005f5f  NTER_INT long.__
 0a20 5349475f 41544f4d 49435f54 5950455f  SIG_ATOMIC_TYPE_
 0a30 5f20696e 74005f73 697a6500 5f524545  _ int._size._REE
 0a40 4e545f4d 505f5245 53554c54 28707472  NT_MP_RESULT(ptr
 0a50 29202828 70747229 2d3e5f72 6573756c  ) ((ptr)->_resul
 0a60 7429005f 5f494e54 5f464153 5436345f  t).__INT_FAST64_
 0a70 54595045 5f5f206c 6f6e6720 6c6f6e67  TYPE__ long long
 0a80 20696e74 004d5f53 51525433 20312e37   int.M_SQRT3 1.7
 0a90 33323035 30383037 35363838 37373139  3205080756887719
 0aa0 30303000 53535441 54555333 325f5344  000.SSTATUS32_SD
 0ab0 20307838 30303030 30303000 494e5438   0x80000000.INT8
 0ac0 5f4d4158 20285f5f 494e5438 5f4d4158  _MAX (__INT8_MAX
 0ad0 5f5f2900 4d5f315f 50492030 2e333138  __).M_1_PI 0.318
 0ae0 33303938 38363138 33373930 36373135  3098861837906715
 0af0 34005f6c 6f636b00 5f5f464c 5433325f  4._lock.__FLT32_
 0b00 4d494e5f 5f20312e 31373534 39343335  MIN__ 1.17549435
 0b10 30383232 32383735 30373936 38373336  0822287507968736
 0b20 35333732 32323234 35363865 2d333846  53722224568e-38F
 0b30 33320050 54524449 46465f4d 41582028  32.PTRDIFF_MAX (
 0b40 5f5f5054 52444946 465f4d41 585f5f29  __PTRDIFF_MAX__)
 0b50 005f5f46 4c543332 5f4d4158 5f31305f  .__FLT32_MAX_10_
 0b60 4558505f 5f203338 00535953 54454d5f  EXP__ 38.SYSTEM_
 0b70 504c4943 5f535953 54454d5f 434f5245  PLIC_SYSTEM_CORE
 0b80 535f305f 45585445 524e414c 5f494e54  S_0_EXTERNAL_INT
 0b90 45525255 50542030 00434c49 4e545f43  ERRUPT 0.CLINT_C
 0ba0 4d505f41 44445220 30783430 3030005f  MP_ADDR 0x4000._
 0bb0 5245454e 545f4d50 5f465245 454c4953  REENT_MP_FREELIS
 0bc0 54287074 72292028 28707472 292d3e5f  T(ptr) ((ptr)->_
 0bd0 66726565 6c697374 29005359 5354454d  freelist).SYSTEM
 0be0 5f555345 525f5449 4d45525f 305f4354  _USER_TIMER_0_CT
 0bf0 524c5f53 495a4520 30783130 3030005f  RL_SIZE 0x1000._
 0c00 5f6e6565 645f7763 6861725f 74005f5f  _need_wchar_t.__
 0c10 464c5433 325f4d49 4e5f4558 505f5f20  FLT32_MIN_EXP__ 
 0c20 282d3132 3529005f 5f464c54 3634585f  (-125).__FLT64X_
 0c30 4d494e5f 4558505f 5f20282d 31363338  MIN_EXP__ (-1638
 0c40 3129004d 5f535152 54315f32 20302e37  1).M_SQRT1_2 0.7
 0c50 30373130 36373831 31383635 34373532  0710678118654752
 0c60 34343000 77726974 655f7533 32005f5f  440.write_u32.__
 0c70 50545244 4946465f 5420005f 67657464  PTRDIFF_T ._getd
 0c80 6174655f 65727200 5f6d756c 7400494e  ate_err._mult.IN
 0c90 5431365f 4d415820 285f5f49 4e543136  T16_MAX (__INT16
 0ca0 5f4d4158 5f5f2900 5f5f464c 5436345f  _MAX__).__FLT64_
 0cb0 4d494e5f 31305f45 58505f5f 20282d33  MIN_10_EXP__ (-3
 0cc0 30372900 504c4943 5f544852 4553484f  07).PLIC_THRESHO
 0cd0 4c445f42 41534520 30783230 30303030  LD_BASE 0x200000
 0ce0 005f5f73 697a655f 7420005f 5f626f75  .__size_t .__bou
 0cf0 6e646564 20005f5f 696e745f 66617374  nded .__int_fast
 0d00 33325f74 5f646566 696e6564 2031005f  32_t_defined 1._
 0d10 5f494e54 5f464153 5436345f 57494454  _INT_FAST64_WIDT
 0d20 485f5f20 3634005f 5f464c54 36345f44  H__ 64.__FLT64_D
 0d30 4543494d 414c5f44 49475f5f 20313700  ECIMAL_DIG__ 17.
 0d40 5f5f5f69 6e745f77 63686172 5f745f68  ___int_wchar_t_h
 0d50 20005f52 45454e54 5f494e49 545f5054   ._REENT_INIT_PT
 0d60 52287661 7229207b 206d656d 73657428  R(var) { memset(
 0d70 28766172 292c2030 2c207369 7a656f66  (var), 0, sizeof
 0d80 282a2876 61722929 293b205f 5245454e  (*(var))); _REEN
 0d90 545f494e 49545f50 54525f5a 45524f45  T_INIT_PTR_ZEROE
 0da0 44287661 72293b20 7d00494e 5431365f  D(var); }.INT16_
 0db0 43287829 205f5f49 4e543136 5f432878  C(x) __INT16_C(x
 0dc0 29005353 54415455 5336345f 53442030  ).SSTATUS64_SD 0
 0dd0 78383030 30303030 30303030 30303030  x800000000000000
 0de0 30005f5f 434f4e43 41543128 782c7929  0.__CONCAT1(x,y)
 0df0 20782023 23207900 504d505f 58203078   x ## y.PMP_X 0x
 0e00 3034005f 5f494e54 33325f43 28632920  04.__INT32_C(c) 
 0e10 63202323 204c005f 5f4f5244 45525f42  c ## L.__ORDER_B
 0e20 49475f45 4e444941 4e5f5f20 34333231  IG_ENDIAN__ 4321
 0e30 005f5f44 45433132 385f4d49 4e5f5f20  .__DEC128_MIN__ 
 0e40 31452d36 31343344 4c00494e 54385f4d  1E-6143DL.INT8_M
 0e50 494e2028 2d5f5f49 4e54385f 4d41585f  IN (-__INT8_MAX_
 0e60 5f202d20 31290046 4c545f45 56414c5f  _ - 1).FLT_EVAL_
 0e70 4d455448 4f44005f 5f502870 726f746f  METHOD.__P(proto
 0e80 73292070 726f746f 73005f5f 464c5431  s) protos.__FLT1
 0e90 32385f48 41535f51 55494554 5f4e414e  28_HAS_QUIET_NAN
 0ea0 5f5f2031 005f5359 535f5f53 5444494e  __ 1._SYS__STDIN
 0eb0 545f4820 00494e54 5f4c4541 53543634  T_H .INT_LEAST64
 0ec0 5f4d4158 20285f5f 494e545f 4c454153  _MAX (__INT_LEAS
 0ed0 5436345f 4d41585f 5f290053 59535445  T64_MAX__).SYSTE
 0ee0 4d5f5249 5343565f 4953415f 4558545f  M_RISCV_ISA_EXT_
 0ef0 5a494645 4e434520 31005f5f 50545244  ZIFENCE 1.__PTRD
 0f00 4946465f 57494454 485f5f20 33320053  IFF_WIDTH__ 32.S
 0f10 59535445 4d5f434c 494e545f 4354524c  YSTEM_CLINT_CTRL
 0f20 5f53495a 45203078 31303030 30005f5f  _SIZE 0x10000.__
 0f30 7765616b 5f726566 6572656e 63652873  weak_reference(s
 0f40 796d2c61 6c696173 29205f5f 61736d5f  ym,alias) __asm_
 0f50 5f28222e 7765616b 20222023 616c6961  _(".weak " #alia
 0f60 73293b20 5f5f6173 6d5f5f28 222e6571  s); __asm__(".eq
 0f70 75202220 23616c69 61732022 2c202220  u " #alias ", " 
 0f80 2373796d 29005f5f 55494e54 5f464153  #sym).__UINT_FAS
 0f90 54385f4d 41585f5f 20307866 66666666  T8_MAX__ 0xfffff
 0fa0 66666655 005f4e4f 5448524f 5720005f  fffU._NOTHROW ._
 0fb0 5f444543 33325f45 5053494c 4f4e5f5f  _DEC32_EPSILON__
 0fc0 2031452d 36444600 5f5f6861 735f6578   1E-6DF.__has_ex
 0fd0 74656e73 696f6e20 5f5f6861 735f6665  tension __has_fe
 0fe0 61747572 65005f5f 77636800 5f5f6e65  ature.__wch.__ne
 0ff0 65645f70 74726469 66665f74 005f5f49  ed_ptrdiff_t.__I
 1000 4e545f4c 45415354 36345f54 5950455f  NT_LEAST64_TYPE_
 1010 5f206c6f 6e67206c 6f6e6720 696e7400  _ long long int.
 1020 494e545f 4c454153 54385f4d 41582028  INT_LEAST8_MAX (
 1030 5f5f494e 545f4c45 41535438 5f4d4158  __INT_LEAST8_MAX
 1040 5f5f2900 5f5f464c 54363458 5f4d4158  __).__FLT64X_MAX
 1050 5f31305f 4558505f 5f203439 3332005f  _10_EXP__ 4932._
 1060 5f534348 41525f57 49445448 5f5f2038  _SCHAR_WIDTH__ 8
 1070 00434155 53455f49 4c4c4547 414c5f49  .CAUSE_ILLEGAL_I
 1080 4e535452 55435449 4f4e2032 005f5f49  NSTRUCTION 2.__I
 1090 4e545f46 41535431 365f5749 4454485f  NT_FAST16_WIDTH_
 10a0 5f203332 005f5245 454e5420 5f696d70  _ 32._REENT _imp
 10b0 7572655f 70747200 4d49455f 4d454945  ure_ptr.MIE_MEIE
 10c0 20283120 3c3c2043 41555345 5f4d4143   (1 << CAUSE_MAC
 10d0 48494e45 5f455854 45524e41 4c29004d  HINE_EXTERNAL).M
 10e0 5f4c4e32 48492036 2e393331 34373138  _LN2HI 6.9314718
 10f0 30333639 31323338 31363439 452d3100  036912381649E-1.
 1100 5f5f4c45 41535433 3220226c 22005f5f  __LEAST32 "l".__
 1110 494e5436 3420226c 6c22005f 5f474343  INT64 "ll".__GCC
 1120 5f41544f 4d49435f 504f494e 5445525f  _ATOMIC_POINTER_
 1130 4c4f434b 5f465245 45203100 5f66696c  LOCK_FREE 1._fil
 1140 65005f5f 55494e54 5f464153 5431365f  e.__UINT_FAST16_
 1150 4d41585f 5f203078 66666666 66666666  MAX__ 0xffffffff
 1160 5500494e 545f4c45 41535436 345f4d49  U.INT_LEAST64_MI
 1170 4e20282d 5f5f494e 545f4c45 41535436  N (-__INT_LEAST6
 1180 345f4d41 585f5f20 2d203129 005f6f6e  4_MAX__ - 1)._on
 1190 5f657869 745f6172 67730046 505f4e41  _exit_args.FP_NA
 11a0 4e203000 5f5f494e 54505452 5f4d4158  N 0.__INTPTR_MAX
 11b0 5f5f2030 78376666 66666666 66004d5f  __ 0x7fffffff.M_
 11c0 4c4f4731 30452030 2e343334 32393434  LOG10E 0.4342944
 11d0 38313930 33323531 38323736 35004d53  8190325182765.MS
 11e0 54415455 535f5350 50203078 30303030  TATUS_SPP 0x0000
 11f0 30313030 005f4e6f 6e6e756c 6c200045  0100._Nonnull .E
 1200 4e41424c 455f4252 49444745 5f46554c  NABLE_BRIDGE_FUL
 1210 4c5f544f 5f4c4954 45203100 4d494445  L_TO_LITE 1.MIDE
 1220 4c45475f 53555045 52564953 4f525f53  LEG_SUPERVISOR_S
 1230 4f465457 41524520 2831203c 3c203129  OFTWARE (1 << 1)
 1240 005f5f47 4e55435f 50524552 4551286d  .__GNUC_PREREQ(m
 1250 616a2c6d 696e2920 28285f5f 474e5543  aj,min) ((__GNUC
 1260 5f5f203c 3c203136 29202b20 5f5f474e  __ << 16) + __GN
 1270 55435f4d 494e4f52 5f5f203e 3d202828  UC_MINOR__ >= ((
 1280 6d616a29 203c3c20 31362920 2b20286d  maj) << 16) + (m
 1290 696e2929 005f545f 57434841 5220005f  in))._T_WCHAR ._
 12a0 4e5f4c49 53545320 3330005f 494e5450  N_LISTS 30._INTP
 12b0 54525f54 5f444543 4c415245 4420005f  TR_T_DECLARED ._
 12c0 56415f4c 4953545f 545f4820 005f5f46  VA_LIST_T_H .__F
 12d0 4c543332 585f4841 535f494e 46494e49  LT32X_HAS_INFINI
 12e0 54595f5f 20310049 4e545f46 41535433  TY__ 1.INT_FAST3
 12f0 325f4d49 4e20282d 5f5f494e 545f4641  2_MIN (-__INT_FA
 1300 53543332 5f4d4158 5f5f202d 20312900  ST32_MAX__ - 1).
 1310 53595354 454d5f50 4c49435f 4354524c  SYSTEM_PLIC_CTRL
 1320 5f53495a 45203078 34303030 3030005f  _SIZE 0x400000._
 1330 5f524353 49445f53 4f555243 45287329  _RCSID_SOURCE(s)
 1340 20737472 75637420 5f5f6861 636b005f   struct __hack._
 1350 5245454e 545f5241 4e443438 5f534545  REENT_RAND48_SEE
 1360 44287074 72292028 28707472 292d3e5f  D(ptr) ((ptr)->_
 1370 6e65772e 5f726565 6e742e5f 7234382e  new._reent._r48.
 1380 5f736565 6429005f 5f55494e 545f4c45  _seed).__UINT_LE
 1390 41535438 5f545950 455f5f20 756e7369  AST8_TYPE__ unsi
 13a0 676e6564 20636861 72005f73 7472746f  gned char._strto
 13b0 6b5f6c61 7374005f 5f6c6f63 6b735f65  k_last.__locks_e
 13c0 78636c75 73697665 282e2e2e 29205f5f  xclusive(...) __
 13d0 6c6f636b 5f616e6e 6f746174 65286578  lock_annotate(ex
 13e0 636c7573 6976655f 6c6f636b 5f66756e  clusive_lock_fun
 13f0 6374696f 6e285f5f 56415f41 5247535f  ction(__VA_ARGS_
 1400 5f292900 5f6d6272 6c656e5f 73746174  _))._mbrlen_stat
 1410 6500706c 69635f73 65745f70 72696f72  e.plic_set_prior
 1420 69747900 5f5f7269 7363765f 666c6f61  ity.__riscv_floa
 1430 745f6162 695f736f 66742031 00535953  t_abi_soft 1.SYS
 1440 54454d5f 55415254 5f305f49 4f5f5041  TEM_UART_0_IO_PA
 1450 52414d45 5445525f 55415254 5f435452  RAMETER_UART_CTR
 1460 4c5f434f 4e464947 5f525453 5f47454e  L_CONFIG_RTS_GEN
 1470 2030005f 5f494e54 5f464153 5436345f   0.__INT_FAST64_
 1480 4d41585f 5f203078 37666666 66666666  MAX__ 0x7fffffff
 1490 66666666 66666666 4c4c005f 5f464c54  ffffffffLL.__FLT
 14a0 3332585f 44454349 4d414c5f 4449475f  32X_DECIMAL_DIG_
 14b0 5f203137 00494e46 494e4954 5920285f  _ 17.INFINITY (_
 14c0 5f627569 6c74696e 5f696e66 66282929  _builtin_inff())
 14d0 005f5f46 4c543332 585f4841 535f5155  .__FLT32X_HAS_QU
 14e0 4945545f 4e414e5f 5f203100 5f5f5241  IET_NAN__ 1.__RA
 14f0 4e445f4d 41582030 78376666 66666666  ND_MAX 0x7ffffff
 1500 66005f70 75746368 61725f73 005f5f5f  f._putchar_s.___
 1510 696e745f 6c656173 7431365f 745f6465  int_least16_t_de
 1520 66696e65 64203100 5f5f4445 43313238  fined 1.__DEC128
 1530 5f4d494e 5f455850 5f5f2028 2d363134  _MIN_EXP__ (-614
 1540 3229004d 4154485f 45525245 58434550  2).MATH_ERREXCEP
 1550 54203200 5f5f494e 545f4641 5354385f  T 2.__INT_FAST8_
 1560 54595045 5f5f2069 6e74005f 4e4f494e  TYPE__ int._NOIN
 1570 4c494e45 205f5f61 74747269 62757465  LINE __attribute
 1580 5f5f2028 285f5f6e 6f696e6c 696e655f  __ ((__noinline_
 1590 5f292900 5f5f7369 7a655f74 5f5f2000  _)).__size_t__ .
 15a0 5f5f464c 54313238 5f4d494e 5f455850  __FLT128_MIN_EXP
 15b0 5f5f2028 2d313633 38312900 6373725f  __ (-16381).csr_
 15c0 72656164 28637372 2920287b 20726567  read(csr) ({ reg
 15d0 69737465 7220756e 7369676e 6564206c  ister unsigned l
 15e0 6f6e6720 5f5f763b 205f5f61 736d5f5f  ong __v; __asm__
 15f0 205f5f76 6f6c6174 696c655f 5f202822   __volatile__ ("
 1600 63737272 2025302c 20222023 63737220  csrr %0, " #csr 
 1610 3a20223d 72222028 5f5f7629 293b205f  : "=r" (__v)); _
 1620 5f763b20 7d29005f 5245454e 545f5241  _v; })._REENT_RA
 1630 4e445f4e 45585428 70747229 20282870  ND_NEXT(ptr) ((p
 1640 7472292d 3e5f6e65 772e5f72 65656e74  tr)->_new._reent
 1650 2e5f7261 6e645f6e 65787429 005f5f55  ._rand_next).__U
 1660 494e544d 41585f43 28632920 63202323  INTMAX_C(c) c ##
 1670 20554c4c 00484156 455f494e 49544649   ULL.HAVE_INITFI
 1680 4e495f41 52524159 2031005f 5f53495a  NI_ARRAY 1.__SIZ
 1690 454f465f 504f494e 5445525f 5f203400  EOF_POINTER__ 4.
 16a0 494e545f 46415354 36345f4d 494e2028  INT_FAST64_MIN (
 16b0 2d5f5f49 4e545f46 41535436 345f4d41  -__INT_FAST64_MA
 16c0 585f5f20 2d203129 005f6c6f 63616c74  X__ - 1)._localt
 16d0 696d655f 62756600 5f425344 5f574348  ime_buf._BSD_WCH
 16e0 41525f54 5f20005f 5f474343 5f41544f  AR_T_ .__GCC_ATO
 16f0 4d49435f 424f4f4c 5f4c4f43 4b5f4652  MIC_BOOL_LOCK_FR
 1700 45452031 00424954 5f323220 2831203c  EE 1.BIT_22 (1 <
 1710 3c203232 29005f5f 5f696e74 36345f74  < 22).___int64_t
 1720 5f646566 696e6564 2031005f 5f464c54  _defined 1.__FLT
 1730 3634585f 4841535f 44454e4f 524d5f5f  64X_HAS_DENORM__
 1740 2031005f 5f736275 66006469 67690055   1.__sbuf.digi.U
 1750 494e5450 54525f4d 41582028 5f5f5549  INTPTR_MAX (__UI
 1760 4e545054 525f4d41 585f5f29 005f5f46  NTPTR_MAX__).__F
 1770 4c543332 5f4d4158 5f455850 5f5f2031  LT32_MAX_EXP__ 1
 1780 3238006d 61696e00 5f5f5549 4e544d41  28.main.__UINTMA
 1790 585f5459 50455f5f 206c6f6e 67206c6f  X_TYPE__ long lo
 17a0 6e672075 6e736967 6e656420 696e7400  ng unsigned int.
 17b0 5f415445 5849545f 53495a45 20333200  _ATEXIT_SIZE 32.
 17c0 5f666e74 79706573 005f5f4c 44424c5f  _fntypes.__LDBL_
 17d0 44454e4f 524d5f4d 494e5f5f 20362e34  DENORM_MIN__ 6.4
 17e0 37353137 35313139 34333830 32353131  7517511943802511
 17f0 30393234 34333839 35383232 37363436  0924438958227646
 1800 3535652d 34393636 4c00504d 505f4120  55e-4966L.PMP_A 
 1810 30783138 00776f72 64005f55 494e5436  0x18.word._UINT6
 1820 345f545f 4445434c 41524544 20005f53  4_T_DECLARED ._S
 1830 495a455f 545f4445 434c4152 45442000  IZE_T_DECLARED .
 1840 4d535441 5455535f 58532030 78303030  MSTATUS_XS 0x000
 1850 31383030 30005f5f 43484152 33325f54  18000.__CHAR32_T
 1860 5950455f 5f206c6f 6e672075 6e736967  YPE__ long unsig
 1870 6e656420 696e7400 4249545f 34202831  ned int.BIT_4 (1
 1880 203c3c20 3429005f 5f43435f 53555050   << 4).__CC_SUPP
 1890 4f525453 5f44594e 414d4943 5f415252  ORTS_DYNAMIC_ARR
 18a0 41595f49 4e495420 31005f5f 756e7573  AY_INIT 1.__unus
 18b0 6564205f 5f617474 72696275 74655f5f  ed __attribute__
 18c0 28285f5f 756e7573 65645f5f 2929005f  ((__unused__))._
 18d0 5f55494e 545f4641 53543332 5f4d4158  _UINT_FAST32_MAX
 18e0 5f5f2030 78666666 66666666 6655005f  __ 0xffffffffU._
 18f0 5f746d5f 6d6f6e00 5f5f464c 545f4d41  _tm_mon.__FLT_MA
 1900 585f4558 505f5f20 31323800 5f5f5349  X_EXP__ 128.__SI
 1910 5a454f46 5f4c4f4e 475f5f20 34005359  ZEOF_LONG__ 4.SY
 1920 5354454d 5f493243 5f415f41 50422053  STEM_I2C_A_APB S
 1930 59535445 4d5f4932 435f305f 494f5f41  YSTEM_I2C_0_IO_A
 1940 5042004d 4944454c 45475f53 55504552  PB.MIDELEG_SUPER
 1950 5649534f 525f4558 5445524e 414c2028  VISOR_EXTERNAL (
 1960 31203c3c 20392900 46505f53 55424e4f  1 << 9).FP_SUBNO
 1970 524d414c 2033005f 52454144 5f575249  RMAL 3._READ_WRI
 1980 54455f42 55465349 5a455f54 59504520  TE_BUFSIZE_TYPE 
 1990 696e7400 4c4f4f50 5f554445 4c415920  int.LOOP_UDELAY 
 19a0 31303030 3030005f 5f53495a 454f465f  100000.__SIZEOF_
 19b0 444f5542 4c455f5f 2038005f 5f494e54  DOUBLE__ 8.__INT
 19c0 5f4c4541 53543332 5f574944 54485f5f  _LEAST32_WIDTH__
 19d0 20333200 5f434c4f 434b5f54 5f20756e   32._CLOCK_T_ un
 19e0 7369676e 6564206c 6f6e6700 5f54494d  signed long._TIM
 19f0 455f545f 205f5f69 6e745f6c 65617374  E_T_ __int_least
 1a00 36345f74 005f5f4c 44424c5f 4d41585f  64_t.__LDBL_MAX_
 1a10 31305f45 58505f5f 20343933 32005359  10_EXP__ 4932.SY
 1a20 5354454d 5f434f52 45535f30 5f434655  STEM_CORES_0_CFU
 1a30 20300074 72617000 5f5f7379 6d5f636f   0.trap.__sym_co
 1a40 6d706174 2873796d 2c696d70 6c2c7665  mpat(sym,impl,ve
 1a50 72696429 205f5f61 736d5f5f 28222e73  rid) __asm__(".s
 1a60 796d7665 72202220 23696d70 6c20222c  ymver " #impl ",
 1a70 20222023 73796d20 22402220 23766572   " #sym "@" #ver
 1a80 69642900 5f5f4641 53543136 20005353  id).__FAST16 .SS
 1a90 54415455 535f5550 49452030 78303030  TATUS_UPIE 0x000
 1aa0 30303031 30005f5f 4c415247 4546494c  00010.__LARGEFIL
 1ab0 455f5649 5349424c 45203000 5f5f4445  E_VISIBLE 0.__DE
 1ac0 4336345f 4d41585f 5f20392e 39393939  C64_MAX__ 9.9999
 1ad0 39393939 39393939 39393945 33383444  99999999999E384D
 1ae0 44005f5f 4e45574c 49425f5f 2033005f  D.__NEWLIB__ 3._
 1af0 5f726973 63765f64 69762031 00455849  _riscv_div 1.EXI
 1b00 545f5355 43434553 53203000 5f5f464c  T_SUCCESS 0.__FL
 1b10 545f4d49 4e5f3130 5f455850 5f5f2028  T_MIN_10_EXP__ (
 1b20 2d333729 005f5f41 534d4e41 4d452863  -37).__ASMNAME(c
 1b30 6e616d65 29205f5f 58535452 494e4720  name) __XSTRING 
 1b40 285f5f55 5345525f 4c414245 4c5f5052  (__USER_LABEL_PR
 1b50 45464958 5f5f2920 636e616d 65006d61  EFIX__) cname.ma
 1b60 74685f65 72726861 6e646c69 6e67204d  th_errhandling M
 1b70 4154485f 4552524e 4f005f5f 464c545f  ATH_ERRNO.__FLT_
 1b80 44454349 4d414c5f 4449475f 5f203900  DECIMAL_DIG__ 9.
 1b90 4253505f 4d414348 494e455f 54494d45  BSP_MACHINE_TIME
 1ba0 525f485a 20535953 54454d5f 434c494e  R_HZ SYSTEM_CLIN
 1bb0 545f485a 005f756e 75736564 5f72616e  T_HZ._unused_ran
 1bc0 64005f55 494e5438 5f545f44 45434c41  d._UINT8_T_DECLA
 1bd0 52454420 00524443 59434c45 48203078  RED .RDCYCLEH 0x
 1be0 43383000 5f5f6173 73657274 735f6578  C80.__asserts_ex
 1bf0 636c7573 69766528 2e2e2e29 205f5f6c  clusive(...) __l
 1c00 6f636b5f 616e6e6f 74617465 28617373  ock_annotate(ass
 1c10 6572745f 6578636c 75736976 655f6c6f  ert_exclusive_lo
 1c20 636b285f 5f56415f 41524753 5f5f2929  ck(__VA_ARGS__))
 1c30 00494e54 4d41585f 4d494e20 282d494e  .INTMAX_MIN (-IN
 1c40 544d4158 5f4d4158 202d2031 29005f5f  TMAX_MAX - 1).__
 1c50 464c5433 325f4445 4e4f524d 5f4d494e  FLT32_DENORM_MIN
 1c60 5f5f2031 2e343031 32393834 36343332  __ 1.40129846432
 1c70 34383137 30373039 32333732 39353833  4817070923729583
 1c80 32383939 31363133 652d3435 46333200  28991613e-45F32.
 1c90 5f5f7074 725f7420 766f6964 202a005f  __ptr_t void *._
 1ca0 5f474e55 435f5354 44435f49 4e4c494e  _GNUC_STDC_INLIN
 1cb0 455f5f20 31005f52 45454e54 5f52414e  E__ 1._REENT_RAN
 1cc0 4434385f 41444428 70747229 20282870  D48_ADD(ptr) ((p
 1cd0 7472292d 3e5f6e65 772e5f72 65656e74  tr)->_new._reent
 1ce0 2e5f7234 382e5f61 64642900 57434841  ._r48._add).WCHA
 1cf0 525f4d49 4e20285f 5f574348 41525f4d  R_MIN (__WCHAR_M
 1d00 494e5f5f 29005f5f 494e5436 345f4328  IN__).__INT64_C(
 1d10 63292063 20232320 4c4c005f 5245454e  c) c ## LL._REEN
 1d20 545f4348 45434b5f 4d495343 28707472  T_CHECK_MISC(ptr
 1d30 2920005f 5f464c54 5f484153 5f515549  ) .__FLT_HAS_QUI
 1d40 45545f4e 414e5f5f 2031005f 5f474e55  ET_NAN__ 1.__GNU
 1d50 435f5041 5443484c 4556454c 5f5f2030  C_PATCHLEVEL__ 0
 1d60 005f5f47 43435f41 544f4d49 435f4348  .__GCC_ATOMIC_CH
 1d70 41523332 5f545f4c 4f434b5f 46524545  AR32_T_LOCK_FREE
 1d80 20310069 73756e6f 72646572 6564285f   1.isunordered(_
 1d90 5f782c5f 5f792920 285f5f62 75696c74  _x,__y) (__built
 1da0 696e5f69 73756e6f 72646572 65642028  in_isunordered (
 1db0 5f5f782c 205f5f79 2929005f 5f616c6c  __x, __y)).__all
 1dc0 6f635f61 6c69676e 28782920 5f5f6174  oc_align(x) __at
 1dd0 74726962 7574655f 5f28285f 5f616c6c  tribute__((__all
 1de0 6f635f61 6c69676e 5f5f2878 29292900  oc_align__(x))).
 1df0 5f574944 455f4f52 49454e54 2031005f  _WIDE_ORIENT 1._
 1e00 5f55494e 545f4c45 41535431 365f4d41  _UINT_LEAST16_MA
 1e10 585f5f20 30786666 6666005f 7374646f  X__ 0xffff._stdo
 1e20 7574005f 5f73796d 5f646566 61756c74  ut.__sym_default
 1e30 2873796d 2c696d70 6c2c7665 72696429  (sym,impl,verid)
 1e40 205f5f61 736d5f5f 28222e73 796d7665   __asm__(".symve
 1e50 72202220 23696d70 6c20222c 20222023  r " #impl ", " #
 1e60 73796d20 22404022 20237665 72696429  sym "@@" #verid)
 1e70 005f5f53 5444435f 56455253 494f4e5f  .__STDC_VERSION_
 1e80 5f203230 31373130 4c005f4d 425f4c45  _ 201710L._MB_LE
 1e90 4e5f4d41 58203100 5f5f7072 65646963  N_MAX 1.__predic
 1ea0 745f7472 75652865 78702920 5f5f6275  t_true(exp) __bu
 1eb0 696c7469 6e5f6578 70656374 28286578  iltin_expect((ex
 1ec0 70292c20 3129005f 5f464c54 3332585f  p), 1).__FLT32X_
 1ed0 44454e4f 524d5f4d 494e5f5f 20342e39  DENORM_MIN__ 4.9
 1ee0 34303635 36343538 34313234 36353434  4065645841246544
 1ef0 31373635 36383739 32383638 32323133  1765687928682213
 1f00 3732652d 33323446 33327800 6c6f6732  72e-324F32x.log2
 1f10 28782920 286c6f67 20287829 202f205f  (x) (log (x) / _
 1f20 4d5f4c4e 3229005f 5f464c54 36345f4d  M_LN2).__FLT64_M
 1f30 41585f31 305f4558 505f5f20 33303800  AX_10_EXP__ 308.
 1f40 4d535441 5455535f 46532030 78303030  MSTATUS_FS 0x000
 1f50 30363030 30005359 5354454d 5f524953  06000.SYSTEM_RIS
 1f60 43565f49 53415f45 58545f5a 49435352  CV_ISA_EXT_ZICSR
 1f70 2031005f 5f617474 72696275 74655f66   1.__attribute_f
 1f80 6f726d61 745f7374 72666d6f 6e5f5f28  ormat_strfmon__(
 1f90 612c6229 20005f42 53445f53 495a455f  a,b) ._BSD_SIZE_
 1fa0 545f4445 46494e45 445f2000 5f5f5549  T_DEFINED_ .__UI
 1fb0 4e545f46 41535433 325f5459 50455f5f  NT_FAST32_TYPE__
 1fc0 20756e73 69676e65 6420696e 7400494f   unsigned int.IO
 1fd0 5f415042 5f534c41 56455f30 5f494e50  _APB_SLAVE_0_INP
 1fe0 55542030 78663831 30303030 30005f5f  UT 0xf8100000.__
 1ff0 53544443 5f555446 5f33325f 5f203100  STDC_UTF_32__ 1.
 2000 5f5f464c 5436345f 4841535f 51554945  __FLT64_HAS_QUIE
 2010 545f4e41 4e5f5f20 31005f5f 464c5433  T_NAN__ 1.__FLT3
 2020 325f4550 53494c4f 4e5f5f20 312e3139  2_EPSILON__ 1.19
 2030 32303932 38393535 30373831 32353030  2092895507812500
 2040 30303030 30303030 30303030 30303030  0000000000000000
 2050 30652d37 46333200 5f5f474e 55434c49  0e-7F32.__GNUCLI
 2060 4b455f4d 4154485f 4255494c 54494e5f  KE_MATH_BUILTIN_
 2070 52454c4f 50532000 5f5f464c 545f4d41  RELOPS .__FLT_MA
 2080 585f3130 5f455850 5f5f2033 38005f5f  X_10_EXP__ 38.__
 2090 504d5428 61726773 29206172 6773005f  PMT(args) args._
 20a0 5f444543 3132385f 4d41585f 5f20392e  _DEC128_MAX__ 9.
 20b0 39393939 39393939 39393939 39393939  9999999999999999
 20c0 39393939 39393939 39393939 39393939  9999999999999999
 20d0 39453631 3434444c 005f5f44 45433132  9E6144DL.__DEC12
 20e0 385f4d41 585f4558 505f5f20 36313435  8_MAX_EXP__ 6145
 20f0 005f5359 535f4344 4546535f 485f2000  ._SYS_CDEFS_H_ .
 2100 5f5f666f 726d6174 5f617267 28666d74  __format_arg(fmt
 2110 61726729 205f5f61 74747269 62757465  arg) __attribute
 2120 5f5f2828 5f5f666f 726d6174 5f617267  __((__format_arg
 2130 5f5f2028 666d7461 72672929 29005f5f  __ (fmtarg))).__
 2140 494e545f 46415354 33325f4d 41585f5f  INT_FAST32_MAX__
 2150 20307837 66666666 66666600 5f5f4154   0x7fffffff.__AT
 2160 4f4d4943 5f534551 5f435354 20350073  OMIC_SEQ_CST 5.s
 2170 72632f6d 61696e2e 63004253 505f504c  rc/main.c.BSP_PL
 2180 49432053 59535445 4d5f504c 49435f43  IC SYSTEM_PLIC_C
 2190 54524c00 53535441 5455535f 55584c20  TRL.SSTATUS_UXL 
 21a0 30783030 30303030 30333030 30303030  0x00000003000000
 21b0 3030005f 756e7370 65636966 6965645f  00._unspecified_
 21c0 6c6f6361 6c655f69 6e666f00 5f5f6e65  locale_info.__ne
 21d0 65645f77 696e745f 7400434c 494e545f  ed_wint_t.CLINT_
 21e0 54494d45 5f414444 52203078 42464638  TIME_ADDR 0xBFF8
 21f0 00535953 54454d5f 504c4943 5f535953  .SYSTEM_PLIC_SYS
 2200 54454d5f 5350495f 305f494f 5f494e54  TEM_SPI_0_IO_INT
 2210 45525255 50542034 00494e54 5f464153  ERRUPT 4.INT_FAS
 2220 54385f4d 41582028 5f5f494e 545f4641  T8_MAX (__INT_FA
 2230 5354385f 4d41585f 5f290047 50494f5f  ST8_MAX__).GPIO_
 2240 494e5055 54203078 3030005f 7265656e  INPUT 0x00._reen
 2250 74005549 4e544d41 585f4d41 5820285f  t.UINTMAX_MAX (_
 2260 5f55494e 544d4158 5f4d4158 5f5f2900  _UINTMAX_MAX__).
 2270 4d535441 5455535f 4d585220 30783030  MSTATUS_MXR 0x00
 2280 30383030 3030005f 5f627569 6c74696e  080000.__builtin
 2290 5f76615f 6c697374 005f4841 56455f4c  _va_list._HAVE_L
 22a0 4f4e475f 444f5542 4c452031 005f5f69  ONG_DOUBLE 1.__i
 22b0 6e745f66 61737436 345f745f 64656669  nt_fast64_t_defi
 22c0 6e656420 31005f52 45454e54 5f454d45  ned 1._REENT_EME
 22d0 5247454e 43595f53 495a4520 32350043  RGENCY_SIZE 25.C
 22e0 4c494e54 5f495049 5f414444 52203078  LINT_IPI_ADDR 0x
 22f0 30303030 005f5f4c 44424c5f 4d41585f  0000.__LDBL_MAX_
 2300 4558505f 5f203136 33383400 72656164  EXP__ 16384.read
 2310 5265675f 75333228 6e616d65 2c6f6666  Reg_u32(name,off
 2320 73657429 20737461 74696320 696e6c69  set) static inli
 2330 6e652075 3332206e 616d6528 75333220  ne u32 name(u32 
 2340 72656729 7b207265 7475726e 20726561  reg){ return rea
 2350 645f7533 32287265 67202b20 6f666673  d_u32(reg + offs
 2360 6574293b 207d005f 5f53495a 454f465f  et); }.__SIZEOF_
 2370 53484f52 545f5f20 32005f53 495a455f  SHORT__ 2._SIZE_
 2380 545f4445 46494e45 44200043 41555345  T_DEFINED .CAUSE
 2390 5f534341 4c4c2039 005f756e 75736564  _SCALL 9._unused
 23a0 005f5f67 6e75635f 76615f6c 69737400  .__gnuc_va_list.
 23b0 5f5f464c 545f4d41 585f5f20 332e3430  __FLT_MAX__ 3.40
 23c0 32383233 34363633 38353238 38353938  2823466385288598
 23d0 31313730 34313833 34383435 31363932  1170418348451692
 23e0 35652b33 3846005f 5359535f 46454154  5e+38F._SYS_FEAT
 23f0 55524553 5f482000 5f696e63 005f4d41  URES_H ._inc._MA
 2400 43485354 444c4942 5f485f20 005f5f44  CHSTDLIB_H_ .__D
 2410 424c5f44 4543494d 414c5f44 49475f5f  BL_DECIMAL_DIG__
 2420 20313700 5f5f474e 55434c49 4b455f42   17.__GNUCLIKE_B
 2430 55494c54 494e5f4e 4558545f 41524720  UILTIN_NEXT_ARG 
 2440 31005f5f 464c5431 32385f4d 494e5f5f  1.__FLT128_MIN__
 2450 20332e33 36323130 33313433 31313230   3.3621031431120
 2460 39333530 36323632 36373738 31373332  9350626267781732
 2470 31373532 3630652d 34393332 46313238  175260e-4932F128
 2480 0069736c 65737365 7175616c 285f5f78  .islessequal(__x
 2490 2c5f5f79 2920285f 5f627569 6c74696e  ,__y) (__builtin
 24a0 5f69736c 65737365 7175616c 20285f5f  _islessequal (__
 24b0 782c205f 5f792929 005f5f50 5241474d  x, __y)).__PRAGM
 24c0 415f5245 44454649 4e455f45 58544e41  A_REDEFINE_EXTNA
 24d0 4d452031 005f5354 44444546 5f485f20  ME 1._STDDEF_H_ 
 24e0 005f4945 45455f20 5f5f6664 6c69626d  ._IEEE_ __fdlibm
 24f0 5f696565 65005359 5354454d 5f554152  _ieee.SYSTEM_UAR
 2500 545f305f 494f5f50 4152414d 45544552  T_0_IO_PARAMETER
 2510 5f554152 545f4354 524c5f43 4f4e4649  _UART_CTRL_CONFI
 2520 475f5052 455f5341 4d504c49 4e475f53  G_PRE_SAMPLING_S
 2530 495a4520 3100494e 544d4158 5f432878  IZE 1.INTMAX_C(x
 2540 29205f5f 494e544d 41585f43 28782900  ) __INTMAX_C(x).
 2550 50545244 4946465f 4d494e20 282d5054  PTRDIFF_MIN (-PT
 2560 52444946 465f4d41 58202d20 31290076  RDIFF_MAX - 1).v
 2570 615f7374 61727428 762c6c29 205f5f62  a_start(v,l) __b
 2580 75696c74 696e5f76 615f7374 61727428  uiltin_va_start(
 2590 762c6c29 004d5f4c 4e313020 322e3330  v,l).M_LN10 2.30
 25a0 32353835 30393239 39343034 35363834  2585092994045684
 25b0 3032005f 666e7300 5f5f5743 4841525f  02._fns.__WCHAR_
 25c0 4d41585f 5f203078 37666666 66666666  MAX__ 0x7fffffff
 25d0 005f5f55 494e545f 46415354 36345f54  .__UINT_FAST64_T
 25e0 5950455f 5f206c6f 6e67206c 6f6e6720  YPE__ long long 
 25f0 756e7369 676e6564 20696e74 005f5245  unsigned int._RE
 2600 454e545f 4d425254 4f57435f 53544154  ENT_MBRTOWC_STAT
 2610 45287074 72292028 28707472 292d3e5f  E(ptr) ((ptr)->_
 2620 6e65772e 5f726565 6e742e5f 6d627274  new._reent._mbrt
 2630 6f77635f 73746174 6529005f 57494e54  owc_state)._WINT
 2640 5f542000 5f6d6272 746f7763 5f737461  _T ._mbrtowc_sta
 2650 7465005f 5f6c6f63 6b5f636c 6f736528  te.__lock_close(
 2660 6c6f636b 29202828 766f6964 29203029  lock) ((void) 0)
 2670 005f636c 6f736500 4d454445 4c45475f  ._close.MEDELEG_
 2680 55534552 5f454e56 49524f4e 4e454d45  USER_ENVIRONNEME
 2690 4e545f43 414c4c20 2831203c 3c203829  NT_CALL (1 << 8)
 26a0 00736967 6e67616d 20282a5f 5f736967  .signgam (*__sig
 26b0 6e67616d 28292900 46505f5a 45524f20  ngam()).FP_ZERO 
 26c0 32005f5f 42494747 4553545f 414c4947  2.__BIGGEST_ALIG
 26d0 4e4d454e 545f5f20 31360053 49475f41  NMENT__ 16.SIG_A
 26e0 544f4d49 435f4d41 5820285f 5f535444  TOMIC_MAX (__STD
 26f0 494e545f 45585028 494e545f 4d415829  INT_EXP(INT_MAX)
 2700 29005f5f 6e6f696e 6c696e65 205f5f61  ).__noinline __a
 2710 74747269 62757465 5f5f2028 285f5f6e  ttribute__ ((__n
 2720 6f696e6c 696e655f 5f292900 636c696e  oinline__)).clin
 2730 745f6765 7454696d 654c6f77 006d6163  t_getTimeLow.mac
 2740 68696e65 54696d65 725f7365 74436d70  hineTimer_setCmp
 2750 28702c63 6d702920 636c696e 745f7365  (p,cmp) clint_se
 2760 74436d70 28702c20 636d702c 2030293b  tCmp(p, cmp, 0);
 2770 005f5f44 45433332 5f4d494e 5f455850  .__DEC32_MIN_EXP
 2780 5f5f2028 2d393429 00475049 4f5f4f55  __ (-94).GPIO_OU
 2790 54505554 20307830 34005359 5354454d  TPUT 0x04.SYSTEM
 27a0 5f493243 5f315f49 4f5f4354 524c5f53  _I2C_1_IO_CTRL_S
 27b0 495a4520 30783130 30005f5f 7765616b  IZE 0x100.__weak
 27c0 5f73796d 626f6c20 5f5f6174 74726962  _symbol __attrib
 27d0 7574655f 5f28285f 5f776561 6b5f5f29  ute__((__weak__)
 27e0 29005359 5354454d 5f535049 5f305f49  ).SYSTEM_SPI_0_I
 27f0 4f5f4354 524c5f53 495a4520 30783130  O_CTRL_SIZE 0x10
 2800 30300053 59535445 4d5f4750 494f5f30  00.SYSTEM_GPIO_0
 2810 5f494f5f 4354524c 20307866 38303136  _IO_CTRL 0xf8016
 2820 30303000 5f5f7573 6564205f 5f617474  000.__used __att
 2830 72696275 74655f5f 28285f5f 75736564  ribute__((__used
 2840 5f5f2929 005f5f67 656e6572 69632865  __)).__generic(e
 2850 7870722c 742c7965 732c6e6f 29205f47  xpr,t,yes,no) _G
 2860 656e6572 69632865 7870722c 20743a20  eneric(expr, t: 
 2870 7965732c 20646566 61756c74 3a206e6f  yes, default: no
 2880 29005f52 45454e54 5f454d45 5247454e  )._REENT_EMERGEN
 2890 43592870 74722920 28287074 72292d3e  CY(ptr) ((ptr)->
 28a0 5f656d65 7267656e 63792900 53595354  _emergency).SYST
 28b0 454d5f55 4152545f 305f494f 5f504152  EM_UART_0_IO_PAR
 28c0 414d4554 45525f49 4e49545f 434f4e46  AMETER_INIT_CONF
 28d0 49475f53 544f5020 4f4e4500 5f5f5549  IG_STOP ONE.__UI
 28e0 4e54385f 4d41585f 5f203078 6666005f  NT8_MAX__ 0xff._
 28f0 5f5f696e 7431365f 745f6465 66696e65  __int16_t_define
 2900 64203100 5f5f464c 545f4550 53494c4f  d 1.__FLT_EPSILO
 2910 4e5f5f20 312e3139 32303932 38393535  N__ 1.1920928955
 2920 30373831 32353030 30303030 30303030  0781250000000000
 2930 30303030 30303030 30652d37 46004249  000000000e-7F.BI
 2940 545f3231 20283120 3c3c2032 31290062  T_21 (1 << 21).b
 2950 73705f75 44656c61 79287573 65632920  sp_uDelay(usec) 
 2960 636c696e 745f7544 656c6179 28757365  clint_uDelay(use
 2970 632c2053 59535445 4d5f434c 494e545f  c, SYSTEM_CLINT_
 2980 485a2c20 53595354 454d5f43 4c494e54  HZ, SYSTEM_CLINT
 2990 5f435452 4c293b00 5f737464 696e005f  _CTRL);._stdin._
 29a0 5f444543 494d414c 5f444947 5f5f2033  _DECIMAL_DIG__ 3
 29b0 36006770 696f5f67 65744f75 74707574  6.gpio_getOutput
 29c0 005f5f44 424c5f48 41535f44 454e4f52  .__DBL_HAS_DENOR
 29d0 4d5f5f20 31006d61 6368696e 6554696d  M__ 1.machineTim
 29e0 65725f75 44656c61 79287573 65632c68  er_uDelay(usec,h
 29f0 7a2c7265 67292063 6c696e74 5f754465  z,reg) clint_uDe
 2a00 6c617928 75736563 2c20687a 2c207265  lay(usec, hz, re
 2a10 67293b00 5f5f4343 5f535550 504f5254  g);.__CC_SUPPORT
 2a20 535f5f5f 494e4c49 4e452031 00657874  S___INLINE 1.ext
 2a30 65726e61 6c496e74 65727275 70740049  ernalInterrupt.I
 2a40 4e544d41 585f4d41 5820285f 5f494e54  NTMAX_MAX (__INT
 2a50 4d41585f 4d41585f 5f290049 4e543332  MAX_MAX__).INT32
 2a60 5f4d4158 20285f5f 494e5433 325f4d41  _MAX (__INT32_MA
 2a70 585f5f29 00677069 6f5f7365 744f7574  X__).gpio_setOut
 2a80 70757445 6e61626c 65005359 5354454d  putEnable.SYSTEM
 2a90 5f524953 43565f49 53415f45 58545f46  _RISCV_ISA_EXT_F
 2aa0 2030005f 545f5054 52444946 465f2000   0._T_PTRDIFF_ .
 2ab0 5f5f6174 74726962 7574655f 6d616c6c  __attribute_mall
 2ac0 6f635f5f 20005f5f 494e545f 4c454153  oc__ .__INT_LEAS
 2ad0 5431365f 4d41585f 5f203078 37666666  T16_MAX__ 0x7fff
 2ae0 005f5f46 4c543132 385f4d41 585f4558  .__FLT128_MAX_EX
 2af0 505f5f20 31363338 34005f5f 4c454153  P__ 16384.__LEAS
 2b00 54382022 68682200 5f5f6e65 65645f73  T8 "hh".__need_s
 2b10 697a655f 74200053 4f435f48 20005f5f  ize_t .SOC_H .__
 2b20 72657475 726e735f 74776963 65205f5f  returns_twice __
 2b30 61747472 69627574 655f5f28 285f5f72  attribute__((__r
 2b40 65747572 6e735f74 77696365 5f5f2929  eturns_twice__))
 2b50 00535953 54454d5f 55415254 5f305f49  .SYSTEM_UART_0_I
 2b60 4f5f5041 52414d45 5445525f 55415254  O_PARAMETER_UART
 2b70 5f435452 4c5f434f 4e464947 5f53414d  _CTRL_CONFIG_SAM
 2b80 504c494e 475f5349 5a452035 005f454e  PLING_SIZE 5._EN
 2b90 445f5354 445f4320 0069736e 616e285f  D_STD_C .isnan(_
 2ba0 5f782920 285f5f62 75696c74 696e5f69  _x) (__builtin_i
 2bb0 736e616e 20285f5f 78292900 504d505f  snan (__x)).PMP_
 2bc0 57203078 3032005f 5f686173 5f696e63  W 0x02.__has_inc
 2bd0 6c756465 5f6e6578 74285354 5229205f  lude_next(STR) _
 2be0 5f686173 5f696e63 6c756465 5f6e6578  _has_include_nex
 2bf0 745f5f28 53545229 00455849 545f4641  t__(STR).EXIT_FA
 2c00 494c5552 45203100 55494e54 5f4c4541  ILURE 1.UINT_LEA
 2c10 53543136 5f4d4158 20285f5f 55494e54  ST16_MAX (__UINT
 2c20 5f4c4541 53543136 5f4d4158 5f5f2900  _LEAST16_MAX__).
 2c30 5f5f5549 4e543332 5f432863 29206320  __UINT32_C(c) c 
 2c40 23232055 4c005f5f 73747266 74696d65  ## UL.__strftime
 2c50 6c696b65 28666d74 6172672c 66697273  like(fmtarg,firs
 2c60 74766172 61726729 205f5f61 74747269  tvararg) __attri
 2c70 62757465 5f5f2828 5f5f666f 726d6174  bute__((__format
 2c80 5f5f2028 5f5f7374 72667469 6d655f5f  __ (__strftime__
 2c90 2c20666d 74617267 2c206669 72737476  , fmtarg, firstv
 2ca0 61726172 67292929 005f4e75 6c6c5f75  ararg)))._Null_u
 2cb0 6e737065 63696669 65642000 4249545f  nspecified .BIT_
 2cc0 32332028 31203c3c 20323329 005f5f47  23 (1 << 23).__G
 2cd0 43435f41 544f4d49 435f5348 4f52545f  CC_ATOMIC_SHORT_
 2ce0 4c4f434b 5f465245 45203100 5f574348  LOCK_FREE 1._WCH
 2cf0 41525f54 5f444546 494e4544 5f200042  AR_T_DEFINED_ .B
 2d00 53505f4d 41434849 4e455f54 494d4552  SP_MACHINE_TIMER
 2d10 20535953 54454d5f 434c494e 545f4354   SYSTEM_CLINT_CT
 2d20 524c0046 505f494c 4f47424e 414e205f  RL.FP_ILOGBNAN _
 2d30 5f494e54 5f4d4158 5f5f0048 5547455f  _INT_MAX__.HUGE_
 2d40 56414c4c 20285f5f 6275696c 74696e5f  VALL (__builtin_
 2d50 68756765 5f76616c 6c282929 004d5f4c  huge_vall()).M_L
 2d60 4f473245 20312e34 34323639 35303430  OG2E 1.442695040
 2d70 38383839 36333430 37340042 49545f33  8889634074.BIT_3
 2d80 20283120 3c3c2033 29004249 545f3130   (1 << 3).BIT_10
 2d90 20283120 3c3c2031 30290049 4e545f4c   (1 << 10).INT_L
 2da0 45415354 33325f4d 41582028 5f5f494e  EAST32_MAX (__IN
 2db0 545f4c45 41535433 325f4d41 585f5f29  T_LEAST32_MAX__)
 2dc0 005f6c6f 63616c65 00494e54 5f4c4541  ._locale.INT_LEA
 2dd0 53543332 5f4d494e 20282d5f 5f494e54  ST32_MIN (-__INT
 2de0 5f4c4541 53543332 5f4d4158 5f5f202d  _LEAST32_MAX__ -
 2df0 20312900 55415254 5f465241 4d455f43   1).UART_FRAME_C
 2e00 4f4e4649 47203078 30430042 49545f32  ONFIG 0x0C.BIT_2
 2e10 34202831 203c3c20 32342900 6373725f  4 (1 << 24).csr_
 2e20 636c6561 72286373 722c7661 6c292028  clear(csr,val) (
 2e30 7b20756e 7369676e 6564206c 6f6e6720  { unsigned long 
 2e40 5f5f7620 3d202875 6e736967 6e656420  __v = (unsigned 
 2e50 6c6f6e67 29287661 6c293b20 5f5f6173  long)(val); __as
 2e60 6d5f5f20 5f5f766f 6c617469 6c655f5f  m__ __volatile__
 2e70 20282263 73726320 22202363 73722022   ("csrc " #csr "
 2e80 2c202530 22203a20 3a202272 4b222028  , %0" : : "rK" (
 2e90 5f5f7629 293b207d 29006373 725f7265  __v)); }).csr_re
 2ea0 61645f73 65742863 73722c76 616c2920  ad_set(csr,val) 
 2eb0 287b2075 6e736967 6e656420 6c6f6e67  ({ unsigned long
 2ec0 205f5f76 203d2028 756e7369 676e6564   __v = (unsigned
 2ed0 206c6f6e 67292876 616c293b 205f5f61   long)(val); __a
 2ee0 736d5f5f 205f5f76 6f6c6174 696c655f  sm__ __volatile_
 2ef0 5f202822 63737272 73202530 2c202220  _ ("csrrs %0, " 
 2f00 23637372 20222c20 25312220 3a20223d  #csr ", %1" : "=
 2f10 72222028 5f5f7629 203a2022 724b2220  r" (__v) : "rK" 
 2f20 285f5f76 29293b20 5f5f763b 207d2900  (__v)); __v; }).
 2f30 5f5f4743 435f4154 4f4d4943 5f544553  __GCC_ATOMIC_TES
 2f40 545f414e 445f5345 545f5452 55455641  T_AND_SET_TRUEVA
 2f50 4c203100 636c696e 745f7544 656c6179  L 1.clint_uDelay
 2f60 00454e41 424c455f 46505f45 58504f4e  .ENABLE_FP_EXPON
 2f70 454e5449 414c5f53 5550504f 52542030  ENTIAL_SUPPORT 0
 2f80 005f5f4d 4953435f 56495349 424c4520  .__MISC_VISIBLE 
 2f90 31005f56 415f4c49 53545f44 4546494e  1._VA_LIST_DEFIN
 2fa0 45442000 5f5f5743 4841525f 4d494e5f  ED .__WCHAR_MIN_
 2fb0 5f20282d 5f5f5743 4841525f 4d41585f  _ (-__WCHAR_MAX_
 2fc0 5f202d20 3129005f 5f464c54 33325f48  _ - 1).__FLT32_H
 2fd0 41535f51 55494554 5f4e414e 5f5f2031  AS_QUIET_NAN__ 1
 2fe0 005f5f4f 42534f4c 4554455f 4d415448  .__OBSOLETE_MATH
 2ff0 205f5f4f 42534f4c 4554455f 4d415448   __OBSOLETE_MATH
 3000 5f444546 41554c54 004d5f4c 4e324c4f  _DEFAULT.M_LN2LO
 3010 20312e39 30383231 34393239 32373035   1.9082149292705
 3020 38373730 3030452d 3130005f 5f616c6c  877000E-10.__all
 3030 6f635f73 697a6532 286e2c78 29205f5f  oc_size2(n,x) __
 3040 61747472 69627574 655f5f28 285f5f61  attribute__((__a
 3050 6c6c6f63 5f73697a 655f5f28 6e2c2078  lloc_size__(n, x
 3060 29292900 5f5f4c44 424c5f48 41535f49  ))).__LDBL_HAS_I
 3070 4e46494e 4954595f 5f203100 6c696d69  NFINITY__ 1.limi
 3080 74005f5f 44454333 325f4d41 585f5f20  t.__DEC32_MAX__ 
 3090 392e3939 39393939 45393644 46005f5f  9.999999E96DF.__
 30a0 464c5433 32585f4d 41585f31 305f4558  FLT32X_MAX_10_EX
 30b0 505f5f20 33303800 504d505f 544f5220  P__ 308.PMP_TOR 
 30c0 30783038 00535953 54454d5f 55415254  0x08.SYSTEM_UART
 30d0 5f305f49 4f5f5041 52414d45 5445525f  _0_IO_PARAMETER_
 30e0 4255535f 43414e5f 57524954 455f4652  BUS_CAN_WRITE_FR
 30f0 414d455f 434f4e46 49472031 005f5f64  AME_CONFIG 1.__d
 3100 65616432 205f5f61 74747269 62757465  ead2 __attribute
 3110 5f5f2828 5f5f6e6f 72657475 726e5f5f  __((__noreturn__
 3120 2929005f 5f6f6666 7365746f 66287479  )).__offsetof(ty
 3130 70652c66 69656c64 29206f66 66736574  pe,field) offset
 3140 6f662874 7970652c 20666965 6c642900  of(type, field).
 3150 5553455f 47502031 005f5f53 49475f41  USE_GP 1.__SIG_A
 3160 544f4d49 435f4d49 4e5f5f20 282d5f5f  TOMIC_MIN__ (-__
 3170 5349475f 41544f4d 49435f4d 41585f5f  SIG_ATOMIC_MAX__
 3180 202d2031 29005359 5354454d 5f425249   - 1).SYSTEM_BRI
 3190 4447455f 424d4220 30783000 53595354  DGE_BMB 0x0.SYST
 31a0 454d5f50 4c49435f 53595354 454d5f55  EM_PLIC_SYSTEM_U
 31b0 4152545f 305f494f 5f494e54 45525255  ART_0_IO_INTERRU
 31c0 50542031 005f5f55 494e545f 4c454153  PT 1.__UINT_LEAS
 31d0 54385f4d 41585f5f 20307866 66005f5f  T8_MAX__ 0xff.__
 31e0 4743435f 41544f4d 49435f4c 4f4e475f  GCC_ATOMIC_LONG_
 31f0 4c4f434b 5f465245 45203100 5f5f4445  LOCK_FREE 1.__DE
 3200 4336345f 4d494e5f 4558505f 5f20282d  C64_MIN_EXP__ (-
 3210 33383229 004d5354 41545553 5f53554d  382).MSTATUS_SUM
 3220 20307830 30303430 30303000 62756666   0x00040000.buff
 3230 6572005f 5f464c54 3634585f 4841535f  er.__FLT64X_HAS_
 3240 494e4649 4e495459 5f5f2031 00534947  INFINITY__ 1.SIG
 3250 5f41544f 4d49435f 4d494e20 282d5f5f  _ATOMIC_MIN (-__
 3260 53544449 4e545f45 58502849 4e545f4d  STDINT_EXP(INT_M
 3270 41582920 2d203129 005f636f 6f6b6965  AX) - 1)._cookie
 3280 005f5f44 424c5f4d 41585f5f 20282864  .__DBL_MAX__ ((d
 3290 6f75626c 6529312e 37393736 39333133  ouble)1.79769313
 32a0 34383632 33313537 30383134 35323734  4862315708145274
 32b0 32333733 31373034 33353765 2b333038  23731704357e+308
 32c0 4c29005f 494e5431 365f545f 4445434c  L)._INT16_T_DECL
 32d0 41524544 2000696e 73747275 6374696f  ARED .instructio
 32e0 6e5f6361 6368655f 696e7661 6c696461  n_cache_invalida
 32f0 74652829 2061736d 28226665 6e63652e  te() asm("fence.
 3300 6922293b 00424954 5f313420 2831203c  i");.BIT_14 (1 <
 3310 3c203134 29005f57 414e545f 494f5f4c  < 14)._WANT_IO_L
 3320 4f4e475f 444f5542 4c452031 005f7764  ONG_DOUBLE 1._wd
 3330 73004e41 4e20285f 5f627569 6c74696e  s.NAN (__builtin
 3340 5f6e616e 66282222 2929005f 5f494e54  _nanf("")).__INT
 3350 5f4c4541 53543136 5f574944 54485f5f  _LEAST16_WIDTH__
 3360 20313600 4d454445 4c45475f 53544f52   16.MEDELEG_STOR
 3370 455f5041 47455f46 41554c54 20283120  E_PAGE_FAULT (1 
 3380 3c3c2031 35290053 59535445 4d5f5541  << 15).SYSTEM_UA
 3390 52545f30 5f494f5f 50415241 4d455445  RT_0_IO_PARAMETE
 33a0 525f4255 535f4341 4e5f5752 4954455f  R_BUS_CAN_WRITE_
 33b0 434c4f43 4b5f4449 56494445 525f434f  CLOCK_DIVIDER_CO
 33c0 4e464947 2031005f 41544558 49545f49  NFIG 1._ATEXIT_I
 33d0 4e495420 7b5f4e55 4c4c2c20 302c207b  NIT {_NULL, 0, {
 33e0 5f4e554c 4c7d2c20 7b7b5f4e 554c4c7d  _NULL}, {{_NULL}
 33f0 2c207b5f 4e554c4c 7d2c2030 2c20307d  , {_NULL}, 0, 0}
 3400 7d005f73 69675f66 756e6300 5f5f4445  }._sig_func.__DE
 3410 4336345f 5355424e 4f524d41 4c5f4d49  C64_SUBNORMAL_MI
 3420 4e5f5f20 302e3030 30303030 30303030  N__ 0.0000000000
 3430 30303030 31452d33 38334444 00535953  00001E-383DD.SYS
 3440 54454d5f 434f5245 535f305f 53555045  TEM_CORES_0_SUPE
 3450 52564953 4f522030 00667063 6c617373  RVISOR 0.fpclass
 3460 69667928 5f5f7829 20285f5f 6275696c  ify(__x) (__buil
 3470 74696e5f 6670636c 61737369 66792028  tin_fpclassify (
 3480 46505f4e 414e2c20 46505f49 4e46494e  FP_NAN, FP_INFIN
 3490 4954452c 2046505f 4e4f524d 414c2c20  ITE, FP_NORMAL, 
 34a0 46505f53 55424e4f 524d414c 2c204650  FP_SUBNORMAL, FP
 34b0 5f5a4552 4f2c205f 5f782929 005f5f5f  _ZERO, __x)).___
 34c0 696e745f 6c656173 7433325f 745f6465  int_least32_t_de
 34d0 66696e65 64203100 53535441 5455535f  fined 1.SSTATUS_
 34e0 53494520 30783030 30303030 3032005f  SIE 0x00000002._
 34f0 6f666673 65740042 49545f31 37202831  offset.BIT_17 (1
 3500 203c3c20 31372900 4d535441 5455535f   << 17).MSTATUS_
 3510 53504945 20307830 30303030 30323000  SPIE 0x00000020.
 3520 5f637674 62756600 5f5f5553 45525f4c  _cvtbuf.__USER_L
 3530 4142454c 5f505245 4649585f 5f20005f  ABEL_PREFIX__ ._
 3540 5f55494e 5436345f 4d41585f 5f203078  _UINT64_MAX__ 0x
 3550 66666666 66666666 66666666 66666666  ffffffffffffffff
 3560 554c4c00 5f696f62 73005549 4e543332  ULL._iobs.UINT32
 3570 5f432878 29205f5f 55494e54 33325f43  _C(x) __UINT32_C
 3580 28782900 5f415446 494c455f 534f5552  (x)._ATFILE_SOUR
 3590 43450049 4e545f46 41535431 365f4d49  CE.INT_FAST16_MI
 35a0 4e20282d 5f5f494e 545f4641 53543136  N (-__INT_FAST16
 35b0 5f4d4158 5f5f202d 20312900 5f524545  _MAX__ - 1)._REE
 35c0 4e545f4d 424c454e 5f535441 54452870  NT_MBLEN_STATE(p
 35d0 74722920 28287074 72292d3e 5f6e6577  tr) ((ptr)->_new
 35e0 2e5f7265 656e742e 5f6d626c 656e5f73  ._reent._mblen_s
 35f0 74617465 29005f5f 7472796c 6f636b73  tate).__trylocks
 3600 5f736861 72656428 2e2e2e29 205f5f6c  _shared(...) __l
 3610 6f636b5f 616e6e6f 74617465 28736861  ock_annotate(sha
 3620 7265645f 7472796c 6f636b5f 66756e63  red_trylock_func
 3630 74696f6e 285f5f56 415f4152 47535f5f  tion(__VA_ARGS__
 3640 2929005f 5f494e54 5f4c4541 5354385f  )).__INT_LEAST8_
 3650 4d41585f 5f203078 3766005f 5f4e4557  MAX__ 0x7f.__NEW
 3660 4c49425f 485f5f20 3100494e 5433325f  LIB_H__ 1.INT32_
 3670 4d494e20 282d5f5f 494e5433 325f4d41  MIN (-__INT32_MA
 3680 585f5f20 2d203129 00697366 696e6974  X__ - 1).isfinit
 3690 65285f5f 78292028 5f5f6275 696c7469  e(__x) (__builti
 36a0 6e5f6973 66696e69 74652028 5f5f7829  n_isfinite (__x)
 36b0 29004249 545f3138 20283120 3c3c2031  ).BIT_18 (1 << 1
 36c0 38290075 6e736967 6e656420 7369676e  8).unsigned sign
 36d0 6564004d 5f494e56 4c4e3220 312e3434  ed.M_INVLN2 1.44
 36e0 32363935 30343038 38383936 33333837  2695040888963387
 36f0 30453000 53535441 5455535f 53505020  0E0.SSTATUS_SPP 
 3700 30783030 30303031 3030005f 494e5450  0x00000100._INTP
 3710 54525f45 515f494e 5420005f 5f464c54  TR_EQ_INT .__FLT
 3720 3332585f 4d41585f 4558505f 5f203130  32X_MAX_EXP__ 10
 3730 3234005f 5f686173 5f696e63 6c756465  24.__has_include
 3740 28535452 29205f5f 6861735f 696e636c  (STR) __has_incl
 3750 7564655f 5f285354 52290063 6f6e6669  ude__(STR).confi
 3760 674d5449 4d45434d 505f4241 53455f41  gMTIMECMP_BASE_A
 3770 44445245 53532028 4253505f 434c494e  DDRESS (BSP_CLIN
 3780 54202b20 30783430 30302900 5f5f5549  T + 0x4000).__UI
 3790 4e545f4c 45415354 33325f4d 41585f5f  NT_LEAST32_MAX__
 37a0 20307866 66666666 66666655 4c00454e   0xffffffffUL.EN
 37b0 41424c45 5f464c4f 4154494e 475f504f  ABLE_FLOATING_PO
 37c0 494e545f 53555050 4f525420 53595354  INT_SUPPORT SYST
 37d0 454d5f43 4f524553 5f305f46 50550053  EM_CORES_0_FPU.S
 37e0 59535445 4d5f5241 4d5f415f 4354524c  YSTEM_RAM_A_CTRL
 37f0 20307866 39303030 30303000 5f5f7365   0xf9000000.__se
 3800 6374696f 6e287829 205f5f61 74747269  ction(x) __attri
 3810 62757465 5f5f2828 5f5f7365 6374696f  bute__((__sectio
 3820 6e5f5f28 78292929 004d5354 41545553  n__(x))).MSTATUS
 3830 5f53584c 20307830 30303030 30304330  _SXL 0x0000000C0
 3840 30303030 30303000 5f5f494e 545f4c45  0000000.__INT_LE
 3850 41535436 345f5749 4454485f 5f203634  AST64_WIDTH__ 64
 3860 005f5f46 4c545f48 41535f49 4e46494e  .__FLT_HAS_INFIN
 3870 4954595f 5f203100 77726974 65526567  ITY__ 1.writeReg
 3880 5f753332 286e616d 652c6f66 66736574  _u32(name,offset
 3890 29207374 61746963 20696e6c 696e6520  ) static inline 
 38a0 766f6964 206e616d 65287533 32207265  void name(u32 re
 38b0 672c2075 33322076 616c7565 297b2077  g, u32 value){ w
 38c0 72697465 5f753332 2876616c 75652c20  rite_u32(value, 
 38d0 72656720 2b206f66 66736574 293b207d  reg + offset); }
 38e0 005f5f49 4e54385f 4d41585f 5f203078  .__INT8_MAX__ 0x
 38f0 3766005f 5f474343 5f484156 455f4457  7f.__GCC_HAVE_DW
 3900 41524632 5f434649 5f41534d 2031005f  ARF2_CFI_ASM 1._
 3910 5f5f696e 74385f74 5f646566 696e6564  __int8_t_defined
 3920 2031005f 70357300 5f5f4743 435f4945   1._p5s.__GCC_IE
 3930 435f3535 395f434f 4d504c45 58203000  C_559_COMPLEX 0.
 3940 5f535953 5f5f5459 5045535f 4820005f  _SYS__TYPES_H ._
 3950 5f474e55 435f5f20 38005f5f 55494e54  _GNUC__ 8.__UINT
 3960 31365f54 5950455f 5f207368 6f727420  16_TYPE__ short 
 3970 756e7369 676e6564 20696e74 005f504f  unsigned int._PO
 3980 5349585f 534f5552 43450052 414e445f  SIX_SOURCE.RAND_
 3990 4d415820 5f5f5241 4e445f4d 4158005f  MAX __RAND_MAX._
 39a0 5f4c4442 4c5f4445 43494d41 4c5f4449  _LDBL_DECIMAL_DI
 39b0 475f5f20 3336005f 5f464c54 3634585f  G__ 36.__FLT64X_
 39c0 4d494e5f 31305f45 58505f5f 20282d34  MIN_10_EXP__ (-4
 39d0 39333129 005f5f55 494e5433 325f4d41  931).__UINT32_MA
 39e0 585f5f20 30786666 66666666 6666554c  X__ 0xffffffffUL
 39f0 005f5f73 64696469 6e697400 5f5f4445  .__sdidinit.__DE
 3a00 4333325f 4d41585f 4558505f 5f203937  C32_MAX_EXP__ 97
 3a10 005f545f 53495a45 5f20005f 5f464c54  ._T_SIZE_ .__FLT
 3a20 5f455641 4c5f4d45 54484f44 5f54535f  _EVAL_METHOD_TS_
 3a30 31383636 315f335f 5f203000 74617267  18661_3__ 0.targ
 3a40 65740069 6e74202b 32006770 696f5f73  et.int +2.gpio_s
 3a50 6574496e 74657272 75707452 69736545  etInterruptRiseE
 3a60 6e61626c 6500494e 54385f43 28782920  nable.INT8_C(x) 
 3a70 5f5f494e 54385f43 28782900 5f5f6c6f  __INT8_C(x).__lo
 3a80 636b5f61 63717569 72655f72 65637572  ck_acquire_recur
 3a90 73697665 286c6f63 6b292028 28766f69  sive(lock) ((voi
 3aa0 64292030 29005f5f 72657374 72696374  d) 0).__restrict
 3ab0 20726573 74726963 74005f5f 55494e54   restrict.__UINT
 3ac0 5f464153 54385f54 5950455f 5f20756e  _FAST8_TYPE__ un
 3ad0 7369676e 65642069 6e74005f 5f464c54  signed int.__FLT
 3ae0 36345f44 454e4f52 4d5f4d49 4e5f5f20  64_DENORM_MIN__ 
 3af0 342e3934 30363536 34353834 31323436  4.94065645841246
 3b00 35343431 37363536 38373932 38363832  5441765687928682
 3b10 32313337 32652d33 32344636 34005359  21372e-324F64.SY
 3b20 5354454d 5f434f52 45535f30 5f4d4d55  STEM_CORES_0_MMU
 3b30 2030005f 4c49425f 56455253 494f4e20   0._LIB_VERSION 
 3b40 5f5f6664 6c69625f 76657273 696f6e00  __fdlib_version.
 3b50 5f5f7265 71756972 65735f75 6e6c6f63  __requires_unloc
 3b60 6b656428 2e2e2e29 205f5f6c 6f636b5f  ked(...) __lock_
 3b70 616e6e6f 74617465 286c6f63 6b735f65  annotate(locks_e
 3b80 78636c75 64656428 5f5f5641 5f415247  xcluded(__VA_ARG
 3b90 535f5f29 2900454e 41424c45 5f53454d  S__)).ENABLE_SEM
 3ba0 49484f53 54494e47 5f505249 4e542030  IHOSTING_PRINT 0
 3bb0 005f5f49 4e543332 5f4d4158 5f5f2030  .__INT32_MAX__ 0
 3bc0 78376666 66666666 664c005f 5f6d696e  x7fffffffL.__min
 3bd0 5f73697a 65287829 20737461 74696320  _size(x) static 
 3be0 28782900 5f54494d 45525f54 5f20756e  (x)._TIMER_T_ un
 3bf0 7369676e 6564206c 6f6e6700 5f4c4f43  signed long._LOC
 3c00 4b5f5245 43555253 4956455f 54005f5f  K_RECURSIVE_T.__
 3c10 494e545f 4c454153 5436345f 4d41585f  INT_LEAST64_MAX_
 3c20 5f203078 37666666 66666666 66666666  _ 0x7fffffffffff
 3c30 66666666 4c4c005f 5f6e756c 6c5f7365  ffffLL.__null_se
 3c40 6e74696e 656c205f 5f617474 72696275  ntinel __attribu
 3c50 74655f5f 28285f5f 73656e74 696e656c  te__((__sentinel
 3c60 5f5f2929 005f5f6e 6565645f 4e554c4c  __)).__need_NULL
 3c70 20004249 545f3920 2831203c 3c203929   .BIT_9 (1 << 9)
 3c80 005f4445 4641554c 545f534f 55524345  ._DEFAULT_SOURCE
 3c90 2031005f 5f464c54 33325f4d 414e545f   1.__FLT32_MANT_
 3ca0 4449475f 5f203234 006f6666 7365746f  DIG__ 24.offseto
 3cb0 66285459 50452c4d 454d4245 5229205f  f(TYPE,MEMBER) _
 3cc0 5f627569 6c74696e 5f6f6666 7365746f  _builtin_offseto
 3cd0 66202854 5950452c 204d454d 42455229  f (TYPE, MEMBER)
 3ce0 005f5f55 494e5436 345f4328 63292063  .__UINT64_C(c) c
 3cf0 20232320 554c4c00 5f5f5549 4e545f4c   ## ULL.__UINT_L
 3d00 45415354 36345f54 5950455f 5f206c6f  EAST64_TYPE__ lo
 3d10 6e67206c 6f6e6720 756e7369 676e6564  ng long unsigned
 3d20 20696e74 004d4154 485f4552 524e4f20   int.MATH_ERRNO 
 3d30 31005f5f 464c5436 34585f4d 414e545f  1.__FLT64X_MANT_
 3d40 4449475f 5f203131 33005f57 43484152  DIG__ 113._WCHAR
 3d50 5f545f44 4546494e 45442000 5f5f4743  _T_DEFINED .__GC
 3d60 435f4154 4f4d4943 5f434841 5231365f  C_ATOMIC_CHAR16_
 3d70 545f4c4f 434b5f46 52454520 31006373  T_LOCK_FREE 1.cs
 3d80 725f7772 69746528 6373722c 76616c29  r_write(csr,val)
 3d90 20287b20 756e7369 676e6564 206c6f6e   ({ unsigned lon
 3da0 67205f5f 76203d20 28756e73 69676e65  g __v = (unsigne
 3db0 64206c6f 6e672928 76616c29 3b205f5f  d long)(val); __
 3dc0 61736d5f 5f205f5f 766f6c61 74696c65  asm__ __volatile
 3dd0 5f5f2028 22637372 77202220 23637372  __ ("csrw " #csr
 3de0 20222c20 25302220 3a203a20 22724b22   ", %0" : : "rK"
 3df0 20285f5f 7629293b 207d2900 4d535441   (__v)); }).MSTA
 3e00 5455535f 48505020 30783030 30303036  TUS_HPP 0x000006
 3e10 3030005f 5f4e554c 4c414249 4c495459  00.__NULLABILITY
 3e20 5f505241 474d415f 50555348 20005f73  _PRAGMA_PUSH ._s
 3e30 69676e61 6c5f6275 66005f5f 44424c5f  ignal_buf.__DBL_
 3e40 4d41585f 4558505f 5f203130 3234005f  MAX_EXP__ 1024._
 3e50 5f464153 54363420 226c6c22 005f5f41  _FAST64 "ll".__A
 3e60 544f4d49 435f5245 4c454153 45203300  TOMIC_RELEASE 3.
 3e70 756e7369 676e6564 202b3000 5f5f464c  unsigned +0.__FL
 3e80 54333258 5f484153 5f44454e 4f524d5f  T32X_HAS_DENORM_
 3e90 5f203100 5f5f464c 545f4d41 4e545f44  _ 1.__FLT_MANT_D
 3ea0 49475f5f 20323400 5f52414e 4434385f  IG__ 24._RAND48_
 3eb0 53454544 5f312028 30786162 63642900  SEED_1 (0xabcd).
 3ec0 5f5f494e 545f4641 53543332 5f545950  __INT_FAST32_TYP
 3ed0 455f5f20 696e7400 5f535444 4152475f  E__ int._STDARG_
 3ee0 4820005f 5f5f696e 745f7074 72646966  H .___int_ptrdif
 3ef0 665f745f 6820005f 5f4f5054 494d495a  f_t_h .__OPTIMIZ
 3f00 455f5f20 31004d45 44454c45 475f4c4f  E__ 1.MEDELEG_LO
 3f10 41445f50 4147455f 4641554c 54202831  AD_PAGE_FAULT (1
 3f20 203c3c20 31332900 5f494e54 33325f54   << 13)._INT32_T
 3f30 5f444543 4c415245 4420005f 42696769  _DECLARED ._Bigi
 3f40 6e74005f 5f464c54 36345f4d 494e5f5f  nt.__FLT64_MIN__
 3f50 20322e32 32353037 33383538 35303732   2.2250738585072
 3f60 30313338 33303930 32333237 31373333  0138309023271733
 3f70 32343034 3036652d 33303846 3634005f  240406e-308F64._
 3f80 5f696e74 3230202b 32005f5f 494e5436  _int20 +2.__INT6
 3f90 345f4d41 585f5f20 30783766 66666666  4_MAX__ 0x7fffff
 3fa0 66666666 66666666 66664c4c 00454e41  ffffffffffLL.ENA
 3fb0 424c455f 4253505f 5052494e 54462031  BLE_BSP_PRINTF 1
 3fc0 005f5f49 4e545054 525f5459 50455f5f  .__INTPTR_TYPE__
 3fd0 20696e74 005f5f46 4c543332 585f4d49   int.__FLT32X_MI
 3fe0 4e5f3130 5f455850 5f5f2028 2d333037  N_10_EXP__ (-307
 3ff0 29006973 6e6f726d 616c285f 5f782920  ).isnormal(__x) 
 4000 285f5f62 75696c74 696e5f69 736e6f72  (__builtin_isnor
 4010 6d616c20 285f5f78 2929005f 5245454e  mal (__x))._REEN
 4020 545f4348 45434b5f 5349474e 414c5f42  T_CHECK_SIGNAL_B
 4030 55462870 74722920 00424954 5f322028  UF(ptr) .BIT_2 (
 4040 31203c3c 20322900 5f5f636c 65616e75  1 << 2).__cleanu
 4050 70004d53 54415455 535f4d50 49452030  p.MSTATUS_MPIE 0
 4060 78303030 30303038 30005f61 74657869  x00000080._atexi
 4070 7430005f 5245454e 545f534d 414c4c5f  t0._REENT_SMALL_
 4080 43484543 4b5f494e 49542870 74722920  CHECK_INIT(ptr) 
 4090 004d5354 41545553 5f554945 20307830  .MSTATUS_UIE 0x0
 40a0 30303030 30303100 504d505f 4e41504f  0000001.PMP_NAPO
 40b0 54203078 31380061 6c6c6f63 61287369  T 0x18.alloca(si
 40c0 7a652920 5f5f6275 696c7469 6e5f616c  ze) __builtin_al
 40d0 6c6f6361 2873697a 6529005f 5f4c4f4e  loca(size).__LON
 40e0 475f5749 4454485f 5f203332 00736967  G_WIDTH__ 32.sig
 40f0 6e626974 285f5f78 29202828 73697a65  nbit(__x) ((size
 4100 6f66285f 5f782920 3d3d2073 697a656f  of(__x) == sizeo
 4110 6628666c 6f617429 29203f20 5f5f6275  f(float)) ? __bu
 4120 696c7469 6e5f7369 676e6269 7466285f  iltin_signbitf(_
 4130 5f782920 3a202873 697a656f 66285f5f  _x) : (sizeof(__
 4140 7829203d 3d207369 7a656f66 28646f75  x) == sizeof(dou
 4150 626c6529 29203f20 5f5f6275 696c7469  ble)) ? __builti
 4160 6e5f7369 676e6269 7420285f 5f782920  n_signbit (__x) 
 4170 3a205f5f 6275696c 74696e5f 7369676e  : __builtin_sign
 4180 6269746c 285f5f78 2929005f 545f5743  bitl(__x))._T_WC
 4190 4841525f 2000636f 6e666967 4350555f  HAR_ .configCPU_
 41a0 434c4f43 4b5f485a 20282028 2075696e  CLOCK_HZ ( ( uin
 41b0 7433325f 74202920 28204253 505f434c  t32_t ) ( BSP_CL
 41c0 494e545f 485a2029 2029005f 5f776172  INT_HZ ) ).__war
 41d0 6e5f7265 66657265 6e636573 2873796d  n_references(sym
 41e0 2c6d7367 29205f5f 61736d5f 5f28222e  ,msg) __asm__(".
 41f0 73656374 696f6e20 2e676e75 2e776172  section .gnu.war
 4200 6e696e67 2e222023 73796d29 3b205f5f  ning." #sym); __
 4210 61736d5f 5f28222e 61736369 7a205c22  asm__(".asciz \"
 4220 22206d73 6720225c 2222293b 205f5f61  " msg "\""); __a
 4230 736d5f5f 28222e70 72657669 6f757322  sm__(".previous"
 4240 29005353 54415455 535f5355 4d203078  ).SSTATUS_SUM 0x
 4250 30303034 30303030 00706c69 635f7365  00040000.plic_se
 4260 745f656e 61626c65 00574348 41525f4d  t_enable.WCHAR_M
 4270 41582028 5f5f5743 4841525f 4d41585f  AX (__WCHAR_MAX_
 4280 5f29005f 5f736967 6e67616d 5f722870  _).__signgam_r(p
 4290 74722920 5f524545 4e545f53 49474e47  tr) _REENT_SIGNG
 42a0 414d2870 74722900 5f4e4557 4c49425f  AM(ptr)._NEWLIB_
 42b0 56455253 494f4e5f 485f5f20 31006973  VERSION_H__ 1.is
 42c0 696e6628 5f5f7829 20285f5f 6275696c  inf(__x) (__buil
 42d0 74696e5f 6973696e 665f7369 676e2028  tin_isinf_sign (
 42e0 5f5f7829 29005f5f 53495a45 5f4d4158  __x)).__SIZE_MAX
 42f0 5f5f2030 78666666 66666666 6655005f  __ 0xffffffffU._
 4300 5f75696e 7433325f 74005f65 6d657267  _uint32_t._emerg
 4310 656e6379 005f4c49 425f5645 5253494f  ency._LIB_VERSIO
 4320 4e5f5459 50452065 6e756d20 5f5f6664  N_TYPE enum __fd
 4330 6c69626d 5f766572 73696f6e 00637372  libm_version.csr
 4340 5f736574 28637372 2c76616c 2920287b  _set(csr,val) ({
 4350 20756e73 69676e65 64206c6f 6e67205f   unsigned long _
 4360 5f76203d 2028756e 7369676e 6564206c  _v = (unsigned l
 4370 6f6e6729 2876616c 293b205f 5f61736d  ong)(val); __asm
 4380 5f5f205f 5f766f6c 6174696c 655f5f20  __ __volatile__ 
 4390 28226373 72732022 20236373 7220222c  ("csrs " #csr ",
 43a0 20253022 203a203a 2022724b 2220285f   %0" : : "rK" (_
 43b0 5f762929 3b207d29 005f5f46 4c545f52  _v)); }).__FLT_R
 43c0 41444958 5f5f2032 005f5f46 4c543332  ADIX__ 2.__FLT32
 43d0 5f484153 5f494e46 494e4954 595f5f20  _HAS_INFINITY__ 
 43e0 31005f52 45454e54 5f52414e 4434385f  1._REENT_RAND48_
 43f0 4d554c54 28707472 29202828 70747229  MULT(ptr) ((ptr)
 4400 2d3e5f6e 65772e5f 7265656e 742e5f72  ->_new._reent._r
 4410 34382e5f 6d756c74 29004249 545f3239  48._mult).BIT_29
 4420 20283120 3c3c2032 39290055 494e5433   (1 << 29).UINT3
 4430 325f4d41 5820285f 5f55494e 5433325f  2_MAX (__UINT32_
 4440 4d41585f 5f29005f 5f776368 61725f74  MAX__).__wchar_t
 4450 5f5f2000 5f5f4c44 424c5f48 41535f51  __ .__LDBL_HAS_Q
 4460 55494554 5f4e414e 5f5f2031 005f5f6e  UIET_NAN__ 1.__n
 4470 6565645f 4e554c4c 004d5f4c 4f47325f  eed_NULL.M_LOG2_
 4480 45205f4d 5f4c4e32 005f5f4c 4f4e475f  E _M_LN2.__LONG_
 4490 4c4f4e47 5f574944 54485f5f 20363400  LONG_WIDTH__ 64.
 44a0 5f6e696f 62730057 494e545f 4d415820  _niobs.WINT_MAX 
 44b0 285f5f57 494e545f 4d41585f 5f29005f  (__WINT_MAX__)._
 44c0 5f6e6565 645f7763 6861725f 74200070  _need_wchar_t .p
 44d0 6c69635f 72656c65 61736500 4d535441  lic_release.MSTA
 44e0 5455535f 54564d20 30783030 31303030  TUS_TVM 0x001000
 44f0 30300053 53544154 55535f46 53203078  00.SSTATUS_FS 0x
 4500 30303030 36303030 005f5f6c 6f63616c  00006000.__local
 4510 655f7400 5f524545 4e545f43 4845434b  e_t._REENT_CHECK
 4520 5f415343 54494d45 5f425546 28707472  _ASCTIME_BUF(ptr
 4530 2920005f 5f726973 63765f63 6d6f6465  ) .__riscv_cmode
 4540 6c5f6d65 646c6f77 2031005f 5f494e54  l_medlow 1.__INT
 4550 5054525f 57494454 485f5f20 3332005f  PTR_WIDTH__ 32._
 4560 5f474343 5f41544f 4d49435f 4c4c4f4e  _GCC_ATOMIC_LLON
 4570 475f4c4f 434b5f46 52454520 3100504c  G_LOCK_FREE 1.PL
 4580 49435f45 4e41424c 455f4241 53452030  IC_ENABLE_BASE 0
 4590 78323030 30005f6e 6d616c6c 6f63005f  x2000._nmalloc._
 45a0 5f464c54 36345f4d 41585f45 58505f5f  _FLT64_MAX_EXP__
 45b0 20313032 34005f5f 57434841 525f5420   1024.__WCHAR_T 
 45c0 005f5f53 59535f43 4f4e4649 475f485f  .__SYS_CONFIG_H_
 45d0 5f20005f 5f707472 76616c75 6520005f  _ .__ptrvalue ._
 45e0 5f474e55 435f5641 5f4c4953 545f434f  _GNUC_VA_LIST_CO
 45f0 4d504154 4942494c 49545920 31005f5f  MPATIBILITY 1.__
 4600 5f696e74 33325f74 5f646566 696e6564  _int32_t_defined
 4610 2031005f 67616d6d 615f7369 676e6761   1._gamma_signga
 4620 6d005f5f 4c44424c 5f4d4158 5f5f2031  m.__LDBL_MAX__ 1
 4630 2e313839 37333134 39353335 37323331  .189731495357231
 4640 37363530 38353735 39333236 36323830  7650857593266280
 4650 30373032 652b3439 33324c00 504d505f  0702e+4932L.PMP_
 4660 53484946 54203200 5f5f5749 4e545f57  SHIFT 2.__WINT_W
 4670 49445448 5f5f2033 32005f5f 494e5436  IDTH__ 32.__INT6
 4680 345f5459 50455f5f 206c6f6e 67206c6f  4_TYPE__ long lo
 4690 6e672069 6e740050 4c49435f 5052494f  ng int.PLIC_PRIO
 46a0 52495459 5f424153 45203078 30303030  RITY_BASE 0x0000
 46b0 005f5f74 72796c6f 636b735f 6578636c  .__trylocks_excl
 46c0 75736976 65282e2e 2e29205f 5f6c6f63  usive(...) __loc
 46d0 6b5f616e 6e6f7461 74652865 78636c75  k_annotate(exclu
 46e0 73697665 5f747279 6c6f636b 5f66756e  sive_trylock_fun
 46f0 6374696f 6e285f5f 56415f41 5247535f  ction(__VA_ARGS_
 4700 5f292900 55494e54 31365f4d 41582028  _)).UINT16_MAX (
 4710 5f5f5549 4e543136 5f4d4158 5f5f2900  __UINT16_MAX__).
 4720 5f5f5349 5a454f46 5f574348 41525f54  __SIZEOF_WCHAR_T
 4730 5f5f2034 005f5241 4e443438 5f534545  __ 4._RAND48_SEE
 4740 445f3020 28307833 33306529 00494e54  D_0 (0x330e).INT
 4750 5f4c4541 53543136 5f4d494e 20282d5f  _LEAST16_MIN (-_
 4760 5f494e54 5f4c4541 53543136 5f4d4158  _INT_LEAST16_MAX
 4770 5f5f202d 20312900 6d61736b 005f5f6e  __ - 1).mask.__n
 4780 6f6e6e75 6c6c5f61 6c6c205f 5f617474  onnull_all __att
 4790 72696275 74655f5f 28285f5f 6e6f6e6e  ribute__((__nonn
 47a0 756c6c5f 5f292900 5f524545 4e545f4d  ull__))._REENT_M
 47b0 42535254 4f574353 5f535441 54452870  BSRTOWCS_STATE(p
 47c0 74722920 28287074 72292d3e 5f6e6577  tr) ((ptr)->_new
 47d0 2e5f7265 656e742e 5f6d6273 72746f77  ._reent._mbsrtow
 47e0 63735f73 74617465 29005f5f 756e6c6f  cs_state).__unlo
 47f0 636b7328 2e2e2e29 205f5f6c 6f636b5f  cks(...) __lock_
 4800 616e6e6f 74617465 28756e6c 6f636b5f  annotate(unlock_
 4810 66756e63 74696f6e 285f5f56 415f4152  function(__VA_AR
 4820 47535f5f 29290045 4e41424c 455f4253  GS__)).ENABLE_BS
 4830 505f5052 494e5420 31005f66 7265656c  P_PRINT 1._freel
 4840 69737400 5f5f6c6f 636b5f74 72795f61  ist.__lock_try_a
 4850 63717569 7265286c 6f636b29 20282876  cquire(lock) ((v
 4860 6f696429 20302900 5f524545 4e545f4d  oid) 0)._REENT_M
 4870 42524c45 4e5f5354 41544528 70747229  BRLEN_STATE(ptr)
 4880 20282870 7472292d 3e5f6e65 772e5f72   ((ptr)->_new._r
 4890 65656e74 2e5f6d62 726c656e 5f737461  eent._mbrlen_sta
 48a0 74652900 5f5f5f69 6e745f6c 65617374  te).___int_least
 48b0 36345f74 5f646566 696e6564 20310050  64_t_defined 1.P
 48c0 4c49435f 434c4149 4d5f4241 53452030  LIC_CLAIM_BASE 0
 48d0 78323030 30303400 69736c65 73736772  x200004.islessgr
 48e0 65617465 72285f5f 782c5f5f 79292028  eater(__x,__y) (
 48f0 5f5f6275 696c7469 6e5f6973 6c657373  __builtin_isless
 4900 67726561 74657220 285f5f78 2c205f5f  greater (__x, __
 4910 79292900 5f5f5448 524f5720 005f676c  y)).__THROW ._gl
 4920 7565005f 7369676e 005f5f49 4e545f4c  ue._sign.__INT_L
 4930 45415354 33325f4d 41585f5f 20307837  EAST32_MAX__ 0x7
 4940 66666666 6666664c 00535953 54454d5f  fffffffL.SYSTEM_
 4950 5350495f 315f494f 5f435452 4c5f5349  SPI_1_IO_CTRL_SI
 4960 5a452030 78313030 30005f52 45454e54  ZE 0x1000._REENT
 4970 5f4c3634 415f4255 46287074 72292028  _L64A_BUF(ptr) (
 4980 28707472 292d3e5f 6e65772e 5f726565  (ptr)->_new._ree
 4990 6e742e5f 6c363461 5f627566 29005f41  nt._l64a_buf)._A
 49a0 5446494c 455f534f 55524345 2031005f  TFILE_SOURCE 1._
 49b0 5f535444 494e545f 45585028 7829205f  _STDINT_EXP(x) _
 49c0 5f202323 78202323 5f5f005f 5f455850  _ ##x ##__.__EXP
 49d0 28782920 5f5f2023 23782023 235f5f00  (x) __ ##x ##__.
 49e0 4d425f43 55525f4d 4158205f 5f6c6f63  MB_CUR_MAX __loc
 49f0 616c655f 6d625f63 75725f6d 61782829  ale_mb_cur_max()
 4a00 005f5f42 5954455f 4f524445 525f5f20  .__BYTE_ORDER__ 
 4a10 5f5f4f52 4445525f 4c495454 4c455f45  __ORDER_LITTLE_E
 4a20 4e444941 4e5f5f00 5f5f5743 4841525f  NDIAN__.__WCHAR_
 4a30 54595045 5f5f2069 6e74005f 414e5349  TYPE__ int._ANSI
 4a40 4445434c 5f485f20 005f414e 53495f53  DECL_H_ ._ANSI_S
 4a50 54444445 465f4820 005f7763 7372746f  TDDEF_H ._wcsrto
 4a60 6d62735f 73746174 65005f57 414e545f  mbs_state._WANT_
 4a70 494f5f43 39395f46 4f524d41 54532031  IO_C99_FORMATS 1
 4a80 005f5245 454e545f 43484543 4b5f4d50  ._REENT_CHECK_MP
 4a90 28707472 2920004d 5f504920 332e3134  (ptr) .M_PI 3.14
 4aa0 31353932 36353335 38393739 33323338  1592653589793238
 4ab0 3436005f 5f57494e 545f5459 50455f5f  46.__WINT_TYPE__
 4ac0 20756e73 69676e65 6420696e 74005f5f   unsigned int.__
 4ad0 696e745f 66617374 31365f74 5f646566  int_fast16_t_def
 4ae0 696e6564 2031004d 5f50495f 3420302e  ined 1.M_PI_4 0.
 4af0 37383533 39383136 33333937 34343833  7853981633974483
 4b00 30393632 005f4253 445f5054 52444946  0962._BSD_PTRDIF
 4b10 465f545f 20006d61 6368696e 6554696d  F_T_ .machineTim
 4b20 65725f67 65745469 6d652870 2920636c  er_getTime(p) cl
 4b30 696e745f 67657454 696d6528 70293b00  int_getTime(p);.
 4b40 454e4142 4c455f42 53505f50 52494e54  ENABLE_BSP_PRINT
 4b50 465f4655 4c4c2030 005f666c 61677332  F_FULL 0._flags2
 4b60 00494e54 36345f4d 41582028 5f5f494e  .INT64_MAX (__IN
 4b70 5436345f 4d41585f 5f290075 6172745f  T64_MAX__).uart_
 4b80 77726974 65005353 54415455 535f5350  write.SSTATUS_SP
 4b90 49452030 78303030 30303032 30005f5f  IE 0x00000020.__
 4ba0 4e45574c 49425f4d 494e4f52 5f5f2031  NEWLIB_MINOR__ 1
 4bb0 005f5245 454e545f 4d42544f 57435f53  ._REENT_MBTOWC_S
 4bc0 54415445 28707472 29202828 70747229  TATE(ptr) ((ptr)
 4bd0 2d3e5f6e 65772e5f 7265656e 742e5f6d  ->_new._reent._m
 4be0 62746f77 635f7374 61746529 005f5f46  btowc_state).__F
 4bf0 4c545f4d 494e5f45 58505f5f 20282d31  LT_MIN_EXP__ (-1
 4c00 32352900 5f5f4445 435f4556 414c5f4d  25).__DEC_EVAL_M
 4c10 4554484f 445f5f20 32005359 5354454d  ETHOD__ 2.SYSTEM
 4c20 5f424d42 5f504552 49504845 52414c5f  _BMB_PERIPHERAL_
 4c30 424d4220 30786638 30303030 3030006f  BMB 0xf8000000.o
 4c40 70636f64 655f5228 6f70636f 64652c66  pcode_R(opcode,f
 4c50 756e6333 2c66756e 63372c72 73312c72  unc3,func7,rs1,r
 4c60 73322920 287b2072 65676973 74657220  s2) ({ register 
 4c70 756e7369 676e6564 206c6f6e 67205f5f  unsigned long __
 4c80 763b2061 736d2076 6f6c6174 696c6528  v; asm volatile(
 4c90 20222e77 6f726420 28282220 236f7063   ".word ((" #opc
 4ca0 6f646520 2229207c 20287265 676e756d  ode ") | (regnum
 4cb0 5f253020 3c3c2037 29207c20 28726567  _%0 << 7) | (reg
 4cc0 6e756d5f 2531203c 3c203135 29207c20  num_%1 << 15) | 
 4cd0 28726567 6e756d5f 2532203c 3c203230  (regnum_%2 << 20
 4ce0 29207c20 28282220 2366756e 63332022  ) | ((" #func3 "
 4cf0 29203c3c 20313229 207c2028 28222023  ) << 12) | ((" #
 4d00 66756e63 37202229 203c3c20 32352929  func7 ") << 25))
 4d10 3b22203a 205b7264 5d20223d 72222028  ;" : [rd] "=r" (
 4d20 5f5f7629 203a2022 72222028 72733129  __v) : "r" (rs1)
 4d30 2c202272 22202872 73322920 293b205f  , "r" (rs2) ); _
 4d40 5f763b20 7d290064 6174615f 63616368  _v; }).data_cach
 4d50 655f696e 76616c69 64617465 5f616c6c  e_invalidate_all
 4d60 28292061 736d2822 2e776f72 64283078  () asm(".word(0x
 4d70 35303046 2922293b 0055494e 545f4641  500F)");.UINT_FA
 4d80 5354385f 4d415820 285f5f55 494e545f  ST8_MAX (__UINT_
 4d90 46415354 385f4d41 585f5f29 005f5f41  FAST8_MAX__).__A
 4da0 54545249 42555445 5f494d50 5552455f  TTRIBUTE_IMPURE_
 4db0 5054525f 5f200049 4e545f46 41535438  PTR__ .INT_FAST8
 4dc0 5f4d494e 20282d5f 5f494e54 5f464153  _MIN (-__INT_FAS
 4dd0 54385f4d 41585f5f 202d2031 29005f5f  T8_MAX__ - 1).__
 4de0 464c5433 32585f4d 41585f5f 20312e37  FLT32X_MAX__ 1.7
 4df0 39373639 33313334 38363233 31353730  9769313486231570
 4e00 38313435 32373432 33373331 37303433  8145274237317043
 4e10 3537652b 33303846 33327800 5f5f464c  57e+308F32x.__FL
 4e20 5436345f 4841535f 44454e4f 524d5f5f  T64_HAS_DENORM__
 4e30 2031005f 5f464c54 5f444947 5f5f2036   1.__FLT_DIG__ 6
 4e40 005f685f 6572726e 6f005f46 56575249  ._h_errno._FVWRI
 4e50 54455f49 4e5f5354 5245414d 494f2031  TE_IN_STREAMIO 1
 4e60 005f5743 4841525f 545f4445 434c4152  ._WCHAR_T_DECLAR
 4e70 45442000 5f5f4348 41525f42 49545f5f  ED .__CHAR_BIT__
 4e80 2038005f 5359535f 5245454e 545f485f   8._SYS_REENT_H_
 4e90 20005f5f 464c545f 4556414c 5f4d4554   .__FLT_EVAL_MET
 4ea0 484f445f 5f203000 53595354 454d5f50  HOD__ 0.SYSTEM_P
 4eb0 4c49435f 53595354 454d5f47 50494f5f  LIC_SYSTEM_GPIO_
 4ec0 305f494f 5f494e54 45525255 5054535f  0_IO_INTERRUPTS_
 4ed0 31203133 005f5f53 43484152 5f4d4158  1 13.__SCHAR_MAX
 4ee0 5f5f2030 78376600 5f5f494e 545f4641  __ 0x7f.__INT_FA
 4ef0 5354385f 57494454 485f5f20 3332005f  ST8_WIDTH__ 32._
 4f00 5f494e54 31362022 6822005f 5f464c54  _INT16 "h".__FLT
 4f10 3132385f 45505349 4c4f4e5f 5f20312e  128_EPSILON__ 1.
 4f20 39323539 32393934 34333837 32333538  9259299443872358
 4f30 35333035 35393737 39343235 38343932  5305597794258492
 4f40 37333265 2d333446 31323800 55415254  732e-34F128.UART
 4f50 5f444154 41203078 30300049 4f5f4150  _DATA 0x00.IO_AP
 4f60 425f534c 4156455f 305f494e 5055545f  B_SLAVE_0_INPUT_
 4f70 53495a45 20307831 30303030 005f504f  SIZE 0x10000._PO
 4f80 5349585f 205f5f66 646c6962 6d5f706f  SIX_ __fdlibm_po
 4f90 73697800 5f545f50 54524449 46462000  six._T_PTRDIFF .
 4fa0 4d5f5457 4f504920 284d5f50 49202a20  M_TWOPI (M_PI * 
 4fb0 322e3029 005f7763 72746f6d 625f7374  2.0)._wcrtomb_st
 4fc0 61746500 5f5f464c 54313238 5f4d4158  ate.__FLT128_MAX
 4fd0 5f31305f 4558505f 5f203439 3332005f  _10_EXP__ 4932._
 4fe0 5f474343 5f494543 5f353539 2030005f  _GCC_IEC_559 0._
 4ff0 4e45574c 49425f41 4c4c4f43 415f4820  NEWLIB_ALLOCA_H 
 5000 005f5f74 6d5f6d64 61790061 6c6c6f63  .__tm_mday.alloc
 5010 61004249 545f3820 2831203c 3c203829  a.BIT_8 (1 << 8)
 5020 005f5f53 5444435f 5f203100 5f6e6577  .__STDC__ 1._new
 5030 005f5f5f 696e745f 6c656173 74385f74  .___int_least8_t
 5040 5f646566 696e6564 2031005f 75627566  _defined 1._ubuf
 5050 005f5f46 4c4f4154 5f574f52 445f4f52  .__FLOAT_WORD_OR
 5060 4445525f 5f205f5f 4f524445 525f4c49  DER__ __ORDER_LI
 5070 54544c45 5f454e44 49414e5f 5f004249  TTLE_ENDIAN__.BI
 5080 545f3330 20283120 3c3c2033 3029005f  T_30 (1 << 30)._
 5090 5f55494e 54385f54 5950455f 5f20756e  _UINT8_TYPE__ un
 50a0 7369676e 65642063 68617200 5f737464  signed char._std
 50b0 65727200 5f5f696e 745f6661 7374385f  err.__int_fast8_
 50c0 745f6465 66696e65 64203100 5f5f4558  t_defined 1.__EX
 50d0 504f5254 20005f77 63746f6d 625f7374  PORT ._wctomb_st
 50e0 61746500 5f5f4f42 534f4c45 54455f4d  ate.__OBSOLETE_M
 50f0 4154485f 44454641 554c5420 31005f6d  ATH_DEFAULT 1._m
 5100 62737461 7465005f 5f534343 53494428  bstate.__SCCSID(
 5110 73292073 74727563 74205f5f 6861636b  s) struct __hack
 5120 006d5469 6d655065 72557365 63005359  .mTimePerUsec.SY
 5130 5354454d 5f52414d 5f415f43 54524c5f  STEM_RAM_A_CTRL_
 5140 53495a45 20307831 30303030 005f5f53  SIZE 0x10000.__S
 5150 4852545f 57494454 485f5f20 3136005f  HRT_WIDTH__ 16._
 5160 72616e64 5f6e6578 74005f5f 44454331  rand_next.__DEC1
 5170 32385f4d 414e545f 4449475f 5f203334  28_MANT_DIG__ 34
 5180 005f666c 61677300 5f5f494d 504f5254  ._flags.__IMPORT
 5190 20005353 54415455 535f5549 45203078   .SSTATUS_UIE 0x
 51a0 30303030 30303031 005f5054 52444946  00000001._PTRDIF
 51b0 465f545f 4445434c 41524544 20005f5f  F_T_DECLARED .__
 51c0 766f6c61 74696c65 20766f6c 6174696c  volatile volatil
 51d0 65006164 64726573 73004249 545f3331  e.address.BIT_31
 51e0 20283120 3c3c2033 3129005f 57414e54   (1 << 31)._WANT
 51f0 5f524547 49535445 525f4649 4e492031  _REGISTER_FINI 1
 5200 005f5f47 43435f41 544f4d49 435f4348  .__GCC_ATOMIC_CH
 5210 41525f4c 4f434b5f 46524545 2031005f  AR_LOCK_FREE 1._
 5220 5f415446 494c455f 56495349 424c4520  _ATFILE_VISIBLE 
 5230 31005f61 74657869 74004253 505f4c45  1._atexit.BSP_LE
 5240 445f4750 494f2053 59535445 4d5f4750  D_GPIO SYSTEM_GP
 5250 494f5f30 5f494f5f 4354524c 004d5f53  IO_0_IO_CTRL.M_S
 5260 51525432 20312e34 31343231 33353632  QRT2 1.414213562
 5270 33373330 39353034 38383000 5f5f4e55  37309504880.__NU
 5280 4c4c4142 494c4954 595f5052 41474d41  LLABILITY_PRAGMA
 5290 5f504f50 20005f5f 70726564 6963745f  _POP .__predict_
 52a0 66616c73 65286578 7029205f 5f627569  false(exp) __bui
 52b0 6c74696e 5f657870 65637428 28657870  ltin_expect((exp
 52c0 292c2030 29005359 5354454d 5f554152  ), 0).SYSTEM_UAR
 52d0 545f305f 494f5f43 54524c20 30786638  T_0_IO_CTRL 0xf8
 52e0 30313030 30300052 4454494d 45482030  010000.RDTIMEH 0
 52f0 78433831 00434155 53455f4d 41434849  xC81.CAUSE_MACHI
 5300 4e455f45 58544552 4e414c20 3131004d  NE_EXTERNAL 11.M
 5310 53544154 55535f54 53522030 78303034  STATUS_TSR 0x004
 5320 30303030 30005f5f 53545249 4e472878  00000.__STRING(x
 5330 29202378 00535953 54454d5f 52414d5f  ) #x.SYSTEM_RAM_
 5340 415f5349 5a452036 35353336 005f5f72  A_SIZE 65536.__r
 5350 6573756c 745f7573 655f6368 65636b20  esult_use_check 
 5360 5f5f6174 74726962 7574655f 5f28285f  __attribute__((_
 5370 5f776172 6e5f756e 75736564 5f726573  _warn_unused_res
 5380 756c745f 5f292900 5f5f494e 54385f54  ult__)).__INT8_T
 5390 5950455f 5f207369 676e6564 20636861  YPE__ signed cha
 53a0 72005359 5354454d 5f475049 4f5f305f  r.SYSTEM_GPIO_0_
 53b0 494f5f43 54524c5f 53495a45 20307831  IO_CTRL_SIZE 0x1
 53c0 30300042 49545f31 20283120 3c3c2031  00.BIT_1 (1 << 1
 53d0 29005f5f 464c5433 325f4d49 4e5f3130  ).__FLT32_MIN_10
 53e0 5f455850 5f5f2028 2d333729 004d4950  _EXP__ (-37).MIP
 53f0 5f535449 50202831 203c3c20 3529005f  _STIP (1 << 5)._
 5400 5f636f75 6e74005f 5f474e55 435f5641  _count.__GNUC_VA
 5410 5f4c4953 5420005f 5f49534f 5f435f56  _LIST .__ISO_C_V
 5420 49534942 4c452032 30313100 494e5431  ISIBLE 2011.INT1
 5430 365f4d49 4e20282d 5f5f494e 5431365f  6_MIN (-__INT16_
 5440 4d41585f 5f202d20 3129005f 5f73697a  MAX__ - 1).__siz
 5450 655f7400 5f5f464c 545f4445 4e4f524d  e_t.__FLT_DENORM
 5460 5f4d494e 5f5f2031 2e343031 32393834  _MIN__ 1.4012984
 5470 36343332 34383137 30373039 32333732  6432481707092372
 5480 39353833 32383939 31363133 652d3435  958328991613e-45
 5490 46005f5f 44454333 325f4d41 4e545f44  F.__DEC32_MANT_D
 54a0 49475f5f 20370075 73656300 5f4d4143  IG__ 7.usec._MAC
 54b0 48494e45 5f5f4445 4641554c 545f5459  HINE__DEFAULT_TY
 54c0 5045535f 4820004d 5f4c4e32 205f4d5f  PES_H .M_LN2 _M_
 54d0 4c4e3200 52495343 565f5345 4d49484f  LN2.RISCV_SEMIHO
 54e0 5354494e 475f4341 4c4c5f4e 554d4245  STING_CALL_NUMBE
 54f0 52203700 5f5f6861 735f6665 61747572  R 7.__has_featur
 5500 65287829 2030005f 4743435f 50545244  e(x) 0._GCC_PTRD
 5510 4946465f 5420005f 5f4c4442 4c5f4d41  IFF_T .__LDBL_MA
 5520 4e545f44 49475f5f 20313133 005f5f4c  NT_DIG__ 113.__L
 5530 45415354 36342022 6c6c2200 5f5f4c4f  EAST64 "ll".__LO
 5540 434b5f49 4e495428 636c6173 732c6c6f  CK_INIT(class,lo
 5550 636b2920 73746174 69632069 6e74206c  ck) static int l
 5560 6f636b20 3d20303b 00756172 745f7772  ock = 0;.uart_wr
 5570 69746541 7661696c 6162696c 69747900  iteAvailability.
 5580 5f5f746d 5f776461 7900706c 69635f63  __tm_wday.plic_c
 5590 6c61696d 005f5f73 69676e65 64207369  laim.__signed si
 55a0 676e6564 00535354 41545553 5f585320  gned.SSTATUS_XS 
 55b0 30783030 30313830 3030005f 48415645  0x00018000._HAVE
 55c0 5f43435f 494e4849 4249545f 4c4f4f50  _CC_INHIBIT_LOOP
 55d0 5f544f5f 4c494243 414c4c20 31005f5f  _TO_LIBCALL 1.__
 55e0 4c4f4e47 5f4c4f4e 475f4d41 585f5f20  LONG_LONG_MAX__ 
 55f0 30783766 66666666 66666666 66666666  0x7fffffffffffff
 5600 66664c4c 005f4653 45454b5f 4f505449  ffLL._FSEEK_OPTI
 5610 4d495a41 54494f4e 2031004d 53544154  MIZATION 1.MSTAT
 5620 55533332 5f534420 30783830 30303030  US32_SD 0x800000
 5630 3030005f 5f746d5f 79646179 00627370  00.__tm_yday.bsp
 5640 5f707269 6e74665f 58004d45 44454c45  _printf_X.MEDELE
 5650 475f494e 53545255 4354494f 4e5f5041  G_INSTRUCTION_PA
 5660 47455f46 41554c54 20283120 3c3c2031  GE_FAULT (1 << 1
 5670 3229005f 5f474e55 434c494b 455f4255  2).__GNUCLIKE_BU
 5680 494c5449 4e5f5641 52415247 53203100  ILTIN_VARARGS 1.
 5690 4d5f4520 322e3731 38323831 38323834  M_E 2.7182818284
 56a0 35393034 35323335 34005f5f 464c5436  590452354.__FLT6
 56b0 34585f48 41535f51 55494554 5f4e414e  4X_HAS_QUIET_NAN
 56c0 5f5f2031 005f5f46 4c543132 385f4449  __ 1.__FLT128_DI
 56d0 475f5f20 3333005f 5f494e54 385f4328  G__ 33.__INT8_C(
 56e0 63292063 005f5f73 63616e66 6c696b65  c) c.__scanflike
 56f0 28666d74 6172672c 66697273 74766172  (fmtarg,firstvar
 5700 61726729 205f5f61 74747269 62757465  arg) __attribute
 5710 5f5f2828 5f5f666f 726d6174 5f5f2028  __((__format__ (
 5720 5f5f7363 616e665f 5f2c2066 6d746172  __scanf__, fmtar
 5730 672c2066 69727374 76617261 72672929  g, firstvararg))
 5740 29005f5f 464c5433 325f4d41 585f5f20  ).__FLT32_MAX__ 
 5750 332e3430 32383233 34363633 38353238  3.40282346638528
 5760 38353938 31313730 34313833 34383435  8598117041834845
 5770 31363932 35652b33 38463332 00627370  16925e+38F32.bsp
 5780 5f707269 6e74665f 63006273 705f7072  _printf_c.bsp_pr
 5790 696e7466 5f64005f 454c4944 41424c45  intf_d._ELIDABLE
 57a0 5f494e4c 494e4520 73746174 6963205f  _INLINE static _
 57b0 5f696e6c 696e655f 5f005f5f 464c5436  _inline__.__FLT6
 57c0 34585f44 454e4f52 4d5f4d49 4e5f5f20  4X_DENORM_MIN__ 
 57d0 362e3437 35313735 31313934 33383032  6.47517511943802
 57e0 35313130 39323434 33383935 38323237  5110924438958227
 57f0 36343635 35652d34 39363646 36347800  64655e-4966F64x.
 5800 5f5f4442 4c5f4d49 4e5f4558 505f5f20  __DBL_MIN_EXP__ 
 5810 282d3130 32312900 5f5f5349 5a455f54  (-1021).__SIZE_T
 5820 20005f5f 70757265 205f5f61 74747269   .__pure __attri
 5830 62757465 5f5f2828 5f5f7075 72655f5f  bute__((__pure__
 5840 29290053 59535445 4d5f504c 49435f53  )).SYSTEM_PLIC_S
 5850 59535445 4d5f4932 435f315f 494f5f49  YSTEM_I2C_1_IO_I
 5860 4e544552 52555054 2039005f 73656564  NTERRUPT 9._seed
 5870 005f5f70 72696e74 66306c69 6b652866  .__printf0like(f
 5880 6d746172 672c6669 72737476 61726172  mtarg,firstvarar
 5890 67292000 4253505f 504c4943 5f435055  g) .BSP_PLIC_CPU
 58a0 5f302053 59535445 4d5f504c 49435f53  _0 SYSTEM_PLIC_S
 58b0 59535445 4d5f434f 5245535f 305f4558  YSTEM_CORES_0_EX
 58c0 5445524e 414c5f49 4e544552 52555054  TERNAL_INTERRUPT
 58d0 00424954 5f313120 2831203c 3c203131  .BIT_11 (1 << 11
 58e0 29006273 705f7072 696e7466 5f73005f  ).bsp_printf_s._
 58f0 5f464c54 33325f44 49475f5f 2036005f  _FLT32_DIG__ 6._
 5900 7365656b 005f5f53 5444435f 484f5354  seek.__STDC_HOST
 5910 45445f5f 20310062 73705f70 72696e74  ED__ 1.bsp_print
 5920 665f7800 474e5520 43313720 382e332e  f_x.GNU C17 8.3.
 5930 30202d6d 61726368 3d727633 32696d20  0 -march=rv32im 
 5940 2d6d6162 693d696c 70333220 2d673320  -mabi=ilp32 -g3 
 5950 2d4f6700 5f5f464c 54363458 5f444543  -Og.__FLT64X_DEC
 5960 494d414c 5f444947 5f5f2033 36005549  IMAL_DIG__ 36.UI
 5970 4e544d41 585f4328 7829205f 5f55494e  NTMAX_C(x) __UIN
 5980 544d4158 5f432878 29004249 545f3235  TMAX_C(x).BIT_25
 5990 20283120 3c3c2032 3529005f 5f455850   (1 << 25).__EXP
 59a0 005f6670 6f735f74 005f5f4c 44424c5f  ._fpos_t.__LDBL_
 59b0 4841535f 44454e4f 524d5f5f 2031005f  HAS_DENORM__ 1._
 59c0 5f776368 62005f5f 464c5433 32585f4d  _wchb.__FLT32X_M
 59d0 494e5f5f 20322e32 32353037 33383538  IN__ 2.225073858
 59e0 35303732 30313338 33303930 32333237  5072013830902327
 59f0 31373333 32343034 3036652d 33303846  1733240406e-308F
 5a00 33327800 5f5f4245 47494e5f 4445434c  32x.__BEGIN_DECL
 5a10 53200053 59535445 4d5f504c 49435f53  S .SYSTEM_PLIC_S
 5a20 59535445 4d5f5553 45525f54 494d4552  YSTEM_USER_TIMER
 5a30 5f305f49 4e544552 52555054 535f3020  _0_INTERRUPTS_0 
 5a40 3139005f 4743435f 57434841 525f5420  19._GCC_WCHAR_T 
 5a50 005f4d5f 4c4e3220 302e3639 33313437  ._M_LN2 0.693147
 5a60 31383035 35393934 35333039 34313700  180559945309417.
 5a70 5f5f494e 545f4c45 41535433 325f5459  __INT_LEAST32_TY
 5a80 50455f5f 206c6f6e 6720696e 74005f6d  PE__ long int._m
 5a90 62746f77 635f7374 61746500 4249545f  btowc_state.BIT_
 5aa0 32362028 31203c3c 20323629 005f5f55  26 (1 << 26).__U
 5ab0 494e545f 4c454153 5436345f 4d41585f  INT_LEAST64_MAX_
 5ac0 5f203078 66666666 66666666 66666666  _ 0xffffffffffff
 5ad0 66666666 554c4c00 5f5f464c 54313238  ffffULL.__FLT128
 5ae0 5f484153 5f494e46 494e4954 595f5f20  _HAS_INFINITY__ 
 5af0 31005f5f 55494e54 5f464153 5436345f  1.__UINT_FAST64_
 5b00 4d41585f 5f203078 66666666 66666666  MAX__ 0xffffffff
 5b10 66666666 66666666 554c4c00 5f5f4154  ffffffffULL.__AT
 5b20 4f4d4943 5f414351 55495245 2032005f  OMIC_ACQUIRE 2._
 5b30 5f544d50 5f464c54 5f455641 4c5f4d45  _TMP_FLT_EVAL_ME
 5b40 54484f44 20005f5f 494e545f 57494454  THOD .__INT_WIDT
 5b50 485f5f20 3332005f 5f4e4557 4c49425f  H__ 32.__NEWLIB_
 5b60 50415443 484c4556 454c5f5f 2030005f  PATCHLEVEL__ 0._
 5b70 5f425344 5f564953 49424c45 2031005f  _BSD_VISIBLE 1._
 5b80 5f464c54 36345f4d 41585f5f 20312e37  _FLT64_MAX__ 1.7
 5b90 39373639 33313334 38363233 31353730  9769313486231570
 5ba0 38313435 32373432 33373331 37303433  8145274237317043
 5bb0 3537652b 33303846 36340042 49545f31  57e+308F64.BIT_1
 5bc0 33202831 203c3c20 31332900 5f5f5349  3 (1 << 13).__SI
 5bd0 475f4154 4f4d4943 5f4d4158 5f5f2030  G_ATOMIC_MAX__ 0
 5be0 78376666 66666666 66004249 545f3139  x7fffffff.BIT_19
 5bf0 20283120 3c3c2031 3929005f 5f444f54   (1 << 19).__DOT
 5c00 53202c20 2e2e2e00 5f5f4445 4336345f  S , ....__DEC64_
 5c10 4d414e54 5f444947 5f5f2031 36005359  MANT_DIG__ 16.SY
 5c20 5354454d 5f554152 545f305f 494f5f50  STEM_UART_0_IO_P
 5c30 4152414d 45544552 5f554152 545f4354  ARAMETER_UART_CT
 5c40 524c5f43 4f4e4649 475f504f 53545f53  RL_CONFIG_POST_S
 5c50 414d504c 494e475f 53495a45 20320055  AMPLING_SIZE 2.U
 5c60 494e545f 4c454153 5436345f 4d415820  INT_LEAST64_MAX 
 5c70 285f5f55 494e545f 4c454153 5436345f  (__UINT_LEAST64_
 5c80 4d41585f 5f29005f 5f616c6c 6f635f73  MAX__).__alloc_s
 5c90 697a6528 7829205f 5f617474 72696275  ize(x) __attribu
 5ca0 74655f5f 28285f5f 616c6c6f 635f7369  te__((__alloc_si
 5cb0 7a655f5f 28782929 29005f5f 474e5543  ze__(x))).__GNUC
 5cc0 4c494b45 5f425549 4c54494e 5f434f4e  LIKE_BUILTIN_CON
 5cd0 5354414e 545f5020 31005f5f 53485254  STANT_P 1.__SHRT
 5ce0 5f4d4158 5f5f2030 78376666 66005f52  _MAX__ 0x7fff._R
 5cf0 45454e54 5f574353 52544f4d 42535f53  EENT_WCSRTOMBS_S
 5d00 54415445 28707472 29202828 70747229  TATE(ptr) ((ptr)
 5d10 2d3e5f6e 65772e5f 7265656e 742e5f77  ->_new._reent._w
 5d20 63737274 6f6d6273 5f737461 74652900  csrtombs_state).
 5d30 5f5f5054 52444946 465f5459 50455f5f  __PTRDIFF_TYPE__
 5d40 20696e74 00504c49 435f5045 4e44494e   int.PLIC_PENDIN
 5d50 475f4241 53452030 78313030 30005f5f  G_BASE 0x1000.__
 5d60 57494e54 5f4d4158 5f5f2030 78666666  WINT_MAX__ 0xfff
 5d70 66666666 66550055 4152545f 434c4f43  fffffU.UART_CLOC
 5d80 4b5f4449 56494445 52203078 3038005f  K_DIVIDER 0x08._
 5d90 5f474e55 5f564953 49424c45 2030005f  _GNU_VISIBLE 0._
 5da0 52414e44 34385f4d 554c545f 32202830  RAND48_MULT_2 (0
 5db0 78303030 35290053 59535445 4d5f5249  x0005).SYSTEM_RI
 5dc0 5343565f 4953415f 4558545f 43203000  SCV_ISA_EXT_C 0.
 5dd0 5f524545 4e545f57 43544f4d 425f5354  _REENT_WCTOMB_ST
 5de0 41544528 70747229 20282870 7472292d  ATE(ptr) ((ptr)-
 5df0 3e5f6e65 772e5f72 65656e74 2e5f7763  >_new._reent._wc
 5e00 746f6d62 5f737461 74652900 5f64736f  tomb_state)._dso
 5e10 5f68616e 646c6500 5f5f494e 545f4641  _handle.__INT_FA
 5e20 53543136 5f545950 455f5f20 696e7400  ST16_TYPE__ int.
 5e30 5f55494e 544d4158 5f545f44 45434c41  _UINTMAX_T_DECLA
 5e40 52454420 005f504f 5349585f 435f534f  RED ._POSIX_C_SO
 5e50 55524345 20323030 3830394c 005f7261  URCE 200809L._ra
 5e60 6e643438 005f5f55 494e545f 4c454153  nd48.__UINT_LEAS
 5e70 5431365f 54595045 5f5f2073 686f7274  T16_TYPE__ short
 5e80 20756e73 69676e65 6420696e 74005f49   unsigned int._I
 5e90 4e544d41 585f545f 4445434c 41524544  NTMAX_T_DECLARED
 5ea0 20005f54 5f53495a 4520005f 5f434841   ._T_SIZE .__CHA
 5eb0 5231365f 54595045 5f5f2073 686f7274  R16_TYPE__ short
 5ec0 20756e73 69676e65 6420696e 74005359   unsigned int.SY
 5ed0 5354454d 5f524953 43565f49 53415f52  STEM_RISCV_ISA_R
 5ee0 56333249 2031004d 4944454c 45475f53  V32I 1.MIDELEG_S
 5ef0 55504552 5649534f 525f5449 4d455220  UPERVISOR_TIMER 
 5f00 2831203c 3c203529 005f5f46 4c543332  (1 << 5).__FLT32
 5f10 585f4449 475f5f20 31350049 4e543634  X_DIG__ 15.INT64
 5f20 5f432878 29205f5f 494e5436 345f4328  _C(x) __INT64_C(
 5f30 78290053 59535445 4d5f5249 5343565f  x).SYSTEM_RISCV_
 5f40 4953415f 4558545f 41203000 5f524545  ISA_EXT_A 0._REE
 5f50 4e545f41 53435449 4d455f42 55462870  NT_ASCTIME_BUF(p
 5f60 74722920 28287074 72292d3e 5f6e6577  tr) ((ptr)->_new
 5f70 2e5f7265 656e742e 5f617363 74696d65  ._reent._asctime
 5f80 5f627566 29005f5f 68696464 656e205f  _buf).__hidden _
 5f90 5f617474 72696275 74655f5f 28285f5f  _attribute__((__
 5fa0 76697369 62696c69 74795f5f 28226869  visibility__("hi
 5fb0 6464656e 22292929 00535953 54454d5f  dden"))).SYSTEM_
 5fc0 52495343 565f4953 415f4558 545f4d20  RISCV_ISA_EXT_M 
 5fd0 31005f5f 46494e49 54455f4d 4154485f  1.__FINITE_MATH_
 5fe0 4f4e4c59 5f5f2030 005f5f49 4e545f46  ONLY__ 0.__INT_F
 5ff0 41535431 365f4d41 585f5f20 30783766  AST16_MAX__ 0x7f
 6000 66666666 6666005f 5f686176 655f6c6f  ffffff.__have_lo
 6010 6e676c6f 6e673634 20310045 4e41424c  nglong64 1.ENABL
 6020 455f5054 52444946 465f5355 50504f52  E_PTRDIFF_SUPPOR
 6030 54203000 53595354 454d5f55 4152545f  T 0.SYSTEM_UART_
 6040 305f494f 5f504152 414d4554 45525f49  0_IO_PARAMETER_I
 6050 4e49545f 434f4e46 49475f50 41524954  NIT_CONFIG_PARIT
 6060 59204e4f 4e450053 59535445 4d5f434c  Y NONE.SYSTEM_CL
 6070 494e545f 4354524c 20307866 38623030  INT_CTRL 0xf8b00
 6080 30303000 5f626c6b 73697a65 005f5f72  000._blksize.__r
 6090 69736376 5f786c65 6e203332 005f5245  iscv_xlen 32._RE
 60a0 454e545f 4d505f50 35532870 74722920  ENT_MP_P5S(ptr) 
 60b0 28287074 72292d3e 5f703573 29005f55  ((ptr)->_p5s)._U
 60c0 494e5450 54525f54 5f444543 4c415245  INTPTR_T_DECLARE
 60d0 4420004d 5f325f53 51525450 4920312e  D .M_2_SQRTPI 1.
 60e0 31323833 37393136 37303935 35313235  1283791670955125
 60f0 37333930 00535953 54454d5f 55415254  7390.SYSTEM_UART
 6100 5f415f41 50422053 59535445 4d5f5541  _A_APB SYSTEM_UA
 6110 52545f30 5f494f5f 41504200 5f626173  RT_0_IO_APB._bas
 6120 65005f5f 55494e54 5054525f 4d41585f  e.__UINTPTR_MAX_
 6130 5f203078 66666666 66666666 55006461  _ 0xffffffffU.da
 6140 74615f63 61636865 5f696e76 616c6964  ta_cache_invalid
 6150 6174655f 61646472 65737328 61646472  ate_address(addr
 6160 65737329 20287b20 61736d20 766f6c61  ess) ({ asm vola
 6170 74696c65 2820222e 776f7264 20282830  tile( ".word ((0
 6180 78353030 4629207c 20287265 676e756d  x500F) | (regnum
 6190 5f253020 3c3c2031 3529293b 22203a20  _%0 << 15));" : 
 61a0 3a202272 22202861 64647265 73732920  : "r" (address) 
 61b0 293b207d 29005f4d 4154485f 485f2000  ); })._MATH_H_ .
 61c0 53595354 454d5f55 4152545f 305f494f  SYSTEM_UART_0_IO
 61d0 5f504152 414d4554 45525f49 4e49545f  _PARAMETER_INIT_
 61e0 434f4e46 49475f42 41554452 41544520  CONFIG_BAUDRATE 
 61f0 31313532 3030004d 5f335049 5f342032  115200.M_3PI_4 2
 6200 2e333536 31393434 39303139 32333434  .356194490192344
 6210 38333730 4530005f 5f494545 455f4c49  8370E0.__IEEE_LI
 6220 54544c45 5f454e44 49414e20 00535953  TTLE_ENDIAN .SYS
 6230 54454d5f 55415254 5f305f49 4f5f5041  TEM_UART_0_IO_PA
 6240 52414d45 5445525f 494e4954 5f434f4e  RAMETER_INIT_CON
 6250 4649475f 44415441 5f4c454e 47544820  FIG_DATA_LENGTH 
 6260 37005f5f 43435f53 5550504f 5254535f  7.__CC_SUPPORTS_
 6270 56415241 4449435f 58585820 31005f52  VARADIC_XXX 1._R
 6280 45454e54 5f544d28 70747229 20282628  EENT_TM(ptr) (&(
 6290 70747229 2d3e5f6e 65772e5f 7265656e  ptr)->_new._reen
 62a0 742e5f6c 6f63616c 74696d65 5f627566  t._localtime_buf
 62b0 29005359 5354454d 5f554152 545f305f  ).SYSTEM_UART_0_
 62c0 494f5f50 4152414d 45544552 5f554152  IO_PARAMETER_UAR
 62d0 545f4354 524c5f43 4f4e4649 475f4441  T_CTRL_CONFIG_DA
 62e0 54415f57 49445448 5f4d4158 2038005f  TA_WIDTH_MAX 8._
 62f0 5f617267 5f747970 655f7461 67286172  _arg_type_tag(ar
 6300 675f6b69 6e642c61 72675f69 64782c74  g_kind,arg_idx,t
 6310 7970655f 7461675f 69647829 20004249  ype_tag_idx) .BI
 6320 545f3720 2831203c 3c203729 005f5f63  T_7 (1 << 7).__c
 6330 6f6e7461 696e6572 6f662878 2c732c6d  ontainerof(x,s,m
 6340 2920287b 20636f6e 73742076 6f6c6174  ) ({ const volat
 6350 696c6520 5f5f7479 70656f66 28282873  ile __typeof(((s
 6360 202a2930 292d3e6d 29202a5f 5f78203d   *)0)->m) *__x =
 6370 20287829 3b205f5f 44455155 414c4946   (x); __DEQUALIF
 6380 59287320 2a2c2028 636f6e73 7420766f  Y(s *, (const vo
 6390 6c617469 6c652063 68617220 2a295f5f  latile char *)__
 63a0 78202d20 5f5f6f66 66736574 6f662873  x - __offsetof(s
 63b0 2c206d29 293b7d29 005f5f6c 6f636b5f  , m));}).__lock_
 63c0 636c6f73 655f7265 63757273 69766528  close_recursive(
 63d0 6c6f636b 29202828 766f6964 29203029  lock) ((void) 0)
 63e0 005f4253 445f5349 5a455f54 5f20005f  ._BSD_SIZE_T_ ._
 63f0 5f696e74 32305f5f 202b3200 5f5f6e6f  _int20__ +2.__no
 6400 5f6c6f63 6b5f616e 616c7973 6973205f  _lock_analysis _
 6410 5f6c6f63 6b5f616e 6e6f7461 7465286e  _lock_annotate(n
 6420 6f5f7468 72656164 5f736166 6574795f  o_thread_safety_
 6430 616e616c 79736973 29004750 494f5f4f  analysis).GPIO_O
 6440 55545055 545f454e 41424c45 20307830  UTPUT_ENABLE 0x0
 6450 38005f66 6c6f636b 5f74005f 5245454e  8._flock_t._REEN
 6460 545f5354 44494f5f 53545245 414d2876  T_STDIO_STREAM(v
 6470 61722c69 6e646578 29202628 76617229  ar,index) &(var)
 6480 2d3e5f5f 73665b69 6e646578 5d005f5f  ->__sf[index].__
 6490 46494c45 00485547 455f5641 4c462028  FILE.HUGE_VALF (
 64a0 5f5f6275 696c7469 6e5f6875 67655f76  __builtin_huge_v
 64b0 616c6628 2929005f 42454749 4e5f5354  alf())._BEGIN_ST
 64c0 445f4320 005f5f76 615f636f 70792864  D_C .__va_copy(d
 64d0 2c732920 5f5f6275 696c7469 6e5f7661  ,s) __builtin_va
 64e0 5f636f70 7928642c 7329004d 53544154  _copy(d,s).MSTAT
 64f0 55535f4d 50502030 78303030 30313830  US_MPP 0x0000180
 6500 30005f43 4c4f434b 49445f54 5f20756e  0._CLOCKID_T_ un
 6510 7369676e 6564206c 6f6e6700 5f524545  signed long._REE
 6520 4e545f43 4845434b 5f544d28 70747229  NT_CHECK_TM(ptr)
 6530 20004d53 54415455 535f4850 49452030   .MSTATUS_HPIE 0
 6540 78303030 30303034 30005f6d 62737461  x00000040._mbsta
 6550 74655f74 005f5f49 4e545f57 43484152  te_t.__INT_WCHAR
 6560 5f545f48 20004750 494f5f49 4e544552  _T_H .GPIO_INTER
 6570 52555054 5f46414c 4c5f454e 41424c45  RUPT_FALL_ENABLE
 6580 20307832 34005359 5354454d 5f504c49   0x24.SYSTEM_PLI
 6590 435f5359 5354454d 5f475049 4f5f305f  C_SYSTEM_GPIO_0_
 65a0 494f5f49 4e544552 52555054 535f3020  IO_INTERRUPTS_0 
 65b0 3132005f 72343800 5f5f454c 465f5f20  12._r48.__ELF__ 
 65c0 31005f5f 474e5543 4c494b45 5f43544f  1.__GNUCLIKE_CTO
 65d0 525f5345 4354494f 4e5f4841 4e444c49  R_SECTION_HANDLI
 65e0 4e472031 00535953 54454d5f 55415254  NG 1.SYSTEM_UART
 65f0 5f305f49 4f5f5041 52414d45 5445525f  _0_IO_PARAMETER_
 6600 52585f46 49464f5f 44455054 48203132  RX_FIFO_DEPTH 12
 6610 38005f70 75746368 61720042 53505f43  8._putchar.BSP_C
 6620 4c494e54 5f485a20 53595354 454d5f43  LINT_HZ SYSTEM_C
 6630 4c494e54 5f485a00 504d505f 52203078  LINT_HZ.PMP_R 0x
 6640 30310047 50494f5f 494e5445 52525550  01.GPIO_INTERRUP
 6650 545f4c4f 575f454e 41424c45 20307832  T_LOW_ENABLE 0x2
 6660 63005f5f 44424c5f 4d494e5f 5f202828  c.__DBL_MIN__ ((
 6670 646f7562 6c652932 2e323235 30373338  double)2.2250738
 6680 35383530 37323031 33383330 39303233  5850720138309023
 6690 32373137 33333234 30343036 652d3330  271733240406e-30
 66a0 384c2900 5f5f464c 54363458 5f4d494e  8L).__FLT64X_MIN
 66b0 5f5f2033 2e333632 31303331 34333131  __ 3.36210314311
 66c0 32303933 35303632 36323637 37383137  2093506262677817
 66d0 33323137 35323630 652d3439 33324636  32175260e-4932F6
 66e0 3478005f 414e5349 5f535444 4152475f  4x._ANSI_STDARG_
 66f0 485f2000 706c6963 5f736574 5f746872  H_ .plic_set_thr
 6700 6573686f 6c640055 494e5436 345f4328  eshold.UINT64_C(
 6710 7829205f 5f55494e 5436345f 43287829  x) __UINT64_C(x)
 6720 005f5f6c 6f636b5f 696e6974 286c6f63  .__lock_init(loc
 6730 6b292028 28766f69 64292030 29005f64  k) ((void) 0)._d
 6740 61746100 4249545f 30202831 203c3c20  ata.BIT_0 (1 << 
 6750 3029005f 5f474e55 435f4d49 4e4f525f  0).__GNUC_MINOR_
 6760 5f203300 5f5f6c6f 636b5f72 656c6561  _ 3.__lock_relea
 6770 73655f72 65637572 73697665 286c6f63  se_recursive(loc
 6780 6b292028 28766f69 64292030 29005f5f  k) ((void) 0).__
 6790 55494e54 5f4c4541 53543332 5f545950  UINT_LEAST32_TYP
 67a0 455f5f20 6c6f6e67 20756e73 69676e65  E__ long unsigne
 67b0 6420696e 74005f5f 4c44424c 5f4d494e  d int.__LDBL_MIN
 67c0 5f31305f 4558505f 5f20282d 34393331  _10_EXP__ (-4931
 67d0 2900504c 49435f43 4f4e5445 58545f50  ).PLIC_CONTEXT_P
 67e0 45525f48 41525420 30783130 3030005f  ER_HART 0x1000._
 67f0 5f726571 75697265 735f6578 636c7573  _requires_exclus
 6800 69766528 2e2e2e29 205f5f6c 6f636b5f  ive(...) __lock_
 6810 616e6e6f 74617465 28657863 6c757369  annotate(exclusi
 6820 76655f6c 6f636b73 5f726571 75697265  ve_locks_require
 6830 64285f5f 56415f41 5247535f 5f292900  d(__VA_ARGS__)).
 6840 5f52414e 4434385f 4d554c54 5f312028  _RAND48_MULT_1 (
 6850 30786465 65632900 5f5f494e 544d4158  0xdeec).__INTMAX
 6860 5f545950 455f5f20 6c6f6e67 206c6f6e  _TYPE__ long lon
 6870 6720696e 74005f5f 4743435f 41544f4d  g int.__GCC_ATOM
 6880 49435f49 4e545f4c 4f434b5f 46524545  IC_INT_LOCK_FREE
 6890 20310073 686f7274 00535953 54454d5f   1.short.SYSTEM_
 68a0 434f5245 535f305f 46505520 30005f5f  CORES_0_FPU 0.__
 68b0 464c5433 32585f45 5053494c 4f4e5f5f  FLT32X_EPSILON__
 68c0 20322e32 32303434 36303439 32353033   2.2204460492503
 68d0 31333038 30383437 32363333 33363138  1308084726333618
 68e0 31363430 3632652d 31364633 3278005f  164062e-16F32x._
 68f0 4743435f 4d41585f 414c4947 4e5f5420  GCC_MAX_ALIGN_T 
 6900 00425350 5f554152 545f5445 524d494e  .BSP_UART_TERMIN
 6910 414c2053 59535445 4d5f5541 52545f30  AL SYSTEM_UART_0
 6920 5f494f5f 4354524c 005f5354 52494e47  _IO_CTRL._STRING
 6930 535f485f 20005f53 495a4554 5f20005f  S_H_ ._SIZET_ ._
 6940 5354444c 49425f48 5f20005f 5f44424c  STDLIB_H_ .__DBL
 6950 5f484153 5f515549 45545f4e 414e5f5f  _HAS_QUIET_NAN__
 6960 20310069 736c6573 73285f5f 782c5f5f   1.isless(__x,__
 6970 79292028 5f5f6275 696c7469 6e5f6973  y) (__builtin_is
 6980 6c657373 20285f5f 782c205f 5f792929  less (__x, __y))
 6990 00494e54 33325f43 28782920 5f5f494e  .INT32_C(x) __IN
 69a0 5433325f 43287829 00535953 54454d5f  T32_C(x).SYSTEM_
 69b0 4750494f 5f415f41 50422053 59535445  GPIO_A_APB SYSTE
 69c0 4d5f4750 494f5f30 5f494f5f 41504200  M_GPIO_0_IO_APB.
 69d0 5f4e4f49 4e4c494e 455f5354 41544943  _NOINLINE_STATIC
 69e0 205f4e4f 494e4c49 4e452073 74617469   _NOINLINE stati
 69f0 63004650 5f4e4f52 4d414c20 34005f5f  c.FP_NORMAL 4.__
 6a00 636f6e73 7420636f 6e737400 55494e54  const const.UINT
 6a10 5f4c4541 53543332 5f4d4158 20285f5f  _LEAST32_MAX (__
 6a20 55494e54 5f4c4541 53543332 5f4d4158  UINT_LEAST32_MAX
 6a30 5f5f2900 5f5f434f 50595249 47485428  __).__COPYRIGHT(
 6a40 73292073 74727563 74205f5f 6861636b  s) struct __hack
 6a50 005f5245 454e545f 43484543 4b5f454d  ._REENT_CHECK_EM
 6a60 45524745 4e435928 70747229 20005f5f  ERGENCY(ptr) .__
 6a70 464c5431 32385f44 454e4f52 4d5f4d49  FLT128_DENORM_MI
 6a80 4e5f5f20 362e3437 35313735 31313934  N__ 6.4751751194
 6a90 33383032 35313130 39323434 33383935  3802511092443895
 6aa0 38323237 36343635 35652d34 39363646  822764655e-4966F
 6ab0 31323800 63726173 68006368 6172202b  128.crash.char +
 6ac0 30005549 4e545f46 41535433 325f4d41  0.UINT_FAST32_MA
 6ad0 5820285f 5f55494e 545f4641 53543332  X (__UINT_FAST32
 6ae0 5f4d4158 5f5f2900 6373725f 73776170  _MAX__).csr_swap
 6af0 28637372 2c76616c 2920287b 20756e73  (csr,val) ({ uns
 6b00 69676e65 64206c6f 6e67205f 5f76203d  igned long __v =
 6b10 2028756e 7369676e 6564206c 6f6e6729   (unsigned long)
 6b20 2876616c 293b205f 5f61736d 5f5f205f  (val); __asm__ _
 6b30 5f766f6c 6174696c 655f5f20 28226373  _volatile__ ("cs
 6b40 72727720 25302c20 22202363 73722022  rrw %0, " #csr "
 6b50 2c202531 22203a20 223d7222 20285f5f  , %1" : "=r" (__
 6b60 7629203a 2022724b 2220285f 5f762929  v) : "rK" (__v))
 6b70 3b205f5f 763b207d 29005f5f 55494e54  ; __v; }).__UINT
 6b80 5054525f 54595045 5f5f2075 6e736967  PTR_TYPE__ unsig
 6b90 6e656420 696e7400 5f5f5245 47495354  ned int.__REGIST
 6ba0 45525f50 52454649 585f5f20 005f5f44  ER_PREFIX__ .__D
 6bb0 45433132 385f5355 424e4f52 4d414c5f  EC128_SUBNORMAL_
 6bc0 4d494e5f 5f20302e 30303030 30303030  MIN__ 0.00000000
 6bd0 30303030 30303030 30303030 30303030  0000000000000000
 6be0 30303030 30303030 31452d36 31343344  000000001E-6143D
 6bf0 4c005f5f 44424c5f 4449475f 5f203135  L.__DBL_DIG__ 15
 6c00 005f5549 4e543136 5f545f44 45434c41  ._UINT16_T_DECLA
 6c10 52454420 005f5f52 43534944 28732920  RED .__RCSID(s) 
 6c20 73747275 6374205f 5f686163 6b005f5f  struct __hack.__
 6c30 53495a45 4f465f53 495a455f 545f5f20  SIZEOF_SIZE_T__ 
 6c40 34005244 54494d45 20307843 30310066  4.RDTIME 0xC01.f
 6c50 6f726d61 74005f5f 55494e54 36345f54  ormat.__UINT64_T
 6c60 5950455f 5f206c6f 6e67206c 6f6e6720  YPE__ long long 
 6c70 756e7369 676e6564 20696e74 005f5f46  unsigned int.__F
 6c80 4c543634 5f455053 494c4f4e 5f5f2032  LT64_EPSILON__ 2
 6c90 2e323230 34343630 34393235 30333133  .220446049250313
 6ca0 30383038 34373236 33333336 31383136  0808472633361816
 6cb0 34303632 652d3136 46363400 53595354  4062e-16F64.SYST
 6cc0 454d5f42 4d425f50 45524950 48455241  EM_BMB_PERIPHERA
 6cd0 4c5f424d 425f5349 5a452030 78313030  L_BMB_SIZE 0x100
 6ce0 30303030 005f5f45 4e445f44 45434c53  0000.__END_DECLS
 6cf0 20005f5f 64617461 74797065 5f747970   .__datatype_typ
 6d00 655f7461 67286b69 6e642c74 79706529  e_tag(kind,type)
 6d10 20005359 5354454d 5f554152 545f305f   .SYSTEM_UART_0_
 6d20 494f5f43 54524c5f 53495a45 20307834  IO_CTRL_SIZE 0x4
 6d30 30005f5f 616c6967 6e656428 7829205f  0.__aligned(x) _
 6d40 5f617474 72696275 74655f5f 28285f5f  _attribute__((__
 6d50 616c6967 6e65645f 5f287829 29290075  aligned__(x))).u
 6d60 6e736967 6e656400 5f6d626c 656e5f73  nsigned._mblen_s
 6d70 74617465 00627370 5f707269 6e744865  tate.bsp_printHe
 6d80 78005541 52545f53 54415455 53203078  x.UART_STATUS 0x
 6d90 3034004d 53544154 55535f55 50494520  04.MSTATUS_UPIE 
 6da0 30783030 30303030 3130005f 53545249  0x00000010._STRI
 6db0 4e475f48 5f20005f 5f70745f 67756172  NG_H_ .__pt_guar
 6dc0 6465645f 62792878 29205f5f 6c6f636b  ded_by(x) __lock
 6dd0 5f616e6e 6f746174 65287074 5f677561  _annotate(pt_gua
 6de0 72646564 5f627928 78292900 5f5f6775  rded_by(x)).__gu
 6df0 61726465 645f6279 28782920 5f5f6c6f  arded_by(x) __lo
 6e00 636b5f61 6e6e6f74 61746528 67756172  ck_annotate(guar
 6e10 6465645f 62792878 29290076 615f6172  ded_by(x)).va_ar
 6e20 6728762c 6c29205f 5f627569 6c74696e  g(v,l) __builtin
 6e30 5f76615f 61726728 762c6c29 005f5359  _va_arg(v,l)._SY
 6e40 535f5349 5a455f54 5f482000 5f5f5549  S_SIZE_T_H .__UI
 6e50 4e543136 5f432863 29206300 5f5f464c  NT16_C(c) c.__FL
 6e60 5436345f 4d494e5f 4558505f 5f20282d  T64_MIN_EXP__ (-
 6e70 31303231 29005f5f 53495a45 4f465f50  1021).__SIZEOF_P
 6e80 54524449 46465f54 5f5f2034 005f5f43  TRDIFF_T__ 4.__C
 6e90 435f5355 50504f52 54535f5f 5f494e4c  C_SUPPORTS___INL
 6ea0 494e455f 5f203100 5f5f4c45 41535431  INE__ 1.__LEAST1
 6eb0 36202268 22005f5f 7072696e 74666c69  6 "h".__printfli
 6ec0 6b652866 6d746172 672c6669 72737476  ke(fmtarg,firstv
 6ed0 61726172 6729205f 5f617474 72696275  ararg) __attribu
 6ee0 74655f5f 28285f5f 666f726d 61745f5f  te__((__format__
 6ef0 20285f5f 7072696e 74665f5f 2c20666d   (__printf__, fm
 6f00 74617267 2c206669 72737476 61726172  targ, firstvarar
 6f10 67292929 00494e54 5054525f 4d415820  g))).INTPTR_MAX 
 6f20 285f5f49 4e545054 525f4d41 585f5f29  (__INTPTR_MAX__)
 6f30 005f5f66 61737463 616c6c20 5f5f6174  .__fastcall __at
 6f40 74726962 7574655f 5f28285f 5f666173  tribute__((__fas
 6f50 7463616c 6c5f5f29 2900494e 5436345f  tcall__)).INT64_
 6f60 4d494e20 282d5f5f 494e5436 345f4d41  MIN (-__INT64_MA
 6f70 585f5f20 2d203129 005f5f46 4c543634  X__ - 1).__FLT64
 6f80 585f4d41 585f4558 505f5f20 31363338  X_MAX_EXP__ 1638
 6f90 34005f52 45454e54 5f534947 4e414c5f  4._REENT_SIGNAL_
 6fa0 42554628 70747229 20282870 7472292d  BUF(ptr) ((ptr)-
 6fb0 3e5f6e65 772e5f72 65656e74 2e5f7369  >_new._reent._si
 6fc0 676e616c 5f627566 29005f5f 41544f4d  gnal_buf).__ATOM
 6fd0 49435f52 454c4158 45442030 005f4154  IC_RELAXED 0._AT
 6fe0 54524942 55544528 61747472 7329205f  TRIBUTE(attrs) _
 6ff0 5f617474 72696275 74655f5f 20286174  _attribute__ (at
 7000 74727329 005f5f72 65717569 7265735f  trs).__requires_
 7010 73686172 6564282e 2e2e2920 5f5f6c6f  shared(...) __lo
 7020 636b5f61 6e6e6f74 61746528 73686172  ck_annotate(shar
 7030 65645f6c 6f636b73 5f726571 75697265  ed_locks_require
 7040 64285f5f 56415f41 5247535f 5f292900  d(__VA_ARGS__)).
 7050 5f4b6d61 78202873 697a656f 66202873  _Kmax (sizeof (s
 7060 697a655f 7429203c 3c203329 005f5f44  ize_t) << 3).__D
 7070 424c5f48 41535f49 4e46494e 4954595f  BL_HAS_INFINITY_
 7080 5f203100 504d505f 4e413420 30783130  _ 1.PMP_NA4 0x10
 7090 0055494e 545f4641 53543634 5f4d4158  .UINT_FAST64_MAX
 70a0 20285f5f 55494e54 5f464153 5436345f   (__UINT_FAST64_
 70b0 4d41585f 5f290055 494e5436 345f4d41  MAX__).UINT64_MA
 70c0 5820285f 5f55494e 5436345f 4d41585f  X (__UINT64_MAX_
 70d0 5f290055 494e545f 4c454153 54385f4d  _).UINT_LEAST8_M
 70e0 41582028 5f5f5549 4e545f4c 45415354  AX (__UINT_LEAST
 70f0 385f4d41 585f5f29 00424954 5f362028  8_MAX__).BIT_6 (
 7100 31203c3c 20362900 5f5f7261 6e67656f  1 << 6).__rangeo
 7110 66287479 70652c73 74617274 2c656e64  f(type,start,end
 7120 2920285f 5f6f6666 7365746f 66287479  ) (__offsetof(ty
 7130 70652c20 656e6429 202d205f 5f6f6666  pe, end) - __off
 7140 7365746f 66287479 70652c20 73746172  setof(type, star
 7150 74292900 7375626f 70746172 67005f5f  t)).suboptarg.__
 7160 474e5543 4c494b45 5f5f5f4f 46465345  GNUCLIKE___OFFSE
 7170 544f4620 31006973 67726561 74657265  TOF 1.isgreatere
 7180 7175616c 285f5f78 2c5f5f79 2920285f  qual(__x,__y) (_
 7190 5f627569 6c74696e 5f697367 72656174  _builtin_isgreat
 71a0 65726571 75616c20 285f5f78 2c205f5f  erequal (__x, __
 71b0 79292900 5f5f5349 5a454f46 5f464c4f  y)).__SIZEOF_FLO
 71c0 41545f5f 20340055 494e5438 5f432878  AT__ 4.UINT8_C(x
 71d0 29205f5f 55494e54 385f4328 7829005f  ) __UINT8_C(x)._
 71e0 5f444543 36345f4d 494e5f5f 2031452d  _DEC64_MIN__ 1E-
 71f0 33383344 44005244 494e5354 52455448  383DD.RDINSTRETH
 7200 20307843 38320067 70696f5f 7365744f   0xC82.gpio_setO
 7210 75747075 74005f6d 61787764 73005f5f  utput._maxwds.__
 7220 68617665 5f6c6f6e 67333220 31005f47  have_long32 1._G
 7230 4c4f4241 4c5f5245 454e5420 5f676c6f  LOBAL_REENT _glo
 7240 62616c5f 696d7075 72655f70 7472005f  bal_impure_ptr._
 7250 4e554c4c 2030005f 5f666c65 78617272  NULL 0.__flexarr
 7260 205b305d 006d6361 75736500 5f5f746d   [0].mcause.__tm
 7270 5f796561 72005f52 4541445f 57524954  _year._READ_WRIT
 7280 455f5245 5455524e 5f545950 45205f73  E_RETURN_TYPE _s
 7290 73697a65 5f74005f 5f494e54 31365f4d  size_t.__INT16_M
 72a0 41585f5f 20307837 66666600 5f5f7269  AX__ 0x7fff.__ri
 72b0 7363765f 6d756c20 31005359 5354454d  scv_mul 1.SYSTEM
 72c0 5f493243 5f305f49 4f5f4354 524c5f53  _I2C_0_IO_CTRL_S
 72d0 495a4520 30783130 30005f5f 4445564f  IZE 0x100.__DEVO
 72e0 4c415449 4c452874 7970652c 76617229  LATILE(type,var)
 72f0 20282874 79706529 285f5f75 696e7470   ((type)(__uintp
 7300 74725f74 2928766f 6c617469 6c652076  tr_t)(volatile v
 7310 6f696420 2a292876 61722929 005f5f57  oid *)(var)).__W
 7320 43484152 5f545f5f 20005f5f 5353505f  CHAR_T__ .__SSP_
 7330 464f5254 4946595f 4c455645 4c203000  FORTIFY_LEVEL 0.
 7340 5f5f474e 55434c49 4b455f42 55494c54  __GNUCLIKE_BUILT
 7350 494e5f53 54444152 47203100 5f5f5349  IN_STDARG 1.__SI
 7360 5a455f54 5f5f2000 5f5f5853 495f5649  ZE_T__ .__XSI_VI
 7370 5349424c 45203000 5f726573 756c745f  SIBLE 0._result_
 7380 6b005f5f 464c5431 32385f4d 414e545f  k.__FLT128_MANT_
 7390 4449475f 5f203131 33005f5f 73747266  DIG__ 113.__strf
 73a0 6d6f6e6c 696b6528 666d7461 72672c66  monlike(fmtarg,f
 73b0 69727374 76617261 72672920 5f5f6174  irstvararg) __at
 73c0 74726962 7574655f 5f28285f 5f666f72  tribute__((__for
 73d0 6d61745f 5f20285f 5f737472 666d6f6e  mat__ (__strfmon
 73e0 5f5f2c20 666d7461 72672c20 66697273  __, fmtarg, firs
 73f0 74766172 61726729 2929004d 5f49564c  tvararg))).M_IVL
 7400 4e313020 302e3433 34323934 34383139  N10 0.4342944819
 7410 30333235 31383237 3635005f 5f464153  0325182765.__FAS
 7420 54333220 005f5f53 49475f41 544f4d49  T32 .__SIG_ATOMI
 7430 435f5749 4454485f 5f203332 005f5f47  C_WIDTH__ 32.__G
 7440 4e55435f 50524552 45515f5f 286d612c  NUC_PREREQ__(ma,
 7450 6d692920 5f5f474e 55435f50 52455245  mi) __GNUC_PRERE
 7460 51286d61 2c206d69 29005f5f 6578706f  Q(ma, mi).__expo
 7470 72746564 205f5f61 74747269 62757465  rted __attribute
 7480 5f5f2828 5f5f7669 73696269 6c697479  __((__visibility
 7490 5f5f2822 64656661 756c7422 29292900  __("default"))).
 74a0 5f5f7075 72653220 5f5f6174 74726962  __pure2 __attrib
 74b0 7574655f 5f28285f 5f636f6e 73745f5f  ute__((__const__
 74c0 2929005f 5f464253 44494428 73292073  )).__FBSDID(s) s
 74d0 74727563 74205f5f 6861636b 0076615f  truct __hack.va_
 74e0 656e6428 7629205f 5f627569 6c74696e  end(v) __builtin
 74f0 5f76615f 656e6428 7629005f 5f756e72  _va_end(v).__unr
 7500 65616368 61626c65 2829205f 5f627569  eachable() __bui
 7510 6c74696e 5f756e72 65616368 61626c65  ltin_unreachable
 7520 2829005f 6c626673 697a6500 53595354  ()._lbfsize.SYST
 7530 454d5f49 32435f31 5f494f5f 4354524c  EM_I2C_1_IO_CTRL
 7540 20307866 38303138 30303000 5f5f4c4f   0xf8018000.__LO
 7550 434b5f49 4e49545f 52454355 52534956  CK_INIT_RECURSIV
 7560 4528636c 6173732c 6c6f636b 29207374  E(class,lock) st
 7570 61746963 20696e74 206c6f63 6b203d20  atic int lock = 
 7580 303b005f 5f53495a 454f465f 57494e54  0;.__SIZEOF_WINT
 7590 5f545f5f 2034005f 696e6400 5f554e42  _T__ 4._ind._UNB
 75a0 55465f53 54524541 4d5f4f50 54203100  UF_STREAM_OPT 1.
 75b0 67617465 77617900 5f5f6c6f 636b735f  gateway.__locks_
 75c0 73686172 6564282e 2e2e2920 5f5f6c6f  shared(...) __lo
 75d0 636b5f61 6e6e6f74 61746528 73686172  ck_annotate(shar
 75e0 65645f6c 6f636b5f 66756e63 74696f6e  ed_lock_function
 75f0 285f5f56 415f4152 47535f5f 2929005f  (__VA_ARGS__))._
 7600 5f474e55 434c494b 455f4153 4d203300  _GNUCLIKE_ASM 3.
 7610 4750494f 30205359 5354454d 5f475049  GPIO0 SYSTEM_GPI
 7620 4f5f305f 494f5f43 54524c00 5f5f494e  O_0_IO_CTRL.__IN
 7630 545f4641 5354385f 4d41585f 5f203078  T_FAST8_MAX__ 0x
 7640 37666666 66666666 005f5f46 4c543332  7fffffff.__FLT32
 7650 5f484153 5f44454e 4f524d5f 5f203100  _HAS_DENORM__ 1.
 7660 4d415846 4c4f4154 20332e34 30323832  MAXFLOAT 3.40282
 7670 33343765 2b333846 0046505f 494c4f47  347e+38F.FP_ILOG
 7680 42302028 2d5f5f49 4e545f4d 41585f5f  B0 (-__INT_MAX__
 7690 29005f5f 46415354 3820005f 5245454e  ).__FAST8 ._REEN
 76a0 545f5349 474e4741 4d287074 72292028  T_SIGNGAM(ptr) (
 76b0 28707472 292d3e5f 6e65772e 5f726565  (ptr)->_new._ree
 76c0 6e742e5f 67616d6d 615f7369 676e6761  nt._gamma_signga
 76d0 6d29005f 4d414348 494e455f 5f545950  m)._MACHINE__TYP
 76e0 45535f48 20005f5f 494e545f 46415354  ES_H .__INT_FAST
 76f0 33325f57 49445448 5f5f2033 32005f4e  32_WIDTH__ 32._N
 7700 45574c49 425f5645 5253494f 4e202233  EWLIB_VERSION "3
 7710 2e312e30 22005f52 414e4434 385f4d55  .1.0"._RAND48_MU
 7720 4c545f30 20283078 65363664 29005f69  LT_0 (0xe66d)._i
 7730 735f6378 61005f5f 474e5543 4c494b45  s_cxa.__GNUCLIKE
 7740 5f425549 4c54494e 5f564141 4c495354  _BUILTIN_VAALIST
 7750 2031005f 5f53495a 454f465f 4c4f4e47   1.__SIZEOF_LONG
 7760 5f444f55 424c455f 5f203136 004d4945  _DOUBLE__ 16.MIE
 7770 5f4d5449 45202831 203c3c20 43415553  _MTIE (1 << CAUS
 7780 455f4d41 4348494e 455f5449 4d455229  E_MACHINE_TIMER)
 7790 005f6e65 78746600 5f5f494e 54333220  ._nextf.__INT32 
 77a0 226c2200 5f5f6c6f 636b5f61 6e6e6f74  "l".__lock_annot
 77b0 61746528 78292000 5244494e 53545245  ate(x) .RDINSTRE
 77c0 54203078 43303200 73747274 6f646620  T 0xC02.strtodf 
 77d0 73747274 6f66005f 5f464c54 3132385f  strtof.__FLT128_
 77e0 4d41585f 5f20312e 31383937 33313439  MAX__ 1.18973149
 77f0 35333537 32333137 36353038 35373539  5357231765085759
 7800 33323636 32383030 37303265 2b343933  32662800702e+493
 7810 32463132 38005f5f 55494e54 33325f54  2F128.__UINT32_T
 7820 5950455f 5f206c6f 6e672075 6e736967  YPE__ long unsig
 7830 6e656420 696e7400 5f5f474e 55434c49  ned int.__GNUCLI
 7840 4b455f4d 4154485f 4255494c 54494e5f  KE_MATH_BUILTIN_
 7850 434f4e53 54414e54 53200045 4e41424c  CONSTANTS .ENABL
 7860 455f5052 494e5446 5f574152 4e494e47  E_PRINTF_WARNING
 7870 20310045 4e41424c 455f4c4f 4e475f4c   1.ENABLE_LONG_L
 7880 4f4e475f 53555050 4f525420 30005f44  ONG_SUPPORT 0._D
 7890 45464155 4c545f53 4f555243 45005f5f  EFAULT_SOURCE.__
 78a0 464c5431 32385f48 41535f44 454e4f52  FLT128_HAS_DENOR
 78b0 4d5f5f20 31005f5f 56455253 494f4e5f  M__ 1.__VERSION_
 78c0 5f202238 2e332e30 22005f5f 43435f53  _ "8.3.0".__CC_S
 78d0 5550504f 5254535f 5741524e 494e4720  UPPORTS_WARNING 
 78e0 3100706c 6963005f 5f554c6f 6e67005f  1.plic.__ULong._
 78f0 5f617373 65727473 5f736861 72656428  _asserts_shared(
 7900 2e2e2e29 205f5f6c 6f636b5f 616e6e6f  ...) __lock_anno
 7910 74617465 28617373 6572745f 73686172  tate(assert_shar
 7920 65645f6c 6f636b28 5f5f5641 5f415247  ed_lock(__VA_ARG
 7930 535f5f29 29005f52 45454e54 5f434845  S__))._REENT_CHE
 7940 434b5f52 414e4434 38287074 72292000  CK_RAND48(ptr) .
 7950 5f494e54 385f545f 4445434c 41524544  _INT8_T_DECLARED
 7960 20005f5f 6c6f636b 5f72656c 65617365   .__lock_release
 7970 286c6f63 6b292028 28766f69 64292030  (lock) ((void) 0
 7980 29005f5f 53495a45 4f465f49 4e545f5f  ).__SIZEOF_INT__
 7990 2034005f 4253445f 57434841 525f545f   4._BSD_WCHAR_T_
 79a0 0055494e 5431365f 43287829 205f5f55  .UINT16_C(x) __U
 79b0 494e5431 365f4328 78290053 59535445  INT16_C(x).SYSTE
 79c0 4d5f5249 5343565f 4953415f 4558545f  M_RISCV_ISA_EXT_
 79d0 44203000 5f5f6c6f 636b5f61 63717569  D 0.__lock_acqui
 79e0 7265286c 6f636b29 20282876 6f696429  re(lock) ((void)
 79f0 20302900 6273705f 70757443 68617228   0).bsp_putChar(
 7a00 63292075 6172745f 77726974 65284253  c) uart_write(BS
 7a10 505f5541 52545f54 45524d49 4e414c2c  P_UART_TERMINAL,
 7a20 2063293b 005f5359 535f5f49 4e545355   c);._SYS__INTSU
 7a30 505f4820 00726561 645f7533 32004d53  P_H .read_u32.MS
 7a40 54415455 5336345f 53442030 78383030  TATUS64_SD 0x800
 7a50 30303030 30303030 30303030 30005f5f  0000000000000.__
 7a60 474e5543 4c494b45 5f425549 4c54494e  GNUCLIKE_BUILTIN
 7a70 5f4d454d 43505920 31004d5f 50495f32  _MEMCPY 1.M_PI_2
 7a80 20312e35 37303739 36333236 37393438   1.5707963267948
 7a90 39363631 39323300 5f726573 756c7400  9661923._result.
 7aa0 494e545f 46415354 36345f4d 41582028  INT_FAST64_MAX (
 7ab0 5f5f494e 545f4641 53543634 5f4d4158  __INT_FAST64_MAX
 7ac0 5f5f2900 5f5f6c6f 636b6162 6c65205f  __).__lockable _
 7ad0 5f6c6f63 6b5f616e 6e6f7461 7465286c  _lock_annotate(l
 7ae0 6f636b61 626c6529 005f504f 5349585f  ockable)._POSIX_
 7af0 534f5552 43452031 005f5f4c 44424c5f  SOURCE 1.__LDBL_
 7b00 4d494e5f 5f20332e 33363231 30333134  MIN__ 3.36210314
 7b10 33313132 30393335 30363236 32363737  3112093506262677
 7b20 38313733 32313735 32363065 2d343933  81732175260e-493
 7b30 324c005f 5f55494e 545f4641 53543136  2L.__UINT_FAST16
 7b40 5f545950 455f5f20 756e7369 676e6564  _TYPE__ unsigned
 7b50 20696e74 00696e74 65727275 7074005f   int.interrupt._
 7b60 5f6e6565 645f7769 6e745f74 20005359  _need_wint_t .SY
 7b70 5354454d 5f554152 545f305f 494f5f50  STEM_UART_0_IO_P
 7b80 4152414d 45544552 5f554152 545f4354  ARAMETER_UART_CT
 7b90 524c5f43 4f4e4649 475f434c 4f434b5f  RL_CONFIG_CLOCK_
 7ba0 44495649 4445525f 57494454 48203230  DIVIDER_WIDTH 20
 7bb0 005f5f53 495a455f 57494454 485f5f20  .__SIZE_WIDTH__ 
 7bc0 33320046 4c545f45 56414c5f 4d455448  32.FLT_EVAL_METH
 7bd0 4f44205f 5f464c54 5f455641 4c5f4d45  OD __FLT_EVAL_ME
 7be0 54484f44 5f5f005f 5359535f 53545249  THOD__._SYS_STRI
 7bf0 4e475f48 20005f5f 57494e54 5f4d494e  NG_H .__WINT_MIN
 7c00 5f5f2030 55005f6f 66665f74 005f5f46  __ 0U._off_t.__F
 7c10 4c543634 5f444947 5f5f2031 35005f49  LT64_DIG__ 15._I
 7c20 4e543332 5f45515f 4c4f4e47 20005f5f  NT32_EQ_LONG .__
 7c30 464c545f 4d494e5f 5f20312e 31373534  FLT_MIN__ 1.1754
 7c40 39343335 30383232 32383735 30373936  9435082228750796
 7c50 38373336 35333732 32323234 35363865  873653722224568e
 7c60 2d333846 005f5f43 435f5355 50504f52  -38F.__CC_SUPPOR
 7c70 54535f5f 5f46554e 435f5f20 31005f5f  TS___FUNC__ 1.__
 7c80 494e545f 4c454153 54385f57 49445448  INT_LEAST8_WIDTH
 7c90 5f5f2038 00535953 54454d5f 4932435f  __ 8.SYSTEM_I2C_
 7ca0 305f494f 5f435452 4c203078 66383031  0_IO_CTRL 0xf801
 7cb0 37303030 005f5f6c 6f6e675f 646f7562  7000.__long_doub
 7cc0 6c655f74 206c6f6e 6720646f 75626c65  le_t long double
 7cd0 005f5f49 4e545f4c 45415354 31365f54  .__INT_LEAST16_T
 7ce0 5950455f 5f207368 6f727420 696e7400  YPE__ short int.
 7cf0 5f616464 00535953 54454d5f 434c494e  _add.SYSTEM_CLIN
 7d00 545f485a 20323530 30303030 30005f5f  T_HZ 25000000.__
 7d10 58535452 494e4728 7829205f 5f535452  XSTRING(x) __STR
 7d20 494e4728 7829005f 5f444543 4f4e5354  ING(x).__DECONST
 7d30 28747970 652c7661 72292028 28747970  (type,var) ((typ
 7d40 6529285f 5f75696e 74707472 5f742928  e)(__uintptr_t)(
 7d50 636f6e73 7420766f 6964202a 29287661  const void *)(va
 7d60 72292900 43415553 455f4d41 4348494e  r)).CAUSE_MACHIN
 7d70 455f5449 4d455220 3700666c 6f617400  E_TIMER 7.float.
 7d80 4d535441 5455535f 54572030 78303032  MSTATUS_TW 0x002
 7d90 30303030 30005f5f 746d5f68 6f757200  00000.__tm_hour.
 7da0 5f524545 4e545f47 45544441 54455f45  _REENT_GETDATE_E
 7db0 52525f50 28707472 29202826 28287074  RR_P(ptr) (&((pt
 7dc0 72292d3e 5f6e6577 2e5f7265 656e742e  r)->_new._reent.
 7dd0 5f676574 64617465 5f657272 2929005f  _getdate_err))._
 7de0 5f734649 4c45005f 5f464c54 36345f4d  _sFILE.__FLT64_M
 7df0 414e545f 4449475f 5f203533 005f5f4c  ANT_DIG__ 53.__L
 7e00 44424c5f 4d494e5f 4558505f 5f20282d  DBL_MIN_EXP__ (-
 7e10 31363338 3129005f 5f636f6d 70696c65  16381).__compile
 7e20 725f6d65 6d626172 2829205f 5f61736d  r_membar() __asm
 7e30 205f5f76 6f6c6174 696c6528 22202220   __volatile(" " 
 7e40 3a203a20 3a20226d 656d6f72 79222900  : : : "memory").
 7e50 4d535441 5455535f 53494520 30783030  MSTATUS_SIE 0x00
 7e60 30303030 3032005f 5245454e 545f5354  000002._REENT_ST
 7e70 52544f4b 5f4c4153 54287074 72292028  RTOK_LAST(ptr) (
 7e80 28707472 292d3e5f 6e65772e 5f726565  (ptr)->_new._ree
 7e90 6e742e5f 73747274 6f6b5f6c 61737429  nt._strtok_last)
 7ea0 00424954 5f313220 2831203c 3c203132  .BIT_12 (1 << 12
 7eb0 29005f5f 44424c5f 45505349 4c4f4e5f  ).__DBL_EPSILON_
 7ec0 5f202828 646f7562 6c652932 2e323230  _ ((double)2.220
 7ed0 34343630 34393235 30333133 30383038  4460492503130808
 7ee0 34373236 33333336 31383136 34303632  4726333618164062
 7ef0 652d3136 4c29005f 5f6e6565 645f5f5f  e-16L).__need___
 7f00 76615f6c 69737400 5f5f6c6f 636b5f74  va_list.__lock_t
 7f10 72795f61 63717569 72655f72 65637572  ry_acquire_recur
 7f20 73697665 286c6f63 6b292028 28766f69  sive(lock) ((voi
 7f30 64292030 29005359 5354454d 5f535049  d) 0).SYSTEM_SPI
 7f40 5f315f49 4f5f4354 524c2030 78663830  _1_IO_CTRL 0xf80
 7f50 31353030 30005359 5354454d 5f504c49  15000.SYSTEM_PLI
 7f60 435f5359 5354454d 5f493243 5f305f49  C_SYSTEM_I2C_0_I
 7f70 4f5f494e 54455252 55505420 38005f6d  O_INTERRUPT 8._m
 7f80 62737274 6f776373 5f737461 7465005f  bsrtowcs_state._
 7f90 5f617474 72696275 74655f70 7572655f  _attribute_pure_
 7fa0 5f200055 494e5438 5f4d4158 20285f5f  _ .UINT8_MAX (__
 7fb0 55494e54 385f4d41 585f5f29 005f5f4c  UINT8_MAX__).__L
 7fc0 4f4e475f 4d41585f 5f203078 37666666  ONG_MAX__ 0x7fff
 7fd0 66666666 4c005f5f 4c44424c 5f455053  ffffL.__LDBL_EPS
 7fe0 494c4f4e 5f5f2031 2e393235 39323939  ILON__ 1.9259299
 7ff0 34343338 37323335 38353330 35353937  4438723585305597
 8000 37393432 35383439 32373332 652d3334  794258492732e-34
 8010 4c004750 494f5f49 4e544552 52555054  L.GPIO_INTERRUPT
 8020 5f484947 485f454e 41424c45 20307832  _HIGH_ENABLE 0x2
 8030 38006c6f 6e67202b 34005f5f 696e7433  8.long +4.__int3
 8040 325f7400 5f5f6e6f 6e6e756c 6c287829  2_t.__nonnull(x)
 8050 205f5f61 74747269 62757465 5f5f2828   __attribute__((
 8060 5f5f6e6f 6e6e756c 6c5f5f20 78292900  __nonnull__ x)).
 8070 5f52414e 4434385f 41444420 28307830  _RAND48_ADD (0x0
 8080 30306229 004d5354 41545553 5f4d4945  00b).MSTATUS_MIE
 8090 20307830 30303030 30303800 53535441   0x00000008.SSTA
 80a0 5455535f 4d585220 30783030 30383030  TUS_MXR 0x000800
 80b0 30300042 49545f32 30202831 203c3c20  00.BIT_20 (1 << 
 80c0 32302900 4750494f 5f494e54 45525255  20).GPIO_INTERRU
 80d0 50545f52 4953455f 454e4142 4c452030  PT_RISE_ENABLE 0
 80e0 78323000 53595354 454d5f50 4c49435f  x20.SYSTEM_PLIC_
 80f0 4354524c 20307866 38633030 30303000  CTRL 0xf8c00000.
 8100 5f5f464c 54333258 5f4d414e 545f4449  __FLT32X_MANT_DI
 8110 475f5f20 35330062 73705f69 6e697428  G__ 53.bsp_init(
 8120 29207b7d 005f5f57 43484152 5f574944  ) {}.__WCHAR_WID
 8130 54485f5f 20333200 5f494e54 36345f54  TH__ 32._INT64_T
 8140 5f444543 4c415245 4420005f 5f73676c  _DECLARED .__sgl
 8150 7565005f 5f434f4e 43415428 782c7929  ue.__CONCAT(x,y)
 8160 205f5f43 4f4e4341 54312878 2c792900   __CONCAT1(x,y).
 8170 63686172 61637465 72005f5f 494e5431  character.__INT1
 8180 365f4328 63292063 00627370 5f707269  6_C(c) c.bsp_pri
 8190 6e746600 5f5f7661 5f6c6973 745f5f20  ntf.__va_list__ 
 81a0 005f666e 61726773 0073686f 7274202b  ._fnargs.short +
 81b0 31005f5f 746d5f69 73647374 005f5f44  1.__tm_isdst.__D
 81c0 45515541 4c494659 28747970 652c7661  EQUALIFY(type,va
 81d0 72292028 28747970 6529285f 5f75696e  r) ((type)(__uin
 81e0 74707472 5f742928 636f6e73 7420766f  tptr_t)(const vo
 81f0 6c617469 6c652076 6f696420 2a292876  latile void *)(v
 8200 61722929 005f5245 454e545f 494e4954  ar))._REENT_INIT
 8210 5f505452 5f5a4552 4f454428 76617229  _PTR_ZEROED(var)
 8220 207b2028 76617229 2d3e5f73 7464696e   { (var)->_stdin
 8230 203d205f 5245454e 545f5354 44494f5f   = _REENT_STDIO_
 8240 53545245 414d2876 61722c20 30293b20  STREAM(var, 0); 
 8250 28766172 292d3e5f 7374646f 7574203d  (var)->_stdout =
 8260 205f5245 454e545f 53544449 4f5f5354   _REENT_STDIO_ST
 8270 5245414d 28766172 2c203129 3b202876  REAM(var, 1); (v
 8280 6172292d 3e5f7374 64657272 203d205f  ar)->_stderr = _
 8290 5245454e 545f5354 44494f5f 53545245  REENT_STDIO_STRE
 82a0 414d2876 61722c20 32293b20 28766172  AM(var, 2); (var
 82b0 292d3e5f 6e65772e 5f726565 6e742e5f  )->_new._reent._
 82c0 72616e64 5f6e6578 74203d20 313b2028  rand_next = 1; (
 82d0 76617229 2d3e5f6e 65772e5f 7265656e  var)->_new._reen
 82e0 742e5f72 34382e5f 73656564 5b305d20  t._r48._seed[0] 
 82f0 3d205f52 414e4434 385f5345 45445f30  = _RAND48_SEED_0
 8300 3b202876 6172292d 3e5f6e65 772e5f72  ; (var)->_new._r
 8310 65656e74 2e5f7234 382e5f73 6565645b  eent._r48._seed[
 8320 315d203d 205f5241 4e443438 5f534545  1] = _RAND48_SEE
 8330 445f313b 20287661 72292d3e 5f6e6577  D_1; (var)->_new
 8340 2e5f7265 656e742e 5f723438 2e5f7365  ._reent._r48._se
 8350 65645b32 5d203d20 5f52414e 4434385f  ed[2] = _RAND48_
 8360 53454544 5f323b20 28766172 292d3e5f  SEED_2; (var)->_
 8370 6e65772e 5f726565 6e742e5f 7234382e  new._reent._r48.
 8380 5f6d756c 745b305d 203d205f 52414e44  _mult[0] = _RAND
 8390 34385f4d 554c545f 303b2028 76617229  48_MULT_0; (var)
 83a0 2d3e5f6e 65772e5f 7265656e 742e5f72  ->_new._reent._r
 83b0 34382e5f 6d756c74 5b315d20 3d205f52  48._mult[1] = _R
 83c0 414e4434 385f4d55 4c545f31 3b202876  AND48_MULT_1; (v
 83d0 6172292d 3e5f6e65 772e5f72 65656e74  ar)->_new._reent
 83e0 2e5f7234 382e5f6d 756c745b 325d203d  ._r48._mult[2] =
 83f0 205f5241 4e443438 5f4d554c 545f323b   _RAND48_MULT_2;
 8400 20287661 72292d3e 5f6e6577 2e5f7265   (var)->_new._re
 8410 656e742e 5f723438 2e5f6164 64203d20  ent._r48._add = 
 8420 5f52414e 4434385f 4144443b 207d0045  _RAND48_ADD; }.E
 8430 46585f53 454d4948 4f535449 4e475f48  FX_SEMIHOSTING_H
 8440 20005f5f 41544f4d 49435f41 43515f52   .__ATOMIC_ACQ_R
 8450 454c2034 005f5f49 4e545f4c 45415354  EL 4.__INT_LEAST
 8460 385f5459 50455f5f 20736967 6e656420  8_TYPE__ signed 
 8470 63686172 005f5f49 4e543332 5f545950  char.__INT32_TYP
 8480 455f5f20 6c6f6e67 20696e74 005f5f70  E__ long int.__p
 8490 61636b65 64205f5f 61747472 69627574  acked __attribut
 84a0 655f5f28 285f5f70 61636b65 645f5f29  e__((__packed__)
 84b0 29005f5f 44424c5f 4d494e5f 31305f45  ).__DBL_MIN_10_E
 84c0 58505f5f 20282d33 30372900 4d535441  XP__ (-307).MSTA
 84d0 5455535f 48494520 30783030 30303030  TUS_HIE 0x000000
 84e0 3034005f 57414e54 5f494f5f 4c4f4e47  04._WANT_IO_LONG
 84f0 5f4c4f4e 47203100 46505f49 4e46494e  _LONG 1.FP_INFIN
 8500 49544520 31005359 5354454d 5f554152  ITE 1.SYSTEM_UAR
 8510 545f305f 494f5f50 4152414d 45544552  T_0_IO_PARAMETER
 8520 5f554152 545f4354 524c5f43 4f4e4649  _UART_CTRL_CONFI
 8530 475f4354 535f4745 4e203000 5f5f4442  G_CTS_GEN 0.__DB
 8540 4c5f4445 4e4f524d 5f4d494e 5f5f2028  L_DENORM_MIN__ (
 8550 28646f75 626c6529 342e3934 30363536  (double)4.940656
 8560 34353834 31323436 35343431 37363536  4584124654417656
 8570 38373932 38363832 32313337 32652d33  8792868221372e-3
 8580 32344c29 00425350 5f434c49 4e542053  24L).BSP_CLINT S
 8590 59535445 4d5f434c 494e545f 4354524c  YSTEM_CLINT_CTRL
 85a0 005f5f4c 44424c5f 4449475f 5f203333  .__LDBL_DIG__ 33
 85b0 005f5f69 6e743230 00494e54 5f464153  .__int20.INT_FAS
 85c0 5433325f 4d415820 285f5f49 4e545f46  T32_MAX (__INT_F
 85d0 41535433 325f4d41 585f5f29 005f5f74  AST32_MAX__).__t
 85e0 6d5f6d69 6e005f52 45454e54 5f415343  m_min._REENT_ASC
 85f0 54494d45 5f53495a 45203236 00494e54  TIME_SIZE 26.INT
 8600 5054525f 4d494e20 282d5f5f 494e5450  PTR_MIN (-__INTP
 8610 54525f4d 41585f5f 202d2031 29005359  TR_MAX__ - 1).SY
 8620 5354454d 5f504c49 435f5359 5354454d  STEM_PLIC_SYSTEM
 8630 5f535049 5f315f49 4f5f494e 54455252  _SPI_1_IO_INTERR
 8640 55505420 35006273 705f7075 74537472  UPT 5.bsp_putStr
 8650 696e6728 73292075 6172745f 77726974  ing(s) uart_writ
 8660 65537472 28425350 5f554152 545f5445  eStr(BSP_UART_TE
 8670 524d494e 414c2c20 73293b00 5f56415f  RMINAL, s);._VA_
 8680 4c495354 5f20005f 504f5349 585f435f  LIST_ ._POSIX_C_
 8690 534f5552 4345005f 5f55494e 544d4158  SOURCE.__UINTMAX
 86a0 5f4d4158 5f5f2030 78666666 66666666  _MAX__ 0xfffffff
 86b0 66666666 66666666 66554c4c 005f5f44  fffffffffULL.__D
 86c0 424c5f4d 414e545f 4449475f 5f203533  BL_MANT_DIG__ 53
 86d0 005f5f75 6e626f75 6e646564 20005f52  .__unbounded ._R
 86e0 414e4434 385f5345 45445f32 20283078  AND48_SEED_2 (0x
 86f0 31323334 29005f5f 5359535f 4c4f434b  1234).__SYS_LOCK
 8700 5f485f5f 20005f52 45454e54 5f494e49  _H__ ._REENT_INI
 8710 545f4154 45584954 205f4e55 4c4c2c20  T_ATEXIT _NULL, 
 8720 5f415445 5849545f 494e4954 2c005f47  _ATEXIT_INIT,._G
 8730 43435f53 495a455f 54200042 49545f32  CC_SIZE_T .BIT_2
 8740 37202831 203c3c20 32372900 5f5f494e  7 (1 << 27).__IN
 8750 545f4d41 585f5f20 30783766 66666666  T_MAX__ 0x7fffff
 8760 6666005f 5f55494e 5431365f 4d41585f  ff.__UINT16_MAX_
 8770 5f203078 66666666 005f5245 454e545f  _ 0xffff._REENT_
 8780 494e4954 28766172 29207b20 302c205f  INIT(var) { 0, _
 8790 5245454e 545f5354 44494f5f 53545245  REENT_STDIO_STRE
 87a0 414d2826 28766172 292c2030 292c205f  AM(&(var), 0), _
 87b0 5245454e 545f5354 44494f5f 53545245  REENT_STDIO_STRE
 87c0 414d2826 28766172 292c2031 292c205f  AM(&(var), 1), _
 87d0 5245454e 545f5354 44494f5f 53545245  REENT_STDIO_STRE
 87e0 414d2826 28766172 292c2032 292c2030  AM(&(var), 2), 0
 87f0 2c202222 2c20302c 205f4e55 4c4c2c20  , "", 0, _NULL, 
 8800 302c205f 4e554c4c 2c205f4e 554c4c2c  0, _NULL, _NULL,
 8810 20302c20 5f4e554c 4c2c205f 4e554c4c   0, _NULL, _NULL
 8820 2c20302c 205f4e55 4c4c2c20 7b207b20  , 0, _NULL, { { 
 8830 302c205f 4e554c4c 2c202222 2c207b30  0, _NULL, "", {0
 8840 2c20302c 20302c20 302c2030 2c20302c  , 0, 0, 0, 0, 0,
 8850 20302c20 302c2030 7d2c2030 2c20312c   0, 0, 0}, 0, 1,
 8860 207b207b 5f52414e 4434385f 53454544   { {_RAND48_SEED
 8870 5f302c20 5f52414e 4434385f 53454544  _0, _RAND48_SEED
 8880 5f312c20 5f52414e 4434385f 53454544  _1, _RAND48_SEED
 8890 5f327d2c 207b5f52 414e4434 385f4d55  _2}, {_RAND48_MU
 88a0 4c545f30 2c205f52 414e4434 385f4d55  LT_0, _RAND48_MU
 88b0 4c545f31 2c205f52 414e4434 385f4d55  LT_1, _RAND48_MU
 88c0 4c545f32 7d2c205f 52414e44 34385f41  LT_2}, _RAND48_A
 88d0 4444207d 2c207b30 2c207b30 7d7d2c20  DD }, {0, {0}}, 
 88e0 7b302c20 7b307d7d 2c207b30 2c207b30  {0, {0}}, {0, {0
 88f0 7d7d2c20 22222c20 22222c20 302c207b  }}, "", "", 0, {
 8900 302c207b 307d7d2c 207b302c 207b307d  0, {0}}, {0, {0}
 8910 7d2c207b 302c207b 307d7d2c 207b302c  }, {0, {0}}, {0,
 8920 207b307d 7d2c207b 302c207b 307d7d20   {0}}, {0, {0}} 
 8930 7d207d2c 205f5245 454e545f 494e4954  } }, _REENT_INIT
 8940 5f415445 58495420 5f4e554c 4c2c207b  _ATEXIT _NULL, {
 8950 5f4e554c 4c2c2030 2c205f4e 554c4c7d  _NULL, 0, _NULL}
 8960 207d005f 5f616c77 6179735f 696e6c69   }.__always_inli
 8970 6e65205f 5f696e6c 696e655f 5f205f5f  ne __inline__ __
 8980 61747472 69627574 655f5f28 285f5f61  attribute__((__a
 8990 6c776179 735f696e 6c696e65 5f5f2929  lways_inline__))
 89a0 005f5f4c 6f6e6720 6c6f6e67 00535953  .__Long long.SYS
 89b0 54454d5f 55534552 5f54494d 45525f30  TEM_USER_TIMER_0
 89c0 5f435452 4c203078 66383031 39303030  _CTRL 0xf8019000
 89d0 002e2e2f 636f6d6d 6f6e2f73 74617274  .../common/start
 89e0 2e530047 4e552041 5320322e 3332002e  .S.GNU AS 2.32..
 89f0 2e2f636f 6d6d6f6e 2f747261 702e5300  ./common/trap.S.
Contents of section .comment:
 0000 4743433a 20287850 61636b20 474e5520  GCC: (xPack GNU 
 0010 52495343 2d562045 6d626564 64656420  RISC-V Embedded 
 0020 4743432c 2036342d 62697429 20382e33  GCC, 64-bit) 8.3
 0030 2e3000                               .0.             
Contents of section .debug_frame:
 0000 0c000000 ffffffff 0100017c 010d0200  ...........|....
 0010 0c000000 00000000 f80000f9 10000000  ................
 0020 20000000 00000000 080100f9 3c000000   ...........<...
 0030 440e104c 81018802 89035cc1 44c844c9  D..L......\.D.D.
 0040 440e0000 0c000000 00000000 440100f9  D...........D...
 0050 34000000 18000000 00000000 780100f9  4...........x...
 0060 20000000 440e1044 810150c1 440e0000   ...D..D..P.D...
 0070 1c000000 00000000 980100f9 34000000  ............4...
 0080 440e1048 81018802 5cc144c8 440e0000  D..H....\.D.D...
 0090 20000000 00000000 cc0100f9 54000000   ...........T...
 00a0 440e104c 81018802 890374c1 44c844c9  D..L......t.D.D.
 00b0 440e0000 20000000 00000000 200200f9  D... ....... ...
 00c0 54000000 440e104c 81018802 890374c1  T...D..L......t.
 00d0 44c844c9 440e0000 18000000 00000000  D.D.D...........
 00e0 740200f9 1c000000 440e1044 81014cc1  t.......D..D..L.
 00f0 440e0000 18000000 00000000 900200f9  D...............
 0100 18000000 440e1044 810148c1 440e0000  ....D..D..H.D...
 0110 20000000 00000000 a80200f9 80000000   ...............
 0120 440e304c 81018802 89030260 c144c844  D.0L.......`.D.D
 0130 c9440e00 18000000 00000000 280300f9  .D..........(...
 0140 40000000 440e1044 810170c1 440e0000  @...D..D..p.D...
 0150 18000000 00000000 680300f9 40000000  ........h...@...
 0160 440e1044 810170c1 440e0000 0c000000  D..D..p.D.......
 0170 00000000 a80300f9 10000000 0c000000  ................
 0180 00000000 b80300f9 4c000000 0c000000  ........L.......
 0190 00000000 040400f9 18000000 0c000000  ................
 01a0 00000000 1c0400f9 1c000000 0c000000  ................
 01b0 00000000 380400f9 1c000000 24000000  ....8.......$...
 01c0 00000000 540400f9 38010000 440e404c  ....T...8...D.@L
 01d0 8109880a 890b0318 01c144c8 44c9440e  ..........D.D.D.
 01e0 00000000 18000000 00000000 8c0500f9  ................
 01f0 80000000 440e1044 81010270 c1440e00  ....D..D...p.D..
 0200 14000000 00000000 0c0600f9 18000000  ................
 0210 440e1044 81010000 1c000000 00000000  D..D............
 0220 240600f9 5c000000 440e1048 81018802  $...\...D..H....
 0230 0244c144 c8440e00 1c000000 00000000  .D.D.D..........
 0240 800600f9 34000000 440e1044 81015c0a  ....4...D..D..\.
 0250 c1440e00 440b0000 14000000 00000000  .D..D...........
 0260 b40600f9 a8000000 440e1048 81018802  ........D..H....
 0270 0c000000 ffffffff 0100017c 010d0200  ...........|....
 0280 28000000 70020000 640000f9 94000000  (...p...d.......
 0290 440e1048 88029204 5c810189 030258c1  D..H....\.....X.
 02a0 44c844c9 44d2440e 00000000           D.D.D.D.....    

Disassembly of section .rom_section.init:

f9000000 <_start>:

_start:
#ifdef USE_GP
.option push
.option norelax
	la gp, __global_pointer$
f9000000:	00081197          	auipc	gp,0x81
f9000004:	97018193          	addi	gp,gp,-1680 # f9080970 <__global_pointer$>

f9000008 <init>:
	sw a0, smp_lottery_lock, a1
    ret
#endif

init:
	la sp, _sp
f9000008:	00082117          	auipc	sp,0x82
f900000c:	18810113          	addi	sp,sp,392 # f9082190 <__freertos_irq_stack_top>

	/* Load data section */
	la a0, _data_lma
f9000010:	00080517          	auipc	a0,0x80
f9000014:	ff050513          	addi	a0,a0,-16 # f9080000 <__init_array_end>
	la a1, _data
f9000018:	00080597          	auipc	a1,0x80
f900001c:	fe858593          	addi	a1,a1,-24 # f9080000 <__init_array_end>
	la a2, _edata
f9000020:	81c18613          	addi	a2,gp,-2020 # f908018c <__bss_start>
	bgeu a1, a2, 2f
f9000024:	00c5fc63          	bgeu	a1,a2,f900003c <init+0x34>
1:
	lw t0, (a0)
f9000028:	00052283          	lw	t0,0(a0)
	sw t0, (a1)
f900002c:	0055a023          	sw	t0,0(a1)
	addi a0, a0, 4
f9000030:	00450513          	addi	a0,a0,4
	addi a1, a1, 4
f9000034:	00458593          	addi	a1,a1,4
	bltu a1, a2, 1b
f9000038:	fec5e8e3          	bltu	a1,a2,f9000028 <init+0x20>
2:

	/* Clear bss section */
	la a0, __bss_start
f900003c:	81c18513          	addi	a0,gp,-2020 # f908018c <__bss_start>
	la a1, _end
f9000040:	82018593          	addi	a1,gp,-2016 # f9080190 <_end>
	bgeu a0, a1, 2f
f9000044:	00b57863          	bgeu	a0,a1,f9000054 <init+0x4c>
1:
	sw zero, (a0)
f9000048:	00052023          	sw	zero,0(a0)
	addi a0, a0, 4
f900004c:	00450513          	addi	a0,a0,4
	bltu a0, a1, 1b
f9000050:	feb56ce3          	bltu	a0,a1,f9000048 <init+0x40>
2:

#ifndef NO_LIBC_INIT_ARRAY
	call __libc_init_array
f9000054:	010000ef          	jal	ra,f9000064 <__libc_init_array>
#endif

	call main
f9000058:	65c000ef          	jal	ra,f90006b4 <main>

f900005c <mainDone>:
mainDone:
    j mainDone
f900005c:	0000006f          	j	f900005c <mainDone>

f9000060 <_init>:


	.globl _init
_init:
    ret
f9000060:	00008067          	ret

Disassembly of section .rom_section.text:

f9000064 <__libc_init_array>:
f9000064:	ff010113          	addi	sp,sp,-16
f9000068:	00812423          	sw	s0,8(sp)
f900006c:	01212023          	sw	s2,0(sp)
f9000070:	00080417          	auipc	s0,0x80
f9000074:	f9040413          	addi	s0,s0,-112 # f9080000 <__init_array_end>
f9000078:	00080917          	auipc	s2,0x80
f900007c:	f8890913          	addi	s2,s2,-120 # f9080000 <__init_array_end>
f9000080:	40890933          	sub	s2,s2,s0
f9000084:	00112623          	sw	ra,12(sp)
f9000088:	00912223          	sw	s1,4(sp)
f900008c:	40295913          	srai	s2,s2,0x2
f9000090:	00090e63          	beqz	s2,f90000ac <__libc_init_array+0x48>
f9000094:	00000493          	li	s1,0
f9000098:	00042783          	lw	a5,0(s0)
f900009c:	00148493          	addi	s1,s1,1
f90000a0:	00440413          	addi	s0,s0,4
f90000a4:	000780e7          	jalr	a5
f90000a8:	fe9918e3          	bne	s2,s1,f9000098 <__libc_init_array+0x34>
f90000ac:	00080417          	auipc	s0,0x80
f90000b0:	f5440413          	addi	s0,s0,-172 # f9080000 <__init_array_end>
f90000b4:	00080917          	auipc	s2,0x80
f90000b8:	f4c90913          	addi	s2,s2,-180 # f9080000 <__init_array_end>
f90000bc:	40890933          	sub	s2,s2,s0
f90000c0:	40295913          	srai	s2,s2,0x2
f90000c4:	00090e63          	beqz	s2,f90000e0 <__libc_init_array+0x7c>
f90000c8:	00000493          	li	s1,0
f90000cc:	00042783          	lw	a5,0(s0)
f90000d0:	00148493          	addi	s1,s1,1
f90000d4:	00440413          	addi	s0,s0,4
f90000d8:	000780e7          	jalr	a5
f90000dc:	fe9918e3          	bne	s2,s1,f90000cc <__libc_init_array+0x68>
f90000e0:	00c12083          	lw	ra,12(sp)
f90000e4:	00812403          	lw	s0,8(sp)
f90000e8:	00412483          	lw	s1,4(sp)
f90000ec:	00012903          	lw	s2,0(sp)
f90000f0:	01010113          	addi	sp,sp,16
f90000f4:	00008067          	ret

f90000f8 <uart_writeAvailability>:
#include "type.h"
#include "soc.h"


    static inline u32 read_u32(u32 address){
        return *((volatile u32*) address);
f90000f8:	00452503          	lw	a0,4(a0)
        enum UartStop stop;
        u32 clockDivider;
    } Uart_Config;
    
    static u32 uart_writeAvailability(u32 reg){
        return (read_u32(reg + UART_STATUS) >> 16) & 0xFF;
f90000fc:	01055513          	srli	a0,a0,0x10
    }
f9000100:	0ff57513          	andi	a0,a0,255
f9000104:	00008067          	ret

f9000108 <uart_write>:
    static u32 uart_readOccupancy(u32 reg){
        return read_u32(reg + UART_STATUS) >> 24;
    }
    
    static void uart_write(u32 reg, char data){
f9000108:	ff010113          	addi	sp,sp,-16
f900010c:	00112623          	sw	ra,12(sp)
f9000110:	00812423          	sw	s0,8(sp)
f9000114:	00912223          	sw	s1,4(sp)
f9000118:	00050413          	mv	s0,a0
f900011c:	00058493          	mv	s1,a1
        while(uart_writeAvailability(reg) == 0);
f9000120:	00040513          	mv	a0,s0
f9000124:	fd5ff0ef          	jal	ra,f90000f8 <uart_writeAvailability>
f9000128:	fe050ce3          	beqz	a0,f9000120 <uart_write+0x18>
    }
    
    static inline void write_u32(u32 data, u32 address){
        *((volatile u32*) address) = data;
f900012c:	00942023          	sw	s1,0(s0)
        write_u32(data, reg + UART_DATA);
    }
f9000130:	00c12083          	lw	ra,12(sp)
f9000134:	00812403          	lw	s0,8(sp)
f9000138:	00412483          	lw	s1,4(sp)
f900013c:	01010113          	addi	sp,sp,16
f9000140:	00008067          	ret

f9000144 <clint_uDelay>:
    
        return (((u64)hi) << 32) | lo;
    }
    
    static void clint_uDelay(u32 usec, u32 hz, u32 reg){
        u32 mTimePerUsec = hz/1000000;
f9000144:	000f47b7          	lui	a5,0xf4
f9000148:	24078793          	addi	a5,a5,576 # f4240 <__stack_size+0xf2240>
f900014c:	02f5d5b3          	divu	a1,a1,a5
    readReg_u32 (clint_getTimeLow , CLINT_TIME_ADDR)
f9000150:	0000c7b7          	lui	a5,0xc
f9000154:	ff878793          	addi	a5,a5,-8 # bff8 <__stack_size+0x9ff8>
f9000158:	00f60633          	add	a2,a2,a5
        return *((volatile u32*) address);
f900015c:	00062783          	lw	a5,0(a2)
        u32 limit = clint_getTimeLow(reg) + usec*mTimePerUsec;
f9000160:	02a58533          	mul	a0,a1,a0
f9000164:	00f50533          	add	a0,a0,a5
f9000168:	00062783          	lw	a5,0(a2)
        while((int32_t)(limit-(clint_getTimeLow(reg))) >= 0);
f900016c:	40f507b3          	sub	a5,a0,a5
f9000170:	fe07dce3          	bgez	a5,f9000168 <clint_uDelay+0x24>
    }
f9000174:	00008067          	ret

f9000178 <_putchar>:
// use bsp_printf_full as bsp_printf
#define ENABLE_BRIDGE_FULL_TO_LITE          1 // If this is enabled, bsp_printf_full can be called with bsp_printf. Enabling both ENABLE_BSP_PRINTF and ENABLE_BSP_PRINTF_FULL, bsp_printf_full will be remained as bsp_printf_full. Default: Enable
#define ENABLE_PRINTF_WARNING               1 // Print warning when the specifier not supported. Default: Enable


    static void _putchar(char character){
f9000178:	ff010113          	addi	sp,sp,-16
f900017c:	00112623          	sw	ra,12(sp)
        #if (ENABLE_SEMIHOSTING_PRINT == 1)
            sh_writec(character);
        #else
            bsp_putChar(character);
f9000180:	00050593          	mv	a1,a0
f9000184:	f8010537          	lui	a0,0xf8010
f9000188:	f81ff0ef          	jal	ra,f9000108 <uart_write>
        #endif // (ENABLE_SEMIHOSTING_PRINT == 1)
    }
f900018c:	00c12083          	lw	ra,12(sp)
f9000190:	01010113          	addi	sp,sp,16
f9000194:	00008067          	ret

f9000198 <_putchar_s>:

    static void _putchar_s(char *p)
    {
f9000198:	ff010113          	addi	sp,sp,-16
f900019c:	00112623          	sw	ra,12(sp)
f90001a0:	00812423          	sw	s0,8(sp)
f90001a4:	00050413          	mv	s0,a0
    #if (ENABLE_SEMIHOSTING_PRINT == 1)
        sh_write0(p);
    #else
        while (*p)
f90001a8:	00044503          	lbu	a0,0(s0)
f90001ac:	00050863          	beqz	a0,f90001bc <_putchar_s+0x24>
            _putchar(*(p++));
f90001b0:	00140413          	addi	s0,s0,1
f90001b4:	fc5ff0ef          	jal	ra,f9000178 <_putchar>
f90001b8:	ff1ff06f          	j	f90001a8 <_putchar_s+0x10>
    #endif // (ENABLE_SEMIHOSTING_PRINT == 1)
    }
f90001bc:	00c12083          	lw	ra,12(sp)
f90001c0:	00812403          	lw	s0,8(sp)
f90001c4:	01010113          	addi	sp,sp,16
f90001c8:	00008067          	ret

f90001cc <bsp_printHex>:


    //bsp_printHex is used in BSP_PRINTF
    static void bsp_printHex(uint32_t val)
    {
f90001cc:	ff010113          	addi	sp,sp,-16
f90001d0:	00112623          	sw	ra,12(sp)
f90001d4:	00812423          	sw	s0,8(sp)
f90001d8:	00912223          	sw	s1,4(sp)
f90001dc:	00050493          	mv	s1,a0
        uint32_t digits;
        digits =8;

        for (int i = (4*digits)-4; i >= 0; i -= 4) {
f90001e0:	01c00413          	li	s0,28
f90001e4:	0240006f          	j	f9000208 <bsp_printHex+0x3c>
            _putchar("0123456789ABCDEF"[(val >> i) % 16]);
f90001e8:	0084d7b3          	srl	a5,s1,s0
f90001ec:	00f7f713          	andi	a4,a5,15
f90001f0:	f90807b7          	lui	a5,0xf9080
f90001f4:	00078793          	mv	a5,a5
f90001f8:	00e787b3          	add	a5,a5,a4
f90001fc:	0007c503          	lbu	a0,0(a5) # f9080000 <__freertos_irq_stack_top+0xffffde70>
f9000200:	f79ff0ef          	jal	ra,f9000178 <_putchar>
        for (int i = (4*digits)-4; i >= 0; i -= 4) {
f9000204:	ffc40413          	addi	s0,s0,-4
f9000208:	fe0450e3          	bgez	s0,f90001e8 <bsp_printHex+0x1c>
        }
    }
f900020c:	00c12083          	lw	ra,12(sp)
f9000210:	00812403          	lw	s0,8(sp)
f9000214:	00412483          	lw	s1,4(sp)
f9000218:	01010113          	addi	sp,sp,16
f900021c:	00008067          	ret

f9000220 <bsp_printHex_lower>:

    static void bsp_printHex_lower(uint32_t val)
        {
f9000220:	ff010113          	addi	sp,sp,-16
f9000224:	00112623          	sw	ra,12(sp)
f9000228:	00812423          	sw	s0,8(sp)
f900022c:	00912223          	sw	s1,4(sp)
f9000230:	00050493          	mv	s1,a0
            uint32_t digits;
            digits =8;

            for (int i = (4*digits)-4; i >= 0; i -= 4) {
f9000234:	01c00413          	li	s0,28
f9000238:	0240006f          	j	f900025c <bsp_printHex_lower+0x3c>
                _putchar("0123456789abcdef"[(val >> i) % 16]);
f900023c:	0084d7b3          	srl	a5,s1,s0
f9000240:	00f7f713          	andi	a4,a5,15
f9000244:	f90807b7          	lui	a5,0xf9080
f9000248:	01478793          	addi	a5,a5,20 # f9080014 <__freertos_irq_stack_top+0xffffde84>
f900024c:	00e787b3          	add	a5,a5,a4
f9000250:	0007c503          	lbu	a0,0(a5)
f9000254:	f25ff0ef          	jal	ra,f9000178 <_putchar>
            for (int i = (4*digits)-4; i >= 0; i -= 4) {
f9000258:	ffc40413          	addi	s0,s0,-4
f900025c:	fe0450e3          	bgez	s0,f900023c <bsp_printHex_lower+0x1c>

            }
        }
f9000260:	00c12083          	lw	ra,12(sp)
f9000264:	00812403          	lw	s0,8(sp)
f9000268:	00412483          	lw	s1,4(sp)
f900026c:	01010113          	addi	sp,sp,16
f9000270:	00008067          	ret

f9000274 <bsp_printf_c>:
    #endif //#if (ENABLE_FLOATING_POINT_SUPPORT)

    

    static void bsp_printf_c(int c)
    {
f9000274:	ff010113          	addi	sp,sp,-16
f9000278:	00112623          	sw	ra,12(sp)
        _putchar(c);
f900027c:	0ff57513          	andi	a0,a0,255
f9000280:	ef9ff0ef          	jal	ra,f9000178 <_putchar>
    }
f9000284:	00c12083          	lw	ra,12(sp)
f9000288:	01010113          	addi	sp,sp,16
f900028c:	00008067          	ret

f9000290 <bsp_printf_s>:

    static void bsp_printf_s(char *p)
    {
f9000290:	ff010113          	addi	sp,sp,-16
f9000294:	00112623          	sw	ra,12(sp)
        _putchar_s(p);
f9000298:	f01ff0ef          	jal	ra,f9000198 <_putchar_s>
    }
f900029c:	00c12083          	lw	ra,12(sp)
f90002a0:	01010113          	addi	sp,sp,16
f90002a4:	00008067          	ret

f90002a8 <bsp_printf_d>:



    static void bsp_printf_d(int val)
    {
f90002a8:	fd010113          	addi	sp,sp,-48
f90002ac:	02112623          	sw	ra,44(sp)
f90002b0:	02812423          	sw	s0,40(sp)
f90002b4:	02912223          	sw	s1,36(sp)
f90002b8:	00050493          	mv	s1,a0
        char buffer[32];
        char *p = buffer;
        if (val < 0) {
f90002bc:	00054663          	bltz	a0,f90002c8 <bsp_printf_d+0x20>
    {
f90002c0:	00010413          	mv	s0,sp
f90002c4:	02c0006f          	j	f90002f0 <bsp_printf_d+0x48>
            bsp_printf_c('-');
f90002c8:	02d00513          	li	a0,45
f90002cc:	fa9ff0ef          	jal	ra,f9000274 <bsp_printf_c>
            val = -val;
f90002d0:	409004b3          	neg	s1,s1
f90002d4:	fedff06f          	j	f90002c0 <bsp_printf_d+0x18>
        }
        while (val || p == buffer) {
            *(p++) = '0' + val % 10;
f90002d8:	00a00713          	li	a4,10
f90002dc:	02e4e7b3          	rem	a5,s1,a4
f90002e0:	03078793          	addi	a5,a5,48
f90002e4:	00f40023          	sb	a5,0(s0)
            val = val / 10;
f90002e8:	02e4c4b3          	div	s1,s1,a4
            *(p++) = '0' + val % 10;
f90002ec:	00140413          	addi	s0,s0,1
        while (val || p == buffer) {
f90002f0:	fe0494e3          	bnez	s1,f90002d8 <bsp_printf_d+0x30>
f90002f4:	00010793          	mv	a5,sp
f90002f8:	fef400e3          	beq	s0,a5,f90002d8 <bsp_printf_d+0x30>
f90002fc:	0100006f          	j	f900030c <bsp_printf_d+0x64>
        }
        while (p != buffer)
            bsp_printf_c(*(--p));
f9000300:	fff40413          	addi	s0,s0,-1
f9000304:	00044503          	lbu	a0,0(s0)
f9000308:	f6dff0ef          	jal	ra,f9000274 <bsp_printf_c>
        while (p != buffer)
f900030c:	00010793          	mv	a5,sp
f9000310:	fef418e3          	bne	s0,a5,f9000300 <bsp_printf_d+0x58>
    }
f9000314:	02c12083          	lw	ra,44(sp)
f9000318:	02812403          	lw	s0,40(sp)
f900031c:	02412483          	lw	s1,36(sp)
f9000320:	03010113          	addi	sp,sp,48
f9000324:	00008067          	ret

f9000328 <bsp_printf_x>:

    static void bsp_printf_x(int val)
    {
f9000328:	ff010113          	addi	sp,sp,-16
f900032c:	00112623          	sw	ra,12(sp)
        int i,digi=2;

        for(i=0;i<8;i++)
f9000330:	00000713          	li	a4,0
f9000334:	00700793          	li	a5,7
f9000338:	02e7c063          	blt	a5,a4,f9000358 <bsp_printf_x+0x30>
        {
            if((val & (0xFFFFFFF0 <<(4*i))) == 0)
f900033c:	00271693          	slli	a3,a4,0x2
f9000340:	ff000793          	li	a5,-16
f9000344:	00d797b3          	sll	a5,a5,a3
f9000348:	00f577b3          	and	a5,a0,a5
f900034c:	00078663          	beqz	a5,f9000358 <bsp_printf_x+0x30>
        for(i=0;i<8;i++)
f9000350:	00170713          	addi	a4,a4,1
f9000354:	fe1ff06f          	j	f9000334 <bsp_printf_x+0xc>
            {
                digi=i+1;
                break;
            }
        }
        bsp_printHex_lower(val);
f9000358:	ec9ff0ef          	jal	ra,f9000220 <bsp_printHex_lower>
    }
f900035c:	00c12083          	lw	ra,12(sp)
f9000360:	01010113          	addi	sp,sp,16
f9000364:	00008067          	ret

f9000368 <bsp_printf_X>:

    static void bsp_printf_X(int val)
        {
f9000368:	ff010113          	addi	sp,sp,-16
f900036c:	00112623          	sw	ra,12(sp)
            int i,digi=2;

            for(i=0;i<8;i++)
f9000370:	00000713          	li	a4,0
f9000374:	00700793          	li	a5,7
f9000378:	02e7c063          	blt	a5,a4,f9000398 <bsp_printf_X+0x30>
            {
                if((val & (0xFFFFFFF0 <<(4*i))) == 0)
f900037c:	00271693          	slli	a3,a4,0x2
f9000380:	ff000793          	li	a5,-16
f9000384:	00d797b3          	sll	a5,a5,a3
f9000388:	00f577b3          	and	a5,a0,a5
f900038c:	00078663          	beqz	a5,f9000398 <bsp_printf_X+0x30>
            for(i=0;i<8;i++)
f9000390:	00170713          	addi	a4,a4,1
f9000394:	fe1ff06f          	j	f9000374 <bsp_printf_X+0xc>
                {
                    digi=i+1;
                    break;
                }
            }
            bsp_printHex(val);
f9000398:	e35ff0ef          	jal	ra,f90001cc <bsp_printHex>
        }
f900039c:	00c12083          	lw	ra,12(sp)
f90003a0:	01010113          	addi	sp,sp,16
f90003a4:	00008067          	ret

f90003a8 <plic_set_priority>:
#define PLIC_CLAIM_BASE         0x200004
#define PLIC_ENABLE_PER_HART    0x80
#define PLIC_CONTEXT_PER_HART   0x1000

    static void plic_set_priority(u32 plic, u32 gateway, u32 priority){
        write_u32(priority, plic + PLIC_PRIORITY_BASE + gateway*4);
f90003a8:	00259593          	slli	a1,a1,0x2
f90003ac:	00a585b3          	add	a1,a1,a0
        *((volatile u32*) address) = data;
f90003b0:	00c5a023          	sw	a2,0(a1)
    }
f90003b4:	00008067          	ret

f90003b8 <plic_set_enable>:
    static u32 plic_get_priority(u32 plic, u32 gateway){
        return read_u32(plic + PLIC_PRIORITY_BASE + gateway*4);
    }
    
    static void plic_set_enable(u32 plic, u32 target,u32 gateway, u32 enable){
        u32 word = plic + PLIC_ENABLE_BASE + target * PLIC_ENABLE_PER_HART + (gateway / 32 * 4);
f90003b8:	00759593          	slli	a1,a1,0x7
f90003bc:	00a58533          	add	a0,a1,a0
f90003c0:	00565593          	srli	a1,a2,0x5
f90003c4:	00259593          	slli	a1,a1,0x2
f90003c8:	00b50533          	add	a0,a0,a1
f90003cc:	000025b7          	lui	a1,0x2
f90003d0:	00b50533          	add	a0,a0,a1
        u32 mask = 1 << (gateway % 32);
f90003d4:	00100793          	li	a5,1
f90003d8:	00c797b3          	sll	a5,a5,a2
        if (enable)
f90003dc:	00068a63          	beqz	a3,f90003f0 <plic_set_enable+0x38>
        return *((volatile u32*) address);
f90003e0:	00052603          	lw	a2,0(a0) # f8010000 <__freertos_irq_stack_top+0xfef8de70>
            write_u32(read_u32(word) | mask, word);
f90003e4:	00c7e7b3          	or	a5,a5,a2
        *((volatile u32*) address) = data;
f90003e8:	00f52023          	sw	a5,0(a0)
f90003ec:	00008067          	ret
        return *((volatile u32*) address);
f90003f0:	00052603          	lw	a2,0(a0)
        else
            write_u32(read_u32(word) & ~mask, word);
f90003f4:	fff7c793          	not	a5,a5
f90003f8:	00c7f7b3          	and	a5,a5,a2
        *((volatile u32*) address) = data;
f90003fc:	00f52023          	sw	a5,0(a0)
    }
f9000400:	00008067          	ret

f9000404 <plic_set_threshold>:
    
    static void plic_set_threshold(u32 plic, u32 target, u32 threshold){
        write_u32(threshold, plic + PLIC_THRESHOLD_BASE + target*PLIC_CONTEXT_PER_HART);
f9000404:	00c59593          	slli	a1,a1,0xc
f9000408:	00a585b3          	add	a1,a1,a0
f900040c:	00200537          	lui	a0,0x200
f9000410:	00a585b3          	add	a1,a1,a0
f9000414:	00c5a023          	sw	a2,0(a1) # 2000 <__stack_size>
    }
f9000418:	00008067          	ret

f900041c <plic_claim>:
    static u32 plic_get_threshold(u32 plic, u32 target){
        return read_u32(plic + PLIC_THRESHOLD_BASE + target*PLIC_CONTEXT_PER_HART);
    }
    
    static u32 plic_claim(u32 plic, u32 target){
        return read_u32(plic + PLIC_CLAIM_BASE + target*PLIC_CONTEXT_PER_HART);
f900041c:	00c59593          	slli	a1,a1,0xc
f9000420:	00a585b3          	add	a1,a1,a0
f9000424:	00200537          	lui	a0,0x200
f9000428:	00450513          	addi	a0,a0,4 # 200004 <__stack_size+0x1fe004>
f900042c:	00a585b3          	add	a1,a1,a0
        return *((volatile u32*) address);
f9000430:	0005a503          	lw	a0,0(a1)
    }
f9000434:	00008067          	ret

f9000438 <plic_release>:
    
    static void plic_release(u32 plic, u32 target, u32 gateway){
        write_u32(gateway,plic + PLIC_CLAIM_BASE + target*PLIC_CONTEXT_PER_HART);
f9000438:	00c59593          	slli	a1,a1,0xc
f900043c:	00a585b3          	add	a1,a1,a0
f9000440:	00200537          	lui	a0,0x200
f9000444:	00450513          	addi	a0,a0,4 # 200004 <__stack_size+0x1fe004>
f9000448:	00a585b3          	add	a1,a1,a0
        *((volatile u32*) address) = data;
f900044c:	00c5a023          	sw	a2,0(a1)
    }
f9000450:	00008067          	ret

f9000454 <bsp_printf>:
#if (ENABLE_SEMIHOSTING_PRINT == 0)
    static void bsp_printf(const char *format, ...)
    {
f9000454:	fc010113          	addi	sp,sp,-64
f9000458:	00112e23          	sw	ra,28(sp)
f900045c:	00812c23          	sw	s0,24(sp)
f9000460:	00912a23          	sw	s1,20(sp)
f9000464:	00050493          	mv	s1,a0
f9000468:	02b12223          	sw	a1,36(sp)
f900046c:	02c12423          	sw	a2,40(sp)
f9000470:	02d12623          	sw	a3,44(sp)
f9000474:	02e12823          	sw	a4,48(sp)
f9000478:	02f12a23          	sw	a5,52(sp)
f900047c:	03012c23          	sw	a6,56(sp)
f9000480:	03112e23          	sw	a7,60(sp)
        int i;
        va_list ap;

        va_start(ap, format);
f9000484:	02410793          	addi	a5,sp,36
f9000488:	00f12623          	sw	a5,12(sp)

        for (i = 0; format[i]; i++)
f900048c:	00000413          	li	s0,0
f9000490:	01c0006f          	j	f90004ac <bsp_printf+0x58>
            if (format[i] == '%') {
                while (format[++i]) {
                    if (format[i] == 'c') {
                        bsp_printf_c(va_arg(ap,int));
f9000494:	00c12783          	lw	a5,12(sp)
f9000498:	00478713          	addi	a4,a5,4
f900049c:	00e12623          	sw	a4,12(sp)
f90004a0:	0007a503          	lw	a0,0(a5)
f90004a4:	dd1ff0ef          	jal	ra,f9000274 <bsp_printf_c>
        for (i = 0; format[i]; i++)
f90004a8:	00140413          	addi	s0,s0,1
f90004ac:	008487b3          	add	a5,s1,s0
f90004b0:	0007c503          	lbu	a0,0(a5)
f90004b4:	0c050263          	beqz	a0,f9000578 <bsp_printf+0x124>
            if (format[i] == '%') {
f90004b8:	02500793          	li	a5,37
f90004bc:	06f50663          	beq	a0,a5,f9000528 <bsp_printf+0xd4>
                        break;
                    }
#endif //#if (ENABLE_FLOATING_POINT_SUPPORT)
                }
            } else
                bsp_printf_c(format[i]);
f90004c0:	db5ff0ef          	jal	ra,f9000274 <bsp_printf_c>
f90004c4:	fe5ff06f          	j	f90004a8 <bsp_printf+0x54>
                        bsp_printf_s(va_arg(ap,char*));
f90004c8:	00c12783          	lw	a5,12(sp)
f90004cc:	00478713          	addi	a4,a5,4
f90004d0:	00e12623          	sw	a4,12(sp)
f90004d4:	0007a503          	lw	a0,0(a5)
f90004d8:	db9ff0ef          	jal	ra,f9000290 <bsp_printf_s>
                        break;
f90004dc:	fcdff06f          	j	f90004a8 <bsp_printf+0x54>
                        bsp_printf_d(va_arg(ap,int));
f90004e0:	00c12783          	lw	a5,12(sp)
f90004e4:	00478713          	addi	a4,a5,4
f90004e8:	00e12623          	sw	a4,12(sp)
f90004ec:	0007a503          	lw	a0,0(a5)
f90004f0:	db9ff0ef          	jal	ra,f90002a8 <bsp_printf_d>
                        break;
f90004f4:	fb5ff06f          	j	f90004a8 <bsp_printf+0x54>
                        bsp_printf_X(va_arg(ap,int));
f90004f8:	00c12783          	lw	a5,12(sp)
f90004fc:	00478713          	addi	a4,a5,4
f9000500:	00e12623          	sw	a4,12(sp)
f9000504:	0007a503          	lw	a0,0(a5)
f9000508:	e61ff0ef          	jal	ra,f9000368 <bsp_printf_X>
                        break;
f900050c:	f9dff06f          	j	f90004a8 <bsp_printf+0x54>
                        bsp_printf_x(va_arg(ap,int));
f9000510:	00c12783          	lw	a5,12(sp)
f9000514:	00478713          	addi	a4,a5,4
f9000518:	00e12623          	sw	a4,12(sp)
f900051c:	0007a503          	lw	a0,0(a5)
f9000520:	e09ff0ef          	jal	ra,f9000328 <bsp_printf_x>
                        break;
f9000524:	f85ff06f          	j	f90004a8 <bsp_printf+0x54>
                while (format[++i]) {
f9000528:	00140413          	addi	s0,s0,1
f900052c:	008487b3          	add	a5,s1,s0
f9000530:	0007c783          	lbu	a5,0(a5)
f9000534:	f6078ae3          	beqz	a5,f90004a8 <bsp_printf+0x54>
                    if (format[i] == 'c') {
f9000538:	06300713          	li	a4,99
f900053c:	f4e78ce3          	beq	a5,a4,f9000494 <bsp_printf+0x40>
                    else if (format[i] == 's') {
f9000540:	07300713          	li	a4,115
f9000544:	f8e782e3          	beq	a5,a4,f90004c8 <bsp_printf+0x74>
                    else if (format[i] == 'd') {
f9000548:	06400713          	li	a4,100
f900054c:	f8e78ae3          	beq	a5,a4,f90004e0 <bsp_printf+0x8c>
                    else if (format[i] == 'X') {
f9000550:	05800713          	li	a4,88
f9000554:	fae782e3          	beq	a5,a4,f90004f8 <bsp_printf+0xa4>
                    else if (format[i] == 'x') {
f9000558:	07800713          	li	a4,120
f900055c:	fae78ae3          	beq	a5,a4,f9000510 <bsp_printf+0xbc>
                    else if (format[i] == 'f') {
f9000560:	06600713          	li	a4,102
f9000564:	fce792e3          	bne	a5,a4,f9000528 <bsp_printf+0xd4>
                        bsp_printf_s("<Floating point printing not enable. Please Enable it at bsp.h first...>");
f9000568:	f9080537          	lui	a0,0xf9080
f900056c:	02850513          	addi	a0,a0,40 # f9080028 <__freertos_irq_stack_top+0xffffde98>
f9000570:	d21ff0ef          	jal	ra,f9000290 <bsp_printf_s>
                        break;
f9000574:	f35ff06f          	j	f90004a8 <bsp_printf+0x54>

        va_end(ap);
    }
f9000578:	01c12083          	lw	ra,28(sp)
f900057c:	01812403          	lw	s0,24(sp)
f9000580:	01412483          	lw	s1,20(sp)
f9000584:	04010113          	addi	sp,sp,64
f9000588:	00008067          	ret

f900058c <init>:
void trap();
void crash();
void trap_entry();
void externalInterrupt();

void init(){
f900058c:	ff010113          	addi	sp,sp,-16
f9000590:	00112623          	sw	ra,12(sp)
    //configure PLIC
    //cpu 0 accept all interrupts with priority above 0
    plic_set_threshold(BSP_PLIC, BSP_PLIC_CPU_0, 0); 
f9000594:	00000613          	li	a2,0
f9000598:	00000593          	li	a1,0
f900059c:	f8c00537          	lui	a0,0xf8c00
f90005a0:	e65ff0ef          	jal	ra,f9000404 <plic_set_threshold>
    plic_set_enable(BSP_PLIC, BSP_PLIC_CPU_0, SYSTEM_PLIC_SYSTEM_GPIO_0_IO_INTERRUPTS_0, 1);
f90005a4:	00100693          	li	a3,1
f90005a8:	00c00613          	li	a2,12
f90005ac:	00000593          	li	a1,0
f90005b0:	f8c00537          	lui	a0,0xf8c00
f90005b4:	e05ff0ef          	jal	ra,f90003b8 <plic_set_enable>
    plic_set_priority(BSP_PLIC, SYSTEM_PLIC_SYSTEM_GPIO_0_IO_INTERRUPTS_0, 1);
f90005b8:	00100613          	li	a2,1
f90005bc:	00c00593          	li	a1,12
f90005c0:	f8c00537          	lui	a0,0xf8c00
f90005c4:	de5ff0ef          	jal	ra,f90003a8 <plic_set_priority>
f90005c8:	f80167b7          	lui	a5,0xf8016
f90005cc:	00100713          	li	a4,1
f90005d0:	02e7a023          	sw	a4,32(a5) # f8016020 <__freertos_irq_stack_top+0xfef93e90>
    //Enable rising edge interrupts
    gpio_setInterruptRiseEnable(GPIO0, 1); 
    //enable interrupts
    //Set the machine trap vector (../common/trap.S)
    csr_write(mtvec, trap_entry); 
f90005d4:	f90007b7          	lui	a5,0xf9000
f90005d8:	75c78793          	addi	a5,a5,1884 # f900075c <__freertos_irq_stack_top+0xfff7e5cc>
f90005dc:	30579073          	csrw	mtvec,a5
    //Enable external interrupts
    csr_set(mie, MIE_MEIE); 
f90005e0:	000017b7          	lui	a5,0x1
f90005e4:	80078793          	addi	a5,a5,-2048 # 800 <regnum_t6+0x7e1>
f90005e8:	3047a073          	csrs	mie,a5
    csr_write(mstatus, csr_read(mstatus) | MSTATUS_MPP | MSTATUS_MIE);
f90005ec:	300027f3          	csrr	a5,mstatus
f90005f0:	00002737          	lui	a4,0x2
f90005f4:	80870713          	addi	a4,a4,-2040 # 1808 <regnum_t6+0x17e9>
f90005f8:	00e7e7b3          	or	a5,a5,a4
f90005fc:	30079073          	csrw	mstatus,a5
}
f9000600:	00c12083          	lw	ra,12(sp)
f9000604:	01010113          	addi	sp,sp,16
f9000608:	00008067          	ret

f900060c <crash>:
        plic_release(BSP_PLIC, BSP_PLIC_CPU_0, claim); 
    }
}

//Used on unexpected trap/interrupt codes
void crash(){
f900060c:	ff010113          	addi	sp,sp,-16
f9000610:	00112623          	sw	ra,12(sp)
    bsp_printf("\r\n*** CRASH ***\r\n");
f9000614:	f9080537          	lui	a0,0xf9080
f9000618:	07450513          	addi	a0,a0,116 # f9080074 <__freertos_irq_stack_top+0xffffdee4>
f900061c:	e39ff0ef          	jal	ra,f9000454 <bsp_printf>
    while(1);
f9000620:	0000006f          	j	f9000620 <crash+0x14>

f9000624 <externalInterrupt>:
void externalInterrupt(){
f9000624:	ff010113          	addi	sp,sp,-16
f9000628:	00112623          	sw	ra,12(sp)
f900062c:	00812423          	sw	s0,8(sp)
    while(claim = plic_claim(BSP_PLIC, BSP_PLIC_CPU_0)){
f9000630:	00000593          	li	a1,0
f9000634:	f8c00537          	lui	a0,0xf8c00
f9000638:	de5ff0ef          	jal	ra,f900041c <plic_claim>
f900063c:	00050413          	mv	s0,a0
f9000640:	02050863          	beqz	a0,f9000670 <externalInterrupt+0x4c>
        switch(claim){
f9000644:	00c00793          	li	a5,12
f9000648:	02f41263          	bne	s0,a5,f900066c <externalInterrupt+0x48>
        case SYSTEM_PLIC_SYSTEM_GPIO_0_IO_INTERRUPTS_0: bsp_printf("gpio 0 interrupt routine \r\n"); break;
f900064c:	f9080537          	lui	a0,0xf9080
f9000650:	08850513          	addi	a0,a0,136 # f9080088 <__freertos_irq_stack_top+0xffffdef8>
f9000654:	e01ff0ef          	jal	ra,f9000454 <bsp_printf>
        plic_release(BSP_PLIC, BSP_PLIC_CPU_0, claim); 
f9000658:	00040613          	mv	a2,s0
f900065c:	00000593          	li	a1,0
f9000660:	f8c00537          	lui	a0,0xf8c00
f9000664:	dd5ff0ef          	jal	ra,f9000438 <plic_release>
f9000668:	fc9ff06f          	j	f9000630 <externalInterrupt+0xc>
        default: crash(); break;
f900066c:	fa1ff0ef          	jal	ra,f900060c <crash>
}
f9000670:	00c12083          	lw	ra,12(sp)
f9000674:	00812403          	lw	s0,8(sp)
f9000678:	01010113          	addi	sp,sp,16
f900067c:	00008067          	ret

f9000680 <trap>:
void trap(){
f9000680:	ff010113          	addi	sp,sp,-16
f9000684:	00112623          	sw	ra,12(sp)
    int32_t mcause = csr_read(mcause);
f9000688:	342027f3          	csrr	a5,mcause
    if(interrupt){
f900068c:	0207d263          	bgez	a5,f90006b0 <trap+0x30>
f9000690:	00f7f713          	andi	a4,a5,15
        switch(cause){
f9000694:	00b00793          	li	a5,11
f9000698:	00f71a63          	bne	a4,a5,f90006ac <trap+0x2c>
        case CAUSE_MACHINE_EXTERNAL: externalInterrupt(); break;
f900069c:	f89ff0ef          	jal	ra,f9000624 <externalInterrupt>
}
f90006a0:	00c12083          	lw	ra,12(sp)
f90006a4:	01010113          	addi	sp,sp,16
f90006a8:	00008067          	ret
        default: crash(); break;
f90006ac:	f61ff0ef          	jal	ra,f900060c <crash>
        crash();
f90006b0:	f5dff0ef          	jal	ra,f900060c <crash>

f90006b4 <main>:
}

void main() {
f90006b4:	ff010113          	addi	sp,sp,-16
f90006b8:	00112623          	sw	ra,12(sp)
f90006bc:	00812423          	sw	s0,8(sp)
    bsp_init();
    bsp_printf("gpio 0 demo ! \r\n");
f90006c0:	f9080537          	lui	a0,0xf9080
f90006c4:	0a450513          	addi	a0,a0,164 # f90800a4 <__freertos_irq_stack_top+0xffffdf14>
f90006c8:	d8dff0ef          	jal	ra,f9000454 <bsp_printf>
    bsp_printf("onboard LEDs blinking \r\n");
f90006cc:	f9080537          	lui	a0,0xf9080
f90006d0:	0b850513          	addi	a0,a0,184 # f90800b8 <__freertos_irq_stack_top+0xffffdf28>
f90006d4:	d81ff0ef          	jal	ra,f9000454 <bsp_printf>
f90006d8:	f80167b7          	lui	a5,0xf8016
f90006dc:	00e00713          	li	a4,14
f90006e0:	00e7a423          	sw	a4,8(a5) # f8016008 <__freertos_irq_stack_top+0xfef93e78>
f90006e4:	0007a223          	sw	zero,4(a5)
    //configure 4 bits gpio 0
    gpio_setOutputEnable(GPIO0, 0xe);
    gpio_setOutput(GPIO0, 0x0);
    for (int i=0; i<50; i=i+1) {
f90006e8:	00000413          	li	s0,0
f90006ec:	0300006f          	j	f900071c <main+0x68>
        return *((volatile u32*) address);
f90006f0:	f8016737          	lui	a4,0xf8016
f90006f4:	00472783          	lw	a5,4(a4) # f8016004 <__freertos_irq_stack_top+0xfef93e74>
        gpio_setOutput(GPIO0, gpio_getOutput(GPIO0) ^ 0xe);
f90006f8:	00e7c793          	xori	a5,a5,14
        *((volatile u32*) address) = data;
f90006fc:	00f72223          	sw	a5,4(a4)
        bsp_uDelay(LOOP_UDELAY);
f9000700:	f8b00637          	lui	a2,0xf8b00
f9000704:	017d85b7          	lui	a1,0x17d8
f9000708:	84058593          	addi	a1,a1,-1984 # 17d7840 <__stack_size+0x17d5840>
f900070c:	00018537          	lui	a0,0x18
f9000710:	6a050513          	addi	a0,a0,1696 # 186a0 <__stack_size+0x166a0>
f9000714:	a31ff0ef          	jal	ra,f9000144 <clint_uDelay>
    for (int i=0; i<50; i=i+1) {
f9000718:	00140413          	addi	s0,s0,1
f900071c:	03100793          	li	a5,49
f9000720:	fc87d8e3          	bge	a5,s0,f90006f0 <main+0x3c>
    }   
    bsp_printf("gpio 0 interrupt demo ! \r\n");
f9000724:	f9080537          	lui	a0,0xf9080
f9000728:	0d450513          	addi	a0,a0,212 # f90800d4 <__freertos_irq_stack_top+0xffffdf44>
f900072c:	d29ff0ef          	jal	ra,f9000454 <bsp_printf>
    bsp_printf("Ti180 press and release onboard button sw4 \r\n");
f9000730:	f9080537          	lui	a0,0xf9080
f9000734:	0f050513          	addi	a0,a0,240 # f90800f0 <__freertos_irq_stack_top+0xffffdf60>
f9000738:	d1dff0ef          	jal	ra,f9000454 <bsp_printf>
    bsp_printf("Ti60 press and release onboard button sw6 \r\n");
f900073c:	f9080537          	lui	a0,0xf9080
f9000740:	12050513          	addi	a0,a0,288 # f9080120 <__freertos_irq_stack_top+0xffffdf90>
f9000744:	d11ff0ef          	jal	ra,f9000454 <bsp_printf>
    bsp_printf("T120 press and release onboard button sw7 \r\n");
f9000748:	f9080537          	lui	a0,0xf9080
f900074c:	15050513          	addi	a0,a0,336 # f9080150 <__freertos_irq_stack_top+0xffffdfc0>
f9000750:	d05ff0ef          	jal	ra,f9000454 <bsp_printf>
    init();
f9000754:	e39ff0ef          	jal	ra,f900058c <init>
    while(1); 
f9000758:	0000006f          	j	f9000758 <main+0xa4>

f900075c <trap_entry>:
.global  trap_entry
.align(2) //mtvec require 32 bits allignement
trap_entry:
  addi sp,sp, -16*4
f900075c:	fc010113          	addi	sp,sp,-64
  sw x1,   0*4(sp)
f9000760:	00112023          	sw	ra,0(sp)
  sw x5,   1*4(sp)
f9000764:	00512223          	sw	t0,4(sp)
  sw x6,   2*4(sp)
f9000768:	00612423          	sw	t1,8(sp)
  sw x7,   3*4(sp)
f900076c:	00712623          	sw	t2,12(sp)
  sw x10,  4*4(sp)
f9000770:	00a12823          	sw	a0,16(sp)
  sw x11,  5*4(sp)
f9000774:	00b12a23          	sw	a1,20(sp)
  sw x12,  6*4(sp)
f9000778:	00c12c23          	sw	a2,24(sp)
  sw x13,  7*4(sp)
f900077c:	00d12e23          	sw	a3,28(sp)
  sw x14,  8*4(sp)
f9000780:	02e12023          	sw	a4,32(sp)
  sw x15,  9*4(sp)
f9000784:	02f12223          	sw	a5,36(sp)
  sw x16, 10*4(sp)
f9000788:	03012423          	sw	a6,40(sp)
  sw x17, 11*4(sp)
f900078c:	03112623          	sw	a7,44(sp)
  sw x28, 12*4(sp)
f9000790:	03c12823          	sw	t3,48(sp)
  sw x29, 13*4(sp)
f9000794:	03d12a23          	sw	t4,52(sp)
  sw x30, 14*4(sp)
f9000798:	03e12c23          	sw	t5,56(sp)
  sw x31, 15*4(sp)
f900079c:	03f12e23          	sw	t6,60(sp)
  call trap
f90007a0:	ee1ff0ef          	jal	ra,f9000680 <trap>
  lw x1 ,  0*4(sp)
f90007a4:	00012083          	lw	ra,0(sp)
  lw x5,   1*4(sp)
f90007a8:	00412283          	lw	t0,4(sp)
  lw x6,   2*4(sp)
f90007ac:	00812303          	lw	t1,8(sp)
  lw x7,   3*4(sp)
f90007b0:	00c12383          	lw	t2,12(sp)
  lw x10,  4*4(sp)
f90007b4:	01012503          	lw	a0,16(sp)
  lw x11,  5*4(sp)
f90007b8:	01412583          	lw	a1,20(sp)
  lw x12,  6*4(sp)
f90007bc:	01812603          	lw	a2,24(sp)
  lw x13,  7*4(sp)
f90007c0:	01c12683          	lw	a3,28(sp)
  lw x14,  8*4(sp)
f90007c4:	02012703          	lw	a4,32(sp)
  lw x15,  9*4(sp)
f90007c8:	02412783          	lw	a5,36(sp)
  lw x16, 10*4(sp)
f90007cc:	02812803          	lw	a6,40(sp)
  lw x17, 11*4(sp)
f90007d0:	02c12883          	lw	a7,44(sp)
  lw x28, 12*4(sp)
f90007d4:	03012e03          	lw	t3,48(sp)
  lw x29, 13*4(sp)
f90007d8:	03412e83          	lw	t4,52(sp)
  lw x30, 14*4(sp)
f90007dc:	03812f03          	lw	t5,56(sp)
  lw x31, 15*4(sp)
f90007e0:	03c12f83          	lw	t6,60(sp)
  addi sp,sp, 16*4
f90007e4:	04010113          	addi	sp,sp,64
  mret
f90007e8:	30200073          	mret
